ARM GAS  /tmp/ccEIExPI.s 			page 1


   1              		.cpu cortex-m0
   2              		.eabi_attribute 20, 1
   3              		.eabi_attribute 21, 1
   4              		.eabi_attribute 23, 3
   5              		.eabi_attribute 24, 1
   6              		.eabi_attribute 25, 1
   7              		.eabi_attribute 26, 1
   8              		.eabi_attribute 30, 1
   9              		.eabi_attribute 34, 0
  10              		.eabi_attribute 18, 4
  11              		.file	"stm32f0xx_hal_pcd.c"
  12              		.text
  13              	.Ltext0:
  14              		.cfi_sections	.debug_frame
  15              		.section	.text.HAL_PCD_MspInit,"ax",%progbits
  16              		.align	1
  17              		.weak	HAL_PCD_MspInit
  18              		.arch armv6s-m
  19              		.syntax unified
  20              		.code	16
  21              		.thumb_func
  22              		.fpu softvfp
  24              	HAL_PCD_MspInit:
  25              	.LVL0:
  26              	.LFB39:
  27              		.file 1 "Drivers/STM32F0xx_HAL_Driver/Src/stm32f0xx_hal_pcd.c"
   1:Drivers/STM32F0xx_HAL_Driver/Src/stm32f0xx_hal_pcd.c **** /**
   2:Drivers/STM32F0xx_HAL_Driver/Src/stm32f0xx_hal_pcd.c ****   ******************************************************************************
   3:Drivers/STM32F0xx_HAL_Driver/Src/stm32f0xx_hal_pcd.c ****   * @file    stm32f0xx_hal_pcd.c
   4:Drivers/STM32F0xx_HAL_Driver/Src/stm32f0xx_hal_pcd.c ****   * @author  MCD Application Team
   5:Drivers/STM32F0xx_HAL_Driver/Src/stm32f0xx_hal_pcd.c ****   * @brief   PCD HAL module driver.
   6:Drivers/STM32F0xx_HAL_Driver/Src/stm32f0xx_hal_pcd.c ****   *          This file provides firmware functions to manage the following 
   7:Drivers/STM32F0xx_HAL_Driver/Src/stm32f0xx_hal_pcd.c ****   *          functionalities of the USB Peripheral Controller:
   8:Drivers/STM32F0xx_HAL_Driver/Src/stm32f0xx_hal_pcd.c ****   *           + Initialization and de-initialization functions
   9:Drivers/STM32F0xx_HAL_Driver/Src/stm32f0xx_hal_pcd.c ****   *           + IO operation functions
  10:Drivers/STM32F0xx_HAL_Driver/Src/stm32f0xx_hal_pcd.c ****   *           + Peripheral Control functions 
  11:Drivers/STM32F0xx_HAL_Driver/Src/stm32f0xx_hal_pcd.c ****   *           + Peripheral State functions
  12:Drivers/STM32F0xx_HAL_Driver/Src/stm32f0xx_hal_pcd.c ****   *         
  13:Drivers/STM32F0xx_HAL_Driver/Src/stm32f0xx_hal_pcd.c ****   @verbatim
  14:Drivers/STM32F0xx_HAL_Driver/Src/stm32f0xx_hal_pcd.c ****   ==============================================================================
  15:Drivers/STM32F0xx_HAL_Driver/Src/stm32f0xx_hal_pcd.c ****                     ##### How to use this driver #####
  16:Drivers/STM32F0xx_HAL_Driver/Src/stm32f0xx_hal_pcd.c ****   ==============================================================================
  17:Drivers/STM32F0xx_HAL_Driver/Src/stm32f0xx_hal_pcd.c ****     [..]
  18:Drivers/STM32F0xx_HAL_Driver/Src/stm32f0xx_hal_pcd.c ****       The PCD HAL driver can be used as follows:
  19:Drivers/STM32F0xx_HAL_Driver/Src/stm32f0xx_hal_pcd.c **** 
  20:Drivers/STM32F0xx_HAL_Driver/Src/stm32f0xx_hal_pcd.c ****      (#) Declare a PCD_HandleTypeDef handle structure, for example:
  21:Drivers/STM32F0xx_HAL_Driver/Src/stm32f0xx_hal_pcd.c ****          PCD_HandleTypeDef  hpcd;
  22:Drivers/STM32F0xx_HAL_Driver/Src/stm32f0xx_hal_pcd.c ****         
  23:Drivers/STM32F0xx_HAL_Driver/Src/stm32f0xx_hal_pcd.c ****      (#) Fill parameters of Init structure in HCD handle
  24:Drivers/STM32F0xx_HAL_Driver/Src/stm32f0xx_hal_pcd.c ****   
  25:Drivers/STM32F0xx_HAL_Driver/Src/stm32f0xx_hal_pcd.c ****      (#) Call HAL_PCD_Init() API to initialize the HCD peripheral (Core, Device core, ...) 
  26:Drivers/STM32F0xx_HAL_Driver/Src/stm32f0xx_hal_pcd.c **** 
  27:Drivers/STM32F0xx_HAL_Driver/Src/stm32f0xx_hal_pcd.c ****      (#) Initialize the PCD low level resources through the HAL_PCD_MspInit() API:
  28:Drivers/STM32F0xx_HAL_Driver/Src/stm32f0xx_hal_pcd.c ****          (##) Enable the PCD/USB Low Level interface clock using 
  29:Drivers/STM32F0xx_HAL_Driver/Src/stm32f0xx_hal_pcd.c ****               (+++) __HAL_RCC_USB_CLK_ENABLE);
  30:Drivers/STM32F0xx_HAL_Driver/Src/stm32f0xx_hal_pcd.c ****            
  31:Drivers/STM32F0xx_HAL_Driver/Src/stm32f0xx_hal_pcd.c ****          (##) Initialize the related GPIO clocks
ARM GAS  /tmp/ccEIExPI.s 			page 2


  32:Drivers/STM32F0xx_HAL_Driver/Src/stm32f0xx_hal_pcd.c ****          (##) Configure PCD pin-out
  33:Drivers/STM32F0xx_HAL_Driver/Src/stm32f0xx_hal_pcd.c ****          (##) Configure PCD NVIC interrupt
  34:Drivers/STM32F0xx_HAL_Driver/Src/stm32f0xx_hal_pcd.c ****     
  35:Drivers/STM32F0xx_HAL_Driver/Src/stm32f0xx_hal_pcd.c ****      (#)Associate the Upper USB device stack to the HAL PCD Driver:
  36:Drivers/STM32F0xx_HAL_Driver/Src/stm32f0xx_hal_pcd.c ****          (##) hpcd.pData = pdev;
  37:Drivers/STM32F0xx_HAL_Driver/Src/stm32f0xx_hal_pcd.c **** 
  38:Drivers/STM32F0xx_HAL_Driver/Src/stm32f0xx_hal_pcd.c ****      (#)Enable HCD transmission and reception:
  39:Drivers/STM32F0xx_HAL_Driver/Src/stm32f0xx_hal_pcd.c ****          (##) HAL_PCD_Start();
  40:Drivers/STM32F0xx_HAL_Driver/Src/stm32f0xx_hal_pcd.c **** 
  41:Drivers/STM32F0xx_HAL_Driver/Src/stm32f0xx_hal_pcd.c ****   @endverbatim
  42:Drivers/STM32F0xx_HAL_Driver/Src/stm32f0xx_hal_pcd.c ****   ******************************************************************************
  43:Drivers/STM32F0xx_HAL_Driver/Src/stm32f0xx_hal_pcd.c ****   * @attention
  44:Drivers/STM32F0xx_HAL_Driver/Src/stm32f0xx_hal_pcd.c ****   *
  45:Drivers/STM32F0xx_HAL_Driver/Src/stm32f0xx_hal_pcd.c ****   * <h2><center>&copy; COPYRIGHT(c) 2016 STMicroelectronics</center></h2>
  46:Drivers/STM32F0xx_HAL_Driver/Src/stm32f0xx_hal_pcd.c ****   *
  47:Drivers/STM32F0xx_HAL_Driver/Src/stm32f0xx_hal_pcd.c ****   * Redistribution and use in source and binary forms, with or without modification,
  48:Drivers/STM32F0xx_HAL_Driver/Src/stm32f0xx_hal_pcd.c ****   * are permitted provided that the following conditions are met:
  49:Drivers/STM32F0xx_HAL_Driver/Src/stm32f0xx_hal_pcd.c ****   *   1. Redistributions of source code must retain the above copyright notice,
  50:Drivers/STM32F0xx_HAL_Driver/Src/stm32f0xx_hal_pcd.c ****   *      this list of conditions and the following disclaimer.
  51:Drivers/STM32F0xx_HAL_Driver/Src/stm32f0xx_hal_pcd.c ****   *   2. Redistributions in binary form must reproduce the above copyright notice,
  52:Drivers/STM32F0xx_HAL_Driver/Src/stm32f0xx_hal_pcd.c ****   *      this list of conditions and the following disclaimer in the documentation
  53:Drivers/STM32F0xx_HAL_Driver/Src/stm32f0xx_hal_pcd.c ****   *      and/or other materials provided with the distribution.
  54:Drivers/STM32F0xx_HAL_Driver/Src/stm32f0xx_hal_pcd.c ****   *   3. Neither the name of STMicroelectronics nor the names of its contributors
  55:Drivers/STM32F0xx_HAL_Driver/Src/stm32f0xx_hal_pcd.c ****   *      may be used to endorse or promote products derived from this software
  56:Drivers/STM32F0xx_HAL_Driver/Src/stm32f0xx_hal_pcd.c ****   *      without specific prior written permission.
  57:Drivers/STM32F0xx_HAL_Driver/Src/stm32f0xx_hal_pcd.c ****   *
  58:Drivers/STM32F0xx_HAL_Driver/Src/stm32f0xx_hal_pcd.c ****   * THIS SOFTWARE IS PROVIDED BY THE COPYRIGHT HOLDERS AND CONTRIBUTORS "AS IS"
  59:Drivers/STM32F0xx_HAL_Driver/Src/stm32f0xx_hal_pcd.c ****   * AND ANY EXPRESS OR IMPLIED WARRANTIES, INCLUDING, BUT NOT LIMITED TO, THE
  60:Drivers/STM32F0xx_HAL_Driver/Src/stm32f0xx_hal_pcd.c ****   * IMPLIED WARRANTIES OF MERCHANTABILITY AND FITNESS FOR A PARTICULAR PURPOSE ARE
  61:Drivers/STM32F0xx_HAL_Driver/Src/stm32f0xx_hal_pcd.c ****   * DISCLAIMED. IN NO EVENT SHALL THE COPYRIGHT HOLDER OR CONTRIBUTORS BE LIABLE
  62:Drivers/STM32F0xx_HAL_Driver/Src/stm32f0xx_hal_pcd.c ****   * FOR ANY DIRECT, INDIRECT, INCIDENTAL, SPECIAL, EXEMPLARY, OR CONSEQUENTIAL
  63:Drivers/STM32F0xx_HAL_Driver/Src/stm32f0xx_hal_pcd.c ****   * DAMAGES (INCLUDING, BUT NOT LIMITED TO, PROCUREMENT OF SUBSTITUTE GOODS OR
  64:Drivers/STM32F0xx_HAL_Driver/Src/stm32f0xx_hal_pcd.c ****   * SERVICES; LOSS OF USE, DATA, OR PROFITS; OR BUSINESS INTERRUPTION) HOWEVER
  65:Drivers/STM32F0xx_HAL_Driver/Src/stm32f0xx_hal_pcd.c ****   * CAUSED AND ON ANY THEORY OF LIABILITY, WHETHER IN CONTRACT, STRICT LIABILITY,
  66:Drivers/STM32F0xx_HAL_Driver/Src/stm32f0xx_hal_pcd.c ****   * OR TORT (INCLUDING NEGLIGENCE OR OTHERWISE) ARISING IN ANY WAY OUT OF THE USE
  67:Drivers/STM32F0xx_HAL_Driver/Src/stm32f0xx_hal_pcd.c ****   * OF THIS SOFTWARE, EVEN IF ADVISED OF THE POSSIBILITY OF SUCH DAMAGE.
  68:Drivers/STM32F0xx_HAL_Driver/Src/stm32f0xx_hal_pcd.c ****   *
  69:Drivers/STM32F0xx_HAL_Driver/Src/stm32f0xx_hal_pcd.c ****   ******************************************************************************
  70:Drivers/STM32F0xx_HAL_Driver/Src/stm32f0xx_hal_pcd.c ****   */
  71:Drivers/STM32F0xx_HAL_Driver/Src/stm32f0xx_hal_pcd.c **** 
  72:Drivers/STM32F0xx_HAL_Driver/Src/stm32f0xx_hal_pcd.c **** /* Includes ------------------------------------------------------------------*/
  73:Drivers/STM32F0xx_HAL_Driver/Src/stm32f0xx_hal_pcd.c **** #include "stm32f0xx_hal.h"
  74:Drivers/STM32F0xx_HAL_Driver/Src/stm32f0xx_hal_pcd.c **** 
  75:Drivers/STM32F0xx_HAL_Driver/Src/stm32f0xx_hal_pcd.c **** /** @addtogroup STM32F0xx_HAL_Driver
  76:Drivers/STM32F0xx_HAL_Driver/Src/stm32f0xx_hal_pcd.c ****   * @{
  77:Drivers/STM32F0xx_HAL_Driver/Src/stm32f0xx_hal_pcd.c ****   */
  78:Drivers/STM32F0xx_HAL_Driver/Src/stm32f0xx_hal_pcd.c **** 
  79:Drivers/STM32F0xx_HAL_Driver/Src/stm32f0xx_hal_pcd.c **** #ifdef HAL_PCD_MODULE_ENABLED
  80:Drivers/STM32F0xx_HAL_Driver/Src/stm32f0xx_hal_pcd.c **** 
  81:Drivers/STM32F0xx_HAL_Driver/Src/stm32f0xx_hal_pcd.c **** #if defined(STM32F042x6) || defined(STM32F048xx) || defined(STM32F072xB) || defined(STM32F078xx) ||
  82:Drivers/STM32F0xx_HAL_Driver/Src/stm32f0xx_hal_pcd.c **** 
  83:Drivers/STM32F0xx_HAL_Driver/Src/stm32f0xx_hal_pcd.c **** /** @defgroup PCD PCD
  84:Drivers/STM32F0xx_HAL_Driver/Src/stm32f0xx_hal_pcd.c ****   * @brief PCD HAL module driver
  85:Drivers/STM32F0xx_HAL_Driver/Src/stm32f0xx_hal_pcd.c ****   * @{
  86:Drivers/STM32F0xx_HAL_Driver/Src/stm32f0xx_hal_pcd.c ****   */
  87:Drivers/STM32F0xx_HAL_Driver/Src/stm32f0xx_hal_pcd.c **** 
  88:Drivers/STM32F0xx_HAL_Driver/Src/stm32f0xx_hal_pcd.c **** /* Private typedef -----------------------------------------------------------*/
ARM GAS  /tmp/ccEIExPI.s 			page 3


  89:Drivers/STM32F0xx_HAL_Driver/Src/stm32f0xx_hal_pcd.c **** /* Private define ------------------------------------------------------------*/
  90:Drivers/STM32F0xx_HAL_Driver/Src/stm32f0xx_hal_pcd.c **** 
  91:Drivers/STM32F0xx_HAL_Driver/Src/stm32f0xx_hal_pcd.c **** /** @defgroup PCD_Private_Define PCD Private Define
  92:Drivers/STM32F0xx_HAL_Driver/Src/stm32f0xx_hal_pcd.c ****   * @{
  93:Drivers/STM32F0xx_HAL_Driver/Src/stm32f0xx_hal_pcd.c ****   */
  94:Drivers/STM32F0xx_HAL_Driver/Src/stm32f0xx_hal_pcd.c **** #define BTABLE_ADDRESS                  (0x000)  
  95:Drivers/STM32F0xx_HAL_Driver/Src/stm32f0xx_hal_pcd.c **** /**
  96:Drivers/STM32F0xx_HAL_Driver/Src/stm32f0xx_hal_pcd.c ****   * @}
  97:Drivers/STM32F0xx_HAL_Driver/Src/stm32f0xx_hal_pcd.c ****   */ 
  98:Drivers/STM32F0xx_HAL_Driver/Src/stm32f0xx_hal_pcd.c ****   
  99:Drivers/STM32F0xx_HAL_Driver/Src/stm32f0xx_hal_pcd.c **** /* Private macro -------------------------------------------------------------*/
 100:Drivers/STM32F0xx_HAL_Driver/Src/stm32f0xx_hal_pcd.c **** /* Private variables ---------------------------------------------------------*/
 101:Drivers/STM32F0xx_HAL_Driver/Src/stm32f0xx_hal_pcd.c **** /* Private function prototypes -----------------------------------------------*/
 102:Drivers/STM32F0xx_HAL_Driver/Src/stm32f0xx_hal_pcd.c **** /** @defgroup PCD_Private_Functions PCD Private Functions
 103:Drivers/STM32F0xx_HAL_Driver/Src/stm32f0xx_hal_pcd.c ****   * @{
 104:Drivers/STM32F0xx_HAL_Driver/Src/stm32f0xx_hal_pcd.c ****   */
 105:Drivers/STM32F0xx_HAL_Driver/Src/stm32f0xx_hal_pcd.c **** static HAL_StatusTypeDef PCD_EP_ISR_Handler(PCD_HandleTypeDef *hpcd);
 106:Drivers/STM32F0xx_HAL_Driver/Src/stm32f0xx_hal_pcd.c **** void PCD_WritePMA(USB_TypeDef  *USBx, uint8_t *pbUsrBuf, uint16_t wPMABufAddr, uint16_t wNBytes);
 107:Drivers/STM32F0xx_HAL_Driver/Src/stm32f0xx_hal_pcd.c **** void PCD_ReadPMA(USB_TypeDef  *USBx, uint8_t *pbUsrBuf, uint16_t wPMABufAddr, uint16_t wNBytes);
 108:Drivers/STM32F0xx_HAL_Driver/Src/stm32f0xx_hal_pcd.c **** /**
 109:Drivers/STM32F0xx_HAL_Driver/Src/stm32f0xx_hal_pcd.c ****   * @}
 110:Drivers/STM32F0xx_HAL_Driver/Src/stm32f0xx_hal_pcd.c ****   */ 
 111:Drivers/STM32F0xx_HAL_Driver/Src/stm32f0xx_hal_pcd.c **** 
 112:Drivers/STM32F0xx_HAL_Driver/Src/stm32f0xx_hal_pcd.c **** /* Exported functions --------------------------------------------------------*/
 113:Drivers/STM32F0xx_HAL_Driver/Src/stm32f0xx_hal_pcd.c **** /** @defgroup PCD_Exported_Functions PCD Exported Functions
 114:Drivers/STM32F0xx_HAL_Driver/Src/stm32f0xx_hal_pcd.c ****   * @{
 115:Drivers/STM32F0xx_HAL_Driver/Src/stm32f0xx_hal_pcd.c ****   */
 116:Drivers/STM32F0xx_HAL_Driver/Src/stm32f0xx_hal_pcd.c **** 
 117:Drivers/STM32F0xx_HAL_Driver/Src/stm32f0xx_hal_pcd.c **** /** @defgroup PCD_Exported_Functions_Group1 Initialization and de-initialization functions 
 118:Drivers/STM32F0xx_HAL_Driver/Src/stm32f0xx_hal_pcd.c ****  *  @brief    Initialization and Configuration functions 
 119:Drivers/STM32F0xx_HAL_Driver/Src/stm32f0xx_hal_pcd.c ****  *
 120:Drivers/STM32F0xx_HAL_Driver/Src/stm32f0xx_hal_pcd.c **** @verbatim
 121:Drivers/STM32F0xx_HAL_Driver/Src/stm32f0xx_hal_pcd.c ****  ===============================================================================
 122:Drivers/STM32F0xx_HAL_Driver/Src/stm32f0xx_hal_pcd.c ****             ##### Initialization and de-initialization functions #####
 123:Drivers/STM32F0xx_HAL_Driver/Src/stm32f0xx_hal_pcd.c ****  ===============================================================================
 124:Drivers/STM32F0xx_HAL_Driver/Src/stm32f0xx_hal_pcd.c ****     [..]  This section provides functions allowing to:
 125:Drivers/STM32F0xx_HAL_Driver/Src/stm32f0xx_hal_pcd.c ****  
 126:Drivers/STM32F0xx_HAL_Driver/Src/stm32f0xx_hal_pcd.c **** @endverbatim
 127:Drivers/STM32F0xx_HAL_Driver/Src/stm32f0xx_hal_pcd.c ****   * @{
 128:Drivers/STM32F0xx_HAL_Driver/Src/stm32f0xx_hal_pcd.c ****   */
 129:Drivers/STM32F0xx_HAL_Driver/Src/stm32f0xx_hal_pcd.c **** 
 130:Drivers/STM32F0xx_HAL_Driver/Src/stm32f0xx_hal_pcd.c **** /**
 131:Drivers/STM32F0xx_HAL_Driver/Src/stm32f0xx_hal_pcd.c ****   * @brief  Initializes the PCD according to the specified
 132:Drivers/STM32F0xx_HAL_Driver/Src/stm32f0xx_hal_pcd.c ****   *         parameters in the PCD_InitTypeDef and create the associated handle.
 133:Drivers/STM32F0xx_HAL_Driver/Src/stm32f0xx_hal_pcd.c ****   * @param  hpcd PCD handle
 134:Drivers/STM32F0xx_HAL_Driver/Src/stm32f0xx_hal_pcd.c ****   * @retval HAL status
 135:Drivers/STM32F0xx_HAL_Driver/Src/stm32f0xx_hal_pcd.c ****   */
 136:Drivers/STM32F0xx_HAL_Driver/Src/stm32f0xx_hal_pcd.c **** HAL_StatusTypeDef HAL_PCD_Init(PCD_HandleTypeDef *hpcd)
 137:Drivers/STM32F0xx_HAL_Driver/Src/stm32f0xx_hal_pcd.c **** { 
 138:Drivers/STM32F0xx_HAL_Driver/Src/stm32f0xx_hal_pcd.c ****   uint32_t i = 0U;
 139:Drivers/STM32F0xx_HAL_Driver/Src/stm32f0xx_hal_pcd.c **** 
 140:Drivers/STM32F0xx_HAL_Driver/Src/stm32f0xx_hal_pcd.c ****   uint32_t wInterrupt_Mask = 0U;
 141:Drivers/STM32F0xx_HAL_Driver/Src/stm32f0xx_hal_pcd.c ****   
 142:Drivers/STM32F0xx_HAL_Driver/Src/stm32f0xx_hal_pcd.c ****   /* Check the PCD handle allocation */
 143:Drivers/STM32F0xx_HAL_Driver/Src/stm32f0xx_hal_pcd.c ****   if(hpcd == NULL)
 144:Drivers/STM32F0xx_HAL_Driver/Src/stm32f0xx_hal_pcd.c ****   {
 145:Drivers/STM32F0xx_HAL_Driver/Src/stm32f0xx_hal_pcd.c ****     return HAL_ERROR;
ARM GAS  /tmp/ccEIExPI.s 			page 4


 146:Drivers/STM32F0xx_HAL_Driver/Src/stm32f0xx_hal_pcd.c ****   }
 147:Drivers/STM32F0xx_HAL_Driver/Src/stm32f0xx_hal_pcd.c ****   
 148:Drivers/STM32F0xx_HAL_Driver/Src/stm32f0xx_hal_pcd.c ****   /* Check the parameters */
 149:Drivers/STM32F0xx_HAL_Driver/Src/stm32f0xx_hal_pcd.c ****   assert_param(IS_PCD_ALL_INSTANCE(hpcd->Instance));
 150:Drivers/STM32F0xx_HAL_Driver/Src/stm32f0xx_hal_pcd.c **** 
 151:Drivers/STM32F0xx_HAL_Driver/Src/stm32f0xx_hal_pcd.c ****   if(hpcd->State == HAL_PCD_STATE_RESET)
 152:Drivers/STM32F0xx_HAL_Driver/Src/stm32f0xx_hal_pcd.c ****   {  
 153:Drivers/STM32F0xx_HAL_Driver/Src/stm32f0xx_hal_pcd.c ****     /* Allocate lock resource and initialize it */
 154:Drivers/STM32F0xx_HAL_Driver/Src/stm32f0xx_hal_pcd.c ****     hpcd->Lock = HAL_UNLOCKED;
 155:Drivers/STM32F0xx_HAL_Driver/Src/stm32f0xx_hal_pcd.c ****   
 156:Drivers/STM32F0xx_HAL_Driver/Src/stm32f0xx_hal_pcd.c ****     /* Init the low level hardware : GPIO, CLOCK, NVIC... */
 157:Drivers/STM32F0xx_HAL_Driver/Src/stm32f0xx_hal_pcd.c ****     HAL_PCD_MspInit(hpcd);
 158:Drivers/STM32F0xx_HAL_Driver/Src/stm32f0xx_hal_pcd.c ****   }
 159:Drivers/STM32F0xx_HAL_Driver/Src/stm32f0xx_hal_pcd.c **** 
 160:Drivers/STM32F0xx_HAL_Driver/Src/stm32f0xx_hal_pcd.c ****   hpcd->State = HAL_PCD_STATE_BUSY;
 161:Drivers/STM32F0xx_HAL_Driver/Src/stm32f0xx_hal_pcd.c ****  
 162:Drivers/STM32F0xx_HAL_Driver/Src/stm32f0xx_hal_pcd.c ****  /* Init endpoints structures */
 163:Drivers/STM32F0xx_HAL_Driver/Src/stm32f0xx_hal_pcd.c ****  for (i = 0U; i < hpcd->Init.dev_endpoints ; i++)
 164:Drivers/STM32F0xx_HAL_Driver/Src/stm32f0xx_hal_pcd.c ****  {
 165:Drivers/STM32F0xx_HAL_Driver/Src/stm32f0xx_hal_pcd.c ****    /* Init ep structure */
 166:Drivers/STM32F0xx_HAL_Driver/Src/stm32f0xx_hal_pcd.c ****    hpcd->IN_ep[i].is_in = 1U;
 167:Drivers/STM32F0xx_HAL_Driver/Src/stm32f0xx_hal_pcd.c ****    hpcd->IN_ep[i].num = i;
 168:Drivers/STM32F0xx_HAL_Driver/Src/stm32f0xx_hal_pcd.c ****    /* Control until ep is actvated */
 169:Drivers/STM32F0xx_HAL_Driver/Src/stm32f0xx_hal_pcd.c ****    hpcd->IN_ep[i].type = PCD_EP_TYPE_CTRL;
 170:Drivers/STM32F0xx_HAL_Driver/Src/stm32f0xx_hal_pcd.c ****    hpcd->IN_ep[i].maxpacket =  0U;
 171:Drivers/STM32F0xx_HAL_Driver/Src/stm32f0xx_hal_pcd.c ****    hpcd->IN_ep[i].xfer_buff = 0U;
 172:Drivers/STM32F0xx_HAL_Driver/Src/stm32f0xx_hal_pcd.c ****    hpcd->IN_ep[i].xfer_len = 0U;
 173:Drivers/STM32F0xx_HAL_Driver/Src/stm32f0xx_hal_pcd.c ****  }
 174:Drivers/STM32F0xx_HAL_Driver/Src/stm32f0xx_hal_pcd.c ****  
 175:Drivers/STM32F0xx_HAL_Driver/Src/stm32f0xx_hal_pcd.c ****  for (i = 0U; i < hpcd->Init.dev_endpoints ; i++)
 176:Drivers/STM32F0xx_HAL_Driver/Src/stm32f0xx_hal_pcd.c ****  {
 177:Drivers/STM32F0xx_HAL_Driver/Src/stm32f0xx_hal_pcd.c ****    hpcd->OUT_ep[i].is_in = 0U;
 178:Drivers/STM32F0xx_HAL_Driver/Src/stm32f0xx_hal_pcd.c ****    hpcd->OUT_ep[i].num = i;
 179:Drivers/STM32F0xx_HAL_Driver/Src/stm32f0xx_hal_pcd.c ****    /* Control until ep is activated */
 180:Drivers/STM32F0xx_HAL_Driver/Src/stm32f0xx_hal_pcd.c ****    hpcd->OUT_ep[i].type = PCD_EP_TYPE_CTRL;
 181:Drivers/STM32F0xx_HAL_Driver/Src/stm32f0xx_hal_pcd.c ****    hpcd->OUT_ep[i].maxpacket = 0U;
 182:Drivers/STM32F0xx_HAL_Driver/Src/stm32f0xx_hal_pcd.c ****    hpcd->OUT_ep[i].xfer_buff = 0U;
 183:Drivers/STM32F0xx_HAL_Driver/Src/stm32f0xx_hal_pcd.c ****    hpcd->OUT_ep[i].xfer_len = 0U;
 184:Drivers/STM32F0xx_HAL_Driver/Src/stm32f0xx_hal_pcd.c ****  }
 185:Drivers/STM32F0xx_HAL_Driver/Src/stm32f0xx_hal_pcd.c ****   
 186:Drivers/STM32F0xx_HAL_Driver/Src/stm32f0xx_hal_pcd.c ****  /* Init Device */
 187:Drivers/STM32F0xx_HAL_Driver/Src/stm32f0xx_hal_pcd.c ****  /*CNTR_FRES = 1*/
 188:Drivers/STM32F0xx_HAL_Driver/Src/stm32f0xx_hal_pcd.c ****  hpcd->Instance->CNTR = USB_CNTR_FRES;
 189:Drivers/STM32F0xx_HAL_Driver/Src/stm32f0xx_hal_pcd.c ****  
 190:Drivers/STM32F0xx_HAL_Driver/Src/stm32f0xx_hal_pcd.c ****  /*CNTR_FRES = 0*/
 191:Drivers/STM32F0xx_HAL_Driver/Src/stm32f0xx_hal_pcd.c ****  hpcd->Instance->CNTR = 0;
 192:Drivers/STM32F0xx_HAL_Driver/Src/stm32f0xx_hal_pcd.c ****  
 193:Drivers/STM32F0xx_HAL_Driver/Src/stm32f0xx_hal_pcd.c ****  /*Clear pending interrupts*/
 194:Drivers/STM32F0xx_HAL_Driver/Src/stm32f0xx_hal_pcd.c ****  hpcd->Instance->ISTR = 0;
 195:Drivers/STM32F0xx_HAL_Driver/Src/stm32f0xx_hal_pcd.c ****  
 196:Drivers/STM32F0xx_HAL_Driver/Src/stm32f0xx_hal_pcd.c ****   /*Set Btable Adress*/
 197:Drivers/STM32F0xx_HAL_Driver/Src/stm32f0xx_hal_pcd.c ****  hpcd->Instance->BTABLE = BTABLE_ADDRESS;
 198:Drivers/STM32F0xx_HAL_Driver/Src/stm32f0xx_hal_pcd.c ****   
 199:Drivers/STM32F0xx_HAL_Driver/Src/stm32f0xx_hal_pcd.c ****   /*set wInterrupt_Mask global variable*/
 200:Drivers/STM32F0xx_HAL_Driver/Src/stm32f0xx_hal_pcd.c ****  wInterrupt_Mask = USB_CNTR_CTRM  | USB_CNTR_WKUPM | USB_CNTR_SUSPM | USB_CNTR_ERRM \
 201:Drivers/STM32F0xx_HAL_Driver/Src/stm32f0xx_hal_pcd.c ****    | USB_CNTR_SOFM | USB_CNTR_ESOFM | USB_CNTR_RESETM;
 202:Drivers/STM32F0xx_HAL_Driver/Src/stm32f0xx_hal_pcd.c ****   
ARM GAS  /tmp/ccEIExPI.s 			page 5


 203:Drivers/STM32F0xx_HAL_Driver/Src/stm32f0xx_hal_pcd.c ****   /*Set interrupt mask*/
 204:Drivers/STM32F0xx_HAL_Driver/Src/stm32f0xx_hal_pcd.c ****   hpcd->Instance->CNTR = wInterrupt_Mask;
 205:Drivers/STM32F0xx_HAL_Driver/Src/stm32f0xx_hal_pcd.c ****   
 206:Drivers/STM32F0xx_HAL_Driver/Src/stm32f0xx_hal_pcd.c ****   hpcd->USB_Address = 0U;
 207:Drivers/STM32F0xx_HAL_Driver/Src/stm32f0xx_hal_pcd.c ****   hpcd->State= HAL_PCD_STATE_READY;
 208:Drivers/STM32F0xx_HAL_Driver/Src/stm32f0xx_hal_pcd.c **** 
 209:Drivers/STM32F0xx_HAL_Driver/Src/stm32f0xx_hal_pcd.c ****  return HAL_OK;
 210:Drivers/STM32F0xx_HAL_Driver/Src/stm32f0xx_hal_pcd.c **** }
 211:Drivers/STM32F0xx_HAL_Driver/Src/stm32f0xx_hal_pcd.c **** 
 212:Drivers/STM32F0xx_HAL_Driver/Src/stm32f0xx_hal_pcd.c **** /**
 213:Drivers/STM32F0xx_HAL_Driver/Src/stm32f0xx_hal_pcd.c ****   * @brief  DeInitializes the PCD peripheral 
 214:Drivers/STM32F0xx_HAL_Driver/Src/stm32f0xx_hal_pcd.c ****   * @param  hpcd PCD handle
 215:Drivers/STM32F0xx_HAL_Driver/Src/stm32f0xx_hal_pcd.c ****   * @retval HAL status
 216:Drivers/STM32F0xx_HAL_Driver/Src/stm32f0xx_hal_pcd.c ****   */
 217:Drivers/STM32F0xx_HAL_Driver/Src/stm32f0xx_hal_pcd.c **** HAL_StatusTypeDef HAL_PCD_DeInit(PCD_HandleTypeDef *hpcd)
 218:Drivers/STM32F0xx_HAL_Driver/Src/stm32f0xx_hal_pcd.c **** {
 219:Drivers/STM32F0xx_HAL_Driver/Src/stm32f0xx_hal_pcd.c ****   /* Check the PCD handle allocation */
 220:Drivers/STM32F0xx_HAL_Driver/Src/stm32f0xx_hal_pcd.c ****   if(hpcd == NULL)
 221:Drivers/STM32F0xx_HAL_Driver/Src/stm32f0xx_hal_pcd.c ****   {
 222:Drivers/STM32F0xx_HAL_Driver/Src/stm32f0xx_hal_pcd.c ****     return HAL_ERROR;
 223:Drivers/STM32F0xx_HAL_Driver/Src/stm32f0xx_hal_pcd.c ****   }
 224:Drivers/STM32F0xx_HAL_Driver/Src/stm32f0xx_hal_pcd.c **** 
 225:Drivers/STM32F0xx_HAL_Driver/Src/stm32f0xx_hal_pcd.c ****   hpcd->State = HAL_PCD_STATE_BUSY;
 226:Drivers/STM32F0xx_HAL_Driver/Src/stm32f0xx_hal_pcd.c ****   
 227:Drivers/STM32F0xx_HAL_Driver/Src/stm32f0xx_hal_pcd.c ****   /* Stop Device */
 228:Drivers/STM32F0xx_HAL_Driver/Src/stm32f0xx_hal_pcd.c ****   HAL_PCD_Stop(hpcd);
 229:Drivers/STM32F0xx_HAL_Driver/Src/stm32f0xx_hal_pcd.c ****     
 230:Drivers/STM32F0xx_HAL_Driver/Src/stm32f0xx_hal_pcd.c ****   /* DeInit the low level hardware */
 231:Drivers/STM32F0xx_HAL_Driver/Src/stm32f0xx_hal_pcd.c ****   HAL_PCD_MspDeInit(hpcd);
 232:Drivers/STM32F0xx_HAL_Driver/Src/stm32f0xx_hal_pcd.c ****   
 233:Drivers/STM32F0xx_HAL_Driver/Src/stm32f0xx_hal_pcd.c ****   hpcd->State = HAL_PCD_STATE_RESET; 
 234:Drivers/STM32F0xx_HAL_Driver/Src/stm32f0xx_hal_pcd.c ****   
 235:Drivers/STM32F0xx_HAL_Driver/Src/stm32f0xx_hal_pcd.c ****   return HAL_OK;
 236:Drivers/STM32F0xx_HAL_Driver/Src/stm32f0xx_hal_pcd.c **** }
 237:Drivers/STM32F0xx_HAL_Driver/Src/stm32f0xx_hal_pcd.c **** 
 238:Drivers/STM32F0xx_HAL_Driver/Src/stm32f0xx_hal_pcd.c **** /**
 239:Drivers/STM32F0xx_HAL_Driver/Src/stm32f0xx_hal_pcd.c ****   * @brief  Initializes the PCD MSP.
 240:Drivers/STM32F0xx_HAL_Driver/Src/stm32f0xx_hal_pcd.c ****   * @param  hpcd PCD handle
 241:Drivers/STM32F0xx_HAL_Driver/Src/stm32f0xx_hal_pcd.c ****   * @retval None
 242:Drivers/STM32F0xx_HAL_Driver/Src/stm32f0xx_hal_pcd.c ****   */
 243:Drivers/STM32F0xx_HAL_Driver/Src/stm32f0xx_hal_pcd.c **** __weak void HAL_PCD_MspInit(PCD_HandleTypeDef *hpcd)
 244:Drivers/STM32F0xx_HAL_Driver/Src/stm32f0xx_hal_pcd.c **** {
  28              		.loc 1 244 1 view -0
  29              		.cfi_startproc
  30              		@ args = 0, pretend = 0, frame = 0
  31              		@ frame_needed = 0, uses_anonymous_args = 0
  32              		@ link register save eliminated.
 245:Drivers/STM32F0xx_HAL_Driver/Src/stm32f0xx_hal_pcd.c ****   /* Prevent unused argument(s) compilation warning */
 246:Drivers/STM32F0xx_HAL_Driver/Src/stm32f0xx_hal_pcd.c ****   UNUSED(hpcd);
  33              		.loc 1 246 3 view .LVU1
 247:Drivers/STM32F0xx_HAL_Driver/Src/stm32f0xx_hal_pcd.c **** 
 248:Drivers/STM32F0xx_HAL_Driver/Src/stm32f0xx_hal_pcd.c ****   /* NOTE : This function Should not be modified, when the callback is needed,
 249:Drivers/STM32F0xx_HAL_Driver/Src/stm32f0xx_hal_pcd.c ****             the HAL_PCD_MspInit could be implemented in the user file
 250:Drivers/STM32F0xx_HAL_Driver/Src/stm32f0xx_hal_pcd.c ****    */
 251:Drivers/STM32F0xx_HAL_Driver/Src/stm32f0xx_hal_pcd.c **** }
  34              		.loc 1 251 1 is_stmt 0 view .LVU2
  35              		@ sp needed
ARM GAS  /tmp/ccEIExPI.s 			page 6


  36 0000 7047     		bx	lr
  37              		.cfi_endproc
  38              	.LFE39:
  40              		.section	.text.HAL_PCD_Init,"ax",%progbits
  41              		.align	1
  42              		.global	HAL_PCD_Init
  43              		.syntax unified
  44              		.code	16
  45              		.thumb_func
  46              		.fpu softvfp
  48              	HAL_PCD_Init:
  49              	.LVL1:
  50              	.LFB37:
 137:Drivers/STM32F0xx_HAL_Driver/Src/stm32f0xx_hal_pcd.c ****   uint32_t i = 0U;
  51              		.loc 1 137 1 is_stmt 1 view -0
  52              		.cfi_startproc
  53              		@ args = 0, pretend = 0, frame = 0
  54              		@ frame_needed = 0, uses_anonymous_args = 0
 137:Drivers/STM32F0xx_HAL_Driver/Src/stm32f0xx_hal_pcd.c ****   uint32_t i = 0U;
  55              		.loc 1 137 1 is_stmt 0 view .LVU4
  56 0000 70B5     		push	{r4, r5, r6, lr}
  57              	.LCFI0:
  58              		.cfi_def_cfa_offset 16
  59              		.cfi_offset 4, -16
  60              		.cfi_offset 5, -12
  61              		.cfi_offset 6, -8
  62              		.cfi_offset 14, -4
  63 0002 041E     		subs	r4, r0, #0
 138:Drivers/STM32F0xx_HAL_Driver/Src/stm32f0xx_hal_pcd.c **** 
  64              		.loc 1 138 3 is_stmt 1 view .LVU5
  65              	.LVL2:
 140:Drivers/STM32F0xx_HAL_Driver/Src/stm32f0xx_hal_pcd.c ****   
  66              		.loc 1 140 3 view .LVU6
 143:Drivers/STM32F0xx_HAL_Driver/Src/stm32f0xx_hal_pcd.c ****   {
  67              		.loc 1 143 3 view .LVU7
 143:Drivers/STM32F0xx_HAL_Driver/Src/stm32f0xx_hal_pcd.c ****   {
  68              		.loc 1 143 5 is_stmt 0 view .LVU8
  69 0004 58D0     		beq	.L9
 149:Drivers/STM32F0xx_HAL_Driver/Src/stm32f0xx_hal_pcd.c **** 
  70              		.loc 1 149 3 is_stmt 1 view .LVU9
 151:Drivers/STM32F0xx_HAL_Driver/Src/stm32f0xx_hal_pcd.c ****   {  
  71              		.loc 1 151 3 view .LVU10
 151:Drivers/STM32F0xx_HAL_Driver/Src/stm32f0xx_hal_pcd.c ****   {  
  72              		.loc 1 151 10 is_stmt 0 view .LVU11
  73 0006 EA23     		movs	r3, #234
  74 0008 FF33     		adds	r3, r3, #255
  75 000a C35C     		ldrb	r3, [r0, r3]
 151:Drivers/STM32F0xx_HAL_Driver/Src/stm32f0xx_hal_pcd.c ****   {  
  76              		.loc 1 151 5 view .LVU12
  77 000c 002B     		cmp	r3, #0
  78 000e 1AD0     		beq	.L10
  79              	.LVL3:
  80              	.L4:
 160:Drivers/STM32F0xx_HAL_Driver/Src/stm32f0xx_hal_pcd.c ****  
  81              		.loc 1 160 3 is_stmt 1 view .LVU13
 160:Drivers/STM32F0xx_HAL_Driver/Src/stm32f0xx_hal_pcd.c ****  
  82              		.loc 1 160 15 is_stmt 0 view .LVU14
ARM GAS  /tmp/ccEIExPI.s 			page 7


  83 0010 EA23     		movs	r3, #234
  84 0012 FF33     		adds	r3, r3, #255
  85 0014 0322     		movs	r2, #3
  86 0016 E254     		strb	r2, [r4, r3]
 163:Drivers/STM32F0xx_HAL_Driver/Src/stm32f0xx_hal_pcd.c ****  {
  87              		.loc 1 163 2 is_stmt 1 view .LVU15
 163:Drivers/STM32F0xx_HAL_Driver/Src/stm32f0xx_hal_pcd.c ****  {
  88              		.loc 1 163 9 is_stmt 0 view .LVU16
  89 0018 0022     		movs	r2, #0
  90              	.LVL4:
  91              	.L5:
 163:Drivers/STM32F0xx_HAL_Driver/Src/stm32f0xx_hal_pcd.c ****  {
  92              		.loc 1 163 29 discriminator 1 view .LVU17
  93 001a 6068     		ldr	r0, [r4, #4]
 163:Drivers/STM32F0xx_HAL_Driver/Src/stm32f0xx_hal_pcd.c ****  {
  94              		.loc 1 163 2 discriminator 1 view .LVU18
  95 001c 9042     		cmp	r0, r2
  96 001e 19D9     		bls	.L11
 166:Drivers/STM32F0xx_HAL_Driver/Src/stm32f0xx_hal_pcd.c ****    hpcd->IN_ep[i].num = i;
  97              		.loc 1 166 4 is_stmt 1 discriminator 3 view .LVU19
 166:Drivers/STM32F0xx_HAL_Driver/Src/stm32f0xx_hal_pcd.c ****    hpcd->IN_ep[i].num = i;
  98              		.loc 1 166 25 is_stmt 0 discriminator 3 view .LVU20
  99 0020 D100     		lsls	r1, r2, #3
 100 0022 891A     		subs	r1, r1, r2
 101 0024 8B00     		lsls	r3, r1, #2
 102 0026 E318     		adds	r3, r4, r3
 103 0028 1900     		movs	r1, r3
 104 002a 2931     		adds	r1, r1, #41
 105 002c 0120     		movs	r0, #1
 106 002e 0870     		strb	r0, [r1]
 167:Drivers/STM32F0xx_HAL_Driver/Src/stm32f0xx_hal_pcd.c ****    /* Control until ep is actvated */
 107              		.loc 1 167 4 is_stmt 1 discriminator 3 view .LVU21
 167:Drivers/STM32F0xx_HAL_Driver/Src/stm32f0xx_hal_pcd.c ****    /* Control until ep is actvated */
 108              		.loc 1 167 23 is_stmt 0 discriminator 3 view .LVU22
 109 0030 0139     		subs	r1, r1, #1
 110 0032 0A70     		strb	r2, [r1]
 169:Drivers/STM32F0xx_HAL_Driver/Src/stm32f0xx_hal_pcd.c ****    hpcd->IN_ep[i].maxpacket =  0U;
 111              		.loc 1 169 4 is_stmt 1 discriminator 3 view .LVU23
 169:Drivers/STM32F0xx_HAL_Driver/Src/stm32f0xx_hal_pcd.c ****    hpcd->IN_ep[i].maxpacket =  0U;
 112              		.loc 1 169 24 is_stmt 0 discriminator 3 view .LVU24
 113 0034 1800     		movs	r0, r3
 114 0036 2B30     		adds	r0, r0, #43
 115 0038 0021     		movs	r1, #0
 116 003a 0170     		strb	r1, [r0]
 170:Drivers/STM32F0xx_HAL_Driver/Src/stm32f0xx_hal_pcd.c ****    hpcd->IN_ep[i].xfer_buff = 0U;
 117              		.loc 1 170 4 is_stmt 1 discriminator 3 view .LVU25
 170:Drivers/STM32F0xx_HAL_Driver/Src/stm32f0xx_hal_pcd.c ****    hpcd->IN_ep[i].xfer_buff = 0U;
 118              		.loc 1 170 29 is_stmt 0 discriminator 3 view .LVU26
 119 003c 5963     		str	r1, [r3, #52]
 171:Drivers/STM32F0xx_HAL_Driver/Src/stm32f0xx_hal_pcd.c ****    hpcd->IN_ep[i].xfer_len = 0U;
 120              		.loc 1 171 4 is_stmt 1 discriminator 3 view .LVU27
 171:Drivers/STM32F0xx_HAL_Driver/Src/stm32f0xx_hal_pcd.c ****    hpcd->IN_ep[i].xfer_len = 0U;
 121              		.loc 1 171 29 is_stmt 0 discriminator 3 view .LVU28
 122 003e 9963     		str	r1, [r3, #56]
 172:Drivers/STM32F0xx_HAL_Driver/Src/stm32f0xx_hal_pcd.c ****  }
 123              		.loc 1 172 4 is_stmt 1 discriminator 3 view .LVU29
 172:Drivers/STM32F0xx_HAL_Driver/Src/stm32f0xx_hal_pcd.c ****  }
ARM GAS  /tmp/ccEIExPI.s 			page 8


 124              		.loc 1 172 28 is_stmt 0 discriminator 3 view .LVU30
 125 0040 D963     		str	r1, [r3, #60]
 163:Drivers/STM32F0xx_HAL_Driver/Src/stm32f0xx_hal_pcd.c ****  {
 126              		.loc 1 163 47 discriminator 3 view .LVU31
 127 0042 0132     		adds	r2, r2, #1
 128              	.LVL5:
 163:Drivers/STM32F0xx_HAL_Driver/Src/stm32f0xx_hal_pcd.c ****  {
 129              		.loc 1 163 47 discriminator 3 view .LVU32
 130 0044 E9E7     		b	.L5
 131              	.LVL6:
 132              	.L10:
 154:Drivers/STM32F0xx_HAL_Driver/Src/stm32f0xx_hal_pcd.c ****   
 133              		.loc 1 154 5 is_stmt 1 view .LVU33
 154:Drivers/STM32F0xx_HAL_Driver/Src/stm32f0xx_hal_pcd.c ****   
 134              		.loc 1 154 16 is_stmt 0 view .LVU34
 135 0046 E933     		adds	r3, r3, #233
 136 0048 FF33     		adds	r3, r3, #255
 137 004a 0022     		movs	r2, #0
 138 004c C254     		strb	r2, [r0, r3]
 157:Drivers/STM32F0xx_HAL_Driver/Src/stm32f0xx_hal_pcd.c ****   }
 139              		.loc 1 157 5 is_stmt 1 view .LVU35
 140 004e FFF7FEFF 		bl	HAL_PCD_MspInit
 141              	.LVL7:
 157:Drivers/STM32F0xx_HAL_Driver/Src/stm32f0xx_hal_pcd.c ****   }
 142              		.loc 1 157 5 is_stmt 0 view .LVU36
 143 0052 DDE7     		b	.L4
 144              	.LVL8:
 145              	.L11:
 175:Drivers/STM32F0xx_HAL_Driver/Src/stm32f0xx_hal_pcd.c ****  {
 146              		.loc 1 175 9 view .LVU37
 147 0054 0022     		movs	r2, #0
 148              	.LVL9:
 149              	.L7:
 175:Drivers/STM32F0xx_HAL_Driver/Src/stm32f0xx_hal_pcd.c ****  {
 150              		.loc 1 175 2 discriminator 1 view .LVU38
 151 0056 9042     		cmp	r0, r2
 152 0058 15D9     		bls	.L12
 177:Drivers/STM32F0xx_HAL_Driver/Src/stm32f0xx_hal_pcd.c ****    hpcd->OUT_ep[i].num = i;
 153              		.loc 1 177 4 is_stmt 1 discriminator 3 view .LVU39
 177:Drivers/STM32F0xx_HAL_Driver/Src/stm32f0xx_hal_pcd.c ****    hpcd->OUT_ep[i].num = i;
 154              		.loc 1 177 26 is_stmt 0 discriminator 3 view .LVU40
 155 005a D100     		lsls	r1, r2, #3
 156 005c 891A     		subs	r1, r1, r2
 157 005e 8B00     		lsls	r3, r1, #2
 158 0060 E318     		adds	r3, r4, r3
 159 0062 1D00     		movs	r5, r3
 160 0064 0A35     		adds	r5, r5, #10
 161 0066 FF35     		adds	r5, r5, #255
 162 0068 0021     		movs	r1, #0
 163 006a 2970     		strb	r1, [r5]
 178:Drivers/STM32F0xx_HAL_Driver/Src/stm32f0xx_hal_pcd.c ****    /* Control until ep is activated */
 164              		.loc 1 178 4 is_stmt 1 discriminator 3 view .LVU41
 178:Drivers/STM32F0xx_HAL_Driver/Src/stm32f0xx_hal_pcd.c ****    /* Control until ep is activated */
 165              		.loc 1 178 24 is_stmt 0 discriminator 3 view .LVU42
 166 006c 013D     		subs	r5, r5, #1
 167 006e 2A70     		strb	r2, [r5]
 180:Drivers/STM32F0xx_HAL_Driver/Src/stm32f0xx_hal_pcd.c ****    hpcd->OUT_ep[i].maxpacket = 0U;
ARM GAS  /tmp/ccEIExPI.s 			page 9


 168              		.loc 1 180 4 is_stmt 1 discriminator 3 view .LVU43
 180:Drivers/STM32F0xx_HAL_Driver/Src/stm32f0xx_hal_pcd.c ****    hpcd->OUT_ep[i].maxpacket = 0U;
 169              		.loc 1 180 25 is_stmt 0 discriminator 3 view .LVU44
 170 0070 0335     		adds	r5, r5, #3
 171 0072 2970     		strb	r1, [r5]
 181:Drivers/STM32F0xx_HAL_Driver/Src/stm32f0xx_hal_pcd.c ****    hpcd->OUT_ep[i].xfer_buff = 0U;
 172              		.loc 1 181 4 is_stmt 1 discriminator 3 view .LVU45
 181:Drivers/STM32F0xx_HAL_Driver/Src/stm32f0xx_hal_pcd.c ****    hpcd->OUT_ep[i].xfer_buff = 0U;
 173              		.loc 1 181 30 is_stmt 0 discriminator 3 view .LVU46
 174 0074 0935     		adds	r5, r5, #9
 175 0076 2960     		str	r1, [r5]
 182:Drivers/STM32F0xx_HAL_Driver/Src/stm32f0xx_hal_pcd.c ****    hpcd->OUT_ep[i].xfer_len = 0U;
 176              		.loc 1 182 4 is_stmt 1 discriminator 3 view .LVU47
 182:Drivers/STM32F0xx_HAL_Driver/Src/stm32f0xx_hal_pcd.c ****    hpcd->OUT_ep[i].xfer_len = 0U;
 177              		.loc 1 182 30 is_stmt 0 discriminator 3 view .LVU48
 178 0078 0435     		adds	r5, r5, #4
 179 007a 2960     		str	r1, [r5]
 183:Drivers/STM32F0xx_HAL_Driver/Src/stm32f0xx_hal_pcd.c ****  }
 180              		.loc 1 183 4 is_stmt 1 discriminator 3 view .LVU49
 183:Drivers/STM32F0xx_HAL_Driver/Src/stm32f0xx_hal_pcd.c ****  }
 181              		.loc 1 183 29 is_stmt 0 discriminator 3 view .LVU50
 182 007c 1D33     		adds	r3, r3, #29
 183 007e FF33     		adds	r3, r3, #255
 184 0080 1960     		str	r1, [r3]
 175:Drivers/STM32F0xx_HAL_Driver/Src/stm32f0xx_hal_pcd.c ****  {
 185              		.loc 1 175 47 discriminator 3 view .LVU51
 186 0082 0132     		adds	r2, r2, #1
 187              	.LVL10:
 175:Drivers/STM32F0xx_HAL_Driver/Src/stm32f0xx_hal_pcd.c ****  {
 188              		.loc 1 175 47 discriminator 3 view .LVU52
 189 0084 E7E7     		b	.L7
 190              	.L12:
 188:Drivers/STM32F0xx_HAL_Driver/Src/stm32f0xx_hal_pcd.c ****  
 191              		.loc 1 188 2 is_stmt 1 view .LVU53
 188:Drivers/STM32F0xx_HAL_Driver/Src/stm32f0xx_hal_pcd.c ****  
 192              		.loc 1 188 23 is_stmt 0 view .LVU54
 193 0086 4023     		movs	r3, #64
 194 0088 0122     		movs	r2, #1
 195              	.LVL11:
 188:Drivers/STM32F0xx_HAL_Driver/Src/stm32f0xx_hal_pcd.c ****  
 196              		.loc 1 188 23 view .LVU55
 197 008a 2168     		ldr	r1, [r4]
 198 008c CA52     		strh	r2, [r1, r3]
 191:Drivers/STM32F0xx_HAL_Driver/Src/stm32f0xx_hal_pcd.c ****  
 199              		.loc 1 191 2 is_stmt 1 view .LVU56
 191:Drivers/STM32F0xx_HAL_Driver/Src/stm32f0xx_hal_pcd.c ****  
 200              		.loc 1 191 23 is_stmt 0 view .LVU57
 201 008e 0022     		movs	r2, #0
 202 0090 2168     		ldr	r1, [r4]
 203 0092 CA52     		strh	r2, [r1, r3]
 194:Drivers/STM32F0xx_HAL_Driver/Src/stm32f0xx_hal_pcd.c ****  
 204              		.loc 1 194 2 is_stmt 1 view .LVU58
 194:Drivers/STM32F0xx_HAL_Driver/Src/stm32f0xx_hal_pcd.c ****  
 205              		.loc 1 194 23 is_stmt 0 view .LVU59
 206 0094 4421     		movs	r1, #68
 207 0096 2068     		ldr	r0, [r4]
 208 0098 4252     		strh	r2, [r0, r1]
ARM GAS  /tmp/ccEIExPI.s 			page 10


 197:Drivers/STM32F0xx_HAL_Driver/Src/stm32f0xx_hal_pcd.c ****   
 209              		.loc 1 197 2 is_stmt 1 view .LVU60
 197:Drivers/STM32F0xx_HAL_Driver/Src/stm32f0xx_hal_pcd.c ****   
 210              		.loc 1 197 25 is_stmt 0 view .LVU61
 211 009a 0C31     		adds	r1, r1, #12
 212 009c 2068     		ldr	r0, [r4]
 213 009e 4252     		strh	r2, [r0, r1]
 200:Drivers/STM32F0xx_HAL_Driver/Src/stm32f0xx_hal_pcd.c ****    | USB_CNTR_SOFM | USB_CNTR_ESOFM | USB_CNTR_RESETM;
 214              		.loc 1 200 2 is_stmt 1 view .LVU62
 215              	.LVL12:
 204:Drivers/STM32F0xx_HAL_Driver/Src/stm32f0xx_hal_pcd.c ****   
 216              		.loc 1 204 3 view .LVU63
 204:Drivers/STM32F0xx_HAL_Driver/Src/stm32f0xx_hal_pcd.c ****   
 217              		.loc 1 204 24 is_stmt 0 view .LVU64
 218 00a0 064A     		ldr	r2, .L13
 219 00a2 2168     		ldr	r1, [r4]
 220 00a4 CA52     		strh	r2, [r1, r3]
 206:Drivers/STM32F0xx_HAL_Driver/Src/stm32f0xx_hal_pcd.c ****   hpcd->State= HAL_PCD_STATE_READY;
 221              		.loc 1 206 3 is_stmt 1 view .LVU65
 206:Drivers/STM32F0xx_HAL_Driver/Src/stm32f0xx_hal_pcd.c ****   hpcd->State= HAL_PCD_STATE_READY;
 222              		.loc 1 206 21 is_stmt 0 view .LVU66
 223 00a6 0022     		movs	r2, #0
 224 00a8 1C3B     		subs	r3, r3, #28
 225 00aa E254     		strb	r2, [r4, r3]
 207:Drivers/STM32F0xx_HAL_Driver/Src/stm32f0xx_hal_pcd.c **** 
 226              		.loc 1 207 3 is_stmt 1 view .LVU67
 207:Drivers/STM32F0xx_HAL_Driver/Src/stm32f0xx_hal_pcd.c **** 
 227              		.loc 1 207 14 is_stmt 0 view .LVU68
 228 00ac 0122     		movs	r2, #1
 229 00ae EA23     		movs	r3, #234
 230 00b0 FF33     		adds	r3, r3, #255
 231 00b2 E254     		strb	r2, [r4, r3]
 209:Drivers/STM32F0xx_HAL_Driver/Src/stm32f0xx_hal_pcd.c **** }
 232              		.loc 1 209 2 is_stmt 1 view .LVU69
 209:Drivers/STM32F0xx_HAL_Driver/Src/stm32f0xx_hal_pcd.c **** }
 233              		.loc 1 209 9 is_stmt 0 view .LVU70
 234 00b4 0020     		movs	r0, #0
 235              	.LVL13:
 236              	.L3:
 210:Drivers/STM32F0xx_HAL_Driver/Src/stm32f0xx_hal_pcd.c **** 
 237              		.loc 1 210 1 view .LVU71
 238              		@ sp needed
 239              	.LVL14:
 210:Drivers/STM32F0xx_HAL_Driver/Src/stm32f0xx_hal_pcd.c **** 
 240              		.loc 1 210 1 view .LVU72
 241 00b6 70BD     		pop	{r4, r5, r6, pc}
 242              	.LVL15:
 243              	.L9:
 145:Drivers/STM32F0xx_HAL_Driver/Src/stm32f0xx_hal_pcd.c ****   }
 244              		.loc 1 145 12 view .LVU73
 245 00b8 0120     		movs	r0, #1
 246              	.LVL16:
 145:Drivers/STM32F0xx_HAL_Driver/Src/stm32f0xx_hal_pcd.c ****   }
 247              		.loc 1 145 12 view .LVU74
 248 00ba FCE7     		b	.L3
 249              	.L14:
 250              		.align	2
ARM GAS  /tmp/ccEIExPI.s 			page 11


 251              	.L13:
 252 00bc 00BFFFFF 		.word	-16640
 253              		.cfi_endproc
 254              	.LFE37:
 256              		.section	.text.HAL_PCD_MspDeInit,"ax",%progbits
 257              		.align	1
 258              		.weak	HAL_PCD_MspDeInit
 259              		.syntax unified
 260              		.code	16
 261              		.thumb_func
 262              		.fpu softvfp
 264              	HAL_PCD_MspDeInit:
 265              	.LVL17:
 266              	.LFB40:
 252:Drivers/STM32F0xx_HAL_Driver/Src/stm32f0xx_hal_pcd.c **** 
 253:Drivers/STM32F0xx_HAL_Driver/Src/stm32f0xx_hal_pcd.c **** /**
 254:Drivers/STM32F0xx_HAL_Driver/Src/stm32f0xx_hal_pcd.c ****   * @brief  DeInitializes PCD MSP.
 255:Drivers/STM32F0xx_HAL_Driver/Src/stm32f0xx_hal_pcd.c ****   * @param  hpcd PCD handle
 256:Drivers/STM32F0xx_HAL_Driver/Src/stm32f0xx_hal_pcd.c ****   * @retval None
 257:Drivers/STM32F0xx_HAL_Driver/Src/stm32f0xx_hal_pcd.c ****   */
 258:Drivers/STM32F0xx_HAL_Driver/Src/stm32f0xx_hal_pcd.c **** __weak void HAL_PCD_MspDeInit(PCD_HandleTypeDef *hpcd)
 259:Drivers/STM32F0xx_HAL_Driver/Src/stm32f0xx_hal_pcd.c **** {
 267              		.loc 1 259 1 is_stmt 1 view -0
 268              		.cfi_startproc
 269              		@ args = 0, pretend = 0, frame = 0
 270              		@ frame_needed = 0, uses_anonymous_args = 0
 271              		@ link register save eliminated.
 260:Drivers/STM32F0xx_HAL_Driver/Src/stm32f0xx_hal_pcd.c ****   /* Prevent unused argument(s) compilation warning */
 261:Drivers/STM32F0xx_HAL_Driver/Src/stm32f0xx_hal_pcd.c ****   UNUSED(hpcd);
 272              		.loc 1 261 3 view .LVU76
 262:Drivers/STM32F0xx_HAL_Driver/Src/stm32f0xx_hal_pcd.c **** 
 263:Drivers/STM32F0xx_HAL_Driver/Src/stm32f0xx_hal_pcd.c ****   /* NOTE : This function Should not be modified, when the callback is needed,
 264:Drivers/STM32F0xx_HAL_Driver/Src/stm32f0xx_hal_pcd.c ****             the HAL_PCD_MspDeInit could be implemented in the user file
 265:Drivers/STM32F0xx_HAL_Driver/Src/stm32f0xx_hal_pcd.c ****    */
 266:Drivers/STM32F0xx_HAL_Driver/Src/stm32f0xx_hal_pcd.c **** }
 273              		.loc 1 266 1 is_stmt 0 view .LVU77
 274              		@ sp needed
 275 0000 7047     		bx	lr
 276              		.cfi_endproc
 277              	.LFE40:
 279              		.section	.text.HAL_PCD_Start,"ax",%progbits
 280              		.align	1
 281              		.global	HAL_PCD_Start
 282              		.syntax unified
 283              		.code	16
 284              		.thumb_func
 285              		.fpu softvfp
 287              	HAL_PCD_Start:
 288              	.LVL18:
 289              	.LFB41:
 267:Drivers/STM32F0xx_HAL_Driver/Src/stm32f0xx_hal_pcd.c **** 
 268:Drivers/STM32F0xx_HAL_Driver/Src/stm32f0xx_hal_pcd.c **** /**
 269:Drivers/STM32F0xx_HAL_Driver/Src/stm32f0xx_hal_pcd.c ****   * @}
 270:Drivers/STM32F0xx_HAL_Driver/Src/stm32f0xx_hal_pcd.c ****   */
 271:Drivers/STM32F0xx_HAL_Driver/Src/stm32f0xx_hal_pcd.c **** 
 272:Drivers/STM32F0xx_HAL_Driver/Src/stm32f0xx_hal_pcd.c **** /** @defgroup PCD_Exported_Functions_Group2 IO operation functions 
 273:Drivers/STM32F0xx_HAL_Driver/Src/stm32f0xx_hal_pcd.c ****  *  @brief   Data transfers functions 
ARM GAS  /tmp/ccEIExPI.s 			page 12


 274:Drivers/STM32F0xx_HAL_Driver/Src/stm32f0xx_hal_pcd.c ****  *
 275:Drivers/STM32F0xx_HAL_Driver/Src/stm32f0xx_hal_pcd.c **** @verbatim   
 276:Drivers/STM32F0xx_HAL_Driver/Src/stm32f0xx_hal_pcd.c ****  ===============================================================================
 277:Drivers/STM32F0xx_HAL_Driver/Src/stm32f0xx_hal_pcd.c ****                       ##### IO operation functions #####
 278:Drivers/STM32F0xx_HAL_Driver/Src/stm32f0xx_hal_pcd.c ****  ===============================================================================  
 279:Drivers/STM32F0xx_HAL_Driver/Src/stm32f0xx_hal_pcd.c ****     [..]
 280:Drivers/STM32F0xx_HAL_Driver/Src/stm32f0xx_hal_pcd.c ****     This subsection provides a set of functions allowing to manage the PCD data 
 281:Drivers/STM32F0xx_HAL_Driver/Src/stm32f0xx_hal_pcd.c ****     transfers.
 282:Drivers/STM32F0xx_HAL_Driver/Src/stm32f0xx_hal_pcd.c **** 
 283:Drivers/STM32F0xx_HAL_Driver/Src/stm32f0xx_hal_pcd.c **** @endverbatim
 284:Drivers/STM32F0xx_HAL_Driver/Src/stm32f0xx_hal_pcd.c ****   * @{
 285:Drivers/STM32F0xx_HAL_Driver/Src/stm32f0xx_hal_pcd.c ****   */
 286:Drivers/STM32F0xx_HAL_Driver/Src/stm32f0xx_hal_pcd.c ****   
 287:Drivers/STM32F0xx_HAL_Driver/Src/stm32f0xx_hal_pcd.c **** /**
 288:Drivers/STM32F0xx_HAL_Driver/Src/stm32f0xx_hal_pcd.c ****   * @brief  Start the USB device.
 289:Drivers/STM32F0xx_HAL_Driver/Src/stm32f0xx_hal_pcd.c ****   * @param  hpcd PCD handle
 290:Drivers/STM32F0xx_HAL_Driver/Src/stm32f0xx_hal_pcd.c ****   * @retval HAL status
 291:Drivers/STM32F0xx_HAL_Driver/Src/stm32f0xx_hal_pcd.c ****   */
 292:Drivers/STM32F0xx_HAL_Driver/Src/stm32f0xx_hal_pcd.c **** HAL_StatusTypeDef HAL_PCD_Start(PCD_HandleTypeDef *hpcd)
 293:Drivers/STM32F0xx_HAL_Driver/Src/stm32f0xx_hal_pcd.c **** { 
 290              		.loc 1 293 1 is_stmt 1 view -0
 291              		.cfi_startproc
 292              		@ args = 0, pretend = 0, frame = 0
 293              		@ frame_needed = 0, uses_anonymous_args = 0
 294              		@ link register save eliminated.
 294:Drivers/STM32F0xx_HAL_Driver/Src/stm32f0xx_hal_pcd.c ****   /* Enabling DP Pull-Down bit to Connect internal pull-up on USB DP line */
 295:Drivers/STM32F0xx_HAL_Driver/Src/stm32f0xx_hal_pcd.c ****   hpcd->Instance->BCDR |= USB_BCDR_DPPU;
 295              		.loc 1 295 3 view .LVU79
 296              		.loc 1 295 7 is_stmt 0 view .LVU80
 297 0000 0168     		ldr	r1, [r0]
 298              		.loc 1 295 24 view .LVU81
 299 0002 5822     		movs	r2, #88
 300 0004 8B5A     		ldrh	r3, [r1, r2]
 301 0006 0348     		ldr	r0, .L17
 302              	.LVL19:
 303              		.loc 1 295 24 view .LVU82
 304 0008 0343     		orrs	r3, r0
 305 000a 9BB2     		uxth	r3, r3
 306 000c 8B52     		strh	r3, [r1, r2]
 296:Drivers/STM32F0xx_HAL_Driver/Src/stm32f0xx_hal_pcd.c ****   
 297:Drivers/STM32F0xx_HAL_Driver/Src/stm32f0xx_hal_pcd.c ****   return HAL_OK;
 307              		.loc 1 297 3 is_stmt 1 view .LVU83
 298:Drivers/STM32F0xx_HAL_Driver/Src/stm32f0xx_hal_pcd.c **** }
 308              		.loc 1 298 1 is_stmt 0 view .LVU84
 309 000e 0020     		movs	r0, #0
 310              		@ sp needed
 311 0010 7047     		bx	lr
 312              	.L18:
 313 0012 C046     		.align	2
 314              	.L17:
 315 0014 0080FFFF 		.word	-32768
 316              		.cfi_endproc
 317              	.LFE41:
 319              		.section	.text.HAL_PCD_Stop,"ax",%progbits
 320              		.align	1
 321              		.global	HAL_PCD_Stop
 322              		.syntax unified
ARM GAS  /tmp/ccEIExPI.s 			page 13


 323              		.code	16
 324              		.thumb_func
 325              		.fpu softvfp
 327              	HAL_PCD_Stop:
 328              	.LVL20:
 329              	.LFB42:
 299:Drivers/STM32F0xx_HAL_Driver/Src/stm32f0xx_hal_pcd.c **** 
 300:Drivers/STM32F0xx_HAL_Driver/Src/stm32f0xx_hal_pcd.c **** /**
 301:Drivers/STM32F0xx_HAL_Driver/Src/stm32f0xx_hal_pcd.c ****   * @brief  Stop the USB device.
 302:Drivers/STM32F0xx_HAL_Driver/Src/stm32f0xx_hal_pcd.c ****   * @param  hpcd PCD handle
 303:Drivers/STM32F0xx_HAL_Driver/Src/stm32f0xx_hal_pcd.c ****   * @retval HAL status
 304:Drivers/STM32F0xx_HAL_Driver/Src/stm32f0xx_hal_pcd.c ****   */
 305:Drivers/STM32F0xx_HAL_Driver/Src/stm32f0xx_hal_pcd.c **** HAL_StatusTypeDef HAL_PCD_Stop(PCD_HandleTypeDef *hpcd)
 306:Drivers/STM32F0xx_HAL_Driver/Src/stm32f0xx_hal_pcd.c **** { 
 330              		.loc 1 306 1 is_stmt 1 view -0
 331              		.cfi_startproc
 332              		@ args = 0, pretend = 0, frame = 0
 333              		@ frame_needed = 0, uses_anonymous_args = 0
 334              		.loc 1 306 1 is_stmt 0 view .LVU86
 335 0000 10B5     		push	{r4, lr}
 336              	.LCFI1:
 337              		.cfi_def_cfa_offset 8
 338              		.cfi_offset 4, -8
 339              		.cfi_offset 14, -4
 307:Drivers/STM32F0xx_HAL_Driver/Src/stm32f0xx_hal_pcd.c ****   __HAL_LOCK(hpcd); 
 340              		.loc 1 307 3 is_stmt 1 view .LVU87
 341              		.loc 1 307 3 view .LVU88
 342 0002 F423     		movs	r3, #244
 343 0004 5B00     		lsls	r3, r3, #1
 344 0006 C35C     		ldrb	r3, [r0, r3]
 345 0008 012B     		cmp	r3, #1
 346 000a 10D0     		beq	.L21
 347              		.loc 1 307 3 discriminator 2 view .LVU89
 308:Drivers/STM32F0xx_HAL_Driver/Src/stm32f0xx_hal_pcd.c ****   
 309:Drivers/STM32F0xx_HAL_Driver/Src/stm32f0xx_hal_pcd.c ****     /* disable all interrupts and force USB reset */
 310:Drivers/STM32F0xx_HAL_Driver/Src/stm32f0xx_hal_pcd.c ****   hpcd->Instance->CNTR = USB_CNTR_FRES;
 348              		.loc 1 310 3 discriminator 2 view .LVU90
 349              		.loc 1 310 24 is_stmt 0 discriminator 2 view .LVU91
 350 000c 4023     		movs	r3, #64
 351 000e 0122     		movs	r2, #1
 352 0010 0168     		ldr	r1, [r0]
 353 0012 CA52     		strh	r2, [r1, r3]
 311:Drivers/STM32F0xx_HAL_Driver/Src/stm32f0xx_hal_pcd.c ****   
 312:Drivers/STM32F0xx_HAL_Driver/Src/stm32f0xx_hal_pcd.c ****   /* clear interrupt status register */
 313:Drivers/STM32F0xx_HAL_Driver/Src/stm32f0xx_hal_pcd.c ****   hpcd->Instance->ISTR = 0;
 354              		.loc 1 313 3 is_stmt 1 discriminator 2 view .LVU92
 355              		.loc 1 313 24 is_stmt 0 discriminator 2 view .LVU93
 356 0014 4332     		adds	r2, r2, #67
 357 0016 0021     		movs	r1, #0
 358 0018 0468     		ldr	r4, [r0]
 359 001a A152     		strh	r1, [r4, r2]
 314:Drivers/STM32F0xx_HAL_Driver/Src/stm32f0xx_hal_pcd.c ****   
 315:Drivers/STM32F0xx_HAL_Driver/Src/stm32f0xx_hal_pcd.c ****   /* switch-off device */
 316:Drivers/STM32F0xx_HAL_Driver/Src/stm32f0xx_hal_pcd.c ****   hpcd->Instance->CNTR = (USB_CNTR_FRES | USB_CNTR_PDWN);
 360              		.loc 1 316 3 is_stmt 1 discriminator 2 view .LVU94
 361              		.loc 1 316 24 is_stmt 0 discriminator 2 view .LVU95
 362 001c 413A     		subs	r2, r2, #65
ARM GAS  /tmp/ccEIExPI.s 			page 14


 363 001e 0168     		ldr	r1, [r0]
 364 0020 CA52     		strh	r2, [r1, r3]
 317:Drivers/STM32F0xx_HAL_Driver/Src/stm32f0xx_hal_pcd.c ****   
 318:Drivers/STM32F0xx_HAL_Driver/Src/stm32f0xx_hal_pcd.c ****   __HAL_UNLOCK(hpcd); 
 365              		.loc 1 318 3 is_stmt 1 discriminator 2 view .LVU96
 366              		.loc 1 318 3 discriminator 2 view .LVU97
 367 0022 0022     		movs	r2, #0
 368 0024 A933     		adds	r3, r3, #169
 369 0026 FF33     		adds	r3, r3, #255
 370 0028 C254     		strb	r2, [r0, r3]
 319:Drivers/STM32F0xx_HAL_Driver/Src/stm32f0xx_hal_pcd.c ****   return HAL_OK;
 371              		.loc 1 319 3 discriminator 2 view .LVU98
 372              		.loc 1 319 10 is_stmt 0 discriminator 2 view .LVU99
 373 002a 0020     		movs	r0, #0
 374              	.LVL21:
 375              	.L20:
 320:Drivers/STM32F0xx_HAL_Driver/Src/stm32f0xx_hal_pcd.c **** }
 376              		.loc 1 320 1 view .LVU100
 377              		@ sp needed
 378 002c 10BD     		pop	{r4, pc}
 379              	.LVL22:
 380              	.L21:
 307:Drivers/STM32F0xx_HAL_Driver/Src/stm32f0xx_hal_pcd.c ****   
 381              		.loc 1 307 3 view .LVU101
 382 002e 0220     		movs	r0, #2
 383              	.LVL23:
 307:Drivers/STM32F0xx_HAL_Driver/Src/stm32f0xx_hal_pcd.c ****   
 384              		.loc 1 307 3 view .LVU102
 385 0030 FCE7     		b	.L20
 386              		.cfi_endproc
 387              	.LFE42:
 389              		.section	.text.HAL_PCD_DeInit,"ax",%progbits
 390              		.align	1
 391              		.global	HAL_PCD_DeInit
 392              		.syntax unified
 393              		.code	16
 394              		.thumb_func
 395              		.fpu softvfp
 397              	HAL_PCD_DeInit:
 398              	.LVL24:
 399              	.LFB38:
 218:Drivers/STM32F0xx_HAL_Driver/Src/stm32f0xx_hal_pcd.c ****   /* Check the PCD handle allocation */
 400              		.loc 1 218 1 is_stmt 1 view -0
 401              		.cfi_startproc
 402              		@ args = 0, pretend = 0, frame = 0
 403              		@ frame_needed = 0, uses_anonymous_args = 0
 218:Drivers/STM32F0xx_HAL_Driver/Src/stm32f0xx_hal_pcd.c ****   /* Check the PCD handle allocation */
 404              		.loc 1 218 1 is_stmt 0 view .LVU104
 405 0000 70B5     		push	{r4, r5, r6, lr}
 406              	.LCFI2:
 407              		.cfi_def_cfa_offset 16
 408              		.cfi_offset 4, -16
 409              		.cfi_offset 5, -12
 410              		.cfi_offset 6, -8
 411              		.cfi_offset 14, -4
 412 0002 041E     		subs	r4, r0, #0
 220:Drivers/STM32F0xx_HAL_Driver/Src/stm32f0xx_hal_pcd.c ****   {
ARM GAS  /tmp/ccEIExPI.s 			page 15


 413              		.loc 1 220 3 is_stmt 1 view .LVU105
 220:Drivers/STM32F0xx_HAL_Driver/Src/stm32f0xx_hal_pcd.c ****   {
 414              		.loc 1 220 5 is_stmt 0 view .LVU106
 415 0004 0CD0     		beq	.L24
 225:Drivers/STM32F0xx_HAL_Driver/Src/stm32f0xx_hal_pcd.c ****   
 416              		.loc 1 225 3 is_stmt 1 view .LVU107
 225:Drivers/STM32F0xx_HAL_Driver/Src/stm32f0xx_hal_pcd.c ****   
 417              		.loc 1 225 15 is_stmt 0 view .LVU108
 418 0006 EA25     		movs	r5, #234
 419 0008 FF35     		adds	r5, r5, #255
 420 000a 0323     		movs	r3, #3
 421 000c 4355     		strb	r3, [r0, r5]
 228:Drivers/STM32F0xx_HAL_Driver/Src/stm32f0xx_hal_pcd.c ****     
 422              		.loc 1 228 3 is_stmt 1 view .LVU109
 423 000e FFF7FEFF 		bl	HAL_PCD_Stop
 424              	.LVL25:
 231:Drivers/STM32F0xx_HAL_Driver/Src/stm32f0xx_hal_pcd.c ****   
 425              		.loc 1 231 3 view .LVU110
 426 0012 2000     		movs	r0, r4
 427 0014 FFF7FEFF 		bl	HAL_PCD_MspDeInit
 428              	.LVL26:
 233:Drivers/STM32F0xx_HAL_Driver/Src/stm32f0xx_hal_pcd.c ****   
 429              		.loc 1 233 3 view .LVU111
 233:Drivers/STM32F0xx_HAL_Driver/Src/stm32f0xx_hal_pcd.c ****   
 430              		.loc 1 233 15 is_stmt 0 view .LVU112
 431 0018 0023     		movs	r3, #0
 432 001a 6355     		strb	r3, [r4, r5]
 235:Drivers/STM32F0xx_HAL_Driver/Src/stm32f0xx_hal_pcd.c **** }
 433              		.loc 1 235 3 is_stmt 1 view .LVU113
 235:Drivers/STM32F0xx_HAL_Driver/Src/stm32f0xx_hal_pcd.c **** }
 434              		.loc 1 235 10 is_stmt 0 view .LVU114
 435 001c 0020     		movs	r0, #0
 436              	.L23:
 236:Drivers/STM32F0xx_HAL_Driver/Src/stm32f0xx_hal_pcd.c **** 
 437              		.loc 1 236 1 view .LVU115
 438              		@ sp needed
 439              	.LVL27:
 236:Drivers/STM32F0xx_HAL_Driver/Src/stm32f0xx_hal_pcd.c **** 
 440              		.loc 1 236 1 view .LVU116
 441 001e 70BD     		pop	{r4, r5, r6, pc}
 442              	.LVL28:
 443              	.L24:
 222:Drivers/STM32F0xx_HAL_Driver/Src/stm32f0xx_hal_pcd.c ****   }
 444              		.loc 1 222 12 view .LVU117
 445 0020 0120     		movs	r0, #1
 446              	.LVL29:
 222:Drivers/STM32F0xx_HAL_Driver/Src/stm32f0xx_hal_pcd.c ****   }
 447              		.loc 1 222 12 view .LVU118
 448 0022 FCE7     		b	.L23
 449              		.cfi_endproc
 450              	.LFE38:
 452              		.section	.text.HAL_PCD_DataOutStageCallback,"ax",%progbits
 453              		.align	1
 454              		.weak	HAL_PCD_DataOutStageCallback
 455              		.syntax unified
 456              		.code	16
 457              		.thumb_func
ARM GAS  /tmp/ccEIExPI.s 			page 16


 458              		.fpu softvfp
 460              	HAL_PCD_DataOutStageCallback:
 461              	.LVL30:
 462              	.LFB44:
 321:Drivers/STM32F0xx_HAL_Driver/Src/stm32f0xx_hal_pcd.c **** 
 322:Drivers/STM32F0xx_HAL_Driver/Src/stm32f0xx_hal_pcd.c **** /**
 323:Drivers/STM32F0xx_HAL_Driver/Src/stm32f0xx_hal_pcd.c ****   * @brief  This function handles PCD interrupt request.
 324:Drivers/STM32F0xx_HAL_Driver/Src/stm32f0xx_hal_pcd.c ****   * @param  hpcd PCD handle
 325:Drivers/STM32F0xx_HAL_Driver/Src/stm32f0xx_hal_pcd.c ****   * @retval HAL status
 326:Drivers/STM32F0xx_HAL_Driver/Src/stm32f0xx_hal_pcd.c ****   */
 327:Drivers/STM32F0xx_HAL_Driver/Src/stm32f0xx_hal_pcd.c **** void HAL_PCD_IRQHandler(PCD_HandleTypeDef *hpcd)
 328:Drivers/STM32F0xx_HAL_Driver/Src/stm32f0xx_hal_pcd.c **** {
 329:Drivers/STM32F0xx_HAL_Driver/Src/stm32f0xx_hal_pcd.c ****   uint32_t wInterrupt_Mask = 0U;
 330:Drivers/STM32F0xx_HAL_Driver/Src/stm32f0xx_hal_pcd.c ****   
 331:Drivers/STM32F0xx_HAL_Driver/Src/stm32f0xx_hal_pcd.c ****   if (__HAL_PCD_GET_FLAG (hpcd, USB_ISTR_CTR))
 332:Drivers/STM32F0xx_HAL_Driver/Src/stm32f0xx_hal_pcd.c ****   {
 333:Drivers/STM32F0xx_HAL_Driver/Src/stm32f0xx_hal_pcd.c ****     /* servicing of the endpoint correct transfer interrupt */
 334:Drivers/STM32F0xx_HAL_Driver/Src/stm32f0xx_hal_pcd.c ****     /* clear of the CTR flag into the sub */
 335:Drivers/STM32F0xx_HAL_Driver/Src/stm32f0xx_hal_pcd.c ****     PCD_EP_ISR_Handler(hpcd);
 336:Drivers/STM32F0xx_HAL_Driver/Src/stm32f0xx_hal_pcd.c ****   }
 337:Drivers/STM32F0xx_HAL_Driver/Src/stm32f0xx_hal_pcd.c **** 
 338:Drivers/STM32F0xx_HAL_Driver/Src/stm32f0xx_hal_pcd.c ****   if (__HAL_PCD_GET_FLAG (hpcd, USB_ISTR_RESET))
 339:Drivers/STM32F0xx_HAL_Driver/Src/stm32f0xx_hal_pcd.c ****   {
 340:Drivers/STM32F0xx_HAL_Driver/Src/stm32f0xx_hal_pcd.c ****     __HAL_PCD_CLEAR_FLAG(hpcd, USB_ISTR_RESET);
 341:Drivers/STM32F0xx_HAL_Driver/Src/stm32f0xx_hal_pcd.c ****     HAL_PCD_ResetCallback(hpcd);
 342:Drivers/STM32F0xx_HAL_Driver/Src/stm32f0xx_hal_pcd.c ****     HAL_PCD_SetAddress(hpcd, 0U);
 343:Drivers/STM32F0xx_HAL_Driver/Src/stm32f0xx_hal_pcd.c ****   }
 344:Drivers/STM32F0xx_HAL_Driver/Src/stm32f0xx_hal_pcd.c **** 
 345:Drivers/STM32F0xx_HAL_Driver/Src/stm32f0xx_hal_pcd.c ****   if (__HAL_PCD_GET_FLAG (hpcd, USB_ISTR_PMAOVR))
 346:Drivers/STM32F0xx_HAL_Driver/Src/stm32f0xx_hal_pcd.c ****   {
 347:Drivers/STM32F0xx_HAL_Driver/Src/stm32f0xx_hal_pcd.c ****     __HAL_PCD_CLEAR_FLAG(hpcd, USB_ISTR_PMAOVR);    
 348:Drivers/STM32F0xx_HAL_Driver/Src/stm32f0xx_hal_pcd.c ****   }
 349:Drivers/STM32F0xx_HAL_Driver/Src/stm32f0xx_hal_pcd.c **** 
 350:Drivers/STM32F0xx_HAL_Driver/Src/stm32f0xx_hal_pcd.c ****   if (__HAL_PCD_GET_FLAG (hpcd, USB_ISTR_ERR))
 351:Drivers/STM32F0xx_HAL_Driver/Src/stm32f0xx_hal_pcd.c ****   {
 352:Drivers/STM32F0xx_HAL_Driver/Src/stm32f0xx_hal_pcd.c ****     __HAL_PCD_CLEAR_FLAG(hpcd, USB_ISTR_ERR); 
 353:Drivers/STM32F0xx_HAL_Driver/Src/stm32f0xx_hal_pcd.c ****   }
 354:Drivers/STM32F0xx_HAL_Driver/Src/stm32f0xx_hal_pcd.c **** 
 355:Drivers/STM32F0xx_HAL_Driver/Src/stm32f0xx_hal_pcd.c ****   if (__HAL_PCD_GET_FLAG (hpcd, USB_ISTR_WKUP))
 356:Drivers/STM32F0xx_HAL_Driver/Src/stm32f0xx_hal_pcd.c ****   {
 357:Drivers/STM32F0xx_HAL_Driver/Src/stm32f0xx_hal_pcd.c ****     
 358:Drivers/STM32F0xx_HAL_Driver/Src/stm32f0xx_hal_pcd.c ****     hpcd->Instance->CNTR &= (uint16_t)(~(USB_CNTR_LPMODE));
 359:Drivers/STM32F0xx_HAL_Driver/Src/stm32f0xx_hal_pcd.c **** 
 360:Drivers/STM32F0xx_HAL_Driver/Src/stm32f0xx_hal_pcd.c ****     /*set wInterrupt_Mask global variable*/
 361:Drivers/STM32F0xx_HAL_Driver/Src/stm32f0xx_hal_pcd.c ****     wInterrupt_Mask = USB_CNTR_CTRM  | USB_CNTR_WKUPM | USB_CNTR_SUSPM | USB_CNTR_ERRM \
 362:Drivers/STM32F0xx_HAL_Driver/Src/stm32f0xx_hal_pcd.c ****       | USB_CNTR_ESOFM | USB_CNTR_RESETM;
 363:Drivers/STM32F0xx_HAL_Driver/Src/stm32f0xx_hal_pcd.c ****     
 364:Drivers/STM32F0xx_HAL_Driver/Src/stm32f0xx_hal_pcd.c ****     /*Set interrupt mask*/
 365:Drivers/STM32F0xx_HAL_Driver/Src/stm32f0xx_hal_pcd.c ****     hpcd->Instance->CNTR = wInterrupt_Mask;
 366:Drivers/STM32F0xx_HAL_Driver/Src/stm32f0xx_hal_pcd.c ****     
 367:Drivers/STM32F0xx_HAL_Driver/Src/stm32f0xx_hal_pcd.c ****     HAL_PCD_ResumeCallback(hpcd);
 368:Drivers/STM32F0xx_HAL_Driver/Src/stm32f0xx_hal_pcd.c ****     
 369:Drivers/STM32F0xx_HAL_Driver/Src/stm32f0xx_hal_pcd.c ****     __HAL_PCD_CLEAR_FLAG(hpcd, USB_ISTR_WKUP);     
 370:Drivers/STM32F0xx_HAL_Driver/Src/stm32f0xx_hal_pcd.c ****   }
 371:Drivers/STM32F0xx_HAL_Driver/Src/stm32f0xx_hal_pcd.c **** 
 372:Drivers/STM32F0xx_HAL_Driver/Src/stm32f0xx_hal_pcd.c ****   if (__HAL_PCD_GET_FLAG (hpcd, USB_ISTR_SUSP))
 373:Drivers/STM32F0xx_HAL_Driver/Src/stm32f0xx_hal_pcd.c ****   {    
ARM GAS  /tmp/ccEIExPI.s 			page 17


 374:Drivers/STM32F0xx_HAL_Driver/Src/stm32f0xx_hal_pcd.c ****     /* clear of the ISTR bit must be done after setting of CNTR_FSUSP */
 375:Drivers/STM32F0xx_HAL_Driver/Src/stm32f0xx_hal_pcd.c ****     __HAL_PCD_CLEAR_FLAG(hpcd, USB_ISTR_SUSP);  
 376:Drivers/STM32F0xx_HAL_Driver/Src/stm32f0xx_hal_pcd.c ****     
 377:Drivers/STM32F0xx_HAL_Driver/Src/stm32f0xx_hal_pcd.c ****     /* Force low-power mode in the macrocell */
 378:Drivers/STM32F0xx_HAL_Driver/Src/stm32f0xx_hal_pcd.c ****     hpcd->Instance->CNTR |= USB_CNTR_FSUSP;
 379:Drivers/STM32F0xx_HAL_Driver/Src/stm32f0xx_hal_pcd.c ****     hpcd->Instance->CNTR |= USB_CNTR_LPMODE;
 380:Drivers/STM32F0xx_HAL_Driver/Src/stm32f0xx_hal_pcd.c **** 
 381:Drivers/STM32F0xx_HAL_Driver/Src/stm32f0xx_hal_pcd.c ****     if (__HAL_PCD_GET_FLAG (hpcd, USB_ISTR_WKUP) == 0)
 382:Drivers/STM32F0xx_HAL_Driver/Src/stm32f0xx_hal_pcd.c ****     {
 383:Drivers/STM32F0xx_HAL_Driver/Src/stm32f0xx_hal_pcd.c ****       HAL_PCD_SuspendCallback(hpcd);
 384:Drivers/STM32F0xx_HAL_Driver/Src/stm32f0xx_hal_pcd.c ****     }
 385:Drivers/STM32F0xx_HAL_Driver/Src/stm32f0xx_hal_pcd.c ****   }
 386:Drivers/STM32F0xx_HAL_Driver/Src/stm32f0xx_hal_pcd.c **** 
 387:Drivers/STM32F0xx_HAL_Driver/Src/stm32f0xx_hal_pcd.c ****   if (__HAL_PCD_GET_FLAG (hpcd, USB_ISTR_SOF))
 388:Drivers/STM32F0xx_HAL_Driver/Src/stm32f0xx_hal_pcd.c ****   {
 389:Drivers/STM32F0xx_HAL_Driver/Src/stm32f0xx_hal_pcd.c ****     __HAL_PCD_CLEAR_FLAG(hpcd, USB_ISTR_SOF); 
 390:Drivers/STM32F0xx_HAL_Driver/Src/stm32f0xx_hal_pcd.c ****     HAL_PCD_SOFCallback(hpcd);
 391:Drivers/STM32F0xx_HAL_Driver/Src/stm32f0xx_hal_pcd.c ****   }
 392:Drivers/STM32F0xx_HAL_Driver/Src/stm32f0xx_hal_pcd.c **** 
 393:Drivers/STM32F0xx_HAL_Driver/Src/stm32f0xx_hal_pcd.c ****   if (__HAL_PCD_GET_FLAG (hpcd, USB_ISTR_ESOF))
 394:Drivers/STM32F0xx_HAL_Driver/Src/stm32f0xx_hal_pcd.c ****   {
 395:Drivers/STM32F0xx_HAL_Driver/Src/stm32f0xx_hal_pcd.c ****     /* clear ESOF flag in ISTR */
 396:Drivers/STM32F0xx_HAL_Driver/Src/stm32f0xx_hal_pcd.c ****     __HAL_PCD_CLEAR_FLAG(hpcd, USB_ISTR_ESOF); 
 397:Drivers/STM32F0xx_HAL_Driver/Src/stm32f0xx_hal_pcd.c ****   }
 398:Drivers/STM32F0xx_HAL_Driver/Src/stm32f0xx_hal_pcd.c **** }
 399:Drivers/STM32F0xx_HAL_Driver/Src/stm32f0xx_hal_pcd.c **** 
 400:Drivers/STM32F0xx_HAL_Driver/Src/stm32f0xx_hal_pcd.c **** /**
 401:Drivers/STM32F0xx_HAL_Driver/Src/stm32f0xx_hal_pcd.c ****   * @brief  Data out stage callbacks
 402:Drivers/STM32F0xx_HAL_Driver/Src/stm32f0xx_hal_pcd.c ****   * @param  hpcd PCD handle
 403:Drivers/STM32F0xx_HAL_Driver/Src/stm32f0xx_hal_pcd.c ****   * @param  epnum endpoint number
 404:Drivers/STM32F0xx_HAL_Driver/Src/stm32f0xx_hal_pcd.c ****   * @retval None
 405:Drivers/STM32F0xx_HAL_Driver/Src/stm32f0xx_hal_pcd.c ****   */
 406:Drivers/STM32F0xx_HAL_Driver/Src/stm32f0xx_hal_pcd.c ****  __weak void HAL_PCD_DataOutStageCallback(PCD_HandleTypeDef *hpcd, uint8_t epnum)
 407:Drivers/STM32F0xx_HAL_Driver/Src/stm32f0xx_hal_pcd.c **** {
 463              		.loc 1 407 1 is_stmt 1 view -0
 464              		.cfi_startproc
 465              		@ args = 0, pretend = 0, frame = 0
 466              		@ frame_needed = 0, uses_anonymous_args = 0
 467              		@ link register save eliminated.
 408:Drivers/STM32F0xx_HAL_Driver/Src/stm32f0xx_hal_pcd.c ****   /* Prevent unused argument(s) compilation warning */
 409:Drivers/STM32F0xx_HAL_Driver/Src/stm32f0xx_hal_pcd.c ****   UNUSED(hpcd);
 468              		.loc 1 409 3 view .LVU120
 410:Drivers/STM32F0xx_HAL_Driver/Src/stm32f0xx_hal_pcd.c ****   UNUSED(epnum);
 469              		.loc 1 410 3 view .LVU121
 411:Drivers/STM32F0xx_HAL_Driver/Src/stm32f0xx_hal_pcd.c **** 
 412:Drivers/STM32F0xx_HAL_Driver/Src/stm32f0xx_hal_pcd.c ****   /* NOTE : This function Should not be modified, when the callback is needed,
 413:Drivers/STM32F0xx_HAL_Driver/Src/stm32f0xx_hal_pcd.c ****             the HAL_PCD_DataOutStageCallback could be implemented in the user file
 414:Drivers/STM32F0xx_HAL_Driver/Src/stm32f0xx_hal_pcd.c ****    */ 
 415:Drivers/STM32F0xx_HAL_Driver/Src/stm32f0xx_hal_pcd.c **** }
 470              		.loc 1 415 1 is_stmt 0 view .LVU122
 471              		@ sp needed
 472 0000 7047     		bx	lr
 473              		.cfi_endproc
 474              	.LFE44:
 476              		.section	.text.HAL_PCD_DataInStageCallback,"ax",%progbits
 477              		.align	1
 478              		.weak	HAL_PCD_DataInStageCallback
ARM GAS  /tmp/ccEIExPI.s 			page 18


 479              		.syntax unified
 480              		.code	16
 481              		.thumb_func
 482              		.fpu softvfp
 484              	HAL_PCD_DataInStageCallback:
 485              	.LVL31:
 486              	.LFB45:
 416:Drivers/STM32F0xx_HAL_Driver/Src/stm32f0xx_hal_pcd.c **** 
 417:Drivers/STM32F0xx_HAL_Driver/Src/stm32f0xx_hal_pcd.c **** /**
 418:Drivers/STM32F0xx_HAL_Driver/Src/stm32f0xx_hal_pcd.c ****   * @brief  Data IN stage callbacks
 419:Drivers/STM32F0xx_HAL_Driver/Src/stm32f0xx_hal_pcd.c ****   * @param  hpcd PCD handle
 420:Drivers/STM32F0xx_HAL_Driver/Src/stm32f0xx_hal_pcd.c ****   * @param  epnum endpoint number
 421:Drivers/STM32F0xx_HAL_Driver/Src/stm32f0xx_hal_pcd.c ****   * @retval None
 422:Drivers/STM32F0xx_HAL_Driver/Src/stm32f0xx_hal_pcd.c ****   */
 423:Drivers/STM32F0xx_HAL_Driver/Src/stm32f0xx_hal_pcd.c ****  __weak void HAL_PCD_DataInStageCallback(PCD_HandleTypeDef *hpcd, uint8_t epnum)
 424:Drivers/STM32F0xx_HAL_Driver/Src/stm32f0xx_hal_pcd.c **** {
 487              		.loc 1 424 1 is_stmt 1 view -0
 488              		.cfi_startproc
 489              		@ args = 0, pretend = 0, frame = 0
 490              		@ frame_needed = 0, uses_anonymous_args = 0
 491              		@ link register save eliminated.
 425:Drivers/STM32F0xx_HAL_Driver/Src/stm32f0xx_hal_pcd.c ****   /* Prevent unused argument(s) compilation warning */
 426:Drivers/STM32F0xx_HAL_Driver/Src/stm32f0xx_hal_pcd.c ****   UNUSED(hpcd);
 492              		.loc 1 426 3 view .LVU124
 427:Drivers/STM32F0xx_HAL_Driver/Src/stm32f0xx_hal_pcd.c ****   UNUSED(epnum);
 493              		.loc 1 427 3 view .LVU125
 428:Drivers/STM32F0xx_HAL_Driver/Src/stm32f0xx_hal_pcd.c **** 
 429:Drivers/STM32F0xx_HAL_Driver/Src/stm32f0xx_hal_pcd.c ****   /* NOTE : This function Should not be modified, when the callback is needed,
 430:Drivers/STM32F0xx_HAL_Driver/Src/stm32f0xx_hal_pcd.c ****             the HAL_PCD_DataInStageCallback could be implemented in the user file
 431:Drivers/STM32F0xx_HAL_Driver/Src/stm32f0xx_hal_pcd.c ****    */ 
 432:Drivers/STM32F0xx_HAL_Driver/Src/stm32f0xx_hal_pcd.c **** }
 494              		.loc 1 432 1 is_stmt 0 view .LVU126
 495              		@ sp needed
 496 0000 7047     		bx	lr
 497              		.cfi_endproc
 498              	.LFE45:
 500              		.section	.text.HAL_PCD_SetupStageCallback,"ax",%progbits
 501              		.align	1
 502              		.weak	HAL_PCD_SetupStageCallback
 503              		.syntax unified
 504              		.code	16
 505              		.thumb_func
 506              		.fpu softvfp
 508              	HAL_PCD_SetupStageCallback:
 509              	.LVL32:
 510              	.LFB46:
 433:Drivers/STM32F0xx_HAL_Driver/Src/stm32f0xx_hal_pcd.c **** /**
 434:Drivers/STM32F0xx_HAL_Driver/Src/stm32f0xx_hal_pcd.c ****   * @brief  Setup stage callback
 435:Drivers/STM32F0xx_HAL_Driver/Src/stm32f0xx_hal_pcd.c ****   * @param  hpcd PCD handle
 436:Drivers/STM32F0xx_HAL_Driver/Src/stm32f0xx_hal_pcd.c ****   * @retval None
 437:Drivers/STM32F0xx_HAL_Driver/Src/stm32f0xx_hal_pcd.c ****   */
 438:Drivers/STM32F0xx_HAL_Driver/Src/stm32f0xx_hal_pcd.c ****  __weak void HAL_PCD_SetupStageCallback(PCD_HandleTypeDef *hpcd)
 439:Drivers/STM32F0xx_HAL_Driver/Src/stm32f0xx_hal_pcd.c **** {
 511              		.loc 1 439 1 is_stmt 1 view -0
 512              		.cfi_startproc
 513              		@ args = 0, pretend = 0, frame = 0
 514              		@ frame_needed = 0, uses_anonymous_args = 0
ARM GAS  /tmp/ccEIExPI.s 			page 19


 515              		@ link register save eliminated.
 440:Drivers/STM32F0xx_HAL_Driver/Src/stm32f0xx_hal_pcd.c ****   /* Prevent unused argument(s) compilation warning */
 441:Drivers/STM32F0xx_HAL_Driver/Src/stm32f0xx_hal_pcd.c ****   UNUSED(hpcd);
 516              		.loc 1 441 3 view .LVU128
 442:Drivers/STM32F0xx_HAL_Driver/Src/stm32f0xx_hal_pcd.c **** 
 443:Drivers/STM32F0xx_HAL_Driver/Src/stm32f0xx_hal_pcd.c ****   /* NOTE : This function Should not be modified, when the callback is needed,
 444:Drivers/STM32F0xx_HAL_Driver/Src/stm32f0xx_hal_pcd.c ****             the HAL_PCD_SetupStageCallback could be implemented in the user file
 445:Drivers/STM32F0xx_HAL_Driver/Src/stm32f0xx_hal_pcd.c ****    */ 
 446:Drivers/STM32F0xx_HAL_Driver/Src/stm32f0xx_hal_pcd.c **** }
 517              		.loc 1 446 1 is_stmt 0 view .LVU129
 518              		@ sp needed
 519 0000 7047     		bx	lr
 520              		.cfi_endproc
 521              	.LFE46:
 523              		.section	.text.HAL_PCD_SOFCallback,"ax",%progbits
 524              		.align	1
 525              		.weak	HAL_PCD_SOFCallback
 526              		.syntax unified
 527              		.code	16
 528              		.thumb_func
 529              		.fpu softvfp
 531              	HAL_PCD_SOFCallback:
 532              	.LVL33:
 533              	.LFB47:
 447:Drivers/STM32F0xx_HAL_Driver/Src/stm32f0xx_hal_pcd.c **** 
 448:Drivers/STM32F0xx_HAL_Driver/Src/stm32f0xx_hal_pcd.c **** /**
 449:Drivers/STM32F0xx_HAL_Driver/Src/stm32f0xx_hal_pcd.c ****   * @brief  USB Start Of Frame callbacks
 450:Drivers/STM32F0xx_HAL_Driver/Src/stm32f0xx_hal_pcd.c ****   * @param  hpcd PCD handle
 451:Drivers/STM32F0xx_HAL_Driver/Src/stm32f0xx_hal_pcd.c ****   * @retval None
 452:Drivers/STM32F0xx_HAL_Driver/Src/stm32f0xx_hal_pcd.c ****   */
 453:Drivers/STM32F0xx_HAL_Driver/Src/stm32f0xx_hal_pcd.c ****  __weak void HAL_PCD_SOFCallback(PCD_HandleTypeDef *hpcd)
 454:Drivers/STM32F0xx_HAL_Driver/Src/stm32f0xx_hal_pcd.c **** {
 534              		.loc 1 454 1 is_stmt 1 view -0
 535              		.cfi_startproc
 536              		@ args = 0, pretend = 0, frame = 0
 537              		@ frame_needed = 0, uses_anonymous_args = 0
 538              		@ link register save eliminated.
 455:Drivers/STM32F0xx_HAL_Driver/Src/stm32f0xx_hal_pcd.c ****   /* Prevent unused argument(s) compilation warning */
 456:Drivers/STM32F0xx_HAL_Driver/Src/stm32f0xx_hal_pcd.c ****   UNUSED(hpcd);
 539              		.loc 1 456 3 view .LVU131
 457:Drivers/STM32F0xx_HAL_Driver/Src/stm32f0xx_hal_pcd.c **** 
 458:Drivers/STM32F0xx_HAL_Driver/Src/stm32f0xx_hal_pcd.c ****   /* NOTE : This function Should not be modified, when the callback is needed,
 459:Drivers/STM32F0xx_HAL_Driver/Src/stm32f0xx_hal_pcd.c ****             the HAL_PCD_SOFCallback could be implemented in the user file
 460:Drivers/STM32F0xx_HAL_Driver/Src/stm32f0xx_hal_pcd.c ****    */ 
 461:Drivers/STM32F0xx_HAL_Driver/Src/stm32f0xx_hal_pcd.c **** }
 540              		.loc 1 461 1 is_stmt 0 view .LVU132
 541              		@ sp needed
 542 0000 7047     		bx	lr
 543              		.cfi_endproc
 544              	.LFE47:
 546              		.section	.text.HAL_PCD_ResetCallback,"ax",%progbits
 547              		.align	1
 548              		.weak	HAL_PCD_ResetCallback
 549              		.syntax unified
 550              		.code	16
 551              		.thumb_func
 552              		.fpu softvfp
ARM GAS  /tmp/ccEIExPI.s 			page 20


 554              	HAL_PCD_ResetCallback:
 555              	.LVL34:
 556              	.LFB48:
 462:Drivers/STM32F0xx_HAL_Driver/Src/stm32f0xx_hal_pcd.c **** 
 463:Drivers/STM32F0xx_HAL_Driver/Src/stm32f0xx_hal_pcd.c **** /**
 464:Drivers/STM32F0xx_HAL_Driver/Src/stm32f0xx_hal_pcd.c ****   * @brief  USB Reset callbacks
 465:Drivers/STM32F0xx_HAL_Driver/Src/stm32f0xx_hal_pcd.c ****   * @param  hpcd PCD handle
 466:Drivers/STM32F0xx_HAL_Driver/Src/stm32f0xx_hal_pcd.c ****   * @retval None
 467:Drivers/STM32F0xx_HAL_Driver/Src/stm32f0xx_hal_pcd.c ****   */
 468:Drivers/STM32F0xx_HAL_Driver/Src/stm32f0xx_hal_pcd.c ****  __weak void HAL_PCD_ResetCallback(PCD_HandleTypeDef *hpcd)
 469:Drivers/STM32F0xx_HAL_Driver/Src/stm32f0xx_hal_pcd.c **** {
 557              		.loc 1 469 1 is_stmt 1 view -0
 558              		.cfi_startproc
 559              		@ args = 0, pretend = 0, frame = 0
 560              		@ frame_needed = 0, uses_anonymous_args = 0
 561              		@ link register save eliminated.
 470:Drivers/STM32F0xx_HAL_Driver/Src/stm32f0xx_hal_pcd.c ****   /* Prevent unused argument(s) compilation warning */
 471:Drivers/STM32F0xx_HAL_Driver/Src/stm32f0xx_hal_pcd.c ****   UNUSED(hpcd);
 562              		.loc 1 471 3 view .LVU134
 472:Drivers/STM32F0xx_HAL_Driver/Src/stm32f0xx_hal_pcd.c **** 
 473:Drivers/STM32F0xx_HAL_Driver/Src/stm32f0xx_hal_pcd.c ****   /* NOTE : This function Should not be modified, when the callback is needed,
 474:Drivers/STM32F0xx_HAL_Driver/Src/stm32f0xx_hal_pcd.c ****             the HAL_PCD_ResetCallback could be implemented in the user file
 475:Drivers/STM32F0xx_HAL_Driver/Src/stm32f0xx_hal_pcd.c ****    */ 
 476:Drivers/STM32F0xx_HAL_Driver/Src/stm32f0xx_hal_pcd.c **** }
 563              		.loc 1 476 1 is_stmt 0 view .LVU135
 564              		@ sp needed
 565 0000 7047     		bx	lr
 566              		.cfi_endproc
 567              	.LFE48:
 569              		.section	.text.HAL_PCD_SuspendCallback,"ax",%progbits
 570              		.align	1
 571              		.weak	HAL_PCD_SuspendCallback
 572              		.syntax unified
 573              		.code	16
 574              		.thumb_func
 575              		.fpu softvfp
 577              	HAL_PCD_SuspendCallback:
 578              	.LVL35:
 579              	.LFB49:
 477:Drivers/STM32F0xx_HAL_Driver/Src/stm32f0xx_hal_pcd.c **** 
 478:Drivers/STM32F0xx_HAL_Driver/Src/stm32f0xx_hal_pcd.c **** /**
 479:Drivers/STM32F0xx_HAL_Driver/Src/stm32f0xx_hal_pcd.c ****   * @brief  Suspend event callbacks
 480:Drivers/STM32F0xx_HAL_Driver/Src/stm32f0xx_hal_pcd.c ****   * @param  hpcd PCD handle
 481:Drivers/STM32F0xx_HAL_Driver/Src/stm32f0xx_hal_pcd.c ****   * @retval None
 482:Drivers/STM32F0xx_HAL_Driver/Src/stm32f0xx_hal_pcd.c ****   */
 483:Drivers/STM32F0xx_HAL_Driver/Src/stm32f0xx_hal_pcd.c ****  __weak void HAL_PCD_SuspendCallback(PCD_HandleTypeDef *hpcd)
 484:Drivers/STM32F0xx_HAL_Driver/Src/stm32f0xx_hal_pcd.c **** {
 580              		.loc 1 484 1 is_stmt 1 view -0
 581              		.cfi_startproc
 582              		@ args = 0, pretend = 0, frame = 0
 583              		@ frame_needed = 0, uses_anonymous_args = 0
 584              		@ link register save eliminated.
 485:Drivers/STM32F0xx_HAL_Driver/Src/stm32f0xx_hal_pcd.c ****   /* Prevent unused argument(s) compilation warning */
 486:Drivers/STM32F0xx_HAL_Driver/Src/stm32f0xx_hal_pcd.c ****   UNUSED(hpcd);
 585              		.loc 1 486 3 view .LVU137
 487:Drivers/STM32F0xx_HAL_Driver/Src/stm32f0xx_hal_pcd.c **** 
 488:Drivers/STM32F0xx_HAL_Driver/Src/stm32f0xx_hal_pcd.c ****   /* NOTE : This function Should not be modified, when the callback is needed,
ARM GAS  /tmp/ccEIExPI.s 			page 21


 489:Drivers/STM32F0xx_HAL_Driver/Src/stm32f0xx_hal_pcd.c ****             the HAL_PCD_SuspendCallback could be implemented in the user file
 490:Drivers/STM32F0xx_HAL_Driver/Src/stm32f0xx_hal_pcd.c ****    */ 
 491:Drivers/STM32F0xx_HAL_Driver/Src/stm32f0xx_hal_pcd.c **** }
 586              		.loc 1 491 1 is_stmt 0 view .LVU138
 587              		@ sp needed
 588 0000 7047     		bx	lr
 589              		.cfi_endproc
 590              	.LFE49:
 592              		.section	.text.HAL_PCD_ResumeCallback,"ax",%progbits
 593              		.align	1
 594              		.weak	HAL_PCD_ResumeCallback
 595              		.syntax unified
 596              		.code	16
 597              		.thumb_func
 598              		.fpu softvfp
 600              	HAL_PCD_ResumeCallback:
 601              	.LVL36:
 602              	.LFB50:
 492:Drivers/STM32F0xx_HAL_Driver/Src/stm32f0xx_hal_pcd.c **** 
 493:Drivers/STM32F0xx_HAL_Driver/Src/stm32f0xx_hal_pcd.c **** /**
 494:Drivers/STM32F0xx_HAL_Driver/Src/stm32f0xx_hal_pcd.c ****   * @brief  Resume event callbacks
 495:Drivers/STM32F0xx_HAL_Driver/Src/stm32f0xx_hal_pcd.c ****   * @param  hpcd PCD handle
 496:Drivers/STM32F0xx_HAL_Driver/Src/stm32f0xx_hal_pcd.c ****   * @retval None
 497:Drivers/STM32F0xx_HAL_Driver/Src/stm32f0xx_hal_pcd.c ****   */
 498:Drivers/STM32F0xx_HAL_Driver/Src/stm32f0xx_hal_pcd.c ****  __weak void HAL_PCD_ResumeCallback(PCD_HandleTypeDef *hpcd)
 499:Drivers/STM32F0xx_HAL_Driver/Src/stm32f0xx_hal_pcd.c **** {
 603              		.loc 1 499 1 is_stmt 1 view -0
 604              		.cfi_startproc
 605              		@ args = 0, pretend = 0, frame = 0
 606              		@ frame_needed = 0, uses_anonymous_args = 0
 607              		@ link register save eliminated.
 500:Drivers/STM32F0xx_HAL_Driver/Src/stm32f0xx_hal_pcd.c ****   /* Prevent unused argument(s) compilation warning */
 501:Drivers/STM32F0xx_HAL_Driver/Src/stm32f0xx_hal_pcd.c ****   UNUSED(hpcd);
 608              		.loc 1 501 3 view .LVU140
 502:Drivers/STM32F0xx_HAL_Driver/Src/stm32f0xx_hal_pcd.c **** 
 503:Drivers/STM32F0xx_HAL_Driver/Src/stm32f0xx_hal_pcd.c ****   /* NOTE : This function Should not be modified, when the callback is needed,
 504:Drivers/STM32F0xx_HAL_Driver/Src/stm32f0xx_hal_pcd.c ****             the HAL_PCD_ResumeCallback could be implemented in the user file
 505:Drivers/STM32F0xx_HAL_Driver/Src/stm32f0xx_hal_pcd.c ****    */ 
 506:Drivers/STM32F0xx_HAL_Driver/Src/stm32f0xx_hal_pcd.c **** }
 609              		.loc 1 506 1 is_stmt 0 view .LVU141
 610              		@ sp needed
 611 0000 7047     		bx	lr
 612              		.cfi_endproc
 613              	.LFE50:
 615              		.section	.text.HAL_PCD_ISOOUTIncompleteCallback,"ax",%progbits
 616              		.align	1
 617              		.weak	HAL_PCD_ISOOUTIncompleteCallback
 618              		.syntax unified
 619              		.code	16
 620              		.thumb_func
 621              		.fpu softvfp
 623              	HAL_PCD_ISOOUTIncompleteCallback:
 624              	.LVL37:
 625              	.LFB51:
 507:Drivers/STM32F0xx_HAL_Driver/Src/stm32f0xx_hal_pcd.c **** 
 508:Drivers/STM32F0xx_HAL_Driver/Src/stm32f0xx_hal_pcd.c **** /**
 509:Drivers/STM32F0xx_HAL_Driver/Src/stm32f0xx_hal_pcd.c ****   * @brief  Incomplete ISO OUT callbacks
ARM GAS  /tmp/ccEIExPI.s 			page 22


 510:Drivers/STM32F0xx_HAL_Driver/Src/stm32f0xx_hal_pcd.c ****   * @param  hpcd PCD handle
 511:Drivers/STM32F0xx_HAL_Driver/Src/stm32f0xx_hal_pcd.c ****   * @param  epnum endpoint number
 512:Drivers/STM32F0xx_HAL_Driver/Src/stm32f0xx_hal_pcd.c ****   * @retval None
 513:Drivers/STM32F0xx_HAL_Driver/Src/stm32f0xx_hal_pcd.c ****   */
 514:Drivers/STM32F0xx_HAL_Driver/Src/stm32f0xx_hal_pcd.c ****  __weak void HAL_PCD_ISOOUTIncompleteCallback(PCD_HandleTypeDef *hpcd, uint8_t epnum)
 515:Drivers/STM32F0xx_HAL_Driver/Src/stm32f0xx_hal_pcd.c **** {
 626              		.loc 1 515 1 is_stmt 1 view -0
 627              		.cfi_startproc
 628              		@ args = 0, pretend = 0, frame = 0
 629              		@ frame_needed = 0, uses_anonymous_args = 0
 630              		@ link register save eliminated.
 516:Drivers/STM32F0xx_HAL_Driver/Src/stm32f0xx_hal_pcd.c ****   /* Prevent unused argument(s) compilation warning */
 517:Drivers/STM32F0xx_HAL_Driver/Src/stm32f0xx_hal_pcd.c ****   UNUSED(hpcd);
 631              		.loc 1 517 3 view .LVU143
 518:Drivers/STM32F0xx_HAL_Driver/Src/stm32f0xx_hal_pcd.c ****   UNUSED(epnum);
 632              		.loc 1 518 3 view .LVU144
 519:Drivers/STM32F0xx_HAL_Driver/Src/stm32f0xx_hal_pcd.c **** 
 520:Drivers/STM32F0xx_HAL_Driver/Src/stm32f0xx_hal_pcd.c ****   /* NOTE : This function Should not be modified, when the callback is needed,
 521:Drivers/STM32F0xx_HAL_Driver/Src/stm32f0xx_hal_pcd.c ****             the HAL_PCD_ISOOUTIncompleteCallback could be implemented in the user file
 522:Drivers/STM32F0xx_HAL_Driver/Src/stm32f0xx_hal_pcd.c ****    */ 
 523:Drivers/STM32F0xx_HAL_Driver/Src/stm32f0xx_hal_pcd.c **** }
 633              		.loc 1 523 1 is_stmt 0 view .LVU145
 634              		@ sp needed
 635 0000 7047     		bx	lr
 636              		.cfi_endproc
 637              	.LFE51:
 639              		.section	.text.HAL_PCD_ISOINIncompleteCallback,"ax",%progbits
 640              		.align	1
 641              		.weak	HAL_PCD_ISOINIncompleteCallback
 642              		.syntax unified
 643              		.code	16
 644              		.thumb_func
 645              		.fpu softvfp
 647              	HAL_PCD_ISOINIncompleteCallback:
 648              	.LVL38:
 649              	.LFB52:
 524:Drivers/STM32F0xx_HAL_Driver/Src/stm32f0xx_hal_pcd.c **** 
 525:Drivers/STM32F0xx_HAL_Driver/Src/stm32f0xx_hal_pcd.c **** /**
 526:Drivers/STM32F0xx_HAL_Driver/Src/stm32f0xx_hal_pcd.c ****   * @brief  Incomplete ISO IN  callbacks
 527:Drivers/STM32F0xx_HAL_Driver/Src/stm32f0xx_hal_pcd.c ****   * @param  hpcd PCD handle
 528:Drivers/STM32F0xx_HAL_Driver/Src/stm32f0xx_hal_pcd.c ****   * @param  epnum endpoint number
 529:Drivers/STM32F0xx_HAL_Driver/Src/stm32f0xx_hal_pcd.c ****   * @retval None
 530:Drivers/STM32F0xx_HAL_Driver/Src/stm32f0xx_hal_pcd.c ****   */
 531:Drivers/STM32F0xx_HAL_Driver/Src/stm32f0xx_hal_pcd.c ****  __weak void HAL_PCD_ISOINIncompleteCallback(PCD_HandleTypeDef *hpcd, uint8_t epnum)
 532:Drivers/STM32F0xx_HAL_Driver/Src/stm32f0xx_hal_pcd.c **** {
 650              		.loc 1 532 1 is_stmt 1 view -0
 651              		.cfi_startproc
 652              		@ args = 0, pretend = 0, frame = 0
 653              		@ frame_needed = 0, uses_anonymous_args = 0
 654              		@ link register save eliminated.
 533:Drivers/STM32F0xx_HAL_Driver/Src/stm32f0xx_hal_pcd.c ****   /* Prevent unused argument(s) compilation warning */
 534:Drivers/STM32F0xx_HAL_Driver/Src/stm32f0xx_hal_pcd.c ****   UNUSED(hpcd);
 655              		.loc 1 534 3 view .LVU147
 535:Drivers/STM32F0xx_HAL_Driver/Src/stm32f0xx_hal_pcd.c ****   UNUSED(epnum);
 656              		.loc 1 535 3 view .LVU148
 536:Drivers/STM32F0xx_HAL_Driver/Src/stm32f0xx_hal_pcd.c **** 
 537:Drivers/STM32F0xx_HAL_Driver/Src/stm32f0xx_hal_pcd.c ****   /* NOTE : This function Should not be modified, when the callback is needed,
ARM GAS  /tmp/ccEIExPI.s 			page 23


 538:Drivers/STM32F0xx_HAL_Driver/Src/stm32f0xx_hal_pcd.c ****             the HAL_PCD_ISOINIncompleteCallback could be implemented in the user file
 539:Drivers/STM32F0xx_HAL_Driver/Src/stm32f0xx_hal_pcd.c ****    */ 
 540:Drivers/STM32F0xx_HAL_Driver/Src/stm32f0xx_hal_pcd.c **** }
 657              		.loc 1 540 1 is_stmt 0 view .LVU149
 658              		@ sp needed
 659 0000 7047     		bx	lr
 660              		.cfi_endproc
 661              	.LFE52:
 663              		.section	.text.HAL_PCD_ConnectCallback,"ax",%progbits
 664              		.align	1
 665              		.weak	HAL_PCD_ConnectCallback
 666              		.syntax unified
 667              		.code	16
 668              		.thumb_func
 669              		.fpu softvfp
 671              	HAL_PCD_ConnectCallback:
 672              	.LVL39:
 673              	.LFB53:
 541:Drivers/STM32F0xx_HAL_Driver/Src/stm32f0xx_hal_pcd.c **** 
 542:Drivers/STM32F0xx_HAL_Driver/Src/stm32f0xx_hal_pcd.c **** /**
 543:Drivers/STM32F0xx_HAL_Driver/Src/stm32f0xx_hal_pcd.c ****   * @brief  Connection event callbacks
 544:Drivers/STM32F0xx_HAL_Driver/Src/stm32f0xx_hal_pcd.c ****   * @param  hpcd PCD handle
 545:Drivers/STM32F0xx_HAL_Driver/Src/stm32f0xx_hal_pcd.c ****   * @retval None
 546:Drivers/STM32F0xx_HAL_Driver/Src/stm32f0xx_hal_pcd.c ****   */
 547:Drivers/STM32F0xx_HAL_Driver/Src/stm32f0xx_hal_pcd.c ****  __weak void HAL_PCD_ConnectCallback(PCD_HandleTypeDef *hpcd)
 548:Drivers/STM32F0xx_HAL_Driver/Src/stm32f0xx_hal_pcd.c **** {
 674              		.loc 1 548 1 is_stmt 1 view -0
 675              		.cfi_startproc
 676              		@ args = 0, pretend = 0, frame = 0
 677              		@ frame_needed = 0, uses_anonymous_args = 0
 678              		@ link register save eliminated.
 549:Drivers/STM32F0xx_HAL_Driver/Src/stm32f0xx_hal_pcd.c ****   /* Prevent unused argument(s) compilation warning */
 550:Drivers/STM32F0xx_HAL_Driver/Src/stm32f0xx_hal_pcd.c ****   UNUSED(hpcd);
 679              		.loc 1 550 3 view .LVU151
 551:Drivers/STM32F0xx_HAL_Driver/Src/stm32f0xx_hal_pcd.c **** 
 552:Drivers/STM32F0xx_HAL_Driver/Src/stm32f0xx_hal_pcd.c ****   /* NOTE : This function Should not be modified, when the callback is needed,
 553:Drivers/STM32F0xx_HAL_Driver/Src/stm32f0xx_hal_pcd.c ****             the HAL_PCD_ConnectCallback could be implemented in the user file
 554:Drivers/STM32F0xx_HAL_Driver/Src/stm32f0xx_hal_pcd.c ****    */ 
 555:Drivers/STM32F0xx_HAL_Driver/Src/stm32f0xx_hal_pcd.c **** }
 680              		.loc 1 555 1 is_stmt 0 view .LVU152
 681              		@ sp needed
 682 0000 7047     		bx	lr
 683              		.cfi_endproc
 684              	.LFE53:
 686              		.section	.text.HAL_PCD_DisconnectCallback,"ax",%progbits
 687              		.align	1
 688              		.weak	HAL_PCD_DisconnectCallback
 689              		.syntax unified
 690              		.code	16
 691              		.thumb_func
 692              		.fpu softvfp
 694              	HAL_PCD_DisconnectCallback:
 695              	.LVL40:
 696              	.LFB54:
 556:Drivers/STM32F0xx_HAL_Driver/Src/stm32f0xx_hal_pcd.c **** 
 557:Drivers/STM32F0xx_HAL_Driver/Src/stm32f0xx_hal_pcd.c **** /**
 558:Drivers/STM32F0xx_HAL_Driver/Src/stm32f0xx_hal_pcd.c ****   * @brief  Disconnection event callbacks
ARM GAS  /tmp/ccEIExPI.s 			page 24


 559:Drivers/STM32F0xx_HAL_Driver/Src/stm32f0xx_hal_pcd.c ****   * @param  hpcd PCD handle
 560:Drivers/STM32F0xx_HAL_Driver/Src/stm32f0xx_hal_pcd.c ****   * @retval None
 561:Drivers/STM32F0xx_HAL_Driver/Src/stm32f0xx_hal_pcd.c ****   */
 562:Drivers/STM32F0xx_HAL_Driver/Src/stm32f0xx_hal_pcd.c ****  __weak void HAL_PCD_DisconnectCallback(PCD_HandleTypeDef *hpcd)
 563:Drivers/STM32F0xx_HAL_Driver/Src/stm32f0xx_hal_pcd.c **** {
 697              		.loc 1 563 1 is_stmt 1 view -0
 698              		.cfi_startproc
 699              		@ args = 0, pretend = 0, frame = 0
 700              		@ frame_needed = 0, uses_anonymous_args = 0
 701              		@ link register save eliminated.
 564:Drivers/STM32F0xx_HAL_Driver/Src/stm32f0xx_hal_pcd.c ****   /* Prevent unused argument(s) compilation warning */
 565:Drivers/STM32F0xx_HAL_Driver/Src/stm32f0xx_hal_pcd.c ****   UNUSED(hpcd);
 702              		.loc 1 565 3 view .LVU154
 566:Drivers/STM32F0xx_HAL_Driver/Src/stm32f0xx_hal_pcd.c **** 
 567:Drivers/STM32F0xx_HAL_Driver/Src/stm32f0xx_hal_pcd.c ****   /* NOTE : This function Should not be modified, when the callback is needed,
 568:Drivers/STM32F0xx_HAL_Driver/Src/stm32f0xx_hal_pcd.c ****             the HAL_PCD_DisconnectCallback could be implemented in the user file
 569:Drivers/STM32F0xx_HAL_Driver/Src/stm32f0xx_hal_pcd.c ****    */ 
 570:Drivers/STM32F0xx_HAL_Driver/Src/stm32f0xx_hal_pcd.c **** }
 703              		.loc 1 570 1 is_stmt 0 view .LVU155
 704              		@ sp needed
 705 0000 7047     		bx	lr
 706              		.cfi_endproc
 707              	.LFE54:
 709              		.section	.text.HAL_PCD_DevConnect,"ax",%progbits
 710              		.align	1
 711              		.global	HAL_PCD_DevConnect
 712              		.syntax unified
 713              		.code	16
 714              		.thumb_func
 715              		.fpu softvfp
 717              	HAL_PCD_DevConnect:
 718              	.LVL41:
 719              	.LFB55:
 571:Drivers/STM32F0xx_HAL_Driver/Src/stm32f0xx_hal_pcd.c **** /**
 572:Drivers/STM32F0xx_HAL_Driver/Src/stm32f0xx_hal_pcd.c ****   * @}
 573:Drivers/STM32F0xx_HAL_Driver/Src/stm32f0xx_hal_pcd.c ****   */
 574:Drivers/STM32F0xx_HAL_Driver/Src/stm32f0xx_hal_pcd.c ****     
 575:Drivers/STM32F0xx_HAL_Driver/Src/stm32f0xx_hal_pcd.c **** /** @defgroup PCD_Exported_Functions_Group3 Peripheral Control functions 
 576:Drivers/STM32F0xx_HAL_Driver/Src/stm32f0xx_hal_pcd.c ****  *  @brief   management functions 
 577:Drivers/STM32F0xx_HAL_Driver/Src/stm32f0xx_hal_pcd.c ****  *
 578:Drivers/STM32F0xx_HAL_Driver/Src/stm32f0xx_hal_pcd.c **** @verbatim   
 579:Drivers/STM32F0xx_HAL_Driver/Src/stm32f0xx_hal_pcd.c ****  ===============================================================================
 580:Drivers/STM32F0xx_HAL_Driver/Src/stm32f0xx_hal_pcd.c ****                       ##### Peripheral Control functions #####
 581:Drivers/STM32F0xx_HAL_Driver/Src/stm32f0xx_hal_pcd.c ****  ===============================================================================  
 582:Drivers/STM32F0xx_HAL_Driver/Src/stm32f0xx_hal_pcd.c ****     [..]
 583:Drivers/STM32F0xx_HAL_Driver/Src/stm32f0xx_hal_pcd.c ****     This subsection provides a set of functions allowing to control the PCD data 
 584:Drivers/STM32F0xx_HAL_Driver/Src/stm32f0xx_hal_pcd.c ****     transfers.
 585:Drivers/STM32F0xx_HAL_Driver/Src/stm32f0xx_hal_pcd.c **** 
 586:Drivers/STM32F0xx_HAL_Driver/Src/stm32f0xx_hal_pcd.c **** @endverbatim
 587:Drivers/STM32F0xx_HAL_Driver/Src/stm32f0xx_hal_pcd.c ****   * @{
 588:Drivers/STM32F0xx_HAL_Driver/Src/stm32f0xx_hal_pcd.c ****   */
 589:Drivers/STM32F0xx_HAL_Driver/Src/stm32f0xx_hal_pcd.c **** 
 590:Drivers/STM32F0xx_HAL_Driver/Src/stm32f0xx_hal_pcd.c **** /**
 591:Drivers/STM32F0xx_HAL_Driver/Src/stm32f0xx_hal_pcd.c ****   * @brief  Connect the USB device 
 592:Drivers/STM32F0xx_HAL_Driver/Src/stm32f0xx_hal_pcd.c ****   * @param  hpcd PCD handle
 593:Drivers/STM32F0xx_HAL_Driver/Src/stm32f0xx_hal_pcd.c ****   * @retval HAL status
 594:Drivers/STM32F0xx_HAL_Driver/Src/stm32f0xx_hal_pcd.c ****   */
ARM GAS  /tmp/ccEIExPI.s 			page 25


 595:Drivers/STM32F0xx_HAL_Driver/Src/stm32f0xx_hal_pcd.c **** HAL_StatusTypeDef HAL_PCD_DevConnect(PCD_HandleTypeDef *hpcd)
 596:Drivers/STM32F0xx_HAL_Driver/Src/stm32f0xx_hal_pcd.c **** {
 720              		.loc 1 596 1 is_stmt 1 view -0
 721              		.cfi_startproc
 722              		@ args = 0, pretend = 0, frame = 0
 723              		@ frame_needed = 0, uses_anonymous_args = 0
 724              		.loc 1 596 1 is_stmt 0 view .LVU157
 725 0000 30B5     		push	{r4, r5, lr}
 726              	.LCFI3:
 727              		.cfi_def_cfa_offset 12
 728              		.cfi_offset 4, -12
 729              		.cfi_offset 5, -8
 730              		.cfi_offset 14, -4
 597:Drivers/STM32F0xx_HAL_Driver/Src/stm32f0xx_hal_pcd.c ****   __HAL_LOCK(hpcd); 
 731              		.loc 1 597 3 is_stmt 1 view .LVU158
 732              		.loc 1 597 3 view .LVU159
 733 0002 F423     		movs	r3, #244
 734 0004 5B00     		lsls	r3, r3, #1
 735 0006 C35C     		ldrb	r3, [r0, r3]
 736 0008 012B     		cmp	r3, #1
 737 000a 0ED0     		beq	.L38
 738              		.loc 1 597 3 discriminator 2 view .LVU160
 739 000c F422     		movs	r2, #244
 740 000e 5200     		lsls	r2, r2, #1
 741 0010 0123     		movs	r3, #1
 742 0012 8354     		strb	r3, [r0, r2]
 598:Drivers/STM32F0xx_HAL_Driver/Src/stm32f0xx_hal_pcd.c ****   
 599:Drivers/STM32F0xx_HAL_Driver/Src/stm32f0xx_hal_pcd.c ****   /* Enabling DP Pull-Down bit to Connect internal pull-up on USB DP line */
 600:Drivers/STM32F0xx_HAL_Driver/Src/stm32f0xx_hal_pcd.c ****   hpcd->Instance->BCDR |= USB_BCDR_DPPU;
 743              		.loc 1 600 3 discriminator 2 view .LVU161
 744              		.loc 1 600 7 is_stmt 0 discriminator 2 view .LVU162
 745 0014 0468     		ldr	r4, [r0]
 746              		.loc 1 600 24 discriminator 2 view .LVU163
 747 0016 5821     		movs	r1, #88
 748 0018 635A     		ldrh	r3, [r4, r1]
 749 001a 054D     		ldr	r5, .L39
 750 001c 2B43     		orrs	r3, r5
 751 001e 9BB2     		uxth	r3, r3
 752 0020 6352     		strh	r3, [r4, r1]
 601:Drivers/STM32F0xx_HAL_Driver/Src/stm32f0xx_hal_pcd.c ****   
 602:Drivers/STM32F0xx_HAL_Driver/Src/stm32f0xx_hal_pcd.c ****   __HAL_UNLOCK(hpcd); 
 753              		.loc 1 602 3 is_stmt 1 discriminator 2 view .LVU164
 754              		.loc 1 602 3 discriminator 2 view .LVU165
 755 0022 0023     		movs	r3, #0
 756 0024 8354     		strb	r3, [r0, r2]
 603:Drivers/STM32F0xx_HAL_Driver/Src/stm32f0xx_hal_pcd.c ****   return HAL_OK;
 757              		.loc 1 603 3 discriminator 2 view .LVU166
 758              		.loc 1 603 10 is_stmt 0 discriminator 2 view .LVU167
 759 0026 0020     		movs	r0, #0
 760              	.LVL42:
 761              	.L37:
 604:Drivers/STM32F0xx_HAL_Driver/Src/stm32f0xx_hal_pcd.c **** }
 762              		.loc 1 604 1 view .LVU168
 763              		@ sp needed
 764 0028 30BD     		pop	{r4, r5, pc}
 765              	.LVL43:
 766              	.L38:
ARM GAS  /tmp/ccEIExPI.s 			page 26


 597:Drivers/STM32F0xx_HAL_Driver/Src/stm32f0xx_hal_pcd.c ****   
 767              		.loc 1 597 3 view .LVU169
 768 002a 0220     		movs	r0, #2
 769              	.LVL44:
 597:Drivers/STM32F0xx_HAL_Driver/Src/stm32f0xx_hal_pcd.c ****   
 770              		.loc 1 597 3 view .LVU170
 771 002c FCE7     		b	.L37
 772              	.L40:
 773 002e C046     		.align	2
 774              	.L39:
 775 0030 0080FFFF 		.word	-32768
 776              		.cfi_endproc
 777              	.LFE55:
 779              		.section	.text.HAL_PCD_DevDisconnect,"ax",%progbits
 780              		.align	1
 781              		.global	HAL_PCD_DevDisconnect
 782              		.syntax unified
 783              		.code	16
 784              		.thumb_func
 785              		.fpu softvfp
 787              	HAL_PCD_DevDisconnect:
 788              	.LVL45:
 789              	.LFB56:
 605:Drivers/STM32F0xx_HAL_Driver/Src/stm32f0xx_hal_pcd.c **** 
 606:Drivers/STM32F0xx_HAL_Driver/Src/stm32f0xx_hal_pcd.c **** /**
 607:Drivers/STM32F0xx_HAL_Driver/Src/stm32f0xx_hal_pcd.c ****   * @brief  Disconnect the USB device 
 608:Drivers/STM32F0xx_HAL_Driver/Src/stm32f0xx_hal_pcd.c ****   * @param  hpcd PCD handle
 609:Drivers/STM32F0xx_HAL_Driver/Src/stm32f0xx_hal_pcd.c ****   * @retval HAL status
 610:Drivers/STM32F0xx_HAL_Driver/Src/stm32f0xx_hal_pcd.c ****   */
 611:Drivers/STM32F0xx_HAL_Driver/Src/stm32f0xx_hal_pcd.c **** HAL_StatusTypeDef HAL_PCD_DevDisconnect(PCD_HandleTypeDef *hpcd)
 612:Drivers/STM32F0xx_HAL_Driver/Src/stm32f0xx_hal_pcd.c **** {
 790              		.loc 1 612 1 is_stmt 1 view -0
 791              		.cfi_startproc
 792              		@ args = 0, pretend = 0, frame = 0
 793              		@ frame_needed = 0, uses_anonymous_args = 0
 794              		.loc 1 612 1 is_stmt 0 view .LVU172
 795 0000 10B5     		push	{r4, lr}
 796              	.LCFI4:
 797              		.cfi_def_cfa_offset 8
 798              		.cfi_offset 4, -8
 799              		.cfi_offset 14, -4
 613:Drivers/STM32F0xx_HAL_Driver/Src/stm32f0xx_hal_pcd.c ****   __HAL_LOCK(hpcd); 
 800              		.loc 1 613 3 is_stmt 1 view .LVU173
 801              		.loc 1 613 3 view .LVU174
 802 0002 F423     		movs	r3, #244
 803 0004 5B00     		lsls	r3, r3, #1
 804 0006 C35C     		ldrb	r3, [r0, r3]
 805 0008 012B     		cmp	r3, #1
 806 000a 0DD0     		beq	.L43
 807              		.loc 1 613 3 discriminator 2 view .LVU175
 808 000c F422     		movs	r2, #244
 809 000e 5200     		lsls	r2, r2, #1
 810 0010 0123     		movs	r3, #1
 811 0012 8354     		strb	r3, [r0, r2]
 614:Drivers/STM32F0xx_HAL_Driver/Src/stm32f0xx_hal_pcd.c ****   
 615:Drivers/STM32F0xx_HAL_Driver/Src/stm32f0xx_hal_pcd.c ****   /* Disable DP Pull-Down bit*/
 616:Drivers/STM32F0xx_HAL_Driver/Src/stm32f0xx_hal_pcd.c ****    hpcd->Instance->BCDR &= (uint16_t)(~(USB_BCDR_DPPU));
ARM GAS  /tmp/ccEIExPI.s 			page 27


 812              		.loc 1 616 4 discriminator 2 view .LVU176
 813              		.loc 1 616 8 is_stmt 0 discriminator 2 view .LVU177
 814 0014 0468     		ldr	r4, [r0]
 815              		.loc 1 616 25 discriminator 2 view .LVU178
 816 0016 5821     		movs	r1, #88
 817 0018 635A     		ldrh	r3, [r4, r1]
 818 001a 5B04     		lsls	r3, r3, #17
 819 001c 5B0C     		lsrs	r3, r3, #17
 820 001e 6352     		strh	r3, [r4, r1]
 617:Drivers/STM32F0xx_HAL_Driver/Src/stm32f0xx_hal_pcd.c ****   
 618:Drivers/STM32F0xx_HAL_Driver/Src/stm32f0xx_hal_pcd.c ****   __HAL_UNLOCK(hpcd); 
 821              		.loc 1 618 3 is_stmt 1 discriminator 2 view .LVU179
 822              		.loc 1 618 3 discriminator 2 view .LVU180
 823 0020 0023     		movs	r3, #0
 824 0022 8354     		strb	r3, [r0, r2]
 619:Drivers/STM32F0xx_HAL_Driver/Src/stm32f0xx_hal_pcd.c ****   return HAL_OK;
 825              		.loc 1 619 3 discriminator 2 view .LVU181
 826              		.loc 1 619 10 is_stmt 0 discriminator 2 view .LVU182
 827 0024 0020     		movs	r0, #0
 828              	.LVL46:
 829              	.L42:
 620:Drivers/STM32F0xx_HAL_Driver/Src/stm32f0xx_hal_pcd.c **** }
 830              		.loc 1 620 1 view .LVU183
 831              		@ sp needed
 832 0026 10BD     		pop	{r4, pc}
 833              	.LVL47:
 834              	.L43:
 613:Drivers/STM32F0xx_HAL_Driver/Src/stm32f0xx_hal_pcd.c ****   
 835              		.loc 1 613 3 view .LVU184
 836 0028 0220     		movs	r0, #2
 837              	.LVL48:
 613:Drivers/STM32F0xx_HAL_Driver/Src/stm32f0xx_hal_pcd.c ****   
 838              		.loc 1 613 3 view .LVU185
 839 002a FCE7     		b	.L42
 840              		.cfi_endproc
 841              	.LFE56:
 843              		.section	.text.HAL_PCD_SetAddress,"ax",%progbits
 844              		.align	1
 845              		.global	HAL_PCD_SetAddress
 846              		.syntax unified
 847              		.code	16
 848              		.thumb_func
 849              		.fpu softvfp
 851              	HAL_PCD_SetAddress:
 852              	.LVL49:
 853              	.LFB57:
 621:Drivers/STM32F0xx_HAL_Driver/Src/stm32f0xx_hal_pcd.c **** 
 622:Drivers/STM32F0xx_HAL_Driver/Src/stm32f0xx_hal_pcd.c **** /**
 623:Drivers/STM32F0xx_HAL_Driver/Src/stm32f0xx_hal_pcd.c ****   * @brief  Set the USB Device address 
 624:Drivers/STM32F0xx_HAL_Driver/Src/stm32f0xx_hal_pcd.c ****   * @param  hpcd PCD handle
 625:Drivers/STM32F0xx_HAL_Driver/Src/stm32f0xx_hal_pcd.c ****   * @param  address new device address
 626:Drivers/STM32F0xx_HAL_Driver/Src/stm32f0xx_hal_pcd.c ****   * @retval HAL status
 627:Drivers/STM32F0xx_HAL_Driver/Src/stm32f0xx_hal_pcd.c ****   */
 628:Drivers/STM32F0xx_HAL_Driver/Src/stm32f0xx_hal_pcd.c **** HAL_StatusTypeDef HAL_PCD_SetAddress(PCD_HandleTypeDef *hpcd, uint8_t address)
 629:Drivers/STM32F0xx_HAL_Driver/Src/stm32f0xx_hal_pcd.c **** {
 854              		.loc 1 629 1 is_stmt 1 view -0
 855              		.cfi_startproc
ARM GAS  /tmp/ccEIExPI.s 			page 28


 856              		@ args = 0, pretend = 0, frame = 0
 857              		@ frame_needed = 0, uses_anonymous_args = 0
 858              		@ link register save eliminated.
 630:Drivers/STM32F0xx_HAL_Driver/Src/stm32f0xx_hal_pcd.c ****    __HAL_LOCK(hpcd); 
 859              		.loc 1 630 4 view .LVU187
 860              		.loc 1 630 4 view .LVU188
 861 0000 F423     		movs	r3, #244
 862 0002 5B00     		lsls	r3, r3, #1
 863 0004 C35C     		ldrb	r3, [r0, r3]
 864 0006 012B     		cmp	r3, #1
 865 0008 13D0     		beq	.L48
 866              		.loc 1 630 4 discriminator 2 view .LVU189
 867 000a F423     		movs	r3, #244
 868 000c 5B00     		lsls	r3, r3, #1
 869 000e 0122     		movs	r2, #1
 870 0010 C254     		strb	r2, [r0, r3]
 631:Drivers/STM32F0xx_HAL_Driver/Src/stm32f0xx_hal_pcd.c **** 
 632:Drivers/STM32F0xx_HAL_Driver/Src/stm32f0xx_hal_pcd.c ****    if(address == 0U) 
 871              		.loc 1 632 4 discriminator 2 view .LVU190
 872              		.loc 1 632 6 is_stmt 0 discriminator 2 view .LVU191
 873 0012 0029     		cmp	r1, #0
 874 0014 0AD1     		bne	.L46
 633:Drivers/STM32F0xx_HAL_Driver/Src/stm32f0xx_hal_pcd.c ****    {
 634:Drivers/STM32F0xx_HAL_Driver/Src/stm32f0xx_hal_pcd.c ****      /* set device address and enable function */
 635:Drivers/STM32F0xx_HAL_Driver/Src/stm32f0xx_hal_pcd.c ****      hpcd->Instance->DADDR = USB_DADDR_EF;
 875              		.loc 1 635 6 is_stmt 1 view .LVU192
 876              		.loc 1 635 28 is_stmt 0 view .LVU193
 877 0016 9D3B     		subs	r3, r3, #157
 878 0018 FF3B     		subs	r3, r3, #255
 879 001a 7F32     		adds	r2, r2, #127
 880 001c 0168     		ldr	r1, [r0]
 881              	.LVL50:
 882              		.loc 1 635 28 view .LVU194
 883 001e CA52     		strh	r2, [r1, r3]
 884              	.L47:
 636:Drivers/STM32F0xx_HAL_Driver/Src/stm32f0xx_hal_pcd.c ****    }
 637:Drivers/STM32F0xx_HAL_Driver/Src/stm32f0xx_hal_pcd.c ****    else /* USB Address will be applied later */
 638:Drivers/STM32F0xx_HAL_Driver/Src/stm32f0xx_hal_pcd.c ****    {
 639:Drivers/STM32F0xx_HAL_Driver/Src/stm32f0xx_hal_pcd.c ****      hpcd->USB_Address = address;
 640:Drivers/STM32F0xx_HAL_Driver/Src/stm32f0xx_hal_pcd.c ****    }
 641:Drivers/STM32F0xx_HAL_Driver/Src/stm32f0xx_hal_pcd.c **** 
 642:Drivers/STM32F0xx_HAL_Driver/Src/stm32f0xx_hal_pcd.c ****   __HAL_UNLOCK(hpcd);   
 885              		.loc 1 642 3 is_stmt 1 view .LVU195
 886              		.loc 1 642 3 view .LVU196
 887 0020 F423     		movs	r3, #244
 888 0022 5B00     		lsls	r3, r3, #1
 889 0024 0022     		movs	r2, #0
 890 0026 C254     		strb	r2, [r0, r3]
 643:Drivers/STM32F0xx_HAL_Driver/Src/stm32f0xx_hal_pcd.c ****   return HAL_OK;
 891              		.loc 1 643 3 view .LVU197
 892              		.loc 1 643 10 is_stmt 0 view .LVU198
 893 0028 0020     		movs	r0, #0
 894              	.LVL51:
 895              	.L45:
 644:Drivers/STM32F0xx_HAL_Driver/Src/stm32f0xx_hal_pcd.c **** }
 896              		.loc 1 644 1 view .LVU199
 897              		@ sp needed
ARM GAS  /tmp/ccEIExPI.s 			page 29


 898 002a 7047     		bx	lr
 899              	.LVL52:
 900              	.L46:
 639:Drivers/STM32F0xx_HAL_Driver/Src/stm32f0xx_hal_pcd.c ****    }
 901              		.loc 1 639 6 is_stmt 1 view .LVU200
 639:Drivers/STM32F0xx_HAL_Driver/Src/stm32f0xx_hal_pcd.c ****    }
 902              		.loc 1 639 24 is_stmt 0 view .LVU201
 903 002c 2423     		movs	r3, #36
 904 002e C154     		strb	r1, [r0, r3]
 905 0030 F6E7     		b	.L47
 906              	.L48:
 630:Drivers/STM32F0xx_HAL_Driver/Src/stm32f0xx_hal_pcd.c **** 
 907              		.loc 1 630 4 view .LVU202
 908 0032 0220     		movs	r0, #2
 909              	.LVL53:
 630:Drivers/STM32F0xx_HAL_Driver/Src/stm32f0xx_hal_pcd.c **** 
 910              		.loc 1 630 4 view .LVU203
 911 0034 F9E7     		b	.L45
 912              		.cfi_endproc
 913              	.LFE57:
 915              		.section	.text.HAL_PCD_EP_Open,"ax",%progbits
 916              		.align	1
 917              		.global	HAL_PCD_EP_Open
 918              		.syntax unified
 919              		.code	16
 920              		.thumb_func
 921              		.fpu softvfp
 923              	HAL_PCD_EP_Open:
 924              	.LVL54:
 925              	.LFB58:
 645:Drivers/STM32F0xx_HAL_Driver/Src/stm32f0xx_hal_pcd.c **** /**
 646:Drivers/STM32F0xx_HAL_Driver/Src/stm32f0xx_hal_pcd.c ****   * @brief  Open and configure an endpoint
 647:Drivers/STM32F0xx_HAL_Driver/Src/stm32f0xx_hal_pcd.c ****   * @param  hpcd PCD handle
 648:Drivers/STM32F0xx_HAL_Driver/Src/stm32f0xx_hal_pcd.c ****   * @param  ep_addr endpoint address
 649:Drivers/STM32F0xx_HAL_Driver/Src/stm32f0xx_hal_pcd.c ****   * @param  ep_mps endpoint max packert size
 650:Drivers/STM32F0xx_HAL_Driver/Src/stm32f0xx_hal_pcd.c ****   * @param  ep_type endpoint type   
 651:Drivers/STM32F0xx_HAL_Driver/Src/stm32f0xx_hal_pcd.c ****   * @retval HAL status
 652:Drivers/STM32F0xx_HAL_Driver/Src/stm32f0xx_hal_pcd.c ****   */
 653:Drivers/STM32F0xx_HAL_Driver/Src/stm32f0xx_hal_pcd.c **** HAL_StatusTypeDef HAL_PCD_EP_Open(PCD_HandleTypeDef *hpcd, uint8_t ep_addr, uint16_t ep_mps, uint8_
 654:Drivers/STM32F0xx_HAL_Driver/Src/stm32f0xx_hal_pcd.c **** {
 926              		.loc 1 654 1 is_stmt 1 view -0
 927              		.cfi_startproc
 928              		@ args = 0, pretend = 0, frame = 0
 929              		@ frame_needed = 0, uses_anonymous_args = 0
 930              		.loc 1 654 1 is_stmt 0 view .LVU205
 931 0000 F0B5     		push	{r4, r5, r6, r7, lr}
 932              	.LCFI5:
 933              		.cfi_def_cfa_offset 20
 934              		.cfi_offset 4, -20
 935              		.cfi_offset 5, -16
 936              		.cfi_offset 6, -12
 937              		.cfi_offset 7, -8
 938              		.cfi_offset 14, -4
 655:Drivers/STM32F0xx_HAL_Driver/Src/stm32f0xx_hal_pcd.c ****   HAL_StatusTypeDef  ret = HAL_OK;
 939              		.loc 1 655 3 is_stmt 1 view .LVU206
 940              	.LVL55:
 656:Drivers/STM32F0xx_HAL_Driver/Src/stm32f0xx_hal_pcd.c ****   PCD_EPTypeDef *ep;
ARM GAS  /tmp/ccEIExPI.s 			page 30


 941              		.loc 1 656 3 view .LVU207
 657:Drivers/STM32F0xx_HAL_Driver/Src/stm32f0xx_hal_pcd.c ****   
 658:Drivers/STM32F0xx_HAL_Driver/Src/stm32f0xx_hal_pcd.c ****   if ((ep_addr & 0x80U) == 0x80U)
 942              		.loc 1 658 3 view .LVU208
 943              		.loc 1 658 25 is_stmt 0 view .LVU209
 944 0002 4DB2     		sxtb	r5, r1
 945              		.loc 1 658 6 view .LVU210
 946 0004 002D     		cmp	r5, #0
 947 0006 65DB     		blt	.L73
 659:Drivers/STM32F0xx_HAL_Driver/Src/stm32f0xx_hal_pcd.c ****   {
 660:Drivers/STM32F0xx_HAL_Driver/Src/stm32f0xx_hal_pcd.c ****     ep = &hpcd->IN_ep[ep_addr & 0x7FU];
 661:Drivers/STM32F0xx_HAL_Driver/Src/stm32f0xx_hal_pcd.c ****   }
 662:Drivers/STM32F0xx_HAL_Driver/Src/stm32f0xx_hal_pcd.c ****   else
 663:Drivers/STM32F0xx_HAL_Driver/Src/stm32f0xx_hal_pcd.c ****   {
 664:Drivers/STM32F0xx_HAL_Driver/Src/stm32f0xx_hal_pcd.c ****     ep = &hpcd->OUT_ep[ep_addr & 0x7FU];
 948              		.loc 1 664 5 is_stmt 1 view .LVU211
 949              		.loc 1 664 32 is_stmt 0 view .LVU212
 950 0008 7F24     		movs	r4, #127
 951 000a 0C40     		ands	r4, r1
 952              		.loc 1 664 8 view .LVU213
 953 000c E600     		lsls	r6, r4, #3
 954 000e 361B     		subs	r6, r6, r4
 955 0010 B400     		lsls	r4, r6, #2
 956 0012 0934     		adds	r4, r4, #9
 957 0014 FF34     		adds	r4, r4, #255
 958 0016 0419     		adds	r4, r0, r4
 959              	.LVL56:
 960              	.L51:
 665:Drivers/STM32F0xx_HAL_Driver/Src/stm32f0xx_hal_pcd.c ****   }
 666:Drivers/STM32F0xx_HAL_Driver/Src/stm32f0xx_hal_pcd.c ****   ep->num   = ep_addr & 0x7FU;
 961              		.loc 1 666 3 is_stmt 1 view .LVU214
 962              		.loc 1 666 23 is_stmt 0 view .LVU215
 963 0018 7F26     		movs	r6, #127
 964 001a 0E40     		ands	r6, r1
 965              		.loc 1 666 13 view .LVU216
 966 001c 2670     		strb	r6, [r4]
 667:Drivers/STM32F0xx_HAL_Driver/Src/stm32f0xx_hal_pcd.c ****   
 668:Drivers/STM32F0xx_HAL_Driver/Src/stm32f0xx_hal_pcd.c ****   ep->is_in = (0x80U & ep_addr) != 0U;
 967              		.loc 1 668 3 is_stmt 1 view .LVU217
 968              		.loc 1 668 33 is_stmt 0 view .LVU218
 969 001e ED0F     		lsrs	r5, r5, #31
 970              		.loc 1 668 13 view .LVU219
 971 0020 6570     		strb	r5, [r4, #1]
 669:Drivers/STM32F0xx_HAL_Driver/Src/stm32f0xx_hal_pcd.c ****   ep->maxpacket = ep_mps;
 972              		.loc 1 669 3 is_stmt 1 view .LVU220
 973              		.loc 1 669 17 is_stmt 0 view .LVU221
 974 0022 E260     		str	r2, [r4, #12]
 670:Drivers/STM32F0xx_HAL_Driver/Src/stm32f0xx_hal_pcd.c ****   ep->type = ep_type;
 975              		.loc 1 670 3 is_stmt 1 view .LVU222
 976              		.loc 1 670 12 is_stmt 0 view .LVU223
 977 0024 E370     		strb	r3, [r4, #3]
 671:Drivers/STM32F0xx_HAL_Driver/Src/stm32f0xx_hal_pcd.c ****   
 672:Drivers/STM32F0xx_HAL_Driver/Src/stm32f0xx_hal_pcd.c ****   __HAL_LOCK(hpcd); 
 978              		.loc 1 672 3 is_stmt 1 view .LVU224
 979              		.loc 1 672 3 view .LVU225
 980 0026 F423     		movs	r3, #244
 981              	.LVL57:
ARM GAS  /tmp/ccEIExPI.s 			page 31


 982              		.loc 1 672 3 is_stmt 0 view .LVU226
 983 0028 5B00     		lsls	r3, r3, #1
 984 002a C35C     		ldrb	r3, [r0, r3]
 985 002c 012B     		cmp	r3, #1
 986 002e 00D1     		bne	.LCB762
 987 0030 75E1     		b	.L72	@long jump
 988              	.LCB762:
 989              		.loc 1 672 3 is_stmt 1 discriminator 2 view .LVU227
 990 0032 F423     		movs	r3, #244
 991 0034 5B00     		lsls	r3, r3, #1
 992 0036 0122     		movs	r2, #1
 993              	.LVL58:
 994              		.loc 1 672 3 is_stmt 0 discriminator 2 view .LVU228
 995 0038 C254     		strb	r2, [r0, r3]
 996              	.LVL59:
 673:Drivers/STM32F0xx_HAL_Driver/Src/stm32f0xx_hal_pcd.c **** 
 674:Drivers/STM32F0xx_HAL_Driver/Src/stm32f0xx_hal_pcd.c ****   /* initialize Endpoint */
 675:Drivers/STM32F0xx_HAL_Driver/Src/stm32f0xx_hal_pcd.c ****   switch (ep->type)
 997              		.loc 1 675 3 is_stmt 1 discriminator 2 view .LVU229
 998              		.loc 1 675 13 is_stmt 0 discriminator 2 view .LVU230
 999 003a E378     		ldrb	r3, [r4, #3]
 1000 003c 012B     		cmp	r3, #1
 1001 003e 00D1     		bne	.LCB775
 1002 0040 74E0     		b	.L53	@long jump
 1003              	.LCB775:
 1004 0042 002B     		cmp	r3, #0
 1005 0044 4ED0     		beq	.L54
 1006 0046 022B     		cmp	r3, #2
 1007 0048 59D0     		beq	.L55
 1008 004a 032B     		cmp	r3, #3
 1009 004c 61D0     		beq	.L56
 1010              	.LVL60:
 1011              	.L57:
 676:Drivers/STM32F0xx_HAL_Driver/Src/stm32f0xx_hal_pcd.c ****   {
 677:Drivers/STM32F0xx_HAL_Driver/Src/stm32f0xx_hal_pcd.c ****   case PCD_EP_TYPE_CTRL:
 678:Drivers/STM32F0xx_HAL_Driver/Src/stm32f0xx_hal_pcd.c ****     PCD_SET_EPTYPE(hpcd->Instance, ep->num, USB_EP_CONTROL);
 679:Drivers/STM32F0xx_HAL_Driver/Src/stm32f0xx_hal_pcd.c ****     break;
 680:Drivers/STM32F0xx_HAL_Driver/Src/stm32f0xx_hal_pcd.c ****   case PCD_EP_TYPE_BULK:
 681:Drivers/STM32F0xx_HAL_Driver/Src/stm32f0xx_hal_pcd.c ****     PCD_SET_EPTYPE(hpcd->Instance, ep->num, USB_EP_BULK);
 682:Drivers/STM32F0xx_HAL_Driver/Src/stm32f0xx_hal_pcd.c ****     break;
 683:Drivers/STM32F0xx_HAL_Driver/Src/stm32f0xx_hal_pcd.c ****   case PCD_EP_TYPE_INTR:
 684:Drivers/STM32F0xx_HAL_Driver/Src/stm32f0xx_hal_pcd.c ****     PCD_SET_EPTYPE(hpcd->Instance, ep->num, USB_EP_INTERRUPT);
 685:Drivers/STM32F0xx_HAL_Driver/Src/stm32f0xx_hal_pcd.c ****     break;
 686:Drivers/STM32F0xx_HAL_Driver/Src/stm32f0xx_hal_pcd.c ****   case PCD_EP_TYPE_ISOC:
 687:Drivers/STM32F0xx_HAL_Driver/Src/stm32f0xx_hal_pcd.c ****     PCD_SET_EPTYPE(hpcd->Instance, ep->num, USB_EP_ISOCHRONOUS);
 688:Drivers/STM32F0xx_HAL_Driver/Src/stm32f0xx_hal_pcd.c ****     break;
 689:Drivers/STM32F0xx_HAL_Driver/Src/stm32f0xx_hal_pcd.c ****   default:
 690:Drivers/STM32F0xx_HAL_Driver/Src/stm32f0xx_hal_pcd.c ****     break;
 691:Drivers/STM32F0xx_HAL_Driver/Src/stm32f0xx_hal_pcd.c ****   } 
 692:Drivers/STM32F0xx_HAL_Driver/Src/stm32f0xx_hal_pcd.c ****   
 693:Drivers/STM32F0xx_HAL_Driver/Src/stm32f0xx_hal_pcd.c ****   PCD_SET_EP_ADDRESS(hpcd->Instance, ep->num, ep->num);
 1012              		.loc 1 693 3 is_stmt 1 view .LVU231
 1013 004e 2278     		ldrb	r2, [r4]
 1014 0050 9300     		lsls	r3, r2, #2
 1015 0052 0168     		ldr	r1, [r0]
 1016 0054 8C46     		mov	ip, r1
 1017 0056 6344     		add	r3, r3, ip
ARM GAS  /tmp/ccEIExPI.s 			page 32


 1018 0058 1988     		ldrh	r1, [r3]
 1019 005a B24D     		ldr	r5, .L74
 1020 005c 2940     		ands	r1, r5
 1021 005e 0A43     		orrs	r2, r1
 1022 0060 B149     		ldr	r1, .L74+4
 1023 0062 0A43     		orrs	r2, r1
 1024 0064 1A80     		strh	r2, [r3]
 694:Drivers/STM32F0xx_HAL_Driver/Src/stm32f0xx_hal_pcd.c ****   
 695:Drivers/STM32F0xx_HAL_Driver/Src/stm32f0xx_hal_pcd.c ****   if (ep->doublebuffer == 0U) 
 1025              		.loc 1 695 3 view .LVU232
 1026              		.loc 1 695 9 is_stmt 0 view .LVU233
 1027 0066 A37A     		ldrb	r3, [r4, #10]
 1028              		.loc 1 695 6 view .LVU234
 1029 0068 002B     		cmp	r3, #0
 1030 006a 00D0     		beq	.LCB806
 1031 006c B5E0     		b	.L58	@long jump
 1032              	.LCB806:
 696:Drivers/STM32F0xx_HAL_Driver/Src/stm32f0xx_hal_pcd.c ****   {
 697:Drivers/STM32F0xx_HAL_Driver/Src/stm32f0xx_hal_pcd.c ****     if (ep->is_in)
 1033              		.loc 1 697 5 is_stmt 1 view .LVU235
 1034              		.loc 1 697 11 is_stmt 0 view .LVU236
 1035 006e 6378     		ldrb	r3, [r4, #1]
 1036              		.loc 1 697 8 view .LVU237
 1037 0070 002B     		cmp	r3, #0
 1038 0072 00D1     		bne	.LCB810
 1039 0074 67E0     		b	.L59	@long jump
 1040              	.LCB810:
 698:Drivers/STM32F0xx_HAL_Driver/Src/stm32f0xx_hal_pcd.c ****     {
 699:Drivers/STM32F0xx_HAL_Driver/Src/stm32f0xx_hal_pcd.c ****       /*Set the endpoint Transmit buffer address */
 700:Drivers/STM32F0xx_HAL_Driver/Src/stm32f0xx_hal_pcd.c ****       PCD_SET_EP_TX_ADDRESS(hpcd->Instance, ep->num, ep->pmaadress);
 1041              		.loc 1 700 7 is_stmt 1 view .LVU238
 1042 0076 A288     		ldrh	r2, [r4, #4]
 1043 0078 0568     		ldr	r5, [r0]
 1044 007a 5023     		movs	r3, #80
 1045 007c EB5A     		ldrh	r3, [r5, r3]
 1046 007e 2178     		ldrb	r1, [r4]
 1047 0080 C900     		lsls	r1, r1, #3
 1048 0082 5B18     		adds	r3, r3, r1
 1049 0084 5B19     		adds	r3, r3, r5
 1050 0086 8021     		movs	r1, #128
 1051 0088 C900     		lsls	r1, r1, #3
 1052 008a 8C46     		mov	ip, r1
 1053 008c 6344     		add	r3, r3, ip
 1054 008e 0121     		movs	r1, #1
 1055 0090 8A43     		bics	r2, r1
 1056 0092 1A80     		strh	r2, [r3]
 701:Drivers/STM32F0xx_HAL_Driver/Src/stm32f0xx_hal_pcd.c ****       PCD_CLEAR_TX_DTOG(hpcd->Instance, ep->num)
 1057              		.loc 1 701 7 view .LVU239
 1058 0094 2378     		ldrb	r3, [r4]
 1059 0096 9B00     		lsls	r3, r3, #2
 1060 0098 0268     		ldr	r2, [r0]
 1061 009a 9446     		mov	ip, r2
 1062 009c 6344     		add	r3, r3, ip
 1063 009e 1A88     		ldrh	r2, [r3]
 1064 00a0 5106     		lsls	r1, r2, #25
 1065 00a2 04D5     		bpl	.L60
 1066              		.loc 1 701 7 discriminator 1 view .LVU240
ARM GAS  /tmp/ccEIExPI.s 			page 33


 1067 00a4 9F49     		ldr	r1, .L74
 1068 00a6 0A40     		ands	r2, r1
 1069 00a8 A049     		ldr	r1, .L74+8
 1070 00aa 0A43     		orrs	r2, r1
 1071 00ac 1A80     		strh	r2, [r3]
 1072              	.L60:
 1073              	.LBB2:
 702:Drivers/STM32F0xx_HAL_Driver/Src/stm32f0xx_hal_pcd.c ****       /* Configure NAK status for the Endpoint*/
 703:Drivers/STM32F0xx_HAL_Driver/Src/stm32f0xx_hal_pcd.c ****       PCD_SET_EP_TX_STATUS(hpcd->Instance, ep->num, USB_EP_TX_NAK) 
 1074              		.loc 1 703 7 view .LVU241
 1075              		.loc 1 703 7 view .LVU242
 1076 00ae 2278     		ldrb	r2, [r4]
 1077 00b0 9200     		lsls	r2, r2, #2
 1078 00b2 0368     		ldr	r3, [r0]
 1079 00b4 9C46     		mov	ip, r3
 1080 00b6 6244     		add	r2, r2, ip
 1081 00b8 1388     		ldrh	r3, [r2]
 1082 00ba 9D49     		ldr	r1, .L74+12
 1083 00bc 0B40     		ands	r3, r1
 1084              	.LVL61:
 1085              		.loc 1 703 7 view .LVU243
 1086              		.loc 1 703 7 view .LVU244
 1087              		.loc 1 703 7 view .LVU245
 1088 00be 2021     		movs	r1, #32
 1089 00c0 4B40     		eors	r3, r1
 1090              	.LVL62:
 1091              		.loc 1 703 7 view .LVU246
 1092 00c2 9949     		ldr	r1, .L74+4
 1093 00c4 0B43     		orrs	r3, r1
 1094              	.LVL63:
 1095              		.loc 1 703 7 is_stmt 0 view .LVU247
 1096 00c6 1380     		strh	r3, [r2]
 1097              	.LVL64:
 1098              	.L61:
 1099              		.loc 1 703 7 view .LVU248
 1100              	.LBE2:
 704:Drivers/STM32F0xx_HAL_Driver/Src/stm32f0xx_hal_pcd.c ****     }
 705:Drivers/STM32F0xx_HAL_Driver/Src/stm32f0xx_hal_pcd.c ****     else
 706:Drivers/STM32F0xx_HAL_Driver/Src/stm32f0xx_hal_pcd.c ****     {
 707:Drivers/STM32F0xx_HAL_Driver/Src/stm32f0xx_hal_pcd.c ****       /*Set the endpoint Receive buffer address */
 708:Drivers/STM32F0xx_HAL_Driver/Src/stm32f0xx_hal_pcd.c ****       PCD_SET_EP_RX_ADDRESS(hpcd->Instance, ep->num, ep->pmaadress);
 709:Drivers/STM32F0xx_HAL_Driver/Src/stm32f0xx_hal_pcd.c ****       /*Set the endpoint Receive buffer counter*/
 710:Drivers/STM32F0xx_HAL_Driver/Src/stm32f0xx_hal_pcd.c ****       PCD_SET_EP_RX_CNT(hpcd->Instance, ep->num, ep->maxpacket)
 711:Drivers/STM32F0xx_HAL_Driver/Src/stm32f0xx_hal_pcd.c ****       PCD_CLEAR_RX_DTOG(hpcd->Instance, ep->num)
 712:Drivers/STM32F0xx_HAL_Driver/Src/stm32f0xx_hal_pcd.c ****       /* Configure VALID status for the Endpoint*/
 713:Drivers/STM32F0xx_HAL_Driver/Src/stm32f0xx_hal_pcd.c ****       PCD_SET_EP_RX_STATUS(hpcd->Instance, ep->num, USB_EP_RX_VALID)
 714:Drivers/STM32F0xx_HAL_Driver/Src/stm32f0xx_hal_pcd.c ****     }
 715:Drivers/STM32F0xx_HAL_Driver/Src/stm32f0xx_hal_pcd.c ****   }
 716:Drivers/STM32F0xx_HAL_Driver/Src/stm32f0xx_hal_pcd.c ****   /*Double Buffer*/
 717:Drivers/STM32F0xx_HAL_Driver/Src/stm32f0xx_hal_pcd.c ****   else
 718:Drivers/STM32F0xx_HAL_Driver/Src/stm32f0xx_hal_pcd.c ****   {
 719:Drivers/STM32F0xx_HAL_Driver/Src/stm32f0xx_hal_pcd.c ****     /*Set the endpoint as double buffered*/
 720:Drivers/STM32F0xx_HAL_Driver/Src/stm32f0xx_hal_pcd.c ****     PCD_SET_EP_DBUF(hpcd->Instance, ep->num);
 721:Drivers/STM32F0xx_HAL_Driver/Src/stm32f0xx_hal_pcd.c ****     /*Set buffer address for double buffered mode*/
 722:Drivers/STM32F0xx_HAL_Driver/Src/stm32f0xx_hal_pcd.c ****     PCD_SET_EP_DBUF_ADDR(hpcd->Instance, ep->num,ep->pmaaddr0, ep->pmaaddr1)
 723:Drivers/STM32F0xx_HAL_Driver/Src/stm32f0xx_hal_pcd.c ****     
 724:Drivers/STM32F0xx_HAL_Driver/Src/stm32f0xx_hal_pcd.c ****     if (ep->is_in==0U)
ARM GAS  /tmp/ccEIExPI.s 			page 34


 725:Drivers/STM32F0xx_HAL_Driver/Src/stm32f0xx_hal_pcd.c ****     {
 726:Drivers/STM32F0xx_HAL_Driver/Src/stm32f0xx_hal_pcd.c ****       /* Clear the data toggle bits for the endpoint IN/OUT*/
 727:Drivers/STM32F0xx_HAL_Driver/Src/stm32f0xx_hal_pcd.c ****       PCD_CLEAR_RX_DTOG(hpcd->Instance, ep->num)
 728:Drivers/STM32F0xx_HAL_Driver/Src/stm32f0xx_hal_pcd.c ****       PCD_CLEAR_TX_DTOG(hpcd->Instance, ep->num)
 729:Drivers/STM32F0xx_HAL_Driver/Src/stm32f0xx_hal_pcd.c ****       
 730:Drivers/STM32F0xx_HAL_Driver/Src/stm32f0xx_hal_pcd.c ****       /* Reset value of the data toggle bits for the endpoint out*/
 731:Drivers/STM32F0xx_HAL_Driver/Src/stm32f0xx_hal_pcd.c ****       PCD_TX_DTOG(hpcd->Instance, ep->num);
 732:Drivers/STM32F0xx_HAL_Driver/Src/stm32f0xx_hal_pcd.c ****       
 733:Drivers/STM32F0xx_HAL_Driver/Src/stm32f0xx_hal_pcd.c ****       PCD_SET_EP_RX_STATUS(hpcd->Instance, ep->num, USB_EP_RX_VALID)
 734:Drivers/STM32F0xx_HAL_Driver/Src/stm32f0xx_hal_pcd.c ****       PCD_SET_EP_TX_STATUS(hpcd->Instance, ep->num, USB_EP_TX_DIS)
 735:Drivers/STM32F0xx_HAL_Driver/Src/stm32f0xx_hal_pcd.c ****     }
 736:Drivers/STM32F0xx_HAL_Driver/Src/stm32f0xx_hal_pcd.c ****     else
 737:Drivers/STM32F0xx_HAL_Driver/Src/stm32f0xx_hal_pcd.c ****     {
 738:Drivers/STM32F0xx_HAL_Driver/Src/stm32f0xx_hal_pcd.c ****       /* Clear the data toggle bits for the endpoint IN/OUT*/
 739:Drivers/STM32F0xx_HAL_Driver/Src/stm32f0xx_hal_pcd.c ****       PCD_CLEAR_RX_DTOG(hpcd->Instance, ep->num)
 740:Drivers/STM32F0xx_HAL_Driver/Src/stm32f0xx_hal_pcd.c ****       PCD_CLEAR_TX_DTOG(hpcd->Instance, ep->num)
 741:Drivers/STM32F0xx_HAL_Driver/Src/stm32f0xx_hal_pcd.c ****       PCD_RX_DTOG(hpcd->Instance, ep->num);
 742:Drivers/STM32F0xx_HAL_Driver/Src/stm32f0xx_hal_pcd.c ****       /* Configure DISABLE status for the Endpoint*/
 743:Drivers/STM32F0xx_HAL_Driver/Src/stm32f0xx_hal_pcd.c ****       PCD_SET_EP_TX_STATUS(hpcd->Instance, ep->num, USB_EP_TX_DIS)
 744:Drivers/STM32F0xx_HAL_Driver/Src/stm32f0xx_hal_pcd.c ****       PCD_SET_EP_RX_STATUS(hpcd->Instance, ep->num, USB_EP_RX_DIS)
 745:Drivers/STM32F0xx_HAL_Driver/Src/stm32f0xx_hal_pcd.c ****     }
 746:Drivers/STM32F0xx_HAL_Driver/Src/stm32f0xx_hal_pcd.c ****   } 
 747:Drivers/STM32F0xx_HAL_Driver/Src/stm32f0xx_hal_pcd.c ****   
 748:Drivers/STM32F0xx_HAL_Driver/Src/stm32f0xx_hal_pcd.c ****   __HAL_UNLOCK(hpcd);   
 1101              		.loc 1 748 3 is_stmt 1 view .LVU249
 1102              		.loc 1 748 3 view .LVU250
 1103 00c8 F423     		movs	r3, #244
 1104 00ca 5B00     		lsls	r3, r3, #1
 1105 00cc 0022     		movs	r2, #0
 1106 00ce C254     		strb	r2, [r0, r3]
 749:Drivers/STM32F0xx_HAL_Driver/Src/stm32f0xx_hal_pcd.c ****   return ret;
 1107              		.loc 1 749 3 view .LVU251
 1108              		.loc 1 749 10 is_stmt 0 view .LVU252
 1109 00d0 0020     		movs	r0, #0
 1110              	.LVL65:
 1111              	.L52:
 750:Drivers/STM32F0xx_HAL_Driver/Src/stm32f0xx_hal_pcd.c **** }
 1112              		.loc 1 750 1 view .LVU253
 1113              		@ sp needed
 1114 00d2 F0BD     		pop	{r4, r5, r6, r7, pc}
 1115              	.LVL66:
 1116              	.L73:
 660:Drivers/STM32F0xx_HAL_Driver/Src/stm32f0xx_hal_pcd.c ****   }
 1117              		.loc 1 660 5 is_stmt 1 view .LVU254
 660:Drivers/STM32F0xx_HAL_Driver/Src/stm32f0xx_hal_pcd.c ****   }
 1118              		.loc 1 660 31 is_stmt 0 view .LVU255
 1119 00d4 7F24     		movs	r4, #127
 1120 00d6 0C40     		ands	r4, r1
 660:Drivers/STM32F0xx_HAL_Driver/Src/stm32f0xx_hal_pcd.c ****   }
 1121              		.loc 1 660 8 view .LVU256
 1122 00d8 E600     		lsls	r6, r4, #3
 1123 00da 361B     		subs	r6, r6, r4
 1124 00dc B400     		lsls	r4, r6, #2
 1125 00de 2834     		adds	r4, r4, #40
 1126 00e0 0419     		adds	r4, r0, r4
 1127              	.LVL67:
 660:Drivers/STM32F0xx_HAL_Driver/Src/stm32f0xx_hal_pcd.c ****   }
ARM GAS  /tmp/ccEIExPI.s 			page 35


 1128              		.loc 1 660 8 view .LVU257
 1129 00e2 99E7     		b	.L51
 1130              	.LVL68:
 1131              	.L54:
 678:Drivers/STM32F0xx_HAL_Driver/Src/stm32f0xx_hal_pcd.c ****     break;
 1132              		.loc 1 678 5 is_stmt 1 view .LVU258
 1133 00e4 2378     		ldrb	r3, [r4]
 1134 00e6 9B00     		lsls	r3, r3, #2
 1135 00e8 0268     		ldr	r2, [r0]
 1136 00ea 9446     		mov	ip, r2
 1137 00ec 6344     		add	r3, r3, ip
 1138 00ee 1A88     		ldrh	r2, [r3]
 1139 00f0 9049     		ldr	r1, .L74+16
 1140              	.LVL69:
 678:Drivers/STM32F0xx_HAL_Driver/Src/stm32f0xx_hal_pcd.c ****     break;
 1141              		.loc 1 678 5 is_stmt 0 view .LVU259
 1142 00f2 1140     		ands	r1, r2
 1143 00f4 8022     		movs	r2, #128
 1144 00f6 9200     		lsls	r2, r2, #2
 1145 00f8 0A43     		orrs	r2, r1
 1146 00fa 1A80     		strh	r2, [r3]
 679:Drivers/STM32F0xx_HAL_Driver/Src/stm32f0xx_hal_pcd.c ****   case PCD_EP_TYPE_BULK:
 1147              		.loc 1 679 5 is_stmt 1 view .LVU260
 1148 00fc A7E7     		b	.L57
 1149              	.LVL70:
 1150              	.L55:
 681:Drivers/STM32F0xx_HAL_Driver/Src/stm32f0xx_hal_pcd.c ****     break;
 1151              		.loc 1 681 5 view .LVU261
 1152 00fe 2378     		ldrb	r3, [r4]
 1153 0100 9B00     		lsls	r3, r3, #2
 1154 0102 0268     		ldr	r2, [r0]
 1155 0104 9446     		mov	ip, r2
 1156 0106 6344     		add	r3, r3, ip
 1157 0108 1A88     		ldrh	r2, [r3]
 1158 010a 8A49     		ldr	r1, .L74+16
 1159              	.LVL71:
 681:Drivers/STM32F0xx_HAL_Driver/Src/stm32f0xx_hal_pcd.c ****     break;
 1160              		.loc 1 681 5 is_stmt 0 view .LVU262
 1161 010c 0A40     		ands	r2, r1
 1162 010e 1A80     		strh	r2, [r3]
 682:Drivers/STM32F0xx_HAL_Driver/Src/stm32f0xx_hal_pcd.c ****   case PCD_EP_TYPE_INTR:
 1163              		.loc 1 682 5 is_stmt 1 view .LVU263
 1164 0110 9DE7     		b	.L57
 1165              	.LVL72:
 1166              	.L56:
 684:Drivers/STM32F0xx_HAL_Driver/Src/stm32f0xx_hal_pcd.c ****     break;
 1167              		.loc 1 684 5 view .LVU264
 1168 0112 2378     		ldrb	r3, [r4]
 1169 0114 9B00     		lsls	r3, r3, #2
 1170 0116 0268     		ldr	r2, [r0]
 1171 0118 9446     		mov	ip, r2
 1172 011a 6344     		add	r3, r3, ip
 1173 011c 1A88     		ldrh	r2, [r3]
 1174 011e 8549     		ldr	r1, .L74+16
 1175              	.LVL73:
 684:Drivers/STM32F0xx_HAL_Driver/Src/stm32f0xx_hal_pcd.c ****     break;
 1176              		.loc 1 684 5 is_stmt 0 view .LVU265
ARM GAS  /tmp/ccEIExPI.s 			page 36


 1177 0120 1140     		ands	r1, r2
 1178 0122 C022     		movs	r2, #192
 1179 0124 D200     		lsls	r2, r2, #3
 1180 0126 0A43     		orrs	r2, r1
 1181 0128 1A80     		strh	r2, [r3]
 685:Drivers/STM32F0xx_HAL_Driver/Src/stm32f0xx_hal_pcd.c ****   case PCD_EP_TYPE_ISOC:
 1182              		.loc 1 685 5 is_stmt 1 view .LVU266
 1183 012a 90E7     		b	.L57
 1184              	.LVL74:
 1185              	.L53:
 687:Drivers/STM32F0xx_HAL_Driver/Src/stm32f0xx_hal_pcd.c ****     break;
 1186              		.loc 1 687 5 view .LVU267
 1187 012c 2378     		ldrb	r3, [r4]
 1188 012e 9B00     		lsls	r3, r3, #2
 1189 0130 0268     		ldr	r2, [r0]
 1190 0132 9446     		mov	ip, r2
 1191 0134 6344     		add	r3, r3, ip
 1192 0136 1A88     		ldrh	r2, [r3]
 1193 0138 7E49     		ldr	r1, .L74+16
 1194              	.LVL75:
 687:Drivers/STM32F0xx_HAL_Driver/Src/stm32f0xx_hal_pcd.c ****     break;
 1195              		.loc 1 687 5 is_stmt 0 view .LVU268
 1196 013a 1140     		ands	r1, r2
 1197 013c 8022     		movs	r2, #128
 1198 013e D200     		lsls	r2, r2, #3
 1199 0140 0A43     		orrs	r2, r1
 1200 0142 1A80     		strh	r2, [r3]
 688:Drivers/STM32F0xx_HAL_Driver/Src/stm32f0xx_hal_pcd.c ****   default:
 1201              		.loc 1 688 5 is_stmt 1 view .LVU269
 1202 0144 83E7     		b	.L57
 1203              	.L59:
 708:Drivers/STM32F0xx_HAL_Driver/Src/stm32f0xx_hal_pcd.c ****       /*Set the endpoint Receive buffer counter*/
 1204              		.loc 1 708 7 view .LVU270
 1205 0146 A288     		ldrh	r2, [r4, #4]
 1206 0148 0568     		ldr	r5, [r0]
 1207 014a 5026     		movs	r6, #80
 1208 014c AB5B     		ldrh	r3, [r5, r6]
 1209 014e 2178     		ldrb	r1, [r4]
 1210 0150 C900     		lsls	r1, r1, #3
 1211 0152 5B18     		adds	r3, r3, r1
 1212 0154 5B19     		adds	r3, r3, r5
 1213 0156 7849     		ldr	r1, .L74+20
 1214 0158 8C46     		mov	ip, r1
 1215 015a 6344     		add	r3, r3, ip
 1216 015c 0121     		movs	r1, #1
 1217 015e 8A43     		bics	r2, r1
 1218 0160 1A80     		strh	r2, [r3]
 1219              	.LBB3:
 710:Drivers/STM32F0xx_HAL_Driver/Src/stm32f0xx_hal_pcd.c ****       PCD_CLEAR_RX_DTOG(hpcd->Instance, ep->num)
 1220              		.loc 1 710 7 view .LVU271
 1221 0162 0168     		ldr	r1, [r0]
 1222 0164 8B5B     		ldrh	r3, [r1, r6]
 1223 0166 2278     		ldrb	r2, [r4]
 1224 0168 D200     		lsls	r2, r2, #3
 1225 016a 9B18     		adds	r3, r3, r2
 1226 016c 5B18     		adds	r3, r3, r1
 1227 016e 734A     		ldr	r2, .L74+24
ARM GAS  /tmp/ccEIExPI.s 			page 37


 1228 0170 9446     		mov	ip, r2
 1229 0172 6344     		add	r3, r3, ip
 1230              	.LVL76:
 1231              	.LBB4:
 710:Drivers/STM32F0xx_HAL_Driver/Src/stm32f0xx_hal_pcd.c ****       PCD_CLEAR_RX_DTOG(hpcd->Instance, ep->num)
 1232              		.loc 1 710 7 view .LVU272
 710:Drivers/STM32F0xx_HAL_Driver/Src/stm32f0xx_hal_pcd.c ****       PCD_CLEAR_RX_DTOG(hpcd->Instance, ep->num)
 1233              		.loc 1 710 7 view .LVU273
 1234 0174 E168     		ldr	r1, [r4, #12]
 1235 0176 3E29     		cmp	r1, #62
 1236 0178 26D9     		bls	.L62
 710:Drivers/STM32F0xx_HAL_Driver/Src/stm32f0xx_hal_pcd.c ****       PCD_CLEAR_RX_DTOG(hpcd->Instance, ep->num)
 1237              		.loc 1 710 7 discriminator 1 view .LVU274
 1238 017a 4A09     		lsrs	r2, r1, #5
 1239 017c 92B2     		uxth	r2, r2
 1240              	.LVL77:
 710:Drivers/STM32F0xx_HAL_Driver/Src/stm32f0xx_hal_pcd.c ****       PCD_CLEAR_RX_DTOG(hpcd->Instance, ep->num)
 1241              		.loc 1 710 7 discriminator 1 view .LVU275
 1242 017e C906     		lsls	r1, r1, #27
 1243 0180 01D1     		bne	.L63
 710:Drivers/STM32F0xx_HAL_Driver/Src/stm32f0xx_hal_pcd.c ****       PCD_CLEAR_RX_DTOG(hpcd->Instance, ep->num)
 1244              		.loc 1 710 7 discriminator 3 view .LVU276
 1245 0182 013A     		subs	r2, r2, #1
 1246              	.LVL78:
 710:Drivers/STM32F0xx_HAL_Driver/Src/stm32f0xx_hal_pcd.c ****       PCD_CLEAR_RX_DTOG(hpcd->Instance, ep->num)
 1247              		.loc 1 710 7 is_stmt 0 discriminator 3 view .LVU277
 1248 0184 92B2     		uxth	r2, r2
 1249              	.LVL79:
 1250              	.L63:
 710:Drivers/STM32F0xx_HAL_Driver/Src/stm32f0xx_hal_pcd.c ****       PCD_CLEAR_RX_DTOG(hpcd->Instance, ep->num)
 1251              		.loc 1 710 7 is_stmt 1 discriminator 5 view .LVU278
 1252 0186 9202     		lsls	r2, r2, #10
 1253              	.LVL80:
 710:Drivers/STM32F0xx_HAL_Driver/Src/stm32f0xx_hal_pcd.c ****       PCD_CLEAR_RX_DTOG(hpcd->Instance, ep->num)
 1254              		.loc 1 710 7 is_stmt 0 discriminator 5 view .LVU279
 1255 0188 92B2     		uxth	r2, r2
 1256 018a 6D49     		ldr	r1, .L74+28
 1257 018c 0A43     		orrs	r2, r1
 1258 018e 1A80     		strh	r2, [r3]
 1259              	.L64:
 710:Drivers/STM32F0xx_HAL_Driver/Src/stm32f0xx_hal_pcd.c ****       PCD_CLEAR_RX_DTOG(hpcd->Instance, ep->num)
 1260              		.loc 1 710 7 discriminator 5 view .LVU280
 1261              	.LBE4:
 1262              	.LBE3:
 711:Drivers/STM32F0xx_HAL_Driver/Src/stm32f0xx_hal_pcd.c ****       /* Configure VALID status for the Endpoint*/
 1263              		.loc 1 711 7 is_stmt 1 view .LVU281
 1264 0190 2378     		ldrb	r3, [r4]
 1265              	.LVL81:
 711:Drivers/STM32F0xx_HAL_Driver/Src/stm32f0xx_hal_pcd.c ****       /* Configure VALID status for the Endpoint*/
 1266              		.loc 1 711 7 is_stmt 0 view .LVU282
 1267 0192 9B00     		lsls	r3, r3, #2
 1268 0194 0268     		ldr	r2, [r0]
 1269 0196 9446     		mov	ip, r2
 1270 0198 6344     		add	r3, r3, ip
 1271 019a 1A88     		ldrh	r2, [r3]
 1272 019c 5104     		lsls	r1, r2, #17
 1273 019e 04D5     		bpl	.L66
ARM GAS  /tmp/ccEIExPI.s 			page 38


 711:Drivers/STM32F0xx_HAL_Driver/Src/stm32f0xx_hal_pcd.c ****       /* Configure VALID status for the Endpoint*/
 1274              		.loc 1 711 7 is_stmt 1 discriminator 1 view .LVU283
 1275 01a0 6049     		ldr	r1, .L74
 1276 01a2 0A40     		ands	r2, r1
 1277 01a4 6749     		ldr	r1, .L74+32
 1278 01a6 0A43     		orrs	r2, r1
 1279 01a8 1A80     		strh	r2, [r3]
 1280              	.L66:
 1281              	.LBB6:
 713:Drivers/STM32F0xx_HAL_Driver/Src/stm32f0xx_hal_pcd.c ****     }
 1282              		.loc 1 713 7 view .LVU284
 713:Drivers/STM32F0xx_HAL_Driver/Src/stm32f0xx_hal_pcd.c ****     }
 1283              		.loc 1 713 7 view .LVU285
 1284 01aa 2378     		ldrb	r3, [r4]
 1285 01ac 9B00     		lsls	r3, r3, #2
 1286 01ae 0268     		ldr	r2, [r0]
 1287 01b0 9446     		mov	ip, r2
 1288 01b2 6344     		add	r3, r3, ip
 1289 01b4 1988     		ldrh	r1, [r3]
 1290 01b6 644A     		ldr	r2, .L74+36
 1291 01b8 1140     		ands	r1, r2
 1292              	.LVL82:
 713:Drivers/STM32F0xx_HAL_Driver/Src/stm32f0xx_hal_pcd.c ****     }
 1293              		.loc 1 713 7 view .LVU286
 713:Drivers/STM32F0xx_HAL_Driver/Src/stm32f0xx_hal_pcd.c ****     }
 1294              		.loc 1 713 7 view .LVU287
 713:Drivers/STM32F0xx_HAL_Driver/Src/stm32f0xx_hal_pcd.c ****     }
 1295              		.loc 1 713 7 view .LVU288
 713:Drivers/STM32F0xx_HAL_Driver/Src/stm32f0xx_hal_pcd.c ****     }
 1296              		.loc 1 713 7 view .LVU289
 1297 01ba C022     		movs	r2, #192
 1298 01bc 9201     		lsls	r2, r2, #6
 1299 01be 5140     		eors	r1, r2
 1300              	.LVL83:
 713:Drivers/STM32F0xx_HAL_Driver/Src/stm32f0xx_hal_pcd.c ****     }
 1301              		.loc 1 713 7 view .LVU290
 1302 01c0 594A     		ldr	r2, .L74+4
 1303 01c2 0A43     		orrs	r2, r1
 1304 01c4 1A80     		strh	r2, [r3]
 1305 01c6 7FE7     		b	.L61
 1306              	.LVL84:
 1307              	.L62:
 713:Drivers/STM32F0xx_HAL_Driver/Src/stm32f0xx_hal_pcd.c ****     }
 1308              		.loc 1 713 7 is_stmt 0 view .LVU291
 1309              	.LBE6:
 1310              	.LBB7:
 1311              	.LBB5:
 710:Drivers/STM32F0xx_HAL_Driver/Src/stm32f0xx_hal_pcd.c ****       PCD_CLEAR_RX_DTOG(hpcd->Instance, ep->num)
 1312              		.loc 1 710 7 is_stmt 1 discriminator 2 view .LVU292
 1313 01c8 4A08     		lsrs	r2, r1, #1
 1314 01ca 92B2     		uxth	r2, r2
 1315              	.LVL85:
 710:Drivers/STM32F0xx_HAL_Driver/Src/stm32f0xx_hal_pcd.c ****       PCD_CLEAR_RX_DTOG(hpcd->Instance, ep->num)
 1316              		.loc 1 710 7 discriminator 2 view .LVU293
 1317 01cc C907     		lsls	r1, r1, #31
 1318 01ce 01D5     		bpl	.L65
 710:Drivers/STM32F0xx_HAL_Driver/Src/stm32f0xx_hal_pcd.c ****       PCD_CLEAR_RX_DTOG(hpcd->Instance, ep->num)
ARM GAS  /tmp/ccEIExPI.s 			page 39


 1319              		.loc 1 710 7 discriminator 6 view .LVU294
 1320 01d0 0132     		adds	r2, r2, #1
 1321              	.LVL86:
 710:Drivers/STM32F0xx_HAL_Driver/Src/stm32f0xx_hal_pcd.c ****       PCD_CLEAR_RX_DTOG(hpcd->Instance, ep->num)
 1322              		.loc 1 710 7 is_stmt 0 discriminator 6 view .LVU295
 1323 01d2 92B2     		uxth	r2, r2
 1324              	.LVL87:
 1325              	.L65:
 710:Drivers/STM32F0xx_HAL_Driver/Src/stm32f0xx_hal_pcd.c ****       PCD_CLEAR_RX_DTOG(hpcd->Instance, ep->num)
 1326              		.loc 1 710 7 is_stmt 1 discriminator 8 view .LVU296
 1327 01d4 9202     		lsls	r2, r2, #10
 1328              	.LVL88:
 710:Drivers/STM32F0xx_HAL_Driver/Src/stm32f0xx_hal_pcd.c ****       PCD_CLEAR_RX_DTOG(hpcd->Instance, ep->num)
 1329              		.loc 1 710 7 is_stmt 0 discriminator 8 view .LVU297
 1330 01d6 1A80     		strh	r2, [r3]
 1331 01d8 DAE7     		b	.L64
 1332              	.LVL89:
 1333              	.L58:
 710:Drivers/STM32F0xx_HAL_Driver/Src/stm32f0xx_hal_pcd.c ****       PCD_CLEAR_RX_DTOG(hpcd->Instance, ep->num)
 1334              		.loc 1 710 7 discriminator 8 view .LVU298
 1335              	.LBE5:
 1336              	.LBE7:
 720:Drivers/STM32F0xx_HAL_Driver/Src/stm32f0xx_hal_pcd.c ****     /*Set buffer address for double buffered mode*/
 1337              		.loc 1 720 5 is_stmt 1 view .LVU299
 1338 01da 2378     		ldrb	r3, [r4]
 1339 01dc 9B00     		lsls	r3, r3, #2
 1340 01de 0268     		ldr	r2, [r0]
 1341 01e0 9446     		mov	ip, r2
 1342 01e2 6344     		add	r3, r3, ip
 1343 01e4 1A88     		ldrh	r2, [r3]
 1344 01e6 5949     		ldr	r1, .L74+40
 1345 01e8 1140     		ands	r1, r2
 1346 01ea 594A     		ldr	r2, .L74+44
 1347 01ec 0A43     		orrs	r2, r1
 1348 01ee 1A80     		strh	r2, [r3]
 722:Drivers/STM32F0xx_HAL_Driver/Src/stm32f0xx_hal_pcd.c ****     
 1349              		.loc 1 722 5 view .LVU300
 1350 01f0 E288     		ldrh	r2, [r4, #6]
 1351 01f2 0568     		ldr	r5, [r0]
 1352 01f4 5027     		movs	r7, #80
 1353 01f6 EB5B     		ldrh	r3, [r5, r7]
 1354 01f8 2178     		ldrb	r1, [r4]
 1355 01fa C900     		lsls	r1, r1, #3
 1356 01fc 5B18     		adds	r3, r3, r1
 1357 01fe 5B19     		adds	r3, r3, r5
 1358 0200 8021     		movs	r1, #128
 1359 0202 C900     		lsls	r1, r1, #3
 1360 0204 8C46     		mov	ip, r1
 1361 0206 6344     		add	r3, r3, ip
 1362 0208 0126     		movs	r6, #1
 1363 020a B243     		bics	r2, r6
 1364 020c 1A80     		strh	r2, [r3]
 722:Drivers/STM32F0xx_HAL_Driver/Src/stm32f0xx_hal_pcd.c ****     
 1365              		.loc 1 722 5 view .LVU301
 1366 020e 2289     		ldrh	r2, [r4, #8]
 1367 0210 0568     		ldr	r5, [r0]
 1368 0212 EB5B     		ldrh	r3, [r5, r7]
ARM GAS  /tmp/ccEIExPI.s 			page 40


 1369 0214 2178     		ldrb	r1, [r4]
 1370 0216 C900     		lsls	r1, r1, #3
 1371 0218 5B18     		adds	r3, r3, r1
 1372 021a 5B19     		adds	r3, r3, r5
 1373 021c 4649     		ldr	r1, .L74+20
 1374 021e 8C46     		mov	ip, r1
 1375 0220 6344     		add	r3, r3, ip
 1376 0222 B243     		bics	r2, r6
 1377 0224 1A80     		strh	r2, [r3]
 724:Drivers/STM32F0xx_HAL_Driver/Src/stm32f0xx_hal_pcd.c ****     {
 1378              		.loc 1 724 5 view .LVU302
 724:Drivers/STM32F0xx_HAL_Driver/Src/stm32f0xx_hal_pcd.c ****     {
 1379              		.loc 1 724 11 is_stmt 0 view .LVU303
 1380 0226 6378     		ldrb	r3, [r4, #1]
 724:Drivers/STM32F0xx_HAL_Driver/Src/stm32f0xx_hal_pcd.c ****     {
 1381              		.loc 1 724 8 view .LVU304
 1382 0228 002B     		cmp	r3, #0
 1383 022a 3DD1     		bne	.L67
 727:Drivers/STM32F0xx_HAL_Driver/Src/stm32f0xx_hal_pcd.c ****       PCD_CLEAR_TX_DTOG(hpcd->Instance, ep->num)
 1384              		.loc 1 727 7 is_stmt 1 view .LVU305
 1385 022c 2378     		ldrb	r3, [r4]
 1386 022e 9B00     		lsls	r3, r3, #2
 1387 0230 0268     		ldr	r2, [r0]
 1388 0232 9446     		mov	ip, r2
 1389 0234 6344     		add	r3, r3, ip
 1390 0236 1A88     		ldrh	r2, [r3]
 1391 0238 5104     		lsls	r1, r2, #17
 1392 023a 04D5     		bpl	.L68
 727:Drivers/STM32F0xx_HAL_Driver/Src/stm32f0xx_hal_pcd.c ****       PCD_CLEAR_TX_DTOG(hpcd->Instance, ep->num)
 1393              		.loc 1 727 7 discriminator 1 view .LVU306
 1394 023c 3949     		ldr	r1, .L74
 1395 023e 0A40     		ands	r2, r1
 1396 0240 4049     		ldr	r1, .L74+32
 1397 0242 0A43     		orrs	r2, r1
 1398 0244 1A80     		strh	r2, [r3]
 1399              	.L68:
 728:Drivers/STM32F0xx_HAL_Driver/Src/stm32f0xx_hal_pcd.c ****       
 1400              		.loc 1 728 7 view .LVU307
 1401 0246 2378     		ldrb	r3, [r4]
 1402 0248 9B00     		lsls	r3, r3, #2
 1403 024a 0268     		ldr	r2, [r0]
 1404 024c 9446     		mov	ip, r2
 1405 024e 6344     		add	r3, r3, ip
 1406 0250 1A88     		ldrh	r2, [r3]
 1407 0252 5106     		lsls	r1, r2, #25
 1408 0254 04D5     		bpl	.L69
 728:Drivers/STM32F0xx_HAL_Driver/Src/stm32f0xx_hal_pcd.c ****       
 1409              		.loc 1 728 7 discriminator 1 view .LVU308
 1410 0256 3349     		ldr	r1, .L74
 1411 0258 0A40     		ands	r2, r1
 1412 025a 3449     		ldr	r1, .L74+8
 1413 025c 0A43     		orrs	r2, r1
 1414 025e 1A80     		strh	r2, [r3]
 1415              	.L69:
 731:Drivers/STM32F0xx_HAL_Driver/Src/stm32f0xx_hal_pcd.c ****       
 1416              		.loc 1 731 7 view .LVU309
 1417 0260 2378     		ldrb	r3, [r4]
ARM GAS  /tmp/ccEIExPI.s 			page 41


 1418 0262 9B00     		lsls	r3, r3, #2
 1419 0264 0268     		ldr	r2, [r0]
 1420 0266 9446     		mov	ip, r2
 1421 0268 6344     		add	r3, r3, ip
 1422 026a 1A88     		ldrh	r2, [r3]
 1423 026c 2D49     		ldr	r1, .L74
 1424 026e 1140     		ands	r1, r2
 1425 0270 2E4A     		ldr	r2, .L74+8
 1426 0272 0A43     		orrs	r2, r1
 1427 0274 1A80     		strh	r2, [r3]
 1428              	.LBB8:
 733:Drivers/STM32F0xx_HAL_Driver/Src/stm32f0xx_hal_pcd.c ****       PCD_SET_EP_TX_STATUS(hpcd->Instance, ep->num, USB_EP_TX_DIS)
 1429              		.loc 1 733 7 view .LVU310
 733:Drivers/STM32F0xx_HAL_Driver/Src/stm32f0xx_hal_pcd.c ****       PCD_SET_EP_TX_STATUS(hpcd->Instance, ep->num, USB_EP_TX_DIS)
 1430              		.loc 1 733 7 view .LVU311
 1431 0276 2178     		ldrb	r1, [r4]
 1432 0278 8900     		lsls	r1, r1, #2
 1433 027a 0368     		ldr	r3, [r0]
 1434 027c 9C46     		mov	ip, r3
 1435 027e 6144     		add	r1, r1, ip
 1436 0280 0B88     		ldrh	r3, [r1]
 1437 0282 314A     		ldr	r2, .L74+36
 1438 0284 1A40     		ands	r2, r3
 1439              	.LVL90:
 733:Drivers/STM32F0xx_HAL_Driver/Src/stm32f0xx_hal_pcd.c ****       PCD_SET_EP_TX_STATUS(hpcd->Instance, ep->num, USB_EP_TX_DIS)
 1440              		.loc 1 733 7 view .LVU312
 733:Drivers/STM32F0xx_HAL_Driver/Src/stm32f0xx_hal_pcd.c ****       PCD_SET_EP_TX_STATUS(hpcd->Instance, ep->num, USB_EP_TX_DIS)
 1441              		.loc 1 733 7 view .LVU313
 733:Drivers/STM32F0xx_HAL_Driver/Src/stm32f0xx_hal_pcd.c ****       PCD_SET_EP_TX_STATUS(hpcd->Instance, ep->num, USB_EP_TX_DIS)
 1442              		.loc 1 733 7 view .LVU314
 733:Drivers/STM32F0xx_HAL_Driver/Src/stm32f0xx_hal_pcd.c ****       PCD_SET_EP_TX_STATUS(hpcd->Instance, ep->num, USB_EP_TX_DIS)
 1443              		.loc 1 733 7 view .LVU315
 1444 0286 C023     		movs	r3, #192
 1445 0288 9B01     		lsls	r3, r3, #6
 1446 028a 5340     		eors	r3, r2
 1447              	.LVL91:
 733:Drivers/STM32F0xx_HAL_Driver/Src/stm32f0xx_hal_pcd.c ****       PCD_SET_EP_TX_STATUS(hpcd->Instance, ep->num, USB_EP_TX_DIS)
 1448              		.loc 1 733 7 view .LVU316
 1449 028c 264A     		ldr	r2, .L74+4
 1450 028e 1343     		orrs	r3, r2
 1451              	.LVL92:
 733:Drivers/STM32F0xx_HAL_Driver/Src/stm32f0xx_hal_pcd.c ****       PCD_SET_EP_TX_STATUS(hpcd->Instance, ep->num, USB_EP_TX_DIS)
 1452              		.loc 1 733 7 is_stmt 0 view .LVU317
 1453 0290 0B80     		strh	r3, [r1]
 1454              	.LVL93:
 733:Drivers/STM32F0xx_HAL_Driver/Src/stm32f0xx_hal_pcd.c ****       PCD_SET_EP_TX_STATUS(hpcd->Instance, ep->num, USB_EP_TX_DIS)
 1455              		.loc 1 733 7 view .LVU318
 1456              	.LBE8:
 1457              	.LBB9:
 734:Drivers/STM32F0xx_HAL_Driver/Src/stm32f0xx_hal_pcd.c ****     }
 1458              		.loc 1 734 7 is_stmt 1 view .LVU319
 734:Drivers/STM32F0xx_HAL_Driver/Src/stm32f0xx_hal_pcd.c ****     }
 1459              		.loc 1 734 7 view .LVU320
 1460 0292 2378     		ldrb	r3, [r4]
 1461 0294 9B00     		lsls	r3, r3, #2
 1462 0296 0168     		ldr	r1, [r0]
 1463 0298 8C46     		mov	ip, r1
ARM GAS  /tmp/ccEIExPI.s 			page 42


 1464 029a 6344     		add	r3, r3, ip
 1465 029c 1988     		ldrh	r1, [r3]
 1466 029e 244C     		ldr	r4, .L74+12
 1467              	.LVL94:
 734:Drivers/STM32F0xx_HAL_Driver/Src/stm32f0xx_hal_pcd.c ****     }
 1468              		.loc 1 734 7 is_stmt 0 view .LVU321
 1469 02a0 2140     		ands	r1, r4
 1470              	.LVL95:
 734:Drivers/STM32F0xx_HAL_Driver/Src/stm32f0xx_hal_pcd.c ****     }
 1471              		.loc 1 734 7 is_stmt 1 view .LVU322
 734:Drivers/STM32F0xx_HAL_Driver/Src/stm32f0xx_hal_pcd.c ****     }
 1472              		.loc 1 734 7 view .LVU323
 734:Drivers/STM32F0xx_HAL_Driver/Src/stm32f0xx_hal_pcd.c ****     }
 1473              		.loc 1 734 7 view .LVU324
 1474 02a2 0A43     		orrs	r2, r1
 1475 02a4 1A80     		strh	r2, [r3]
 1476              	.LBE9:
 1477 02a6 0FE7     		b	.L61
 1478              	.LVL96:
 1479              	.L67:
 739:Drivers/STM32F0xx_HAL_Driver/Src/stm32f0xx_hal_pcd.c ****       PCD_CLEAR_TX_DTOG(hpcd->Instance, ep->num)
 1480              		.loc 1 739 7 view .LVU325
 1481 02a8 2378     		ldrb	r3, [r4]
 1482 02aa 9B00     		lsls	r3, r3, #2
 1483 02ac 0268     		ldr	r2, [r0]
 1484 02ae 9446     		mov	ip, r2
 1485 02b0 6344     		add	r3, r3, ip
 1486 02b2 1A88     		ldrh	r2, [r3]
 1487 02b4 5104     		lsls	r1, r2, #17
 1488 02b6 04D5     		bpl	.L70
 739:Drivers/STM32F0xx_HAL_Driver/Src/stm32f0xx_hal_pcd.c ****       PCD_CLEAR_TX_DTOG(hpcd->Instance, ep->num)
 1489              		.loc 1 739 7 discriminator 1 view .LVU326
 1490 02b8 1A49     		ldr	r1, .L74
 1491 02ba 0A40     		ands	r2, r1
 1492 02bc 2149     		ldr	r1, .L74+32
 1493 02be 0A43     		orrs	r2, r1
 1494 02c0 1A80     		strh	r2, [r3]
 1495              	.L70:
 740:Drivers/STM32F0xx_HAL_Driver/Src/stm32f0xx_hal_pcd.c ****       PCD_RX_DTOG(hpcd->Instance, ep->num);
 1496              		.loc 1 740 7 view .LVU327
 1497 02c2 2378     		ldrb	r3, [r4]
 1498 02c4 9B00     		lsls	r3, r3, #2
 1499 02c6 0268     		ldr	r2, [r0]
 1500 02c8 9446     		mov	ip, r2
 1501 02ca 6344     		add	r3, r3, ip
 1502 02cc 1A88     		ldrh	r2, [r3]
 1503 02ce 5106     		lsls	r1, r2, #25
 1504 02d0 04D5     		bpl	.L71
 740:Drivers/STM32F0xx_HAL_Driver/Src/stm32f0xx_hal_pcd.c ****       PCD_RX_DTOG(hpcd->Instance, ep->num);
 1505              		.loc 1 740 7 discriminator 1 view .LVU328
 1506 02d2 1449     		ldr	r1, .L74
 1507 02d4 0A40     		ands	r2, r1
 1508 02d6 1549     		ldr	r1, .L74+8
 1509 02d8 0A43     		orrs	r2, r1
 1510 02da 1A80     		strh	r2, [r3]
 1511              	.L71:
 741:Drivers/STM32F0xx_HAL_Driver/Src/stm32f0xx_hal_pcd.c ****       /* Configure DISABLE status for the Endpoint*/
ARM GAS  /tmp/ccEIExPI.s 			page 43


 1512              		.loc 1 741 7 view .LVU329
 1513 02dc 2378     		ldrb	r3, [r4]
 1514 02de 9B00     		lsls	r3, r3, #2
 1515 02e0 0268     		ldr	r2, [r0]
 1516 02e2 9446     		mov	ip, r2
 1517 02e4 6344     		add	r3, r3, ip
 1518 02e6 1A88     		ldrh	r2, [r3]
 1519 02e8 0E49     		ldr	r1, .L74
 1520 02ea 1140     		ands	r1, r2
 1521 02ec 154A     		ldr	r2, .L74+32
 1522 02ee 0A43     		orrs	r2, r1
 1523 02f0 1A80     		strh	r2, [r3]
 1524              	.LBB10:
 743:Drivers/STM32F0xx_HAL_Driver/Src/stm32f0xx_hal_pcd.c ****       PCD_SET_EP_RX_STATUS(hpcd->Instance, ep->num, USB_EP_RX_DIS)
 1525              		.loc 1 743 7 view .LVU330
 743:Drivers/STM32F0xx_HAL_Driver/Src/stm32f0xx_hal_pcd.c ****       PCD_SET_EP_RX_STATUS(hpcd->Instance, ep->num, USB_EP_RX_DIS)
 1526              		.loc 1 743 7 view .LVU331
 1527 02f2 2178     		ldrb	r1, [r4]
 1528 02f4 8900     		lsls	r1, r1, #2
 1529 02f6 0368     		ldr	r3, [r0]
 1530 02f8 9C46     		mov	ip, r3
 1531 02fa 6144     		add	r1, r1, ip
 1532 02fc 0B88     		ldrh	r3, [r1]
 1533 02fe 0C4A     		ldr	r2, .L74+12
 1534 0300 1340     		ands	r3, r2
 1535              	.LVL97:
 743:Drivers/STM32F0xx_HAL_Driver/Src/stm32f0xx_hal_pcd.c ****       PCD_SET_EP_RX_STATUS(hpcd->Instance, ep->num, USB_EP_RX_DIS)
 1536              		.loc 1 743 7 view .LVU332
 743:Drivers/STM32F0xx_HAL_Driver/Src/stm32f0xx_hal_pcd.c ****       PCD_SET_EP_RX_STATUS(hpcd->Instance, ep->num, USB_EP_RX_DIS)
 1537              		.loc 1 743 7 view .LVU333
 743:Drivers/STM32F0xx_HAL_Driver/Src/stm32f0xx_hal_pcd.c ****       PCD_SET_EP_RX_STATUS(hpcd->Instance, ep->num, USB_EP_RX_DIS)
 1538              		.loc 1 743 7 view .LVU334
 1539 0302 094A     		ldr	r2, .L74+4
 1540 0304 1343     		orrs	r3, r2
 1541              	.LVL98:
 743:Drivers/STM32F0xx_HAL_Driver/Src/stm32f0xx_hal_pcd.c ****       PCD_SET_EP_RX_STATUS(hpcd->Instance, ep->num, USB_EP_RX_DIS)
 1542              		.loc 1 743 7 is_stmt 0 view .LVU335
 1543 0306 0B80     		strh	r3, [r1]
 1544              	.LVL99:
 743:Drivers/STM32F0xx_HAL_Driver/Src/stm32f0xx_hal_pcd.c ****       PCD_SET_EP_RX_STATUS(hpcd->Instance, ep->num, USB_EP_RX_DIS)
 1545              		.loc 1 743 7 view .LVU336
 1546              	.LBE10:
 1547              	.LBB11:
 744:Drivers/STM32F0xx_HAL_Driver/Src/stm32f0xx_hal_pcd.c ****     }
 1548              		.loc 1 744 7 is_stmt 1 view .LVU337
 744:Drivers/STM32F0xx_HAL_Driver/Src/stm32f0xx_hal_pcd.c ****     }
 1549              		.loc 1 744 7 view .LVU338
 1550 0308 2378     		ldrb	r3, [r4]
 1551 030a 9B00     		lsls	r3, r3, #2
 1552 030c 0168     		ldr	r1, [r0]
 1553 030e 8C46     		mov	ip, r1
 1554 0310 6344     		add	r3, r3, ip
 1555 0312 1988     		ldrh	r1, [r3]
 1556 0314 0C4C     		ldr	r4, .L74+36
 1557              	.LVL100:
 744:Drivers/STM32F0xx_HAL_Driver/Src/stm32f0xx_hal_pcd.c ****     }
 1558              		.loc 1 744 7 is_stmt 0 view .LVU339
ARM GAS  /tmp/ccEIExPI.s 			page 44


 1559 0316 2140     		ands	r1, r4
 1560              	.LVL101:
 744:Drivers/STM32F0xx_HAL_Driver/Src/stm32f0xx_hal_pcd.c ****     }
 1561              		.loc 1 744 7 is_stmt 1 view .LVU340
 744:Drivers/STM32F0xx_HAL_Driver/Src/stm32f0xx_hal_pcd.c ****     }
 1562              		.loc 1 744 7 view .LVU341
 744:Drivers/STM32F0xx_HAL_Driver/Src/stm32f0xx_hal_pcd.c ****     }
 1563              		.loc 1 744 7 view .LVU342
 1564 0318 0A43     		orrs	r2, r1
 1565 031a 1A80     		strh	r2, [r3]
 1566 031c D4E6     		b	.L61
 1567              	.LVL102:
 1568              	.L72:
 744:Drivers/STM32F0xx_HAL_Driver/Src/stm32f0xx_hal_pcd.c ****     }
 1569              		.loc 1 744 7 is_stmt 0 view .LVU343
 1570              	.LBE11:
 672:Drivers/STM32F0xx_HAL_Driver/Src/stm32f0xx_hal_pcd.c **** 
 1571              		.loc 1 672 3 view .LVU344
 1572 031e 0220     		movs	r0, #2
 1573              	.LVL103:
 672:Drivers/STM32F0xx_HAL_Driver/Src/stm32f0xx_hal_pcd.c **** 
 1574              		.loc 1 672 3 view .LVU345
 1575 0320 D7E6     		b	.L52
 1576              	.L75:
 1577 0322 C046     		.align	2
 1578              	.L74:
 1579 0324 0F0F0000 		.word	3855
 1580 0328 8080FFFF 		.word	-32640
 1581 032c C080FFFF 		.word	-32576
 1582 0330 BF8FFFFF 		.word	-28737
 1583 0334 8F89FFFF 		.word	-30321
 1584 0338 04040000 		.word	1028
 1585 033c 06040000 		.word	1030
 1586 0340 0080FFFF 		.word	-32768
 1587 0344 80C0FFFF 		.word	-16256
 1588 0348 8FBFFFFF 		.word	-16497
 1589 034c 0F0E0000 		.word	3599
 1590 0350 8081FFFF 		.word	-32384
 1591              		.cfi_endproc
 1592              	.LFE58:
 1594              		.section	.text.HAL_PCD_EP_Close,"ax",%progbits
 1595              		.align	1
 1596              		.global	HAL_PCD_EP_Close
 1597              		.syntax unified
 1598              		.code	16
 1599              		.thumb_func
 1600              		.fpu softvfp
 1602              	HAL_PCD_EP_Close:
 1603              	.LVL104:
 1604              	.LFB59:
 751:Drivers/STM32F0xx_HAL_Driver/Src/stm32f0xx_hal_pcd.c **** 
 752:Drivers/STM32F0xx_HAL_Driver/Src/stm32f0xx_hal_pcd.c **** 
 753:Drivers/STM32F0xx_HAL_Driver/Src/stm32f0xx_hal_pcd.c **** /**
 754:Drivers/STM32F0xx_HAL_Driver/Src/stm32f0xx_hal_pcd.c ****   * @brief  Deactivate an endpoint
 755:Drivers/STM32F0xx_HAL_Driver/Src/stm32f0xx_hal_pcd.c ****   * @param  hpcd PCD handle
 756:Drivers/STM32F0xx_HAL_Driver/Src/stm32f0xx_hal_pcd.c ****   * @param  ep_addr endpoint address
 757:Drivers/STM32F0xx_HAL_Driver/Src/stm32f0xx_hal_pcd.c ****   * @retval HAL status
ARM GAS  /tmp/ccEIExPI.s 			page 45


 758:Drivers/STM32F0xx_HAL_Driver/Src/stm32f0xx_hal_pcd.c ****   */
 759:Drivers/STM32F0xx_HAL_Driver/Src/stm32f0xx_hal_pcd.c **** HAL_StatusTypeDef HAL_PCD_EP_Close(PCD_HandleTypeDef *hpcd, uint8_t ep_addr)
 760:Drivers/STM32F0xx_HAL_Driver/Src/stm32f0xx_hal_pcd.c **** {  
 1605              		.loc 1 760 1 is_stmt 1 view -0
 1606              		.cfi_startproc
 1607              		@ args = 0, pretend = 0, frame = 0
 1608              		@ frame_needed = 0, uses_anonymous_args = 0
 1609              		.loc 1 760 1 is_stmt 0 view .LVU347
 1610 0000 30B5     		push	{r4, r5, lr}
 1611              	.LCFI6:
 1612              		.cfi_def_cfa_offset 12
 1613              		.cfi_offset 4, -12
 1614              		.cfi_offset 5, -8
 1615              		.cfi_offset 14, -4
 761:Drivers/STM32F0xx_HAL_Driver/Src/stm32f0xx_hal_pcd.c ****   PCD_EPTypeDef *ep;
 1616              		.loc 1 761 3 is_stmt 1 view .LVU348
 762:Drivers/STM32F0xx_HAL_Driver/Src/stm32f0xx_hal_pcd.c ****   
 763:Drivers/STM32F0xx_HAL_Driver/Src/stm32f0xx_hal_pcd.c ****   if ((ep_addr & 0x80U) == 0x80U)
 1617              		.loc 1 763 3 view .LVU349
 1618              		.loc 1 763 25 is_stmt 0 view .LVU350
 1619 0002 4AB2     		sxtb	r2, r1
 1620              		.loc 1 763 6 view .LVU351
 1621 0004 002A     		cmp	r2, #0
 1622 0006 3ADB     		blt	.L91
 764:Drivers/STM32F0xx_HAL_Driver/Src/stm32f0xx_hal_pcd.c ****   {
 765:Drivers/STM32F0xx_HAL_Driver/Src/stm32f0xx_hal_pcd.c ****     ep = &hpcd->IN_ep[ep_addr & 0x7FU];
 766:Drivers/STM32F0xx_HAL_Driver/Src/stm32f0xx_hal_pcd.c ****   }
 767:Drivers/STM32F0xx_HAL_Driver/Src/stm32f0xx_hal_pcd.c ****   else
 768:Drivers/STM32F0xx_HAL_Driver/Src/stm32f0xx_hal_pcd.c ****   {
 769:Drivers/STM32F0xx_HAL_Driver/Src/stm32f0xx_hal_pcd.c ****     ep = &hpcd->OUT_ep[ep_addr & 0x7FU];
 1623              		.loc 1 769 5 is_stmt 1 view .LVU352
 1624              		.loc 1 769 32 is_stmt 0 view .LVU353
 1625 0008 7F23     		movs	r3, #127
 1626 000a 0B40     		ands	r3, r1
 1627              		.loc 1 769 8 view .LVU354
 1628 000c DD00     		lsls	r5, r3, #3
 1629 000e ED1A     		subs	r5, r5, r3
 1630 0010 AB00     		lsls	r3, r5, #2
 1631 0012 0933     		adds	r3, r3, #9
 1632 0014 FF33     		adds	r3, r3, #255
 1633 0016 C318     		adds	r3, r0, r3
 1634              	.LVL105:
 1635              	.L78:
 770:Drivers/STM32F0xx_HAL_Driver/Src/stm32f0xx_hal_pcd.c ****   }
 771:Drivers/STM32F0xx_HAL_Driver/Src/stm32f0xx_hal_pcd.c ****   ep->num   = ep_addr & 0x7FU;
 1636              		.loc 1 771 3 is_stmt 1 view .LVU355
 1637              		.loc 1 771 23 is_stmt 0 view .LVU356
 1638 0018 7F24     		movs	r4, #127
 1639 001a 0C40     		ands	r4, r1
 1640              		.loc 1 771 13 view .LVU357
 1641 001c 1C70     		strb	r4, [r3]
 772:Drivers/STM32F0xx_HAL_Driver/Src/stm32f0xx_hal_pcd.c ****   
 773:Drivers/STM32F0xx_HAL_Driver/Src/stm32f0xx_hal_pcd.c ****   ep->is_in = (0x80U & ep_addr) != 0U;
 1642              		.loc 1 773 3 is_stmt 1 view .LVU358
 1643              		.loc 1 773 33 is_stmt 0 view .LVU359
 1644 001e D20F     		lsrs	r2, r2, #31
 1645              		.loc 1 773 13 view .LVU360
ARM GAS  /tmp/ccEIExPI.s 			page 46


 1646 0020 5A70     		strb	r2, [r3, #1]
 774:Drivers/STM32F0xx_HAL_Driver/Src/stm32f0xx_hal_pcd.c ****   
 775:Drivers/STM32F0xx_HAL_Driver/Src/stm32f0xx_hal_pcd.c ****   __HAL_LOCK(hpcd); 
 1647              		.loc 1 775 3 is_stmt 1 view .LVU361
 1648              		.loc 1 775 3 view .LVU362
 1649 0022 F422     		movs	r2, #244
 1650 0024 5200     		lsls	r2, r2, #1
 1651 0026 825C     		ldrb	r2, [r0, r2]
 1652 0028 012A     		cmp	r2, #1
 1653 002a 00D1     		bne	.LCB1561
 1654 002c C1E0     		b	.L90	@long jump
 1655              	.LCB1561:
 1656              		.loc 1 775 3 discriminator 2 view .LVU363
 1657 002e F422     		movs	r2, #244
 1658 0030 5200     		lsls	r2, r2, #1
 1659 0032 0121     		movs	r1, #1
 1660              	.LVL106:
 1661              		.loc 1 775 3 is_stmt 0 discriminator 2 view .LVU364
 1662 0034 8154     		strb	r1, [r0, r2]
 776:Drivers/STM32F0xx_HAL_Driver/Src/stm32f0xx_hal_pcd.c **** 
 777:Drivers/STM32F0xx_HAL_Driver/Src/stm32f0xx_hal_pcd.c ****   if (ep->doublebuffer == 0U) 
 1663              		.loc 1 777 3 is_stmt 1 discriminator 2 view .LVU365
 1664              		.loc 1 777 9 is_stmt 0 discriminator 2 view .LVU366
 1665 0036 9A7A     		ldrb	r2, [r3, #10]
 1666              		.loc 1 777 6 discriminator 2 view .LVU367
 1667 0038 002A     		cmp	r2, #0
 1668 003a 41D1     		bne	.L80
 778:Drivers/STM32F0xx_HAL_Driver/Src/stm32f0xx_hal_pcd.c ****   {
 779:Drivers/STM32F0xx_HAL_Driver/Src/stm32f0xx_hal_pcd.c ****     if (ep->is_in)
 1669              		.loc 1 779 5 is_stmt 1 view .LVU368
 1670              		.loc 1 779 11 is_stmt 0 view .LVU369
 1671 003c 5A78     		ldrb	r2, [r3, #1]
 1672              		.loc 1 779 8 view .LVU370
 1673 003e 002A     		cmp	r2, #0
 1674 0040 25D0     		beq	.L81
 780:Drivers/STM32F0xx_HAL_Driver/Src/stm32f0xx_hal_pcd.c ****     {
 781:Drivers/STM32F0xx_HAL_Driver/Src/stm32f0xx_hal_pcd.c ****       PCD_CLEAR_TX_DTOG(hpcd->Instance, ep->num)
 1675              		.loc 1 781 7 is_stmt 1 view .LVU371
 1676 0042 1A78     		ldrb	r2, [r3]
 1677 0044 9200     		lsls	r2, r2, #2
 1678 0046 0168     		ldr	r1, [r0]
 1679 0048 8C46     		mov	ip, r1
 1680 004a 6244     		add	r2, r2, ip
 1681 004c 1188     		ldrh	r1, [r2]
 1682 004e 4C06     		lsls	r4, r1, #25
 1683 0050 04D5     		bpl	.L82
 1684              		.loc 1 781 7 discriminator 1 view .LVU372
 1685 0052 594C     		ldr	r4, .L92
 1686 0054 2140     		ands	r1, r4
 1687 0056 594C     		ldr	r4, .L92+4
 1688 0058 2143     		orrs	r1, r4
 1689 005a 1180     		strh	r1, [r2]
 1690              	.L82:
 1691              	.LBB12:
 782:Drivers/STM32F0xx_HAL_Driver/Src/stm32f0xx_hal_pcd.c ****       /* Configure DISABLE status for the Endpoint*/
 783:Drivers/STM32F0xx_HAL_Driver/Src/stm32f0xx_hal_pcd.c ****       PCD_SET_EP_TX_STATUS(hpcd->Instance, ep->num, USB_EP_TX_DIS)
 1692              		.loc 1 783 7 view .LVU373
ARM GAS  /tmp/ccEIExPI.s 			page 47


 1693              		.loc 1 783 7 view .LVU374
 1694 005c 1B78     		ldrb	r3, [r3]
 1695              	.LVL107:
 1696              		.loc 1 783 7 is_stmt 0 view .LVU375
 1697 005e 9B00     		lsls	r3, r3, #2
 1698 0060 0268     		ldr	r2, [r0]
 1699 0062 9446     		mov	ip, r2
 1700 0064 6344     		add	r3, r3, ip
 1701 0066 1A88     		ldrh	r2, [r3]
 1702 0068 5549     		ldr	r1, .L92+8
 1703 006a 1140     		ands	r1, r2
 1704              	.LVL108:
 1705              		.loc 1 783 7 is_stmt 1 view .LVU376
 1706              		.loc 1 783 7 view .LVU377
 1707              		.loc 1 783 7 view .LVU378
 1708 006c 554A     		ldr	r2, .L92+12
 1709 006e 0A43     		orrs	r2, r1
 1710 0070 1A80     		strh	r2, [r3]
 1711              	.LVL109:
 1712              	.L83:
 1713              		.loc 1 783 7 is_stmt 0 view .LVU379
 1714              	.LBE12:
 784:Drivers/STM32F0xx_HAL_Driver/Src/stm32f0xx_hal_pcd.c ****     }
 785:Drivers/STM32F0xx_HAL_Driver/Src/stm32f0xx_hal_pcd.c ****     else
 786:Drivers/STM32F0xx_HAL_Driver/Src/stm32f0xx_hal_pcd.c ****     {
 787:Drivers/STM32F0xx_HAL_Driver/Src/stm32f0xx_hal_pcd.c ****       PCD_CLEAR_RX_DTOG(hpcd->Instance, ep->num)
 788:Drivers/STM32F0xx_HAL_Driver/Src/stm32f0xx_hal_pcd.c ****       /* Configure DISABLE status for the Endpoint*/
 789:Drivers/STM32F0xx_HAL_Driver/Src/stm32f0xx_hal_pcd.c ****       PCD_SET_EP_RX_STATUS(hpcd->Instance, ep->num, USB_EP_RX_DIS)
 790:Drivers/STM32F0xx_HAL_Driver/Src/stm32f0xx_hal_pcd.c ****     }
 791:Drivers/STM32F0xx_HAL_Driver/Src/stm32f0xx_hal_pcd.c ****   }
 792:Drivers/STM32F0xx_HAL_Driver/Src/stm32f0xx_hal_pcd.c ****   /*Double Buffer*/
 793:Drivers/STM32F0xx_HAL_Driver/Src/stm32f0xx_hal_pcd.c ****   else
 794:Drivers/STM32F0xx_HAL_Driver/Src/stm32f0xx_hal_pcd.c ****   { 
 795:Drivers/STM32F0xx_HAL_Driver/Src/stm32f0xx_hal_pcd.c ****     if (ep->is_in==0U)
 796:Drivers/STM32F0xx_HAL_Driver/Src/stm32f0xx_hal_pcd.c ****     {
 797:Drivers/STM32F0xx_HAL_Driver/Src/stm32f0xx_hal_pcd.c ****       /* Clear the data toggle bits for the endpoint IN/OUT*/
 798:Drivers/STM32F0xx_HAL_Driver/Src/stm32f0xx_hal_pcd.c ****       PCD_CLEAR_RX_DTOG(hpcd->Instance, ep->num)
 799:Drivers/STM32F0xx_HAL_Driver/Src/stm32f0xx_hal_pcd.c ****       PCD_CLEAR_TX_DTOG(hpcd->Instance, ep->num)
 800:Drivers/STM32F0xx_HAL_Driver/Src/stm32f0xx_hal_pcd.c ****       
 801:Drivers/STM32F0xx_HAL_Driver/Src/stm32f0xx_hal_pcd.c ****       /* Reset value of the data toggle bits for the endpoint out*/
 802:Drivers/STM32F0xx_HAL_Driver/Src/stm32f0xx_hal_pcd.c ****       PCD_TX_DTOG(hpcd->Instance, ep->num);
 803:Drivers/STM32F0xx_HAL_Driver/Src/stm32f0xx_hal_pcd.c ****       
 804:Drivers/STM32F0xx_HAL_Driver/Src/stm32f0xx_hal_pcd.c ****       PCD_SET_EP_RX_STATUS(hpcd->Instance, ep->num, USB_EP_RX_DIS)
 805:Drivers/STM32F0xx_HAL_Driver/Src/stm32f0xx_hal_pcd.c ****       PCD_SET_EP_TX_STATUS(hpcd->Instance, ep->num, USB_EP_TX_DIS)
 806:Drivers/STM32F0xx_HAL_Driver/Src/stm32f0xx_hal_pcd.c ****     }
 807:Drivers/STM32F0xx_HAL_Driver/Src/stm32f0xx_hal_pcd.c ****     else
 808:Drivers/STM32F0xx_HAL_Driver/Src/stm32f0xx_hal_pcd.c ****     {
 809:Drivers/STM32F0xx_HAL_Driver/Src/stm32f0xx_hal_pcd.c ****       /* Clear the data toggle bits for the endpoint IN/OUT*/
 810:Drivers/STM32F0xx_HAL_Driver/Src/stm32f0xx_hal_pcd.c ****       PCD_CLEAR_RX_DTOG(hpcd->Instance, ep->num)
 811:Drivers/STM32F0xx_HAL_Driver/Src/stm32f0xx_hal_pcd.c ****       PCD_CLEAR_TX_DTOG(hpcd->Instance, ep->num)
 812:Drivers/STM32F0xx_HAL_Driver/Src/stm32f0xx_hal_pcd.c ****       PCD_RX_DTOG(hpcd->Instance, ep->num);
 813:Drivers/STM32F0xx_HAL_Driver/Src/stm32f0xx_hal_pcd.c ****       /* Configure DISABLE status for the Endpoint*/
 814:Drivers/STM32F0xx_HAL_Driver/Src/stm32f0xx_hal_pcd.c ****       PCD_SET_EP_TX_STATUS(hpcd->Instance, ep->num, USB_EP_TX_DIS)
 815:Drivers/STM32F0xx_HAL_Driver/Src/stm32f0xx_hal_pcd.c ****       PCD_SET_EP_RX_STATUS(hpcd->Instance, ep->num, USB_EP_RX_DIS)
 816:Drivers/STM32F0xx_HAL_Driver/Src/stm32f0xx_hal_pcd.c ****     }
 817:Drivers/STM32F0xx_HAL_Driver/Src/stm32f0xx_hal_pcd.c ****   } 
 818:Drivers/STM32F0xx_HAL_Driver/Src/stm32f0xx_hal_pcd.c ****   
ARM GAS  /tmp/ccEIExPI.s 			page 48


 819:Drivers/STM32F0xx_HAL_Driver/Src/stm32f0xx_hal_pcd.c ****   __HAL_UNLOCK(hpcd);   
 1715              		.loc 1 819 3 is_stmt 1 view .LVU380
 1716              		.loc 1 819 3 view .LVU381
 1717 0072 F423     		movs	r3, #244
 1718 0074 5B00     		lsls	r3, r3, #1
 1719 0076 0022     		movs	r2, #0
 1720 0078 C254     		strb	r2, [r0, r3]
 820:Drivers/STM32F0xx_HAL_Driver/Src/stm32f0xx_hal_pcd.c ****   return HAL_OK;
 1721              		.loc 1 820 3 view .LVU382
 1722              		.loc 1 820 10 is_stmt 0 view .LVU383
 1723 007a 0020     		movs	r0, #0
 1724              	.LVL110:
 1725              	.L79:
 821:Drivers/STM32F0xx_HAL_Driver/Src/stm32f0xx_hal_pcd.c **** }
 1726              		.loc 1 821 1 view .LVU384
 1727              		@ sp needed
 1728 007c 30BD     		pop	{r4, r5, pc}
 1729              	.LVL111:
 1730              	.L91:
 765:Drivers/STM32F0xx_HAL_Driver/Src/stm32f0xx_hal_pcd.c ****   }
 1731              		.loc 1 765 5 is_stmt 1 view .LVU385
 765:Drivers/STM32F0xx_HAL_Driver/Src/stm32f0xx_hal_pcd.c ****   }
 1732              		.loc 1 765 31 is_stmt 0 view .LVU386
 1733 007e 7F23     		movs	r3, #127
 1734 0080 0B40     		ands	r3, r1
 765:Drivers/STM32F0xx_HAL_Driver/Src/stm32f0xx_hal_pcd.c ****   }
 1735              		.loc 1 765 8 view .LVU387
 1736 0082 DC00     		lsls	r4, r3, #3
 1737 0084 E41A     		subs	r4, r4, r3
 1738 0086 A300     		lsls	r3, r4, #2
 1739 0088 2833     		adds	r3, r3, #40
 1740 008a C318     		adds	r3, r0, r3
 1741              	.LVL112:
 765:Drivers/STM32F0xx_HAL_Driver/Src/stm32f0xx_hal_pcd.c ****   }
 1742              		.loc 1 765 8 view .LVU388
 1743 008c C4E7     		b	.L78
 1744              	.LVL113:
 1745              	.L81:
 787:Drivers/STM32F0xx_HAL_Driver/Src/stm32f0xx_hal_pcd.c ****       /* Configure DISABLE status for the Endpoint*/
 1746              		.loc 1 787 7 is_stmt 1 view .LVU389
 1747 008e 1A78     		ldrb	r2, [r3]
 1748 0090 9200     		lsls	r2, r2, #2
 1749 0092 0168     		ldr	r1, [r0]
 1750 0094 8C46     		mov	ip, r1
 1751 0096 6244     		add	r2, r2, ip
 1752 0098 1188     		ldrh	r1, [r2]
 1753 009a 4C04     		lsls	r4, r1, #17
 1754 009c 04D5     		bpl	.L84
 787:Drivers/STM32F0xx_HAL_Driver/Src/stm32f0xx_hal_pcd.c ****       /* Configure DISABLE status for the Endpoint*/
 1755              		.loc 1 787 7 discriminator 1 view .LVU390
 1756 009e 464C     		ldr	r4, .L92
 1757 00a0 2140     		ands	r1, r4
 1758 00a2 494C     		ldr	r4, .L92+16
 1759 00a4 2143     		orrs	r1, r4
 1760 00a6 1180     		strh	r1, [r2]
 1761              	.L84:
 1762              	.LBB13:
ARM GAS  /tmp/ccEIExPI.s 			page 49


 789:Drivers/STM32F0xx_HAL_Driver/Src/stm32f0xx_hal_pcd.c ****     }
 1763              		.loc 1 789 7 view .LVU391
 789:Drivers/STM32F0xx_HAL_Driver/Src/stm32f0xx_hal_pcd.c ****     }
 1764              		.loc 1 789 7 view .LVU392
 1765 00a8 1B78     		ldrb	r3, [r3]
 1766              	.LVL114:
 789:Drivers/STM32F0xx_HAL_Driver/Src/stm32f0xx_hal_pcd.c ****     }
 1767              		.loc 1 789 7 is_stmt 0 view .LVU393
 1768 00aa 9B00     		lsls	r3, r3, #2
 1769 00ac 0268     		ldr	r2, [r0]
 1770 00ae 9446     		mov	ip, r2
 1771 00b0 6344     		add	r3, r3, ip
 1772 00b2 1A88     		ldrh	r2, [r3]
 1773 00b4 4549     		ldr	r1, .L92+20
 1774 00b6 1140     		ands	r1, r2
 1775              	.LVL115:
 789:Drivers/STM32F0xx_HAL_Driver/Src/stm32f0xx_hal_pcd.c ****     }
 1776              		.loc 1 789 7 is_stmt 1 view .LVU394
 789:Drivers/STM32F0xx_HAL_Driver/Src/stm32f0xx_hal_pcd.c ****     }
 1777              		.loc 1 789 7 view .LVU395
 789:Drivers/STM32F0xx_HAL_Driver/Src/stm32f0xx_hal_pcd.c ****     }
 1778              		.loc 1 789 7 view .LVU396
 1779 00b8 424A     		ldr	r2, .L92+12
 1780 00ba 0A43     		orrs	r2, r1
 1781 00bc 1A80     		strh	r2, [r3]
 1782 00be D8E7     		b	.L83
 1783              	.LVL116:
 1784              	.L80:
 789:Drivers/STM32F0xx_HAL_Driver/Src/stm32f0xx_hal_pcd.c ****     }
 1785              		.loc 1 789 7 is_stmt 0 view .LVU397
 1786              	.LBE13:
 795:Drivers/STM32F0xx_HAL_Driver/Src/stm32f0xx_hal_pcd.c ****     {
 1787              		.loc 1 795 5 is_stmt 1 view .LVU398
 795:Drivers/STM32F0xx_HAL_Driver/Src/stm32f0xx_hal_pcd.c ****     {
 1788              		.loc 1 795 11 is_stmt 0 view .LVU399
 1789 00c0 5A78     		ldrb	r2, [r3, #1]
 795:Drivers/STM32F0xx_HAL_Driver/Src/stm32f0xx_hal_pcd.c ****     {
 1790              		.loc 1 795 8 view .LVU400
 1791 00c2 002A     		cmp	r2, #0
 1792 00c4 3AD1     		bne	.L85
 798:Drivers/STM32F0xx_HAL_Driver/Src/stm32f0xx_hal_pcd.c ****       PCD_CLEAR_TX_DTOG(hpcd->Instance, ep->num)
 1793              		.loc 1 798 7 is_stmt 1 view .LVU401
 1794 00c6 1A78     		ldrb	r2, [r3]
 1795 00c8 9200     		lsls	r2, r2, #2
 1796 00ca 0168     		ldr	r1, [r0]
 1797 00cc 8C46     		mov	ip, r1
 1798 00ce 6244     		add	r2, r2, ip
 1799 00d0 1188     		ldrh	r1, [r2]
 1800 00d2 4C04     		lsls	r4, r1, #17
 1801 00d4 04D5     		bpl	.L86
 798:Drivers/STM32F0xx_HAL_Driver/Src/stm32f0xx_hal_pcd.c ****       PCD_CLEAR_TX_DTOG(hpcd->Instance, ep->num)
 1802              		.loc 1 798 7 discriminator 1 view .LVU402
 1803 00d6 384C     		ldr	r4, .L92
 1804 00d8 2140     		ands	r1, r4
 1805 00da 3B4C     		ldr	r4, .L92+16
 1806 00dc 2143     		orrs	r1, r4
 1807 00de 1180     		strh	r1, [r2]
ARM GAS  /tmp/ccEIExPI.s 			page 50


 1808              	.L86:
 799:Drivers/STM32F0xx_HAL_Driver/Src/stm32f0xx_hal_pcd.c ****       
 1809              		.loc 1 799 7 view .LVU403
 1810 00e0 1A78     		ldrb	r2, [r3]
 1811 00e2 9200     		lsls	r2, r2, #2
 1812 00e4 0168     		ldr	r1, [r0]
 1813 00e6 8C46     		mov	ip, r1
 1814 00e8 6244     		add	r2, r2, ip
 1815 00ea 1188     		ldrh	r1, [r2]
 1816 00ec 4C06     		lsls	r4, r1, #25
 1817 00ee 04D5     		bpl	.L87
 799:Drivers/STM32F0xx_HAL_Driver/Src/stm32f0xx_hal_pcd.c ****       
 1818              		.loc 1 799 7 discriminator 1 view .LVU404
 1819 00f0 314C     		ldr	r4, .L92
 1820 00f2 2140     		ands	r1, r4
 1821 00f4 314C     		ldr	r4, .L92+4
 1822 00f6 2143     		orrs	r1, r4
 1823 00f8 1180     		strh	r1, [r2]
 1824              	.L87:
 802:Drivers/STM32F0xx_HAL_Driver/Src/stm32f0xx_hal_pcd.c ****       
 1825              		.loc 1 802 7 view .LVU405
 1826 00fa 1A78     		ldrb	r2, [r3]
 1827 00fc 9200     		lsls	r2, r2, #2
 1828 00fe 0168     		ldr	r1, [r0]
 1829 0100 8C46     		mov	ip, r1
 1830 0102 6244     		add	r2, r2, ip
 1831 0104 1188     		ldrh	r1, [r2]
 1832 0106 2C4C     		ldr	r4, .L92
 1833 0108 0C40     		ands	r4, r1
 1834 010a 2C49     		ldr	r1, .L92+4
 1835 010c 2143     		orrs	r1, r4
 1836 010e 1180     		strh	r1, [r2]
 1837              	.LBB14:
 804:Drivers/STM32F0xx_HAL_Driver/Src/stm32f0xx_hal_pcd.c ****       PCD_SET_EP_TX_STATUS(hpcd->Instance, ep->num, USB_EP_TX_DIS)
 1838              		.loc 1 804 7 view .LVU406
 804:Drivers/STM32F0xx_HAL_Driver/Src/stm32f0xx_hal_pcd.c ****       PCD_SET_EP_TX_STATUS(hpcd->Instance, ep->num, USB_EP_TX_DIS)
 1839              		.loc 1 804 7 view .LVU407
 1840 0110 1C78     		ldrb	r4, [r3]
 1841 0112 A400     		lsls	r4, r4, #2
 1842 0114 0268     		ldr	r2, [r0]
 1843 0116 9446     		mov	ip, r2
 1844 0118 6444     		add	r4, r4, ip
 1845 011a 2288     		ldrh	r2, [r4]
 1846 011c 2B49     		ldr	r1, .L92+20
 1847 011e 0A40     		ands	r2, r1
 1848              	.LVL117:
 804:Drivers/STM32F0xx_HAL_Driver/Src/stm32f0xx_hal_pcd.c ****       PCD_SET_EP_TX_STATUS(hpcd->Instance, ep->num, USB_EP_TX_DIS)
 1849              		.loc 1 804 7 view .LVU408
 804:Drivers/STM32F0xx_HAL_Driver/Src/stm32f0xx_hal_pcd.c ****       PCD_SET_EP_TX_STATUS(hpcd->Instance, ep->num, USB_EP_TX_DIS)
 1850              		.loc 1 804 7 view .LVU409
 804:Drivers/STM32F0xx_HAL_Driver/Src/stm32f0xx_hal_pcd.c ****       PCD_SET_EP_TX_STATUS(hpcd->Instance, ep->num, USB_EP_TX_DIS)
 1851              		.loc 1 804 7 view .LVU410
 1852 0120 2849     		ldr	r1, .L92+12
 1853 0122 0A43     		orrs	r2, r1
 1854              	.LVL118:
 804:Drivers/STM32F0xx_HAL_Driver/Src/stm32f0xx_hal_pcd.c ****       PCD_SET_EP_TX_STATUS(hpcd->Instance, ep->num, USB_EP_TX_DIS)
 1855              		.loc 1 804 7 is_stmt 0 view .LVU411
ARM GAS  /tmp/ccEIExPI.s 			page 51


 1856 0124 2280     		strh	r2, [r4]
 1857              	.LVL119:
 804:Drivers/STM32F0xx_HAL_Driver/Src/stm32f0xx_hal_pcd.c ****       PCD_SET_EP_TX_STATUS(hpcd->Instance, ep->num, USB_EP_TX_DIS)
 1858              		.loc 1 804 7 view .LVU412
 1859              	.LBE14:
 1860              	.LBB15:
 805:Drivers/STM32F0xx_HAL_Driver/Src/stm32f0xx_hal_pcd.c ****     }
 1861              		.loc 1 805 7 is_stmt 1 view .LVU413
 805:Drivers/STM32F0xx_HAL_Driver/Src/stm32f0xx_hal_pcd.c ****     }
 1862              		.loc 1 805 7 view .LVU414
 1863 0126 1B78     		ldrb	r3, [r3]
 1864              	.LVL120:
 805:Drivers/STM32F0xx_HAL_Driver/Src/stm32f0xx_hal_pcd.c ****     }
 1865              		.loc 1 805 7 is_stmt 0 view .LVU415
 1866 0128 9B00     		lsls	r3, r3, #2
 1867 012a 0268     		ldr	r2, [r0]
 1868 012c 9446     		mov	ip, r2
 1869 012e 6344     		add	r3, r3, ip
 1870 0130 1A88     		ldrh	r2, [r3]
 1871 0132 234C     		ldr	r4, .L92+8
 1872 0134 2240     		ands	r2, r4
 1873              	.LVL121:
 805:Drivers/STM32F0xx_HAL_Driver/Src/stm32f0xx_hal_pcd.c ****     }
 1874              		.loc 1 805 7 is_stmt 1 view .LVU416
 805:Drivers/STM32F0xx_HAL_Driver/Src/stm32f0xx_hal_pcd.c ****     }
 1875              		.loc 1 805 7 view .LVU417
 805:Drivers/STM32F0xx_HAL_Driver/Src/stm32f0xx_hal_pcd.c ****     }
 1876              		.loc 1 805 7 view .LVU418
 1877 0136 1143     		orrs	r1, r2
 1878 0138 1980     		strh	r1, [r3]
 1879              	.LBE15:
 1880 013a 9AE7     		b	.L83
 1881              	.LVL122:
 1882              	.L85:
 810:Drivers/STM32F0xx_HAL_Driver/Src/stm32f0xx_hal_pcd.c ****       PCD_CLEAR_TX_DTOG(hpcd->Instance, ep->num)
 1883              		.loc 1 810 7 view .LVU419
 1884 013c 1A78     		ldrb	r2, [r3]
 1885 013e 9200     		lsls	r2, r2, #2
 1886 0140 0168     		ldr	r1, [r0]
 1887 0142 8C46     		mov	ip, r1
 1888 0144 6244     		add	r2, r2, ip
 1889 0146 1188     		ldrh	r1, [r2]
 1890 0148 4C04     		lsls	r4, r1, #17
 1891 014a 04D5     		bpl	.L88
 810:Drivers/STM32F0xx_HAL_Driver/Src/stm32f0xx_hal_pcd.c ****       PCD_CLEAR_TX_DTOG(hpcd->Instance, ep->num)
 1892              		.loc 1 810 7 discriminator 1 view .LVU420
 1893 014c 1A4C     		ldr	r4, .L92
 1894 014e 2140     		ands	r1, r4
 1895 0150 1D4C     		ldr	r4, .L92+16
 1896 0152 2143     		orrs	r1, r4
 1897 0154 1180     		strh	r1, [r2]
 1898              	.L88:
 811:Drivers/STM32F0xx_HAL_Driver/Src/stm32f0xx_hal_pcd.c ****       PCD_RX_DTOG(hpcd->Instance, ep->num);
 1899              		.loc 1 811 7 view .LVU421
 1900 0156 1A78     		ldrb	r2, [r3]
 1901 0158 9200     		lsls	r2, r2, #2
 1902 015a 0168     		ldr	r1, [r0]
ARM GAS  /tmp/ccEIExPI.s 			page 52


 1903 015c 8C46     		mov	ip, r1
 1904 015e 6244     		add	r2, r2, ip
 1905 0160 1188     		ldrh	r1, [r2]
 1906 0162 4C06     		lsls	r4, r1, #25
 1907 0164 04D5     		bpl	.L89
 811:Drivers/STM32F0xx_HAL_Driver/Src/stm32f0xx_hal_pcd.c ****       PCD_RX_DTOG(hpcd->Instance, ep->num);
 1908              		.loc 1 811 7 discriminator 1 view .LVU422
 1909 0166 144C     		ldr	r4, .L92
 1910 0168 2140     		ands	r1, r4
 1911 016a 144C     		ldr	r4, .L92+4
 1912 016c 2143     		orrs	r1, r4
 1913 016e 1180     		strh	r1, [r2]
 1914              	.L89:
 812:Drivers/STM32F0xx_HAL_Driver/Src/stm32f0xx_hal_pcd.c ****       /* Configure DISABLE status for the Endpoint*/
 1915              		.loc 1 812 7 view .LVU423
 1916 0170 1A78     		ldrb	r2, [r3]
 1917 0172 9200     		lsls	r2, r2, #2
 1918 0174 0168     		ldr	r1, [r0]
 1919 0176 8C46     		mov	ip, r1
 1920 0178 6244     		add	r2, r2, ip
 1921 017a 1188     		ldrh	r1, [r2]
 1922 017c 0E4C     		ldr	r4, .L92
 1923 017e 0C40     		ands	r4, r1
 1924 0180 1149     		ldr	r1, .L92+16
 1925 0182 2143     		orrs	r1, r4
 1926 0184 1180     		strh	r1, [r2]
 1927              	.LBB16:
 814:Drivers/STM32F0xx_HAL_Driver/Src/stm32f0xx_hal_pcd.c ****       PCD_SET_EP_RX_STATUS(hpcd->Instance, ep->num, USB_EP_RX_DIS)
 1928              		.loc 1 814 7 view .LVU424
 814:Drivers/STM32F0xx_HAL_Driver/Src/stm32f0xx_hal_pcd.c ****       PCD_SET_EP_RX_STATUS(hpcd->Instance, ep->num, USB_EP_RX_DIS)
 1929              		.loc 1 814 7 view .LVU425
 1930 0186 1C78     		ldrb	r4, [r3]
 1931 0188 A400     		lsls	r4, r4, #2
 1932 018a 0268     		ldr	r2, [r0]
 1933 018c 9446     		mov	ip, r2
 1934 018e 6444     		add	r4, r4, ip
 1935 0190 2288     		ldrh	r2, [r4]
 1936 0192 0B49     		ldr	r1, .L92+8
 1937 0194 0A40     		ands	r2, r1
 1938              	.LVL123:
 814:Drivers/STM32F0xx_HAL_Driver/Src/stm32f0xx_hal_pcd.c ****       PCD_SET_EP_RX_STATUS(hpcd->Instance, ep->num, USB_EP_RX_DIS)
 1939              		.loc 1 814 7 view .LVU426
 814:Drivers/STM32F0xx_HAL_Driver/Src/stm32f0xx_hal_pcd.c ****       PCD_SET_EP_RX_STATUS(hpcd->Instance, ep->num, USB_EP_RX_DIS)
 1940              		.loc 1 814 7 view .LVU427
 814:Drivers/STM32F0xx_HAL_Driver/Src/stm32f0xx_hal_pcd.c ****       PCD_SET_EP_RX_STATUS(hpcd->Instance, ep->num, USB_EP_RX_DIS)
 1941              		.loc 1 814 7 view .LVU428
 1942 0196 0B49     		ldr	r1, .L92+12
 1943 0198 0A43     		orrs	r2, r1
 1944              	.LVL124:
 814:Drivers/STM32F0xx_HAL_Driver/Src/stm32f0xx_hal_pcd.c ****       PCD_SET_EP_RX_STATUS(hpcd->Instance, ep->num, USB_EP_RX_DIS)
 1945              		.loc 1 814 7 is_stmt 0 view .LVU429
 1946 019a 2280     		strh	r2, [r4]
 1947              	.LVL125:
 814:Drivers/STM32F0xx_HAL_Driver/Src/stm32f0xx_hal_pcd.c ****       PCD_SET_EP_RX_STATUS(hpcd->Instance, ep->num, USB_EP_RX_DIS)
 1948              		.loc 1 814 7 view .LVU430
 1949              	.LBE16:
 1950              	.LBB17:
ARM GAS  /tmp/ccEIExPI.s 			page 53


 815:Drivers/STM32F0xx_HAL_Driver/Src/stm32f0xx_hal_pcd.c ****     }
 1951              		.loc 1 815 7 is_stmt 1 view .LVU431
 815:Drivers/STM32F0xx_HAL_Driver/Src/stm32f0xx_hal_pcd.c ****     }
 1952              		.loc 1 815 7 view .LVU432
 1953 019c 1B78     		ldrb	r3, [r3]
 1954              	.LVL126:
 815:Drivers/STM32F0xx_HAL_Driver/Src/stm32f0xx_hal_pcd.c ****     }
 1955              		.loc 1 815 7 is_stmt 0 view .LVU433
 1956 019e 9B00     		lsls	r3, r3, #2
 1957 01a0 0268     		ldr	r2, [r0]
 1958 01a2 9446     		mov	ip, r2
 1959 01a4 6344     		add	r3, r3, ip
 1960 01a6 1A88     		ldrh	r2, [r3]
 1961 01a8 084C     		ldr	r4, .L92+20
 1962 01aa 2240     		ands	r2, r4
 1963              	.LVL127:
 815:Drivers/STM32F0xx_HAL_Driver/Src/stm32f0xx_hal_pcd.c ****     }
 1964              		.loc 1 815 7 is_stmt 1 view .LVU434
 815:Drivers/STM32F0xx_HAL_Driver/Src/stm32f0xx_hal_pcd.c ****     }
 1965              		.loc 1 815 7 view .LVU435
 815:Drivers/STM32F0xx_HAL_Driver/Src/stm32f0xx_hal_pcd.c ****     }
 1966              		.loc 1 815 7 view .LVU436
 1967 01ac 1143     		orrs	r1, r2
 1968 01ae 1980     		strh	r1, [r3]
 1969 01b0 5FE7     		b	.L83
 1970              	.LVL128:
 1971              	.L90:
 815:Drivers/STM32F0xx_HAL_Driver/Src/stm32f0xx_hal_pcd.c ****     }
 1972              		.loc 1 815 7 is_stmt 0 view .LVU437
 1973              	.LBE17:
 775:Drivers/STM32F0xx_HAL_Driver/Src/stm32f0xx_hal_pcd.c **** 
 1974              		.loc 1 775 3 view .LVU438
 1975 01b2 0220     		movs	r0, #2
 1976              	.LVL129:
 775:Drivers/STM32F0xx_HAL_Driver/Src/stm32f0xx_hal_pcd.c **** 
 1977              		.loc 1 775 3 view .LVU439
 1978 01b4 62E7     		b	.L79
 1979              	.L93:
 1980 01b6 C046     		.align	2
 1981              	.L92:
 1982 01b8 0F0F0000 		.word	3855
 1983 01bc C080FFFF 		.word	-32576
 1984 01c0 BF8FFFFF 		.word	-28737
 1985 01c4 8080FFFF 		.word	-32640
 1986 01c8 80C0FFFF 		.word	-16256
 1987 01cc 8FBFFFFF 		.word	-16497
 1988              		.cfi_endproc
 1989              	.LFE59:
 1991              		.section	.text.HAL_PCD_EP_Receive,"ax",%progbits
 1992              		.align	1
 1993              		.global	HAL_PCD_EP_Receive
 1994              		.syntax unified
 1995              		.code	16
 1996              		.thumb_func
 1997              		.fpu softvfp
 1999              	HAL_PCD_EP_Receive:
 2000              	.LVL130:
ARM GAS  /tmp/ccEIExPI.s 			page 54


 2001              	.LFB60:
 822:Drivers/STM32F0xx_HAL_Driver/Src/stm32f0xx_hal_pcd.c **** 
 823:Drivers/STM32F0xx_HAL_Driver/Src/stm32f0xx_hal_pcd.c **** 
 824:Drivers/STM32F0xx_HAL_Driver/Src/stm32f0xx_hal_pcd.c **** /**
 825:Drivers/STM32F0xx_HAL_Driver/Src/stm32f0xx_hal_pcd.c ****   * @brief  Receive an amount of data  
 826:Drivers/STM32F0xx_HAL_Driver/Src/stm32f0xx_hal_pcd.c ****   * @param  hpcd PCD handle
 827:Drivers/STM32F0xx_HAL_Driver/Src/stm32f0xx_hal_pcd.c ****   * @param  ep_addr endpoint address
 828:Drivers/STM32F0xx_HAL_Driver/Src/stm32f0xx_hal_pcd.c ****   * @param  pBuf pointer to the reception buffer   
 829:Drivers/STM32F0xx_HAL_Driver/Src/stm32f0xx_hal_pcd.c ****   * @param  len amount of data to be received
 830:Drivers/STM32F0xx_HAL_Driver/Src/stm32f0xx_hal_pcd.c ****   * @retval HAL status
 831:Drivers/STM32F0xx_HAL_Driver/Src/stm32f0xx_hal_pcd.c ****   */
 832:Drivers/STM32F0xx_HAL_Driver/Src/stm32f0xx_hal_pcd.c **** HAL_StatusTypeDef HAL_PCD_EP_Receive(PCD_HandleTypeDef *hpcd, uint8_t ep_addr, uint8_t *pBuf, uint3
 833:Drivers/STM32F0xx_HAL_Driver/Src/stm32f0xx_hal_pcd.c **** {
 2002              		.loc 1 833 1 is_stmt 1 view -0
 2003              		.cfi_startproc
 2004              		@ args = 0, pretend = 0, frame = 0
 2005              		@ frame_needed = 0, uses_anonymous_args = 0
 2006              		.loc 1 833 1 is_stmt 0 view .LVU441
 2007 0000 70B5     		push	{r4, r5, r6, lr}
 2008              	.LCFI7:
 2009              		.cfi_def_cfa_offset 16
 2010              		.cfi_offset 4, -16
 2011              		.cfi_offset 5, -12
 2012              		.cfi_offset 6, -8
 2013              		.cfi_offset 14, -4
 834:Drivers/STM32F0xx_HAL_Driver/Src/stm32f0xx_hal_pcd.c ****   
 835:Drivers/STM32F0xx_HAL_Driver/Src/stm32f0xx_hal_pcd.c ****  PCD_EPTypeDef *ep;
 2014              		.loc 1 835 2 is_stmt 1 view .LVU442
 836:Drivers/STM32F0xx_HAL_Driver/Src/stm32f0xx_hal_pcd.c ****   
 837:Drivers/STM32F0xx_HAL_Driver/Src/stm32f0xx_hal_pcd.c ****   ep = &hpcd->OUT_ep[ep_addr & 0x7FU];
 2015              		.loc 1 837 3 view .LVU443
 2016 0002 7F24     		movs	r4, #127
 2017 0004 2140     		ands	r1, r4
 2018              	.LVL131:
 838:Drivers/STM32F0xx_HAL_Driver/Src/stm32f0xx_hal_pcd.c ****   
 839:Drivers/STM32F0xx_HAL_Driver/Src/stm32f0xx_hal_pcd.c ****   /*setup and start the Xfer */
 840:Drivers/STM32F0xx_HAL_Driver/Src/stm32f0xx_hal_pcd.c ****   ep->xfer_buff = pBuf;  
 2019              		.loc 1 840 3 view .LVU444
 2020              		.loc 1 840 17 is_stmt 0 view .LVU445
 2021 0006 CD00     		lsls	r5, r1, #3
 2022 0008 6D1A     		subs	r5, r5, r1
 2023 000a AC00     		lsls	r4, r5, #2
 2024 000c 0419     		adds	r4, r0, r4
 2025 000e 2500     		movs	r5, r4
 2026 0010 1935     		adds	r5, r5, #25
 2027 0012 FF35     		adds	r5, r5, #255
 2028 0014 2A60     		str	r2, [r5]
 841:Drivers/STM32F0xx_HAL_Driver/Src/stm32f0xx_hal_pcd.c ****   ep->xfer_len = len;
 2029              		.loc 1 841 3 is_stmt 1 view .LVU446
 2030              		.loc 1 841 16 is_stmt 0 view .LVU447
 2031 0016 2200     		movs	r2, r4
 2032              	.LVL132:
 2033              		.loc 1 841 16 view .LVU448
 2034 0018 1D32     		adds	r2, r2, #29
 2035 001a FF32     		adds	r2, r2, #255
 2036 001c 1360     		str	r3, [r2]
 842:Drivers/STM32F0xx_HAL_Driver/Src/stm32f0xx_hal_pcd.c ****   ep->xfer_count = 0U;
ARM GAS  /tmp/ccEIExPI.s 			page 55


 2037              		.loc 1 842 3 is_stmt 1 view .LVU449
 2038              		.loc 1 842 18 is_stmt 0 view .LVU450
 2039 001e 0835     		adds	r5, r5, #8
 2040              	.LVL133:
 2041              		.loc 1 842 18 view .LVU451
 2042 0020 0022     		movs	r2, #0
 2043 0022 2A60     		str	r2, [r5]
 843:Drivers/STM32F0xx_HAL_Driver/Src/stm32f0xx_hal_pcd.c ****   ep->is_in = 0U;
 2044              		.loc 1 843 3 is_stmt 1 view .LVU452
 2045              		.loc 1 843 13 is_stmt 0 view .LVU453
 2046 0024 173D     		subs	r5, r5, #23
 2047              	.LVL134:
 2048              		.loc 1 843 13 view .LVU454
 2049 0026 2A70     		strb	r2, [r5]
 844:Drivers/STM32F0xx_HAL_Driver/Src/stm32f0xx_hal_pcd.c ****   ep->num = ep_addr & 0x7FU;
 2050              		.loc 1 844 3 is_stmt 1 view .LVU455
 2051              		.loc 1 844 11 is_stmt 0 view .LVU456
 2052 0028 2200     		movs	r2, r4
 2053 002a 0932     		adds	r2, r2, #9
 2054 002c FF32     		adds	r2, r2, #255
 2055 002e 1170     		strb	r1, [r2]
 845:Drivers/STM32F0xx_HAL_Driver/Src/stm32f0xx_hal_pcd.c ****    
 846:Drivers/STM32F0xx_HAL_Driver/Src/stm32f0xx_hal_pcd.c ****   /* Multi packet transfer*/
 847:Drivers/STM32F0xx_HAL_Driver/Src/stm32f0xx_hal_pcd.c ****   if (ep->xfer_len > ep->maxpacket)
 2056              		.loc 1 847 3 is_stmt 1 view .LVU457
 2057              		.loc 1 847 24 is_stmt 0 view .LVU458
 2058 0030 1534     		adds	r4, r4, #21
 2059 0032 FF34     		adds	r4, r4, #255
 2060 0034 2268     		ldr	r2, [r4]
 2061              		.loc 1 847 6 view .LVU459
 2062 0036 9342     		cmp	r3, r2
 2063 0038 40D9     		bls	.L95
 848:Drivers/STM32F0xx_HAL_Driver/Src/stm32f0xx_hal_pcd.c ****   {
 849:Drivers/STM32F0xx_HAL_Driver/Src/stm32f0xx_hal_pcd.c ****     len=ep->maxpacket;
 2064              		.loc 1 849 5 is_stmt 1 view .LVU460
 2065              	.LVL135:
 850:Drivers/STM32F0xx_HAL_Driver/Src/stm32f0xx_hal_pcd.c ****     ep->xfer_len-=len; 
 2066              		.loc 1 850 5 view .LVU461
 2067              		.loc 1 850 17 is_stmt 0 view .LVU462
 2068 003a CD00     		lsls	r5, r1, #3
 2069              	.LVL136:
 2070              		.loc 1 850 17 view .LVU463
 2071 003c 6D1A     		subs	r5, r5, r1
 2072 003e AC00     		lsls	r4, r5, #2
 2073              	.LVL137:
 2074              		.loc 1 850 17 view .LVU464
 2075 0040 0419     		adds	r4, r0, r4
 2076              	.LVL138:
 2077              		.loc 1 850 17 view .LVU465
 2078 0042 1D34     		adds	r4, r4, #29
 2079              	.LVL139:
 2080              		.loc 1 850 17 view .LVU466
 2081 0044 FF34     		adds	r4, r4, #255
 2082              	.LVL140:
 2083              		.loc 1 850 17 view .LVU467
 2084 0046 9B1A     		subs	r3, r3, r2
 2085 0048 2360     		str	r3, [r4]
ARM GAS  /tmp/ccEIExPI.s 			page 56


 2086              	.LVL141:
 2087              	.L96:
 851:Drivers/STM32F0xx_HAL_Driver/Src/stm32f0xx_hal_pcd.c ****   }
 852:Drivers/STM32F0xx_HAL_Driver/Src/stm32f0xx_hal_pcd.c ****   else
 853:Drivers/STM32F0xx_HAL_Driver/Src/stm32f0xx_hal_pcd.c ****   {
 854:Drivers/STM32F0xx_HAL_Driver/Src/stm32f0xx_hal_pcd.c ****     len=ep->xfer_len;
 855:Drivers/STM32F0xx_HAL_Driver/Src/stm32f0xx_hal_pcd.c ****     ep->xfer_len =0U;
 856:Drivers/STM32F0xx_HAL_Driver/Src/stm32f0xx_hal_pcd.c ****   }
 857:Drivers/STM32F0xx_HAL_Driver/Src/stm32f0xx_hal_pcd.c ****   
 858:Drivers/STM32F0xx_HAL_Driver/Src/stm32f0xx_hal_pcd.c ****   /* configure and validate Rx endpoint */
 859:Drivers/STM32F0xx_HAL_Driver/Src/stm32f0xx_hal_pcd.c ****   if (ep->doublebuffer == 0) 
 2088              		.loc 1 859 3 is_stmt 1 view .LVU468
 2089              		.loc 1 859 9 is_stmt 0 view .LVU469
 2090 004a CC00     		lsls	r4, r1, #3
 2091 004c 641A     		subs	r4, r4, r1
 2092 004e A300     		lsls	r3, r4, #2
 2093 0050 1C00     		movs	r4, r3
 2094 0052 C318     		adds	r3, r0, r3
 2095 0054 1333     		adds	r3, r3, #19
 2096 0056 FF33     		adds	r3, r3, #255
 2097 0058 1B78     		ldrb	r3, [r3]
 2098              		.loc 1 859 6 view .LVU470
 2099 005a 002B     		cmp	r3, #0
 2100 005c 41D1     		bne	.L97
 2101              	.LBB18:
 860:Drivers/STM32F0xx_HAL_Driver/Src/stm32f0xx_hal_pcd.c ****   {
 861:Drivers/STM32F0xx_HAL_Driver/Src/stm32f0xx_hal_pcd.c ****     /*Set RX buffer count*/
 862:Drivers/STM32F0xx_HAL_Driver/Src/stm32f0xx_hal_pcd.c ****     PCD_SET_EP_RX_CNT(hpcd->Instance, ep->num, len)
 2102              		.loc 1 862 5 is_stmt 1 view .LVU471
 2103 005e 0568     		ldr	r5, [r0]
 2104 0060 5033     		adds	r3, r3, #80
 2105 0062 EB5A     		ldrh	r3, [r5, r3]
 2106 0064 0419     		adds	r4, r0, r4
 2107 0066 0934     		adds	r4, r4, #9
 2108 0068 FF34     		adds	r4, r4, #255
 2109 006a 2478     		ldrb	r4, [r4]
 2110 006c E400     		lsls	r4, r4, #3
 2111 006e 1B19     		adds	r3, r3, r4
 2112 0070 5B19     		adds	r3, r3, r5
 2113 0072 5E4C     		ldr	r4, .L112
 2114 0074 A446     		mov	ip, r4
 2115 0076 6344     		add	r3, r3, ip
 2116              	.LVL142:
 2117              	.LBB19:
 2118              		.loc 1 862 5 view .LVU472
 2119              		.loc 1 862 5 view .LVU473
 2120 0078 3E2A     		cmp	r2, #62
 2121 007a 29D9     		bls	.L98
 2122              		.loc 1 862 5 discriminator 1 view .LVU474
 2123 007c 5409     		lsrs	r4, r2, #5
 2124 007e A4B2     		uxth	r4, r4
 2125              	.LVL143:
 2126              		.loc 1 862 5 discriminator 1 view .LVU475
 2127 0080 D206     		lsls	r2, r2, #27
 2128 0082 01D1     		bne	.L99
 2129              	.LVL144:
 2130              		.loc 1 862 5 discriminator 3 view .LVU476
ARM GAS  /tmp/ccEIExPI.s 			page 57


 2131 0084 013C     		subs	r4, r4, #1
 2132              	.LVL145:
 2133              		.loc 1 862 5 is_stmt 0 discriminator 3 view .LVU477
 2134 0086 A4B2     		uxth	r4, r4
 2135              	.LVL146:
 2136              	.L99:
 2137              		.loc 1 862 5 is_stmt 1 discriminator 5 view .LVU478
 2138 0088 A402     		lsls	r4, r4, #10
 2139              	.LVL147:
 2140              		.loc 1 862 5 is_stmt 0 discriminator 5 view .LVU479
 2141 008a A4B2     		uxth	r4, r4
 2142 008c 584A     		ldr	r2, .L112+4
 2143 008e 1443     		orrs	r4, r2
 2144 0090 1C80     		strh	r4, [r3]
 2145              	.LVL148:
 2146              	.L100:
 2147              		.loc 1 862 5 discriminator 5 view .LVU480
 2148              	.LBE19:
 2149              	.LBE18:
 2150              	.LBB21:
 863:Drivers/STM32F0xx_HAL_Driver/Src/stm32f0xx_hal_pcd.c ****   }
 864:Drivers/STM32F0xx_HAL_Driver/Src/stm32f0xx_hal_pcd.c ****   else
 865:Drivers/STM32F0xx_HAL_Driver/Src/stm32f0xx_hal_pcd.c ****   {
 866:Drivers/STM32F0xx_HAL_Driver/Src/stm32f0xx_hal_pcd.c ****     /*Set the Double buffer counter*/
 867:Drivers/STM32F0xx_HAL_Driver/Src/stm32f0xx_hal_pcd.c ****     PCD_SET_EP_DBUF_CNT(hpcd->Instance, ep->num, ep->is_in, len)
 868:Drivers/STM32F0xx_HAL_Driver/Src/stm32f0xx_hal_pcd.c ****   } 
 869:Drivers/STM32F0xx_HAL_Driver/Src/stm32f0xx_hal_pcd.c ****   
 870:Drivers/STM32F0xx_HAL_Driver/Src/stm32f0xx_hal_pcd.c ****   PCD_SET_EP_RX_STATUS(hpcd->Instance, ep->num, USB_EP_RX_VALID)
 2151              		.loc 1 870 3 is_stmt 1 view .LVU481
 2152              		.loc 1 870 3 view .LVU482
 2153 0092 0368     		ldr	r3, [r0]
 2154 0094 CA00     		lsls	r2, r1, #3
 2155 0096 511A     		subs	r1, r2, r1
 2156              	.LVL149:
 2157              		.loc 1 870 3 is_stmt 0 view .LVU483
 2158 0098 8A00     		lsls	r2, r1, #2
 2159 009a 8018     		adds	r0, r0, r2
 2160              	.LVL150:
 2161              		.loc 1 870 3 view .LVU484
 2162 009c 0930     		adds	r0, r0, #9
 2163 009e FF30     		adds	r0, r0, #255
 2164 00a0 0278     		ldrb	r2, [r0]
 2165 00a2 9200     		lsls	r2, r2, #2
 2166 00a4 9B18     		adds	r3, r3, r2
 2167 00a6 1988     		ldrh	r1, [r3]
 2168 00a8 524A     		ldr	r2, .L112+8
 2169 00aa 1140     		ands	r1, r2
 2170              	.LVL151:
 2171              		.loc 1 870 3 is_stmt 1 view .LVU485
 2172              		.loc 1 870 3 view .LVU486
 2173              		.loc 1 870 3 view .LVU487
 2174              		.loc 1 870 3 view .LVU488
 2175 00ac C022     		movs	r2, #192
 2176 00ae 9201     		lsls	r2, r2, #6
 2177 00b0 5140     		eors	r1, r2
 2178              	.LVL152:
 2179              		.loc 1 870 3 view .LVU489
ARM GAS  /tmp/ccEIExPI.s 			page 58


 2180 00b2 514A     		ldr	r2, .L112+12
 2181 00b4 0A43     		orrs	r2, r1
 2182 00b6 1A80     		strh	r2, [r3]
 2183              	.LBE21:
 871:Drivers/STM32F0xx_HAL_Driver/Src/stm32f0xx_hal_pcd.c ****   
 872:Drivers/STM32F0xx_HAL_Driver/Src/stm32f0xx_hal_pcd.c ****   return HAL_OK;
 2184              		.loc 1 872 3 view .LVU490
 873:Drivers/STM32F0xx_HAL_Driver/Src/stm32f0xx_hal_pcd.c **** }
 2185              		.loc 1 873 1 is_stmt 0 view .LVU491
 2186 00b8 0020     		movs	r0, #0
 2187              		@ sp needed
 2188 00ba 70BD     		pop	{r4, r5, r6, pc}
 2189              	.LVL153:
 2190              	.L95:
 854:Drivers/STM32F0xx_HAL_Driver/Src/stm32f0xx_hal_pcd.c ****     ep->xfer_len =0U;
 2191              		.loc 1 854 5 is_stmt 1 view .LVU492
 855:Drivers/STM32F0xx_HAL_Driver/Src/stm32f0xx_hal_pcd.c ****   }
 2192              		.loc 1 855 5 view .LVU493
 855:Drivers/STM32F0xx_HAL_Driver/Src/stm32f0xx_hal_pcd.c ****   }
 2193              		.loc 1 855 18 is_stmt 0 view .LVU494
 2194 00bc CC00     		lsls	r4, r1, #3
 2195 00be 641A     		subs	r4, r4, r1
 2196 00c0 A200     		lsls	r2, r4, #2
 2197 00c2 8218     		adds	r2, r0, r2
 2198 00c4 1D32     		adds	r2, r2, #29
 2199 00c6 FF32     		adds	r2, r2, #255
 2200 00c8 0024     		movs	r4, #0
 2201 00ca 1460     		str	r4, [r2]
 2202              	.LVL154:
 854:Drivers/STM32F0xx_HAL_Driver/Src/stm32f0xx_hal_pcd.c ****     ep->xfer_len =0U;
 2203              		.loc 1 854 8 view .LVU495
 2204 00cc 1A00     		movs	r2, r3
 2205 00ce BCE7     		b	.L96
 2206              	.LVL155:
 2207              	.L98:
 2208              	.LBB22:
 2209              	.LBB20:
 862:Drivers/STM32F0xx_HAL_Driver/Src/stm32f0xx_hal_pcd.c ****   }
 2210              		.loc 1 862 5 is_stmt 1 discriminator 2 view .LVU496
 2211 00d0 5408     		lsrs	r4, r2, #1
 2212 00d2 A4B2     		uxth	r4, r4
 2213              	.LVL156:
 862:Drivers/STM32F0xx_HAL_Driver/Src/stm32f0xx_hal_pcd.c ****   }
 2214              		.loc 1 862 5 discriminator 2 view .LVU497
 2215 00d4 D207     		lsls	r2, r2, #31
 2216 00d6 01D5     		bpl	.L101
 2217              	.LVL157:
 862:Drivers/STM32F0xx_HAL_Driver/Src/stm32f0xx_hal_pcd.c ****   }
 2218              		.loc 1 862 5 discriminator 6 view .LVU498
 2219 00d8 0134     		adds	r4, r4, #1
 2220              	.LVL158:
 862:Drivers/STM32F0xx_HAL_Driver/Src/stm32f0xx_hal_pcd.c ****   }
 2221              		.loc 1 862 5 is_stmt 0 discriminator 6 view .LVU499
 2222 00da A4B2     		uxth	r4, r4
 2223              	.LVL159:
 2224              	.L101:
 862:Drivers/STM32F0xx_HAL_Driver/Src/stm32f0xx_hal_pcd.c ****   }
ARM GAS  /tmp/ccEIExPI.s 			page 59


 2225              		.loc 1 862 5 is_stmt 1 discriminator 8 view .LVU500
 2226 00dc A402     		lsls	r4, r4, #10
 2227              	.LVL160:
 862:Drivers/STM32F0xx_HAL_Driver/Src/stm32f0xx_hal_pcd.c ****   }
 2228              		.loc 1 862 5 is_stmt 0 discriminator 8 view .LVU501
 2229 00de 1C80     		strh	r4, [r3]
 2230 00e0 D7E7     		b	.L100
 2231              	.LVL161:
 2232              	.L97:
 862:Drivers/STM32F0xx_HAL_Driver/Src/stm32f0xx_hal_pcd.c ****   }
 2233              		.loc 1 862 5 discriminator 8 view .LVU502
 2234              	.LBE20:
 2235              	.LBE22:
 867:Drivers/STM32F0xx_HAL_Driver/Src/stm32f0xx_hal_pcd.c ****   } 
 2236              		.loc 1 867 5 is_stmt 1 view .LVU503
 2237 00e2 CC00     		lsls	r4, r1, #3
 2238 00e4 641A     		subs	r4, r4, r1
 2239 00e6 A300     		lsls	r3, r4, #2
 2240 00e8 1C00     		movs	r4, r3
 2241 00ea C318     		adds	r3, r0, r3
 2242 00ec 0A33     		adds	r3, r3, #10
 2243 00ee FF33     		adds	r3, r3, #255
 2244 00f0 1B78     		ldrb	r3, [r3]
 2245 00f2 002B     		cmp	r3, #0
 2246 00f4 23D1     		bne	.L102
 2247              	.LBB23:
 867:Drivers/STM32F0xx_HAL_Driver/Src/stm32f0xx_hal_pcd.c ****   } 
 2248              		.loc 1 867 5 discriminator 1 view .LVU504
 2249 00f6 0568     		ldr	r5, [r0]
 2250 00f8 5033     		adds	r3, r3, #80
 2251 00fa EB5A     		ldrh	r3, [r5, r3]
 2252 00fc 0419     		adds	r4, r0, r4
 2253 00fe 0934     		adds	r4, r4, #9
 2254 0100 FF34     		adds	r4, r4, #255
 2255 0102 2478     		ldrb	r4, [r4]
 2256 0104 E400     		lsls	r4, r4, #3
 2257 0106 1B19     		adds	r3, r3, r4
 2258 0108 5B19     		adds	r3, r3, r5
 2259 010a 3C4C     		ldr	r4, .L112+16
 2260 010c A446     		mov	ip, r4
 2261 010e 6344     		add	r3, r3, ip
 2262              	.LVL162:
 2263              	.LBB24:
 867:Drivers/STM32F0xx_HAL_Driver/Src/stm32f0xx_hal_pcd.c ****   } 
 2264              		.loc 1 867 5 discriminator 1 view .LVU505
 867:Drivers/STM32F0xx_HAL_Driver/Src/stm32f0xx_hal_pcd.c ****   } 
 2265              		.loc 1 867 5 discriminator 1 view .LVU506
 2266 0110 3E2A     		cmp	r2, #62
 2267 0112 0BD9     		bls	.L103
 867:Drivers/STM32F0xx_HAL_Driver/Src/stm32f0xx_hal_pcd.c ****   } 
 2268              		.loc 1 867 5 discriminator 3 view .LVU507
 2269 0114 5409     		lsrs	r4, r2, #5
 2270 0116 A4B2     		uxth	r4, r4
 2271              	.LVL163:
 867:Drivers/STM32F0xx_HAL_Driver/Src/stm32f0xx_hal_pcd.c ****   } 
 2272              		.loc 1 867 5 discriminator 3 view .LVU508
 2273 0118 D506     		lsls	r5, r2, #27
ARM GAS  /tmp/ccEIExPI.s 			page 60


 2274 011a 01D1     		bne	.L104
 867:Drivers/STM32F0xx_HAL_Driver/Src/stm32f0xx_hal_pcd.c ****   } 
 2275              		.loc 1 867 5 discriminator 5 view .LVU509
 2276 011c 013C     		subs	r4, r4, #1
 2277              	.LVL164:
 867:Drivers/STM32F0xx_HAL_Driver/Src/stm32f0xx_hal_pcd.c ****   } 
 2278              		.loc 1 867 5 is_stmt 0 discriminator 5 view .LVU510
 2279 011e A4B2     		uxth	r4, r4
 2280              	.LVL165:
 2281              	.L104:
 867:Drivers/STM32F0xx_HAL_Driver/Src/stm32f0xx_hal_pcd.c ****   } 
 2282              		.loc 1 867 5 is_stmt 1 discriminator 7 view .LVU511
 2283 0120 A402     		lsls	r4, r4, #10
 2284              	.LVL166:
 867:Drivers/STM32F0xx_HAL_Driver/Src/stm32f0xx_hal_pcd.c ****   } 
 2285              		.loc 1 867 5 is_stmt 0 discriminator 7 view .LVU512
 2286 0122 A4B2     		uxth	r4, r4
 2287 0124 324D     		ldr	r5, .L112+4
 2288 0126 2C43     		orrs	r4, r5
 2289 0128 1C80     		strh	r4, [r3]
 2290 012a 0AE0     		b	.L105
 2291              	.L103:
 867:Drivers/STM32F0xx_HAL_Driver/Src/stm32f0xx_hal_pcd.c ****   } 
 2292              		.loc 1 867 5 is_stmt 1 discriminator 4 view .LVU513
 2293 012c 5408     		lsrs	r4, r2, #1
 2294 012e A4B2     		uxth	r4, r4
 2295              	.LVL167:
 867:Drivers/STM32F0xx_HAL_Driver/Src/stm32f0xx_hal_pcd.c ****   } 
 2296              		.loc 1 867 5 discriminator 4 view .LVU514
 2297 0130 D507     		lsls	r5, r2, #31
 2298 0132 01D5     		bpl	.L106
 867:Drivers/STM32F0xx_HAL_Driver/Src/stm32f0xx_hal_pcd.c ****   } 
 2299              		.loc 1 867 5 discriminator 8 view .LVU515
 2300 0134 0134     		adds	r4, r4, #1
 2301              	.LVL168:
 867:Drivers/STM32F0xx_HAL_Driver/Src/stm32f0xx_hal_pcd.c ****   } 
 2302              		.loc 1 867 5 is_stmt 0 discriminator 8 view .LVU516
 2303 0136 A4B2     		uxth	r4, r4
 2304              	.LVL169:
 2305              	.L106:
 867:Drivers/STM32F0xx_HAL_Driver/Src/stm32f0xx_hal_pcd.c ****   } 
 2306              		.loc 1 867 5 is_stmt 1 discriminator 10 view .LVU517
 2307 0138 A402     		lsls	r4, r4, #10
 2308              	.LVL170:
 867:Drivers/STM32F0xx_HAL_Driver/Src/stm32f0xx_hal_pcd.c ****   } 
 2309              		.loc 1 867 5 is_stmt 0 discriminator 10 view .LVU518
 2310 013a 1C80     		strh	r4, [r3]
 2311 013c 01E0     		b	.L105
 2312              	.LVL171:
 2313              	.L102:
 867:Drivers/STM32F0xx_HAL_Driver/Src/stm32f0xx_hal_pcd.c ****   } 
 2314              		.loc 1 867 5 discriminator 10 view .LVU519
 2315              	.LBE24:
 2316              	.LBE23:
 867:Drivers/STM32F0xx_HAL_Driver/Src/stm32f0xx_hal_pcd.c ****   } 
 2317              		.loc 1 867 5 is_stmt 1 discriminator 2 view .LVU520
 2318 013e 012B     		cmp	r3, #1
ARM GAS  /tmp/ccEIExPI.s 			page 61


 2319 0140 24D0     		beq	.L111
 2320              	.L105:
 867:Drivers/STM32F0xx_HAL_Driver/Src/stm32f0xx_hal_pcd.c ****   } 
 2321              		.loc 1 867 5 discriminator 13 view .LVU521
 2322 0142 CC00     		lsls	r4, r1, #3
 2323 0144 641A     		subs	r4, r4, r1
 2324 0146 A300     		lsls	r3, r4, #2
 2325 0148 1C00     		movs	r4, r3
 2326 014a C318     		adds	r3, r0, r3
 2327 014c 0A33     		adds	r3, r3, #10
 2328 014e FF33     		adds	r3, r3, #255
 2329 0150 1B78     		ldrb	r3, [r3]
 2330 0152 002B     		cmp	r3, #0
 2331 0154 35D1     		bne	.L107
 2332              	.LBB25:
 867:Drivers/STM32F0xx_HAL_Driver/Src/stm32f0xx_hal_pcd.c ****   } 
 2333              		.loc 1 867 5 discriminator 14 view .LVU522
 2334 0156 0568     		ldr	r5, [r0]
 2335 0158 5033     		adds	r3, r3, #80
 2336 015a EB5A     		ldrh	r3, [r5, r3]
 2337 015c 0419     		adds	r4, r0, r4
 2338 015e 0934     		adds	r4, r4, #9
 2339 0160 FF34     		adds	r4, r4, #255
 2340 0162 2478     		ldrb	r4, [r4]
 2341 0164 E400     		lsls	r4, r4, #3
 2342 0166 1B19     		adds	r3, r3, r4
 2343 0168 5B19     		adds	r3, r3, r5
 2344 016a 204C     		ldr	r4, .L112
 2345 016c A446     		mov	ip, r4
 2346 016e 6344     		add	r3, r3, ip
 2347              	.LVL172:
 2348              	.LBB26:
 867:Drivers/STM32F0xx_HAL_Driver/Src/stm32f0xx_hal_pcd.c ****   } 
 2349              		.loc 1 867 5 discriminator 14 view .LVU523
 867:Drivers/STM32F0xx_HAL_Driver/Src/stm32f0xx_hal_pcd.c ****   } 
 2350              		.loc 1 867 5 discriminator 14 view .LVU524
 2351 0170 3E2A     		cmp	r2, #62
 2352 0172 1DD9     		bls	.L108
 867:Drivers/STM32F0xx_HAL_Driver/Src/stm32f0xx_hal_pcd.c ****   } 
 2353              		.loc 1 867 5 discriminator 16 view .LVU525
 2354 0174 5409     		lsrs	r4, r2, #5
 2355 0176 A4B2     		uxth	r4, r4
 2356              	.LVL173:
 867:Drivers/STM32F0xx_HAL_Driver/Src/stm32f0xx_hal_pcd.c ****   } 
 2357              		.loc 1 867 5 discriminator 16 view .LVU526
 2358 0178 D206     		lsls	r2, r2, #27
 2359 017a 01D1     		bne	.L109
 2360              	.LVL174:
 867:Drivers/STM32F0xx_HAL_Driver/Src/stm32f0xx_hal_pcd.c ****   } 
 2361              		.loc 1 867 5 discriminator 18 view .LVU527
 2362 017c 013C     		subs	r4, r4, #1
 2363              	.LVL175:
 867:Drivers/STM32F0xx_HAL_Driver/Src/stm32f0xx_hal_pcd.c ****   } 
 2364              		.loc 1 867 5 is_stmt 0 discriminator 18 view .LVU528
 2365 017e A4B2     		uxth	r4, r4
 2366              	.LVL176:
 2367              	.L109:
ARM GAS  /tmp/ccEIExPI.s 			page 62


 867:Drivers/STM32F0xx_HAL_Driver/Src/stm32f0xx_hal_pcd.c ****   } 
 2368              		.loc 1 867 5 is_stmt 1 discriminator 20 view .LVU529
 2369 0180 A402     		lsls	r4, r4, #10
 2370              	.LVL177:
 867:Drivers/STM32F0xx_HAL_Driver/Src/stm32f0xx_hal_pcd.c ****   } 
 2371              		.loc 1 867 5 is_stmt 0 discriminator 20 view .LVU530
 2372 0182 A4B2     		uxth	r4, r4
 2373 0184 1A4A     		ldr	r2, .L112+4
 2374 0186 1443     		orrs	r4, r2
 2375 0188 1C80     		strh	r4, [r3]
 2376 018a 82E7     		b	.L100
 2377              	.LVL178:
 2378              	.L111:
 867:Drivers/STM32F0xx_HAL_Driver/Src/stm32f0xx_hal_pcd.c ****   } 
 2379              		.loc 1 867 5 discriminator 20 view .LVU531
 2380              	.LBE26:
 2381              	.LBE25:
 867:Drivers/STM32F0xx_HAL_Driver/Src/stm32f0xx_hal_pcd.c ****   } 
 2382              		.loc 1 867 5 is_stmt 1 discriminator 11 view .LVU532
 2383 018c 0568     		ldr	r5, [r0]
 2384 018e 4F33     		adds	r3, r3, #79
 2385 0190 EB5A     		ldrh	r3, [r5, r3]
 2386 0192 CE00     		lsls	r6, r1, #3
 2387 0194 761A     		subs	r6, r6, r1
 2388 0196 B400     		lsls	r4, r6, #2
 2389 0198 0419     		adds	r4, r0, r4
 2390 019a 0934     		adds	r4, r4, #9
 2391 019c FF34     		adds	r4, r4, #255
 2392 019e 2478     		ldrb	r4, [r4]
 2393 01a0 E400     		lsls	r4, r4, #3
 2394 01a2 1B19     		adds	r3, r3, r4
 2395 01a4 5B19     		adds	r3, r3, r5
 2396 01a6 154C     		ldr	r4, .L112+16
 2397 01a8 A446     		mov	ip, r4
 2398 01aa 6344     		add	r3, r3, ip
 2399 01ac 1A80     		strh	r2, [r3]
 2400 01ae C8E7     		b	.L105
 2401              	.LVL179:
 2402              	.L108:
 2403              	.LBB28:
 2404              	.LBB27:
 867:Drivers/STM32F0xx_HAL_Driver/Src/stm32f0xx_hal_pcd.c ****   } 
 2405              		.loc 1 867 5 discriminator 17 view .LVU533
 2406 01b0 5408     		lsrs	r4, r2, #1
 2407 01b2 A4B2     		uxth	r4, r4
 2408              	.LVL180:
 867:Drivers/STM32F0xx_HAL_Driver/Src/stm32f0xx_hal_pcd.c ****   } 
 2409              		.loc 1 867 5 discriminator 17 view .LVU534
 2410 01b4 D207     		lsls	r2, r2, #31
 2411 01b6 01D5     		bpl	.L110
 2412              	.LVL181:
 867:Drivers/STM32F0xx_HAL_Driver/Src/stm32f0xx_hal_pcd.c ****   } 
 2413              		.loc 1 867 5 discriminator 21 view .LVU535
 2414 01b8 0134     		adds	r4, r4, #1
 2415              	.LVL182:
 867:Drivers/STM32F0xx_HAL_Driver/Src/stm32f0xx_hal_pcd.c ****   } 
 2416              		.loc 1 867 5 is_stmt 0 discriminator 21 view .LVU536
ARM GAS  /tmp/ccEIExPI.s 			page 63


 2417 01ba A4B2     		uxth	r4, r4
 2418              	.LVL183:
 2419              	.L110:
 867:Drivers/STM32F0xx_HAL_Driver/Src/stm32f0xx_hal_pcd.c ****   } 
 2420              		.loc 1 867 5 is_stmt 1 discriminator 23 view .LVU537
 2421 01bc A402     		lsls	r4, r4, #10
 2422              	.LVL184:
 867:Drivers/STM32F0xx_HAL_Driver/Src/stm32f0xx_hal_pcd.c ****   } 
 2423              		.loc 1 867 5 is_stmt 0 discriminator 23 view .LVU538
 2424 01be 1C80     		strh	r4, [r3]
 2425 01c0 67E7     		b	.L100
 2426              	.LVL185:
 2427              	.L107:
 867:Drivers/STM32F0xx_HAL_Driver/Src/stm32f0xx_hal_pcd.c ****   } 
 2428              		.loc 1 867 5 discriminator 23 view .LVU539
 2429              	.LBE27:
 2430              	.LBE28:
 867:Drivers/STM32F0xx_HAL_Driver/Src/stm32f0xx_hal_pcd.c ****   } 
 2431              		.loc 1 867 5 is_stmt 1 discriminator 15 view .LVU540
 2432 01c2 012B     		cmp	r3, #1
 2433 01c4 00D0     		beq	.LCB2479
 2434 01c6 64E7     		b	.L100	@long jump
 2435              	.LCB2479:
 867:Drivers/STM32F0xx_HAL_Driver/Src/stm32f0xx_hal_pcd.c ****   } 
 2436              		.loc 1 867 5 discriminator 24 view .LVU541
 2437 01c8 0568     		ldr	r5, [r0]
 2438 01ca 4F33     		adds	r3, r3, #79
 2439 01cc EB5A     		ldrh	r3, [r5, r3]
 2440 01ce CE00     		lsls	r6, r1, #3
 2441 01d0 761A     		subs	r6, r6, r1
 2442 01d2 B400     		lsls	r4, r6, #2
 2443 01d4 0419     		adds	r4, r0, r4
 2444 01d6 0934     		adds	r4, r4, #9
 2445 01d8 FF34     		adds	r4, r4, #255
 2446 01da 2478     		ldrb	r4, [r4]
 2447 01dc E400     		lsls	r4, r4, #3
 2448 01de 1B19     		adds	r3, r3, r4
 2449 01e0 5B19     		adds	r3, r3, r5
 2450 01e2 024C     		ldr	r4, .L112
 2451 01e4 A446     		mov	ip, r4
 2452 01e6 6344     		add	r3, r3, ip
 2453 01e8 1A80     		strh	r2, [r3]
 2454 01ea 52E7     		b	.L100
 2455              	.L113:
 2456              		.align	2
 2457              	.L112:
 2458 01ec 06040000 		.word	1030
 2459 01f0 0080FFFF 		.word	-32768
 2460 01f4 8FBFFFFF 		.word	-16497
 2461 01f8 8080FFFF 		.word	-32640
 2462 01fc 02040000 		.word	1026
 2463              		.cfi_endproc
 2464              	.LFE60:
 2466              		.section	.text.HAL_PCD_EP_GetRxCount,"ax",%progbits
 2467              		.align	1
 2468              		.global	HAL_PCD_EP_GetRxCount
 2469              		.syntax unified
ARM GAS  /tmp/ccEIExPI.s 			page 64


 2470              		.code	16
 2471              		.thumb_func
 2472              		.fpu softvfp
 2474              	HAL_PCD_EP_GetRxCount:
 2475              	.LVL186:
 2476              	.LFB61:
 874:Drivers/STM32F0xx_HAL_Driver/Src/stm32f0xx_hal_pcd.c **** 
 875:Drivers/STM32F0xx_HAL_Driver/Src/stm32f0xx_hal_pcd.c **** /**
 876:Drivers/STM32F0xx_HAL_Driver/Src/stm32f0xx_hal_pcd.c ****   * @brief  Get Received Data Size
 877:Drivers/STM32F0xx_HAL_Driver/Src/stm32f0xx_hal_pcd.c ****   * @param  hpcd PCD handle
 878:Drivers/STM32F0xx_HAL_Driver/Src/stm32f0xx_hal_pcd.c ****   * @param  ep_addr endpoint address
 879:Drivers/STM32F0xx_HAL_Driver/Src/stm32f0xx_hal_pcd.c ****   * @retval Data Size
 880:Drivers/STM32F0xx_HAL_Driver/Src/stm32f0xx_hal_pcd.c ****   */
 881:Drivers/STM32F0xx_HAL_Driver/Src/stm32f0xx_hal_pcd.c **** uint16_t HAL_PCD_EP_GetRxCount(PCD_HandleTypeDef *hpcd, uint8_t ep_addr)
 882:Drivers/STM32F0xx_HAL_Driver/Src/stm32f0xx_hal_pcd.c **** {
 2477              		.loc 1 882 1 view -0
 2478              		.cfi_startproc
 2479              		@ args = 0, pretend = 0, frame = 0
 2480              		@ frame_needed = 0, uses_anonymous_args = 0
 2481              		@ link register save eliminated.
 883:Drivers/STM32F0xx_HAL_Driver/Src/stm32f0xx_hal_pcd.c ****   return hpcd->OUT_ep[ep_addr & 0x7FU].xfer_count;
 2482              		.loc 1 883 3 view .LVU543
 2483              		.loc 1 883 31 is_stmt 0 view .LVU544
 2484 0000 7F23     		movs	r3, #127
 2485 0002 1940     		ands	r1, r3
 2486              	.LVL187:
 2487              		.loc 1 883 39 view .LVU545
 2488 0004 CB00     		lsls	r3, r1, #3
 2489 0006 591A     		subs	r1, r3, r1
 2490 0008 8B00     		lsls	r3, r1, #2
 2491 000a C018     		adds	r0, r0, r3
 2492              	.LVL188:
 2493              		.loc 1 883 39 view .LVU546
 2494 000c 2130     		adds	r0, r0, #33
 2495 000e FF30     		adds	r0, r0, #255
 2496 0010 0088     		ldrh	r0, [r0]
 884:Drivers/STM32F0xx_HAL_Driver/Src/stm32f0xx_hal_pcd.c **** }
 2497              		.loc 1 884 1 view .LVU547
 2498              		@ sp needed
 2499 0012 7047     		bx	lr
 2500              		.cfi_endproc
 2501              	.LFE61:
 2503              		.section	.text.HAL_PCD_EP_SetStall,"ax",%progbits
 2504              		.align	1
 2505              		.global	HAL_PCD_EP_SetStall
 2506              		.syntax unified
 2507              		.code	16
 2508              		.thumb_func
 2509              		.fpu softvfp
 2511              	HAL_PCD_EP_SetStall:
 2512              	.LVL189:
 2513              	.LFB63:
 885:Drivers/STM32F0xx_HAL_Driver/Src/stm32f0xx_hal_pcd.c **** /**
 886:Drivers/STM32F0xx_HAL_Driver/Src/stm32f0xx_hal_pcd.c ****   * @brief  Send an amount of data  
 887:Drivers/STM32F0xx_HAL_Driver/Src/stm32f0xx_hal_pcd.c ****   * @param  hpcd PCD handle
 888:Drivers/STM32F0xx_HAL_Driver/Src/stm32f0xx_hal_pcd.c ****   * @param  ep_addr endpoint address
 889:Drivers/STM32F0xx_HAL_Driver/Src/stm32f0xx_hal_pcd.c ****   * @param  pBuf pointer to the transmission buffer   
ARM GAS  /tmp/ccEIExPI.s 			page 65


 890:Drivers/STM32F0xx_HAL_Driver/Src/stm32f0xx_hal_pcd.c ****   * @param  len amount of data to be sent
 891:Drivers/STM32F0xx_HAL_Driver/Src/stm32f0xx_hal_pcd.c ****   * @retval HAL status
 892:Drivers/STM32F0xx_HAL_Driver/Src/stm32f0xx_hal_pcd.c ****   */
 893:Drivers/STM32F0xx_HAL_Driver/Src/stm32f0xx_hal_pcd.c **** HAL_StatusTypeDef HAL_PCD_EP_Transmit(PCD_HandleTypeDef *hpcd, uint8_t ep_addr, uint8_t *pBuf, uint
 894:Drivers/STM32F0xx_HAL_Driver/Src/stm32f0xx_hal_pcd.c **** {
 895:Drivers/STM32F0xx_HAL_Driver/Src/stm32f0xx_hal_pcd.c ****   PCD_EPTypeDef *ep;
 896:Drivers/STM32F0xx_HAL_Driver/Src/stm32f0xx_hal_pcd.c ****   uint16_t pmabuffer = 0U;
 897:Drivers/STM32F0xx_HAL_Driver/Src/stm32f0xx_hal_pcd.c ****     
 898:Drivers/STM32F0xx_HAL_Driver/Src/stm32f0xx_hal_pcd.c ****   ep = &hpcd->IN_ep[ep_addr & 0x7FU];
 899:Drivers/STM32F0xx_HAL_Driver/Src/stm32f0xx_hal_pcd.c ****   
 900:Drivers/STM32F0xx_HAL_Driver/Src/stm32f0xx_hal_pcd.c ****   /*setup and start the Xfer */
 901:Drivers/STM32F0xx_HAL_Driver/Src/stm32f0xx_hal_pcd.c ****   ep->xfer_buff = pBuf;  
 902:Drivers/STM32F0xx_HAL_Driver/Src/stm32f0xx_hal_pcd.c ****   ep->xfer_len = len;
 903:Drivers/STM32F0xx_HAL_Driver/Src/stm32f0xx_hal_pcd.c ****   ep->xfer_count = 0U;
 904:Drivers/STM32F0xx_HAL_Driver/Src/stm32f0xx_hal_pcd.c ****   ep->is_in = 1U;
 905:Drivers/STM32F0xx_HAL_Driver/Src/stm32f0xx_hal_pcd.c ****   ep->num = ep_addr & 0x7FU;
 906:Drivers/STM32F0xx_HAL_Driver/Src/stm32f0xx_hal_pcd.c ****   
 907:Drivers/STM32F0xx_HAL_Driver/Src/stm32f0xx_hal_pcd.c ****   /*Multi packet transfer*/
 908:Drivers/STM32F0xx_HAL_Driver/Src/stm32f0xx_hal_pcd.c ****   if (ep->xfer_len > ep->maxpacket)
 909:Drivers/STM32F0xx_HAL_Driver/Src/stm32f0xx_hal_pcd.c ****   {
 910:Drivers/STM32F0xx_HAL_Driver/Src/stm32f0xx_hal_pcd.c ****     len=ep->maxpacket;
 911:Drivers/STM32F0xx_HAL_Driver/Src/stm32f0xx_hal_pcd.c ****     ep->xfer_len-=len; 
 912:Drivers/STM32F0xx_HAL_Driver/Src/stm32f0xx_hal_pcd.c ****   }
 913:Drivers/STM32F0xx_HAL_Driver/Src/stm32f0xx_hal_pcd.c ****   else
 914:Drivers/STM32F0xx_HAL_Driver/Src/stm32f0xx_hal_pcd.c ****   {  
 915:Drivers/STM32F0xx_HAL_Driver/Src/stm32f0xx_hal_pcd.c ****     len=ep->xfer_len;
 916:Drivers/STM32F0xx_HAL_Driver/Src/stm32f0xx_hal_pcd.c ****     ep->xfer_len =0U;
 917:Drivers/STM32F0xx_HAL_Driver/Src/stm32f0xx_hal_pcd.c ****   }
 918:Drivers/STM32F0xx_HAL_Driver/Src/stm32f0xx_hal_pcd.c ****   
 919:Drivers/STM32F0xx_HAL_Driver/Src/stm32f0xx_hal_pcd.c ****   /* configure and validate Tx endpoint */
 920:Drivers/STM32F0xx_HAL_Driver/Src/stm32f0xx_hal_pcd.c ****   if (ep->doublebuffer == 0U) 
 921:Drivers/STM32F0xx_HAL_Driver/Src/stm32f0xx_hal_pcd.c ****   {
 922:Drivers/STM32F0xx_HAL_Driver/Src/stm32f0xx_hal_pcd.c ****     PCD_WritePMA(hpcd->Instance, ep->xfer_buff, ep->pmaadress, len);
 923:Drivers/STM32F0xx_HAL_Driver/Src/stm32f0xx_hal_pcd.c ****     PCD_SET_EP_TX_CNT(hpcd->Instance, ep->num, len);
 924:Drivers/STM32F0xx_HAL_Driver/Src/stm32f0xx_hal_pcd.c ****   }
 925:Drivers/STM32F0xx_HAL_Driver/Src/stm32f0xx_hal_pcd.c ****   else
 926:Drivers/STM32F0xx_HAL_Driver/Src/stm32f0xx_hal_pcd.c ****   {
 927:Drivers/STM32F0xx_HAL_Driver/Src/stm32f0xx_hal_pcd.c ****     /*Write the data to the USB endpoint*/
 928:Drivers/STM32F0xx_HAL_Driver/Src/stm32f0xx_hal_pcd.c ****     if ((PCD_GET_ENDPOINT(hpcd->Instance, ep->num)& USB_EP_DTOG_TX) == USB_EP_DTOG_TX)
 929:Drivers/STM32F0xx_HAL_Driver/Src/stm32f0xx_hal_pcd.c ****     {
 930:Drivers/STM32F0xx_HAL_Driver/Src/stm32f0xx_hal_pcd.c ****       /*Set the Double buffer counter for pmabuffer1*/
 931:Drivers/STM32F0xx_HAL_Driver/Src/stm32f0xx_hal_pcd.c ****       PCD_SET_EP_DBUF1_CNT(hpcd->Instance, ep->num, ep->is_in, len)
 932:Drivers/STM32F0xx_HAL_Driver/Src/stm32f0xx_hal_pcd.c ****       pmabuffer = ep->pmaaddr1;
 933:Drivers/STM32F0xx_HAL_Driver/Src/stm32f0xx_hal_pcd.c ****     }
 934:Drivers/STM32F0xx_HAL_Driver/Src/stm32f0xx_hal_pcd.c ****     else
 935:Drivers/STM32F0xx_HAL_Driver/Src/stm32f0xx_hal_pcd.c ****     {
 936:Drivers/STM32F0xx_HAL_Driver/Src/stm32f0xx_hal_pcd.c ****       /*Set the Double buffer counter for pmabuffer0*/
 937:Drivers/STM32F0xx_HAL_Driver/Src/stm32f0xx_hal_pcd.c ****       PCD_SET_EP_DBUF0_CNT(hpcd->Instance, ep->num, ep->is_in, len)
 938:Drivers/STM32F0xx_HAL_Driver/Src/stm32f0xx_hal_pcd.c ****       pmabuffer = ep->pmaaddr0;
 939:Drivers/STM32F0xx_HAL_Driver/Src/stm32f0xx_hal_pcd.c ****     }
 940:Drivers/STM32F0xx_HAL_Driver/Src/stm32f0xx_hal_pcd.c **** 
 941:Drivers/STM32F0xx_HAL_Driver/Src/stm32f0xx_hal_pcd.c ****     PCD_WritePMA(hpcd->Instance, ep->xfer_buff, pmabuffer, len);
 942:Drivers/STM32F0xx_HAL_Driver/Src/stm32f0xx_hal_pcd.c ****     PCD_FreeUserBuffer(hpcd->Instance, ep->num, ep->is_in)
 943:Drivers/STM32F0xx_HAL_Driver/Src/stm32f0xx_hal_pcd.c ****   }
 944:Drivers/STM32F0xx_HAL_Driver/Src/stm32f0xx_hal_pcd.c **** 
 945:Drivers/STM32F0xx_HAL_Driver/Src/stm32f0xx_hal_pcd.c ****   PCD_SET_EP_TX_STATUS(hpcd->Instance, ep->num, USB_EP_TX_VALID)
 946:Drivers/STM32F0xx_HAL_Driver/Src/stm32f0xx_hal_pcd.c ****      
ARM GAS  /tmp/ccEIExPI.s 			page 66


 947:Drivers/STM32F0xx_HAL_Driver/Src/stm32f0xx_hal_pcd.c ****   return HAL_OK;
 948:Drivers/STM32F0xx_HAL_Driver/Src/stm32f0xx_hal_pcd.c **** }
 949:Drivers/STM32F0xx_HAL_Driver/Src/stm32f0xx_hal_pcd.c **** 
 950:Drivers/STM32F0xx_HAL_Driver/Src/stm32f0xx_hal_pcd.c **** /**
 951:Drivers/STM32F0xx_HAL_Driver/Src/stm32f0xx_hal_pcd.c ****   * @brief  Set a STALL condition over an endpoint
 952:Drivers/STM32F0xx_HAL_Driver/Src/stm32f0xx_hal_pcd.c ****   * @param  hpcd PCD handle
 953:Drivers/STM32F0xx_HAL_Driver/Src/stm32f0xx_hal_pcd.c ****   * @param  ep_addr endpoint address
 954:Drivers/STM32F0xx_HAL_Driver/Src/stm32f0xx_hal_pcd.c ****   * @retval HAL status
 955:Drivers/STM32F0xx_HAL_Driver/Src/stm32f0xx_hal_pcd.c ****   */
 956:Drivers/STM32F0xx_HAL_Driver/Src/stm32f0xx_hal_pcd.c **** HAL_StatusTypeDef HAL_PCD_EP_SetStall(PCD_HandleTypeDef *hpcd, uint8_t ep_addr)
 957:Drivers/STM32F0xx_HAL_Driver/Src/stm32f0xx_hal_pcd.c **** {
 2514              		.loc 1 957 1 is_stmt 1 view -0
 2515              		.cfi_startproc
 2516              		@ args = 0, pretend = 0, frame = 0
 2517              		@ frame_needed = 0, uses_anonymous_args = 0
 2518              		.loc 1 957 1 is_stmt 0 view .LVU549
 2519 0000 10B5     		push	{r4, lr}
 2520              	.LCFI8:
 2521              		.cfi_def_cfa_offset 8
 2522              		.cfi_offset 4, -8
 2523              		.cfi_offset 14, -4
 958:Drivers/STM32F0xx_HAL_Driver/Src/stm32f0xx_hal_pcd.c ****   PCD_EPTypeDef *ep;
 2524              		.loc 1 958 3 is_stmt 1 view .LVU550
 959:Drivers/STM32F0xx_HAL_Driver/Src/stm32f0xx_hal_pcd.c ****    
 960:Drivers/STM32F0xx_HAL_Driver/Src/stm32f0xx_hal_pcd.c ****   __HAL_LOCK(hpcd); 
 2525              		.loc 1 960 3 view .LVU551
 2526              		.loc 1 960 3 view .LVU552
 2527 0002 F423     		movs	r3, #244
 2528 0004 5B00     		lsls	r3, r3, #1
 2529 0006 C35C     		ldrb	r3, [r0, r3]
 2530 0008 012B     		cmp	r3, #1
 2531 000a 4DD0     		beq	.L122
 2532              		.loc 1 960 3 discriminator 2 view .LVU553
 2533 000c F423     		movs	r3, #244
 2534 000e 5B00     		lsls	r3, r3, #1
 2535 0010 0122     		movs	r2, #1
 2536 0012 C254     		strb	r2, [r0, r3]
 961:Drivers/STM32F0xx_HAL_Driver/Src/stm32f0xx_hal_pcd.c ****    
 962:Drivers/STM32F0xx_HAL_Driver/Src/stm32f0xx_hal_pcd.c ****   if ((0x80U & ep_addr) == 0x80U)
 2537              		.loc 1 962 3 discriminator 2 view .LVU554
 2538              		.loc 1 962 25 is_stmt 0 discriminator 2 view .LVU555
 2539 0014 4CB2     		sxtb	r4, r1
 2540              		.loc 1 962 6 discriminator 2 view .LVU556
 2541 0016 002C     		cmp	r4, #0
 2542 0018 20DB     		blt	.L123
 963:Drivers/STM32F0xx_HAL_Driver/Src/stm32f0xx_hal_pcd.c ****   {
 964:Drivers/STM32F0xx_HAL_Driver/Src/stm32f0xx_hal_pcd.c ****     ep = &hpcd->IN_ep[ep_addr & 0x7FU];
 965:Drivers/STM32F0xx_HAL_Driver/Src/stm32f0xx_hal_pcd.c ****   }
 966:Drivers/STM32F0xx_HAL_Driver/Src/stm32f0xx_hal_pcd.c ****   else
 967:Drivers/STM32F0xx_HAL_Driver/Src/stm32f0xx_hal_pcd.c ****   {
 968:Drivers/STM32F0xx_HAL_Driver/Src/stm32f0xx_hal_pcd.c ****     ep = &hpcd->OUT_ep[ep_addr];
 2543              		.loc 1 968 5 is_stmt 1 view .LVU557
 2544              		.loc 1 968 8 is_stmt 0 view .LVU558
 2545 001a CA00     		lsls	r2, r1, #3
 2546 001c 521A     		subs	r2, r2, r1
 2547 001e 9300     		lsls	r3, r2, #2
 2548 0020 0933     		adds	r3, r3, #9
ARM GAS  /tmp/ccEIExPI.s 			page 67


 2549 0022 FF33     		adds	r3, r3, #255
 2550 0024 C318     		adds	r3, r0, r3
 2551              	.LVL190:
 2552              	.L118:
 969:Drivers/STM32F0xx_HAL_Driver/Src/stm32f0xx_hal_pcd.c ****   }
 970:Drivers/STM32F0xx_HAL_Driver/Src/stm32f0xx_hal_pcd.c ****   
 971:Drivers/STM32F0xx_HAL_Driver/Src/stm32f0xx_hal_pcd.c ****   ep->is_stall = 1;
 2553              		.loc 1 971 3 is_stmt 1 view .LVU559
 2554              		.loc 1 971 16 is_stmt 0 view .LVU560
 2555 0026 0122     		movs	r2, #1
 2556 0028 9A70     		strb	r2, [r3, #2]
 972:Drivers/STM32F0xx_HAL_Driver/Src/stm32f0xx_hal_pcd.c ****   ep->num   = ep_addr & 0x7FU;
 2557              		.loc 1 972 3 is_stmt 1 view .LVU561
 2558              		.loc 1 972 23 is_stmt 0 view .LVU562
 2559 002a 7E32     		adds	r2, r2, #126
 2560 002c 1140     		ands	r1, r2
 2561              	.LVL191:
 2562              		.loc 1 972 13 view .LVU563
 2563 002e 1970     		strb	r1, [r3]
 973:Drivers/STM32F0xx_HAL_Driver/Src/stm32f0xx_hal_pcd.c ****   ep->is_in = ((ep_addr & 0x80U) == 0x80U);
 2564              		.loc 1 973 3 is_stmt 1 view .LVU564
 2565              		.loc 1 973 34 is_stmt 0 view .LVU565
 2566 0030 E40F     		lsrs	r4, r4, #31
 2567              	.LVL192:
 2568              		.loc 1 973 13 view .LVU566
 2569 0032 5C70     		strb	r4, [r3, #1]
 974:Drivers/STM32F0xx_HAL_Driver/Src/stm32f0xx_hal_pcd.c ****   
 975:Drivers/STM32F0xx_HAL_Driver/Src/stm32f0xx_hal_pcd.c ****   if (ep->num == 0U)
 2570              		.loc 1 975 3 is_stmt 1 view .LVU567
 2571              		.loc 1 975 6 is_stmt 0 view .LVU568
 2572 0034 0029     		cmp	r1, #0
 2573 0036 1AD1     		bne	.L119
 2574              	.LBB29:
 976:Drivers/STM32F0xx_HAL_Driver/Src/stm32f0xx_hal_pcd.c ****   {
 977:Drivers/STM32F0xx_HAL_Driver/Src/stm32f0xx_hal_pcd.c ****     /* This macro sets STALL status for RX & TX*/ 
 978:Drivers/STM32F0xx_HAL_Driver/Src/stm32f0xx_hal_pcd.c ****     PCD_SET_EP_TXRX_STATUS(hpcd->Instance, ep->num, USB_EP_RX_STALL, USB_EP_TX_STALL)
 2575              		.loc 1 978 5 is_stmt 1 view .LVU569
 2576              		.loc 1 978 5 view .LVU570
 2577 0038 8900     		lsls	r1, r1, #2
 2578 003a 0368     		ldr	r3, [r0]
 2579              	.LVL193:
 2580              		.loc 1 978 5 is_stmt 0 view .LVU571
 2581 003c 9C46     		mov	ip, r3
 2582 003e 6144     		add	r1, r1, ip
 2583 0040 0A88     		ldrh	r2, [r1]
 2584              	.LVL194:
 2585              		.loc 1 978 5 is_stmt 1 view .LVU572
 2586              		.loc 1 978 5 view .LVU573
 2587              		.loc 1 978 5 view .LVU574
 2588              		.loc 1 978 5 view .LVU575
 2589              		.loc 1 978 5 view .LVU576
 2590              		.loc 1 978 5 view .LVU577
 2591              		.loc 1 978 5 view .LVU578
 2592 0042 1A4B     		ldr	r3, .L124
 2593 0044 1A40     		ands	r2, r3
 2594              	.LVL195:
 2595              		.loc 1 978 5 is_stmt 0 view .LVU579
ARM GAS  /tmp/ccEIExPI.s 			page 68


 2596 0046 1A4B     		ldr	r3, .L124+4
 2597 0048 5A40     		eors	r2, r3
 2598 004a 1A4B     		ldr	r3, .L124+8
 2599 004c 1343     		orrs	r3, r2
 2600 004e 0B80     		strh	r3, [r1]
 2601              	.LVL196:
 2602              	.L120:
 2603              		.loc 1 978 5 view .LVU580
 2604              	.LBE29:
 979:Drivers/STM32F0xx_HAL_Driver/Src/stm32f0xx_hal_pcd.c ****   }
 980:Drivers/STM32F0xx_HAL_Driver/Src/stm32f0xx_hal_pcd.c ****   else
 981:Drivers/STM32F0xx_HAL_Driver/Src/stm32f0xx_hal_pcd.c ****   {
 982:Drivers/STM32F0xx_HAL_Driver/Src/stm32f0xx_hal_pcd.c ****     if (ep->is_in)
 983:Drivers/STM32F0xx_HAL_Driver/Src/stm32f0xx_hal_pcd.c ****     {
 984:Drivers/STM32F0xx_HAL_Driver/Src/stm32f0xx_hal_pcd.c ****       PCD_SET_EP_TX_STATUS(hpcd->Instance, ep->num , USB_EP_TX_STALL)
 985:Drivers/STM32F0xx_HAL_Driver/Src/stm32f0xx_hal_pcd.c ****     }
 986:Drivers/STM32F0xx_HAL_Driver/Src/stm32f0xx_hal_pcd.c ****     else
 987:Drivers/STM32F0xx_HAL_Driver/Src/stm32f0xx_hal_pcd.c ****     {
 988:Drivers/STM32F0xx_HAL_Driver/Src/stm32f0xx_hal_pcd.c ****       PCD_SET_EP_RX_STATUS(hpcd->Instance, ep->num , USB_EP_RX_STALL)
 989:Drivers/STM32F0xx_HAL_Driver/Src/stm32f0xx_hal_pcd.c ****     }
 990:Drivers/STM32F0xx_HAL_Driver/Src/stm32f0xx_hal_pcd.c ****   }
 991:Drivers/STM32F0xx_HAL_Driver/Src/stm32f0xx_hal_pcd.c ****   __HAL_UNLOCK(hpcd); 
 2605              		.loc 1 991 3 is_stmt 1 view .LVU581
 2606              		.loc 1 991 3 view .LVU582
 2607 0050 F423     		movs	r3, #244
 2608 0052 5B00     		lsls	r3, r3, #1
 2609 0054 0022     		movs	r2, #0
 2610 0056 C254     		strb	r2, [r0, r3]
 992:Drivers/STM32F0xx_HAL_Driver/Src/stm32f0xx_hal_pcd.c ****   
 993:Drivers/STM32F0xx_HAL_Driver/Src/stm32f0xx_hal_pcd.c ****   return HAL_OK;
 2611              		.loc 1 993 3 view .LVU583
 2612              		.loc 1 993 10 is_stmt 0 view .LVU584
 2613 0058 0020     		movs	r0, #0
 2614              	.LVL197:
 2615              	.L116:
 994:Drivers/STM32F0xx_HAL_Driver/Src/stm32f0xx_hal_pcd.c **** }
 2616              		.loc 1 994 1 view .LVU585
 2617              		@ sp needed
 2618 005a 10BD     		pop	{r4, pc}
 2619              	.LVL198:
 2620              	.L123:
 964:Drivers/STM32F0xx_HAL_Driver/Src/stm32f0xx_hal_pcd.c ****   }
 2621              		.loc 1 964 5 is_stmt 1 view .LVU586
 964:Drivers/STM32F0xx_HAL_Driver/Src/stm32f0xx_hal_pcd.c ****   }
 2622              		.loc 1 964 31 is_stmt 0 view .LVU587
 2623 005c 6A3B     		subs	r3, r3, #106
 2624 005e FF3B     		subs	r3, r3, #255
 2625 0060 0B40     		ands	r3, r1
 964:Drivers/STM32F0xx_HAL_Driver/Src/stm32f0xx_hal_pcd.c ****   }
 2626              		.loc 1 964 8 view .LVU588
 2627 0062 DA00     		lsls	r2, r3, #3
 2628 0064 D21A     		subs	r2, r2, r3
 2629 0066 9300     		lsls	r3, r2, #2
 2630 0068 2833     		adds	r3, r3, #40
 2631 006a C318     		adds	r3, r0, r3
 2632              	.LVL199:
 964:Drivers/STM32F0xx_HAL_Driver/Src/stm32f0xx_hal_pcd.c ****   }
ARM GAS  /tmp/ccEIExPI.s 			page 69


 2633              		.loc 1 964 8 view .LVU589
 2634 006c DBE7     		b	.L118
 2635              	.LVL200:
 2636              	.L119:
 982:Drivers/STM32F0xx_HAL_Driver/Src/stm32f0xx_hal_pcd.c ****     {
 2637              		.loc 1 982 5 is_stmt 1 view .LVU590
 982:Drivers/STM32F0xx_HAL_Driver/Src/stm32f0xx_hal_pcd.c ****     {
 2638              		.loc 1 982 8 is_stmt 0 view .LVU591
 2639 006e 002C     		cmp	r4, #0
 2640 0070 0CD0     		beq	.L121
 2641              	.LBB30:
 984:Drivers/STM32F0xx_HAL_Driver/Src/stm32f0xx_hal_pcd.c ****     }
 2642              		.loc 1 984 7 is_stmt 1 view .LVU592
 984:Drivers/STM32F0xx_HAL_Driver/Src/stm32f0xx_hal_pcd.c ****     }
 2643              		.loc 1 984 7 view .LVU593
 2644 0072 8900     		lsls	r1, r1, #2
 2645 0074 0368     		ldr	r3, [r0]
 2646              	.LVL201:
 984:Drivers/STM32F0xx_HAL_Driver/Src/stm32f0xx_hal_pcd.c ****     }
 2647              		.loc 1 984 7 is_stmt 0 view .LVU594
 2648 0076 9C46     		mov	ip, r3
 2649 0078 6144     		add	r1, r1, ip
 2650 007a 0B88     		ldrh	r3, [r1]
 2651 007c 0E4A     		ldr	r2, .L124+12
 2652 007e 1340     		ands	r3, r2
 2653              	.LVL202:
 984:Drivers/STM32F0xx_HAL_Driver/Src/stm32f0xx_hal_pcd.c ****     }
 2654              		.loc 1 984 7 is_stmt 1 view .LVU595
 984:Drivers/STM32F0xx_HAL_Driver/Src/stm32f0xx_hal_pcd.c ****     }
 2655              		.loc 1 984 7 view .LVU596
 2656 0080 1022     		movs	r2, #16
 2657 0082 5340     		eors	r3, r2
 2658              	.LVL203:
 984:Drivers/STM32F0xx_HAL_Driver/Src/stm32f0xx_hal_pcd.c ****     }
 2659              		.loc 1 984 7 view .LVU597
 984:Drivers/STM32F0xx_HAL_Driver/Src/stm32f0xx_hal_pcd.c ****     }
 2660              		.loc 1 984 7 view .LVU598
 2661 0084 0B4A     		ldr	r2, .L124+8
 2662 0086 1343     		orrs	r3, r2
 2663              	.LVL204:
 984:Drivers/STM32F0xx_HAL_Driver/Src/stm32f0xx_hal_pcd.c ****     }
 2664              		.loc 1 984 7 is_stmt 0 view .LVU599
 2665 0088 0B80     		strh	r3, [r1]
 984:Drivers/STM32F0xx_HAL_Driver/Src/stm32f0xx_hal_pcd.c ****     }
 2666              		.loc 1 984 7 view .LVU600
 2667              	.LBE30:
 2668 008a E1E7     		b	.L120
 2669              	.LVL205:
 2670              	.L121:
 2671              	.LBB31:
 988:Drivers/STM32F0xx_HAL_Driver/Src/stm32f0xx_hal_pcd.c ****     }
 2672              		.loc 1 988 7 is_stmt 1 view .LVU601
 988:Drivers/STM32F0xx_HAL_Driver/Src/stm32f0xx_hal_pcd.c ****     }
 2673              		.loc 1 988 7 view .LVU602
 2674 008c 8900     		lsls	r1, r1, #2
 2675 008e 0368     		ldr	r3, [r0]
 2676              	.LVL206:
ARM GAS  /tmp/ccEIExPI.s 			page 70


 988:Drivers/STM32F0xx_HAL_Driver/Src/stm32f0xx_hal_pcd.c ****     }
 2677              		.loc 1 988 7 is_stmt 0 view .LVU603
 2678 0090 9C46     		mov	ip, r3
 2679 0092 6144     		add	r1, r1, ip
 2680 0094 0A88     		ldrh	r2, [r1]
 2681 0096 094B     		ldr	r3, .L124+16
 2682 0098 1A40     		ands	r2, r3
 2683              	.LVL207:
 988:Drivers/STM32F0xx_HAL_Driver/Src/stm32f0xx_hal_pcd.c ****     }
 2684              		.loc 1 988 7 is_stmt 1 view .LVU604
 988:Drivers/STM32F0xx_HAL_Driver/Src/stm32f0xx_hal_pcd.c ****     }
 2685              		.loc 1 988 7 view .LVU605
 2686 009a 8023     		movs	r3, #128
 2687 009c 5B01     		lsls	r3, r3, #5
 2688 009e 5A40     		eors	r2, r3
 2689              	.LVL208:
 988:Drivers/STM32F0xx_HAL_Driver/Src/stm32f0xx_hal_pcd.c ****     }
 2690              		.loc 1 988 7 view .LVU606
 988:Drivers/STM32F0xx_HAL_Driver/Src/stm32f0xx_hal_pcd.c ****     }
 2691              		.loc 1 988 7 view .LVU607
 2692 00a0 044B     		ldr	r3, .L124+8
 2693 00a2 1343     		orrs	r3, r2
 2694 00a4 0B80     		strh	r3, [r1]
 2695 00a6 D3E7     		b	.L120
 2696              	.LVL209:
 2697              	.L122:
 988:Drivers/STM32F0xx_HAL_Driver/Src/stm32f0xx_hal_pcd.c ****     }
 2698              		.loc 1 988 7 is_stmt 0 view .LVU608
 2699              	.LBE31:
 960:Drivers/STM32F0xx_HAL_Driver/Src/stm32f0xx_hal_pcd.c ****    
 2700              		.loc 1 960 3 view .LVU609
 2701 00a8 0220     		movs	r0, #2
 2702              	.LVL210:
 960:Drivers/STM32F0xx_HAL_Driver/Src/stm32f0xx_hal_pcd.c ****    
 2703              		.loc 1 960 3 view .LVU610
 2704 00aa D6E7     		b	.L116
 2705              	.L125:
 2706              		.align	2
 2707              	.L124:
 2708 00ac BFBFFFFF 		.word	-16449
 2709 00b0 10100000 		.word	4112
 2710 00b4 8080FFFF 		.word	-32640
 2711 00b8 BF8FFFFF 		.word	-28737
 2712 00bc 8FBFFFFF 		.word	-16497
 2713              		.cfi_endproc
 2714              	.LFE63:
 2716              		.section	.text.HAL_PCD_EP_ClrStall,"ax",%progbits
 2717              		.align	1
 2718              		.global	HAL_PCD_EP_ClrStall
 2719              		.syntax unified
 2720              		.code	16
 2721              		.thumb_func
 2722              		.fpu softvfp
 2724              	HAL_PCD_EP_ClrStall:
 2725              	.LVL211:
 2726              	.LFB64:
 995:Drivers/STM32F0xx_HAL_Driver/Src/stm32f0xx_hal_pcd.c **** 
ARM GAS  /tmp/ccEIExPI.s 			page 71


 996:Drivers/STM32F0xx_HAL_Driver/Src/stm32f0xx_hal_pcd.c **** /**
 997:Drivers/STM32F0xx_HAL_Driver/Src/stm32f0xx_hal_pcd.c ****   * @brief  Clear a STALL condition over in an endpoint
 998:Drivers/STM32F0xx_HAL_Driver/Src/stm32f0xx_hal_pcd.c ****   * @param  hpcd PCD handle
 999:Drivers/STM32F0xx_HAL_Driver/Src/stm32f0xx_hal_pcd.c ****   * @param  ep_addr endpoint address
1000:Drivers/STM32F0xx_HAL_Driver/Src/stm32f0xx_hal_pcd.c ****   * @retval HAL status
1001:Drivers/STM32F0xx_HAL_Driver/Src/stm32f0xx_hal_pcd.c ****   */
1002:Drivers/STM32F0xx_HAL_Driver/Src/stm32f0xx_hal_pcd.c **** HAL_StatusTypeDef HAL_PCD_EP_ClrStall(PCD_HandleTypeDef *hpcd, uint8_t ep_addr)
1003:Drivers/STM32F0xx_HAL_Driver/Src/stm32f0xx_hal_pcd.c **** {
 2727              		.loc 1 1003 1 is_stmt 1 view -0
 2728              		.cfi_startproc
 2729              		@ args = 0, pretend = 0, frame = 0
 2730              		@ frame_needed = 0, uses_anonymous_args = 0
 2731              		.loc 1 1003 1 is_stmt 0 view .LVU612
 2732 0000 30B5     		push	{r4, r5, lr}
 2733              	.LCFI9:
 2734              		.cfi_def_cfa_offset 12
 2735              		.cfi_offset 4, -12
 2736              		.cfi_offset 5, -8
 2737              		.cfi_offset 14, -4
1004:Drivers/STM32F0xx_HAL_Driver/Src/stm32f0xx_hal_pcd.c ****   PCD_EPTypeDef *ep;
 2738              		.loc 1 1004 3 is_stmt 1 view .LVU613
1005:Drivers/STM32F0xx_HAL_Driver/Src/stm32f0xx_hal_pcd.c ****   
1006:Drivers/STM32F0xx_HAL_Driver/Src/stm32f0xx_hal_pcd.c ****   if ((0x80U & ep_addr) == 0x80U)
 2739              		.loc 1 1006 3 view .LVU614
 2740              		.loc 1 1006 25 is_stmt 0 view .LVU615
 2741 0002 4AB2     		sxtb	r2, r1
 2742              		.loc 1 1006 6 view .LVU616
 2743 0004 002A     		cmp	r2, #0
 2744 0006 38DB     		blt	.L135
1007:Drivers/STM32F0xx_HAL_Driver/Src/stm32f0xx_hal_pcd.c ****   {
1008:Drivers/STM32F0xx_HAL_Driver/Src/stm32f0xx_hal_pcd.c ****     ep = &hpcd->IN_ep[ep_addr & 0x7FU];
1009:Drivers/STM32F0xx_HAL_Driver/Src/stm32f0xx_hal_pcd.c ****   }
1010:Drivers/STM32F0xx_HAL_Driver/Src/stm32f0xx_hal_pcd.c ****   else
1011:Drivers/STM32F0xx_HAL_Driver/Src/stm32f0xx_hal_pcd.c ****   {
1012:Drivers/STM32F0xx_HAL_Driver/Src/stm32f0xx_hal_pcd.c ****     ep = &hpcd->OUT_ep[ep_addr];
 2745              		.loc 1 1012 5 is_stmt 1 view .LVU617
 2746              		.loc 1 1012 8 is_stmt 0 view .LVU618
 2747 0008 CD00     		lsls	r5, r1, #3
 2748 000a 6D1A     		subs	r5, r5, r1
 2749 000c AB00     		lsls	r3, r5, #2
 2750 000e 0933     		adds	r3, r3, #9
 2751 0010 FF33     		adds	r3, r3, #255
 2752 0012 C318     		adds	r3, r0, r3
 2753              	.LVL212:
 2754              	.L128:
1013:Drivers/STM32F0xx_HAL_Driver/Src/stm32f0xx_hal_pcd.c ****   }
1014:Drivers/STM32F0xx_HAL_Driver/Src/stm32f0xx_hal_pcd.c ****   
1015:Drivers/STM32F0xx_HAL_Driver/Src/stm32f0xx_hal_pcd.c ****   ep->is_stall = 0U;
 2755              		.loc 1 1015 3 is_stmt 1 view .LVU619
 2756              		.loc 1 1015 16 is_stmt 0 view .LVU620
 2757 0014 0024     		movs	r4, #0
 2758 0016 9C70     		strb	r4, [r3, #2]
1016:Drivers/STM32F0xx_HAL_Driver/Src/stm32f0xx_hal_pcd.c ****   ep->num   = ep_addr & 0x7FU;
 2759              		.loc 1 1016 3 is_stmt 1 view .LVU621
 2760              		.loc 1 1016 23 is_stmt 0 view .LVU622
 2761 0018 7F34     		adds	r4, r4, #127
 2762 001a 0C40     		ands	r4, r1
ARM GAS  /tmp/ccEIExPI.s 			page 72


 2763              		.loc 1 1016 13 view .LVU623
 2764 001c 1C70     		strb	r4, [r3]
1017:Drivers/STM32F0xx_HAL_Driver/Src/stm32f0xx_hal_pcd.c ****   ep->is_in = ((ep_addr & 0x80U) == 0x80U);
 2765              		.loc 1 1017 3 is_stmt 1 view .LVU624
 2766              		.loc 1 1017 34 is_stmt 0 view .LVU625
 2767 001e D20F     		lsrs	r2, r2, #31
 2768              		.loc 1 1017 13 view .LVU626
 2769 0020 5A70     		strb	r2, [r3, #1]
1018:Drivers/STM32F0xx_HAL_Driver/Src/stm32f0xx_hal_pcd.c ****   
1019:Drivers/STM32F0xx_HAL_Driver/Src/stm32f0xx_hal_pcd.c ****   __HAL_LOCK(hpcd); 
 2770              		.loc 1 1019 3 is_stmt 1 view .LVU627
 2771              		.loc 1 1019 3 view .LVU628
 2772 0022 F422     		movs	r2, #244
 2773 0024 5200     		lsls	r2, r2, #1
 2774 0026 825C     		ldrb	r2, [r0, r2]
 2775 0028 012A     		cmp	r2, #1
 2776 002a 4AD0     		beq	.L134
 2777              		.loc 1 1019 3 discriminator 2 view .LVU629
 2778 002c F422     		movs	r2, #244
 2779 002e 5200     		lsls	r2, r2, #1
 2780 0030 0121     		movs	r1, #1
 2781              	.LVL213:
 2782              		.loc 1 1019 3 is_stmt 0 discriminator 2 view .LVU630
 2783 0032 8154     		strb	r1, [r0, r2]
1020:Drivers/STM32F0xx_HAL_Driver/Src/stm32f0xx_hal_pcd.c ****   
1021:Drivers/STM32F0xx_HAL_Driver/Src/stm32f0xx_hal_pcd.c ****   if (ep->is_in)
 2784              		.loc 1 1021 3 is_stmt 1 discriminator 2 view .LVU631
 2785              		.loc 1 1021 9 is_stmt 0 discriminator 2 view .LVU632
 2786 0034 5A78     		ldrb	r2, [r3, #1]
 2787              		.loc 1 1021 6 discriminator 2 view .LVU633
 2788 0036 002A     		cmp	r2, #0
 2789 0038 27D0     		beq	.L130
1022:Drivers/STM32F0xx_HAL_Driver/Src/stm32f0xx_hal_pcd.c ****   {
1023:Drivers/STM32F0xx_HAL_Driver/Src/stm32f0xx_hal_pcd.c ****     PCD_CLEAR_TX_DTOG(hpcd->Instance, ep->num)
 2790              		.loc 1 1023 5 is_stmt 1 view .LVU634
 2791 003a 1A78     		ldrb	r2, [r3]
 2792 003c 9200     		lsls	r2, r2, #2
 2793 003e 0168     		ldr	r1, [r0]
 2794 0040 8C46     		mov	ip, r1
 2795 0042 6244     		add	r2, r2, ip
 2796 0044 1188     		ldrh	r1, [r2]
 2797 0046 4C06     		lsls	r4, r1, #25
 2798 0048 04D5     		bpl	.L131
 2799              		.loc 1 1023 5 discriminator 1 view .LVU635
 2800 004a 1F4C     		ldr	r4, .L136
 2801 004c 2140     		ands	r1, r4
 2802 004e 1F4C     		ldr	r4, .L136+4
 2803 0050 2143     		orrs	r1, r4
 2804 0052 1180     		strh	r1, [r2]
 2805              	.L131:
 2806              	.LBB32:
1024:Drivers/STM32F0xx_HAL_Driver/Src/stm32f0xx_hal_pcd.c ****     PCD_SET_EP_TX_STATUS(hpcd->Instance, ep->num, USB_EP_TX_VALID)
 2807              		.loc 1 1024 5 view .LVU636
 2808              		.loc 1 1024 5 view .LVU637
 2809 0054 1A78     		ldrb	r2, [r3]
 2810 0056 9200     		lsls	r2, r2, #2
 2811 0058 0368     		ldr	r3, [r0]
ARM GAS  /tmp/ccEIExPI.s 			page 73


 2812              	.LVL214:
 2813              		.loc 1 1024 5 is_stmt 0 view .LVU638
 2814 005a 9C46     		mov	ip, r3
 2815 005c 6244     		add	r2, r2, ip
 2816 005e 1388     		ldrh	r3, [r2]
 2817 0060 1B49     		ldr	r1, .L136+8
 2818 0062 0B40     		ands	r3, r1
 2819              	.LVL215:
 2820              		.loc 1 1024 5 is_stmt 1 view .LVU639
 2821              		.loc 1 1024 5 view .LVU640
 2822              		.loc 1 1024 5 view .LVU641
 2823              		.loc 1 1024 5 view .LVU642
 2824 0064 3021     		movs	r1, #48
 2825 0066 4B40     		eors	r3, r1
 2826              	.LVL216:
 2827              		.loc 1 1024 5 view .LVU643
 2828 0068 1A49     		ldr	r1, .L136+12
 2829 006a 0B43     		orrs	r3, r1
 2830              	.LVL217:
 2831              		.loc 1 1024 5 is_stmt 0 view .LVU644
 2832 006c 1380     		strh	r3, [r2]
 2833              	.L132:
 2834              		.loc 1 1024 5 view .LVU645
 2835              	.LBE32:
1025:Drivers/STM32F0xx_HAL_Driver/Src/stm32f0xx_hal_pcd.c ****   }
1026:Drivers/STM32F0xx_HAL_Driver/Src/stm32f0xx_hal_pcd.c ****   else
1027:Drivers/STM32F0xx_HAL_Driver/Src/stm32f0xx_hal_pcd.c ****   {
1028:Drivers/STM32F0xx_HAL_Driver/Src/stm32f0xx_hal_pcd.c ****     PCD_CLEAR_RX_DTOG(hpcd->Instance, ep->num)
1029:Drivers/STM32F0xx_HAL_Driver/Src/stm32f0xx_hal_pcd.c ****     PCD_SET_EP_RX_STATUS(hpcd->Instance, ep->num, USB_EP_RX_VALID)
1030:Drivers/STM32F0xx_HAL_Driver/Src/stm32f0xx_hal_pcd.c ****   }
1031:Drivers/STM32F0xx_HAL_Driver/Src/stm32f0xx_hal_pcd.c ****   __HAL_UNLOCK(hpcd); 
 2836              		.loc 1 1031 3 is_stmt 1 view .LVU646
 2837              		.loc 1 1031 3 view .LVU647
 2838 006e F423     		movs	r3, #244
 2839 0070 5B00     		lsls	r3, r3, #1
 2840 0072 0022     		movs	r2, #0
 2841 0074 C254     		strb	r2, [r0, r3]
1032:Drivers/STM32F0xx_HAL_Driver/Src/stm32f0xx_hal_pcd.c ****     
1033:Drivers/STM32F0xx_HAL_Driver/Src/stm32f0xx_hal_pcd.c ****   return HAL_OK;
 2842              		.loc 1 1033 3 view .LVU648
 2843              		.loc 1 1033 10 is_stmt 0 view .LVU649
 2844 0076 0020     		movs	r0, #0
 2845              	.LVL218:
 2846              	.L129:
1034:Drivers/STM32F0xx_HAL_Driver/Src/stm32f0xx_hal_pcd.c **** }
 2847              		.loc 1 1034 1 view .LVU650
 2848              		@ sp needed
 2849 0078 30BD     		pop	{r4, r5, pc}
 2850              	.LVL219:
 2851              	.L135:
1008:Drivers/STM32F0xx_HAL_Driver/Src/stm32f0xx_hal_pcd.c ****   }
 2852              		.loc 1 1008 5 is_stmt 1 view .LVU651
1008:Drivers/STM32F0xx_HAL_Driver/Src/stm32f0xx_hal_pcd.c ****   }
 2853              		.loc 1 1008 31 is_stmt 0 view .LVU652
 2854 007a 7F23     		movs	r3, #127
 2855 007c 0B40     		ands	r3, r1
1008:Drivers/STM32F0xx_HAL_Driver/Src/stm32f0xx_hal_pcd.c ****   }
ARM GAS  /tmp/ccEIExPI.s 			page 74


 2856              		.loc 1 1008 8 view .LVU653
 2857 007e DC00     		lsls	r4, r3, #3
 2858 0080 E41A     		subs	r4, r4, r3
 2859 0082 A300     		lsls	r3, r4, #2
 2860 0084 2833     		adds	r3, r3, #40
 2861 0086 C318     		adds	r3, r0, r3
 2862              	.LVL220:
1008:Drivers/STM32F0xx_HAL_Driver/Src/stm32f0xx_hal_pcd.c ****   }
 2863              		.loc 1 1008 8 view .LVU654
 2864 0088 C4E7     		b	.L128
 2865              	.LVL221:
 2866              	.L130:
1028:Drivers/STM32F0xx_HAL_Driver/Src/stm32f0xx_hal_pcd.c ****     PCD_SET_EP_RX_STATUS(hpcd->Instance, ep->num, USB_EP_RX_VALID)
 2867              		.loc 1 1028 5 is_stmt 1 view .LVU655
 2868 008a 1A78     		ldrb	r2, [r3]
 2869 008c 9200     		lsls	r2, r2, #2
 2870 008e 0168     		ldr	r1, [r0]
 2871 0090 8C46     		mov	ip, r1
 2872 0092 6244     		add	r2, r2, ip
 2873 0094 1188     		ldrh	r1, [r2]
 2874 0096 4C04     		lsls	r4, r1, #17
 2875 0098 04D5     		bpl	.L133
1028:Drivers/STM32F0xx_HAL_Driver/Src/stm32f0xx_hal_pcd.c ****     PCD_SET_EP_RX_STATUS(hpcd->Instance, ep->num, USB_EP_RX_VALID)
 2876              		.loc 1 1028 5 discriminator 1 view .LVU656
 2877 009a 0B4C     		ldr	r4, .L136
 2878 009c 2140     		ands	r1, r4
 2879 009e 0E4C     		ldr	r4, .L136+16
 2880 00a0 2143     		orrs	r1, r4
 2881 00a2 1180     		strh	r1, [r2]
 2882              	.L133:
 2883              	.LBB33:
1029:Drivers/STM32F0xx_HAL_Driver/Src/stm32f0xx_hal_pcd.c ****   }
 2884              		.loc 1 1029 5 view .LVU657
1029:Drivers/STM32F0xx_HAL_Driver/Src/stm32f0xx_hal_pcd.c ****   }
 2885              		.loc 1 1029 5 view .LVU658
 2886 00a4 1B78     		ldrb	r3, [r3]
 2887              	.LVL222:
1029:Drivers/STM32F0xx_HAL_Driver/Src/stm32f0xx_hal_pcd.c ****   }
 2888              		.loc 1 1029 5 is_stmt 0 view .LVU659
 2889 00a6 9B00     		lsls	r3, r3, #2
 2890 00a8 0268     		ldr	r2, [r0]
 2891 00aa 9446     		mov	ip, r2
 2892 00ac 6344     		add	r3, r3, ip
 2893 00ae 1988     		ldrh	r1, [r3]
 2894 00b0 0A4A     		ldr	r2, .L136+20
 2895 00b2 1140     		ands	r1, r2
 2896              	.LVL223:
1029:Drivers/STM32F0xx_HAL_Driver/Src/stm32f0xx_hal_pcd.c ****   }
 2897              		.loc 1 1029 5 is_stmt 1 view .LVU660
1029:Drivers/STM32F0xx_HAL_Driver/Src/stm32f0xx_hal_pcd.c ****   }
 2898              		.loc 1 1029 5 view .LVU661
1029:Drivers/STM32F0xx_HAL_Driver/Src/stm32f0xx_hal_pcd.c ****   }
 2899              		.loc 1 1029 5 view .LVU662
1029:Drivers/STM32F0xx_HAL_Driver/Src/stm32f0xx_hal_pcd.c ****   }
 2900              		.loc 1 1029 5 view .LVU663
 2901 00b4 C022     		movs	r2, #192
 2902 00b6 9201     		lsls	r2, r2, #6
ARM GAS  /tmp/ccEIExPI.s 			page 75


 2903 00b8 5140     		eors	r1, r2
 2904              	.LVL224:
1029:Drivers/STM32F0xx_HAL_Driver/Src/stm32f0xx_hal_pcd.c ****   }
 2905              		.loc 1 1029 5 view .LVU664
 2906 00ba 064A     		ldr	r2, .L136+12
 2907 00bc 0A43     		orrs	r2, r1
 2908 00be 1A80     		strh	r2, [r3]
 2909 00c0 D5E7     		b	.L132
 2910              	.LVL225:
 2911              	.L134:
1029:Drivers/STM32F0xx_HAL_Driver/Src/stm32f0xx_hal_pcd.c ****   }
 2912              		.loc 1 1029 5 is_stmt 0 view .LVU665
 2913              	.LBE33:
1019:Drivers/STM32F0xx_HAL_Driver/Src/stm32f0xx_hal_pcd.c ****   
 2914              		.loc 1 1019 3 view .LVU666
 2915 00c2 0220     		movs	r0, #2
 2916              	.LVL226:
1019:Drivers/STM32F0xx_HAL_Driver/Src/stm32f0xx_hal_pcd.c ****   
 2917              		.loc 1 1019 3 view .LVU667
 2918 00c4 D8E7     		b	.L129
 2919              	.L137:
 2920 00c6 C046     		.align	2
 2921              	.L136:
 2922 00c8 0F0F0000 		.word	3855
 2923 00cc C080FFFF 		.word	-32576
 2924 00d0 BF8FFFFF 		.word	-28737
 2925 00d4 8080FFFF 		.word	-32640
 2926 00d8 80C0FFFF 		.word	-16256
 2927 00dc 8FBFFFFF 		.word	-16497
 2928              		.cfi_endproc
 2929              	.LFE64:
 2931              		.section	.text.HAL_PCD_EP_Flush,"ax",%progbits
 2932              		.align	1
 2933              		.global	HAL_PCD_EP_Flush
 2934              		.syntax unified
 2935              		.code	16
 2936              		.thumb_func
 2937              		.fpu softvfp
 2939              	HAL_PCD_EP_Flush:
 2940              	.LVL227:
 2941              	.LFB65:
1035:Drivers/STM32F0xx_HAL_Driver/Src/stm32f0xx_hal_pcd.c **** 
1036:Drivers/STM32F0xx_HAL_Driver/Src/stm32f0xx_hal_pcd.c **** /**
1037:Drivers/STM32F0xx_HAL_Driver/Src/stm32f0xx_hal_pcd.c ****   * @brief  Flush an endpoint
1038:Drivers/STM32F0xx_HAL_Driver/Src/stm32f0xx_hal_pcd.c ****   * @param  hpcd PCD handle
1039:Drivers/STM32F0xx_HAL_Driver/Src/stm32f0xx_hal_pcd.c ****   * @param  ep_addr endpoint address
1040:Drivers/STM32F0xx_HAL_Driver/Src/stm32f0xx_hal_pcd.c ****   * @retval HAL status
1041:Drivers/STM32F0xx_HAL_Driver/Src/stm32f0xx_hal_pcd.c ****   */
1042:Drivers/STM32F0xx_HAL_Driver/Src/stm32f0xx_hal_pcd.c **** HAL_StatusTypeDef HAL_PCD_EP_Flush(PCD_HandleTypeDef *hpcd, uint8_t ep_addr)
1043:Drivers/STM32F0xx_HAL_Driver/Src/stm32f0xx_hal_pcd.c **** { 
 2942              		.loc 1 1043 1 is_stmt 1 view -0
 2943              		.cfi_startproc
 2944              		@ args = 0, pretend = 0, frame = 0
 2945              		@ frame_needed = 0, uses_anonymous_args = 0
 2946              		@ link register save eliminated.
1044:Drivers/STM32F0xx_HAL_Driver/Src/stm32f0xx_hal_pcd.c ****   return HAL_OK;
 2947              		.loc 1 1044 3 view .LVU669
ARM GAS  /tmp/ccEIExPI.s 			page 76


1045:Drivers/STM32F0xx_HAL_Driver/Src/stm32f0xx_hal_pcd.c **** }
 2948              		.loc 1 1045 1 is_stmt 0 view .LVU670
 2949 0000 0020     		movs	r0, #0
 2950              	.LVL228:
 2951              		.loc 1 1045 1 view .LVU671
 2952              		@ sp needed
 2953 0002 7047     		bx	lr
 2954              		.cfi_endproc
 2955              	.LFE65:
 2957              		.section	.text.HAL_PCD_ActivateRemoteWakeup,"ax",%progbits
 2958              		.align	1
 2959              		.global	HAL_PCD_ActivateRemoteWakeup
 2960              		.syntax unified
 2961              		.code	16
 2962              		.thumb_func
 2963              		.fpu softvfp
 2965              	HAL_PCD_ActivateRemoteWakeup:
 2966              	.LVL229:
 2967              	.LFB66:
1046:Drivers/STM32F0xx_HAL_Driver/Src/stm32f0xx_hal_pcd.c **** 
1047:Drivers/STM32F0xx_HAL_Driver/Src/stm32f0xx_hal_pcd.c **** /**
1048:Drivers/STM32F0xx_HAL_Driver/Src/stm32f0xx_hal_pcd.c ****   * @brief  HAL_PCD_ActivateRemoteWakeup : active remote wakeup signalling
1049:Drivers/STM32F0xx_HAL_Driver/Src/stm32f0xx_hal_pcd.c **** * @param  hpcd PCD handle
1050:Drivers/STM32F0xx_HAL_Driver/Src/stm32f0xx_hal_pcd.c **** * @retval HAL status
1051:Drivers/STM32F0xx_HAL_Driver/Src/stm32f0xx_hal_pcd.c **** */
1052:Drivers/STM32F0xx_HAL_Driver/Src/stm32f0xx_hal_pcd.c **** HAL_StatusTypeDef HAL_PCD_ActivateRemoteWakeup(PCD_HandleTypeDef *hpcd)
1053:Drivers/STM32F0xx_HAL_Driver/Src/stm32f0xx_hal_pcd.c **** {
 2968              		.loc 1 1053 1 is_stmt 1 view -0
 2969              		.cfi_startproc
 2970              		@ args = 0, pretend = 0, frame = 0
 2971              		@ frame_needed = 0, uses_anonymous_args = 0
 2972              		@ link register save eliminated.
1054:Drivers/STM32F0xx_HAL_Driver/Src/stm32f0xx_hal_pcd.c ****   if (hpcd->Init.lpm_enable ==1)
 2973              		.loc 1 1054 3 view .LVU673
 2974              		.loc 1 1054 6 is_stmt 0 view .LVU674
 2975 0000 C369     		ldr	r3, [r0, #28]
 2976 0002 012B     		cmp	r3, #1
 2977 0004 07D0     		beq	.L142
1055:Drivers/STM32F0xx_HAL_Driver/Src/stm32f0xx_hal_pcd.c ****   {
1056:Drivers/STM32F0xx_HAL_Driver/Src/stm32f0xx_hal_pcd.c ****     /* Apply L1 Resume */
1057:Drivers/STM32F0xx_HAL_Driver/Src/stm32f0xx_hal_pcd.c ****     hpcd->Instance->CNTR |= USB_CNTR_L1RESUME;
1058:Drivers/STM32F0xx_HAL_Driver/Src/stm32f0xx_hal_pcd.c ****   }
1059:Drivers/STM32F0xx_HAL_Driver/Src/stm32f0xx_hal_pcd.c ****   else
1060:Drivers/STM32F0xx_HAL_Driver/Src/stm32f0xx_hal_pcd.c ****   {
1061:Drivers/STM32F0xx_HAL_Driver/Src/stm32f0xx_hal_pcd.c ****     /* Apply L2 Resume */
1062:Drivers/STM32F0xx_HAL_Driver/Src/stm32f0xx_hal_pcd.c ****     hpcd->Instance->CNTR |= USB_CNTR_RESUME;
 2978              		.loc 1 1062 5 is_stmt 1 view .LVU675
 2979              		.loc 1 1062 9 is_stmt 0 view .LVU676
 2980 0006 0168     		ldr	r1, [r0]
 2981              		.loc 1 1062 26 view .LVU677
 2982 0008 4022     		movs	r2, #64
 2983 000a 8B5A     		ldrh	r3, [r1, r2]
 2984 000c 1020     		movs	r0, #16
 2985              	.LVL230:
 2986              		.loc 1 1062 26 view .LVU678
 2987 000e 0343     		orrs	r3, r0
 2988 0010 8B52     		strh	r3, [r1, r2]
ARM GAS  /tmp/ccEIExPI.s 			page 77


 2989              	.L141:
1063:Drivers/STM32F0xx_HAL_Driver/Src/stm32f0xx_hal_pcd.c ****   }
1064:Drivers/STM32F0xx_HAL_Driver/Src/stm32f0xx_hal_pcd.c ****   
1065:Drivers/STM32F0xx_HAL_Driver/Src/stm32f0xx_hal_pcd.c ****   return (HAL_OK);
 2990              		.loc 1 1065 3 is_stmt 1 view .LVU679
1066:Drivers/STM32F0xx_HAL_Driver/Src/stm32f0xx_hal_pcd.c **** }
 2991              		.loc 1 1066 1 is_stmt 0 view .LVU680
 2992 0012 0020     		movs	r0, #0
 2993              		@ sp needed
 2994 0014 7047     		bx	lr
 2995              	.LVL231:
 2996              	.L142:
1057:Drivers/STM32F0xx_HAL_Driver/Src/stm32f0xx_hal_pcd.c ****   }
 2997              		.loc 1 1057 5 is_stmt 1 view .LVU681
1057:Drivers/STM32F0xx_HAL_Driver/Src/stm32f0xx_hal_pcd.c ****   }
 2998              		.loc 1 1057 9 is_stmt 0 view .LVU682
 2999 0016 0168     		ldr	r1, [r0]
1057:Drivers/STM32F0xx_HAL_Driver/Src/stm32f0xx_hal_pcd.c ****   }
 3000              		.loc 1 1057 26 view .LVU683
 3001 0018 4022     		movs	r2, #64
 3002 001a 8B5A     		ldrh	r3, [r1, r2]
 3003 001c 2020     		movs	r0, #32
 3004              	.LVL232:
1057:Drivers/STM32F0xx_HAL_Driver/Src/stm32f0xx_hal_pcd.c ****   }
 3005              		.loc 1 1057 26 view .LVU684
 3006 001e 0343     		orrs	r3, r0
 3007 0020 8B52     		strh	r3, [r1, r2]
 3008 0022 F6E7     		b	.L141
 3009              		.cfi_endproc
 3010              	.LFE66:
 3012              		.section	.text.HAL_PCD_DeActivateRemoteWakeup,"ax",%progbits
 3013              		.align	1
 3014              		.global	HAL_PCD_DeActivateRemoteWakeup
 3015              		.syntax unified
 3016              		.code	16
 3017              		.thumb_func
 3018              		.fpu softvfp
 3020              	HAL_PCD_DeActivateRemoteWakeup:
 3021              	.LVL233:
 3022              	.LFB67:
1067:Drivers/STM32F0xx_HAL_Driver/Src/stm32f0xx_hal_pcd.c **** 
1068:Drivers/STM32F0xx_HAL_Driver/Src/stm32f0xx_hal_pcd.c **** /**
1069:Drivers/STM32F0xx_HAL_Driver/Src/stm32f0xx_hal_pcd.c **** * @brief  HAL_PCD_DeActivateRemoteWakeup : de-active remote wakeup signalling
1070:Drivers/STM32F0xx_HAL_Driver/Src/stm32f0xx_hal_pcd.c **** * @param  hpcd PCD handle
1071:Drivers/STM32F0xx_HAL_Driver/Src/stm32f0xx_hal_pcd.c **** * @retval HAL status
1072:Drivers/STM32F0xx_HAL_Driver/Src/stm32f0xx_hal_pcd.c **** */
1073:Drivers/STM32F0xx_HAL_Driver/Src/stm32f0xx_hal_pcd.c **** HAL_StatusTypeDef HAL_PCD_DeActivateRemoteWakeup(PCD_HandleTypeDef *hpcd)
1074:Drivers/STM32F0xx_HAL_Driver/Src/stm32f0xx_hal_pcd.c **** {
 3023              		.loc 1 1074 1 is_stmt 1 view -0
 3024              		.cfi_startproc
 3025              		@ args = 0, pretend = 0, frame = 0
 3026              		@ frame_needed = 0, uses_anonymous_args = 0
 3027              		@ link register save eliminated.
1075:Drivers/STM32F0xx_HAL_Driver/Src/stm32f0xx_hal_pcd.c ****   if (hpcd->Init.lpm_enable ==1)
 3028              		.loc 1 1075 3 view .LVU686
 3029              		.loc 1 1075 6 is_stmt 0 view .LVU687
 3030 0000 C369     		ldr	r3, [r0, #28]
ARM GAS  /tmp/ccEIExPI.s 			page 78


 3031 0002 012B     		cmp	r3, #1
 3032 0004 07D0     		beq	.L146
1076:Drivers/STM32F0xx_HAL_Driver/Src/stm32f0xx_hal_pcd.c ****   {
1077:Drivers/STM32F0xx_HAL_Driver/Src/stm32f0xx_hal_pcd.c ****     /* Release L1 Resume */
1078:Drivers/STM32F0xx_HAL_Driver/Src/stm32f0xx_hal_pcd.c ****     hpcd->Instance->CNTR &= ((uint16_t)(~ USB_CNTR_L1RESUME));
1079:Drivers/STM32F0xx_HAL_Driver/Src/stm32f0xx_hal_pcd.c ****   }
1080:Drivers/STM32F0xx_HAL_Driver/Src/stm32f0xx_hal_pcd.c ****   else
1081:Drivers/STM32F0xx_HAL_Driver/Src/stm32f0xx_hal_pcd.c ****   {
1082:Drivers/STM32F0xx_HAL_Driver/Src/stm32f0xx_hal_pcd.c ****     /* Release L2 Resume */
1083:Drivers/STM32F0xx_HAL_Driver/Src/stm32f0xx_hal_pcd.c ****     hpcd->Instance->CNTR &= ((uint16_t)(~ USB_CNTR_RESUME)) ;
 3033              		.loc 1 1083 5 is_stmt 1 view .LVU688
 3034              		.loc 1 1083 9 is_stmt 0 view .LVU689
 3035 0006 0168     		ldr	r1, [r0]
 3036              		.loc 1 1083 26 view .LVU690
 3037 0008 4022     		movs	r2, #64
 3038 000a 8B5A     		ldrh	r3, [r1, r2]
 3039 000c 1020     		movs	r0, #16
 3040              	.LVL234:
 3041              		.loc 1 1083 26 view .LVU691
 3042 000e 8343     		bics	r3, r0
 3043 0010 8B52     		strh	r3, [r1, r2]
 3044              	.L145:
1084:Drivers/STM32F0xx_HAL_Driver/Src/stm32f0xx_hal_pcd.c ****   }
1085:Drivers/STM32F0xx_HAL_Driver/Src/stm32f0xx_hal_pcd.c ****   
1086:Drivers/STM32F0xx_HAL_Driver/Src/stm32f0xx_hal_pcd.c ****   return (HAL_OK);
 3045              		.loc 1 1086 3 is_stmt 1 view .LVU692
1087:Drivers/STM32F0xx_HAL_Driver/Src/stm32f0xx_hal_pcd.c **** }
 3046              		.loc 1 1087 1 is_stmt 0 view .LVU693
 3047 0012 0020     		movs	r0, #0
 3048              		@ sp needed
 3049 0014 7047     		bx	lr
 3050              	.LVL235:
 3051              	.L146:
1078:Drivers/STM32F0xx_HAL_Driver/Src/stm32f0xx_hal_pcd.c ****   }
 3052              		.loc 1 1078 5 is_stmt 1 view .LVU694
1078:Drivers/STM32F0xx_HAL_Driver/Src/stm32f0xx_hal_pcd.c ****   }
 3053              		.loc 1 1078 9 is_stmt 0 view .LVU695
 3054 0016 0168     		ldr	r1, [r0]
1078:Drivers/STM32F0xx_HAL_Driver/Src/stm32f0xx_hal_pcd.c ****   }
 3055              		.loc 1 1078 26 view .LVU696
 3056 0018 4022     		movs	r2, #64
 3057 001a 8B5A     		ldrh	r3, [r1, r2]
 3058 001c 2020     		movs	r0, #32
 3059              	.LVL236:
1078:Drivers/STM32F0xx_HAL_Driver/Src/stm32f0xx_hal_pcd.c ****   }
 3060              		.loc 1 1078 26 view .LVU697
 3061 001e 8343     		bics	r3, r0
 3062 0020 8B52     		strh	r3, [r1, r2]
 3063 0022 F6E7     		b	.L145
 3064              		.cfi_endproc
 3065              	.LFE67:
 3067              		.section	.text.HAL_PCD_GetState,"ax",%progbits
 3068              		.align	1
 3069              		.global	HAL_PCD_GetState
 3070              		.syntax unified
 3071              		.code	16
 3072              		.thumb_func
ARM GAS  /tmp/ccEIExPI.s 			page 79


 3073              		.fpu softvfp
 3075              	HAL_PCD_GetState:
 3076              	.LVL237:
 3077              	.LFB68:
1088:Drivers/STM32F0xx_HAL_Driver/Src/stm32f0xx_hal_pcd.c **** /**
1089:Drivers/STM32F0xx_HAL_Driver/Src/stm32f0xx_hal_pcd.c ****   * @}
1090:Drivers/STM32F0xx_HAL_Driver/Src/stm32f0xx_hal_pcd.c ****   */
1091:Drivers/STM32F0xx_HAL_Driver/Src/stm32f0xx_hal_pcd.c **** 
1092:Drivers/STM32F0xx_HAL_Driver/Src/stm32f0xx_hal_pcd.c **** /** @defgroup PCD_Exported_Functions_Group4 Peripheral State functions 
1093:Drivers/STM32F0xx_HAL_Driver/Src/stm32f0xx_hal_pcd.c ****  *  @brief   Peripheral State functions 
1094:Drivers/STM32F0xx_HAL_Driver/Src/stm32f0xx_hal_pcd.c ****  *
1095:Drivers/STM32F0xx_HAL_Driver/Src/stm32f0xx_hal_pcd.c **** @verbatim   
1096:Drivers/STM32F0xx_HAL_Driver/Src/stm32f0xx_hal_pcd.c ****  ===============================================================================
1097:Drivers/STM32F0xx_HAL_Driver/Src/stm32f0xx_hal_pcd.c ****                       ##### Peripheral State functions #####
