ARM GAS  /tmp/ccoQIC4J.s 			page 1


   1              		.cpu cortex-m0
   2              		.eabi_attribute 20, 1
   3              		.eabi_attribute 21, 1
   4              		.eabi_attribute 23, 3
   5              		.eabi_attribute 24, 1
   6              		.eabi_attribute 25, 1
   7              		.eabi_attribute 26, 1
   8              		.eabi_attribute 30, 1
   9              		.eabi_attribute 34, 0
  10              		.eabi_attribute 18, 4
  11              		.file	"usb_pd_protocol.c"
  12              		.text
  13              	.Ltext0:
  14              		.cfi_sections	.debug_frame
  15              		.section	.text.inc_id,"ax",%progbits
  16              		.align	1
  17              		.arch armv6s-m
  18              		.syntax unified
  19              		.code	16
  20              		.thumb_func
  21              		.fpu softvfp
  23              	inc_id:
  24              	.LVL0:
  25              	.LFB25:
  26              		.file 1 "Src/usb_pd_protocol.c"
   1:Src/usb_pd_protocol.c **** /* Copyright (c) 2014 The Chromium OS Authors. All rights reserved.
   2:Src/usb_pd_protocol.c ****  * Use of this source code is governed by a BSD-style license that can be
   3:Src/usb_pd_protocol.c ****  * found in the LICENSE file.
   4:Src/usb_pd_protocol.c ****  */
   5:Src/usb_pd_protocol.c **** 
   6:Src/usb_pd_protocol.c **** #include <stddef.h>
   7:Src/usb_pd_protocol.c **** #include <string.h>
   8:Src/usb_pd_protocol.c **** #include "usb_pd.h"
   9:Src/usb_pd_protocol.c **** #include "usb_pd_tcpm.h"
  10:Src/usb_pd_protocol.c **** #include "tcpm.h"
  11:Src/usb_pd_protocol.c **** #include "usb_pd_driver.h"
  12:Src/usb_pd_protocol.c **** 
  13:Src/usb_pd_protocol.c **** #ifdef CONFIG_COMMON_RUNTIME
  14:Src/usb_pd_protocol.c **** #define CPRINTF(format, args...) cprintf(CC_USBPD, format, ## args)
  15:Src/usb_pd_protocol.c **** #define CPRINTS(format, args...) cprints(CC_USBPD, format, ## args)
  16:Src/usb_pd_protocol.c **** 
  17:Src/usb_pd_protocol.c **** BUILD_ASSERT(CONFIG_USB_PD_PORT_COUNT <= EC_USB_PD_MAX_PORTS);
  18:Src/usb_pd_protocol.c **** 
  19:Src/usb_pd_protocol.c **** /*
  20:Src/usb_pd_protocol.c ****  * Debug log level - higher number == more log
  21:Src/usb_pd_protocol.c ****  *   Level 0: Log state transitions
  22:Src/usb_pd_protocol.c ****  *   Level 1: Level 0, plus state name
  23:Src/usb_pd_protocol.c ****  *   Level 2: Level 1, plus packet info
  24:Src/usb_pd_protocol.c ****  *   Level 3: Level 2, plus ping packet and packet dump on error
  25:Src/usb_pd_protocol.c ****  *
  26:Src/usb_pd_protocol.c ****  * Note that higher log level causes timing changes and thus may affect
  27:Src/usb_pd_protocol.c ****  * performance.
  28:Src/usb_pd_protocol.c ****  *
  29:Src/usb_pd_protocol.c ****  * Can be limited to constant debug_level by CONFIG_USB_PD_DEBUG_LEVEL
  30:Src/usb_pd_protocol.c ****  */
  31:Src/usb_pd_protocol.c **** #ifdef CONFIG_USB_PD_DEBUG_LEVEL
  32:Src/usb_pd_protocol.c **** static const int debug_level = CONFIG_USB_PD_DEBUG_LEVEL;
ARM GAS  /tmp/ccoQIC4J.s 			page 2


  33:Src/usb_pd_protocol.c **** #else
  34:Src/usb_pd_protocol.c **** static int debug_level;
  35:Src/usb_pd_protocol.c **** #endif
  36:Src/usb_pd_protocol.c **** 
  37:Src/usb_pd_protocol.c **** /*
  38:Src/usb_pd_protocol.c ****  * PD communication enabled flag. When false, PD state machine still
  39:Src/usb_pd_protocol.c ****  * detects source/sink connection and disconnection, and will still
  40:Src/usb_pd_protocol.c ****  * provide VBUS, but never sends any PD communication.
  41:Src/usb_pd_protocol.c ****  */
  42:Src/usb_pd_protocol.c **** static uint8_t pd_comm_enabled[CONFIG_USB_PD_PORT_COUNT];
  43:Src/usb_pd_protocol.c **** #else /* CONFIG_COMMON_RUNTIME */
  44:Src/usb_pd_protocol.c **** #define CPRINTF(format, args...)
  45:Src/usb_pd_protocol.c **** #define CPRINTS(format, args...)
  46:Src/usb_pd_protocol.c **** static const int debug_level;
  47:Src/usb_pd_protocol.c **** #endif
  48:Src/usb_pd_protocol.c **** 
  49:Src/usb_pd_protocol.c **** #ifdef CONFIG_USB_PD_DUAL_ROLE
  50:Src/usb_pd_protocol.c **** #define DUAL_ROLE_IF_ELSE(port, sink_clause, src_clause) \
  51:Src/usb_pd_protocol.c **** 	(pd[port].power_role == PD_ROLE_SINK ? (sink_clause) : (src_clause))
  52:Src/usb_pd_protocol.c **** #else
  53:Src/usb_pd_protocol.c **** #define DUAL_ROLE_IF_ELSE(port, sink_clause, src_clause) (src_clause)
  54:Src/usb_pd_protocol.c **** #endif
  55:Src/usb_pd_protocol.c **** 
  56:Src/usb_pd_protocol.c **** #define READY_RETURN_STATE(port) DUAL_ROLE_IF_ELSE(port, PD_STATE_SNK_READY, \
  57:Src/usb_pd_protocol.c **** 							 PD_STATE_SRC_READY)
  58:Src/usb_pd_protocol.c **** 
  59:Src/usb_pd_protocol.c **** /* Type C supply voltage (mV) */
  60:Src/usb_pd_protocol.c **** #define TYPE_C_VOLTAGE	5000 /* mV */
  61:Src/usb_pd_protocol.c **** 
  62:Src/usb_pd_protocol.c **** /* PD counter definitions */
  63:Src/usb_pd_protocol.c **** #define PD_MESSAGE_ID_COUNT 7
  64:Src/usb_pd_protocol.c **** #define PD_HARD_RESET_COUNT 2
  65:Src/usb_pd_protocol.c **** #define PD_CAPS_COUNT 50
  66:Src/usb_pd_protocol.c **** #define PD_SNK_CAP_RETRIES 3
  67:Src/usb_pd_protocol.c **** 
  68:Src/usb_pd_protocol.c **** enum vdm_states {
  69:Src/usb_pd_protocol.c **** 	VDM_STATE_ERR_BUSY = -3,
  70:Src/usb_pd_protocol.c **** 	VDM_STATE_ERR_SEND = -2,
  71:Src/usb_pd_protocol.c **** 	VDM_STATE_ERR_TMOUT = -1,
  72:Src/usb_pd_protocol.c **** 	VDM_STATE_DONE = 0,
  73:Src/usb_pd_protocol.c **** 	/* Anything >0 represents an active state */
  74:Src/usb_pd_protocol.c **** 	VDM_STATE_READY = 1,
  75:Src/usb_pd_protocol.c **** 	VDM_STATE_BUSY = 2,
  76:Src/usb_pd_protocol.c **** 	VDM_STATE_WAIT_RSP_BUSY = 3,
  77:Src/usb_pd_protocol.c **** };
  78:Src/usb_pd_protocol.c **** 
  79:Src/usb_pd_protocol.c **** #ifdef CONFIG_USB_PD_DUAL_ROLE
  80:Src/usb_pd_protocol.c **** /* Port dual-role state */
  81:Src/usb_pd_protocol.c **** enum pd_dual_role_states drp_state = CONFIG_USB_PD_INITIAL_DRP_STATE;
  82:Src/usb_pd_protocol.c **** 
  83:Src/usb_pd_protocol.c **** /* Enable variable for Try.SRC states */
  84:Src/usb_pd_protocol.c **** static uint8_t pd_try_src_enable;
  85:Src/usb_pd_protocol.c **** #endif
  86:Src/usb_pd_protocol.c **** 
  87:Src/usb_pd_protocol.c **** #ifdef CONFIG_USB_PD_REV30
  88:Src/usb_pd_protocol.c **** /*
  89:Src/usb_pd_protocol.c ****  * The spec. revision is used to index into this array.
ARM GAS  /tmp/ccoQIC4J.s 			page 3


  90:Src/usb_pd_protocol.c ****  *  Rev 0 (PD 1.0) - return PD_CTRL_REJECT
  91:Src/usb_pd_protocol.c ****  *  Rev 1 (PD 2.0) - return PD_CTRL_REJECT
  92:Src/usb_pd_protocol.c ****  *  Rev 2 (PD 3.0) - return PD_CTRL_NOT_SUPPORTED
  93:Src/usb_pd_protocol.c ****  */
  94:Src/usb_pd_protocol.c **** static const uint8_t refuse[] = {
  95:Src/usb_pd_protocol.c **** 	PD_CTRL_REJECT, PD_CTRL_REJECT, PD_CTRL_NOT_SUPPORTED};
  96:Src/usb_pd_protocol.c **** #define REFUSE(r) refuse[r]
  97:Src/usb_pd_protocol.c **** #else
  98:Src/usb_pd_protocol.c **** #define REFUSE(r) PD_CTRL_REJECT
  99:Src/usb_pd_protocol.c **** #endif
 100:Src/usb_pd_protocol.c **** 
 101:Src/usb_pd_protocol.c **** #ifdef CONFIG_USB_PD_REV30
 102:Src/usb_pd_protocol.c **** /*
 103:Src/usb_pd_protocol.c ****  * The spec. revision is used to index into this array.
 104:Src/usb_pd_protocol.c ****  *  Rev 0 (VDO 1.0) - return VDM_VER10
 105:Src/usb_pd_protocol.c ****  *  Rev 1 (VDO 1.0) - return VDM_VER10
 106:Src/usb_pd_protocol.c ****  *  Rev 2 (VDO 2.0) - return VDM_VER20
 107:Src/usb_pd_protocol.c ****  */
 108:Src/usb_pd_protocol.c **** static const uint8_t vdo_ver[] = {
 109:Src/usb_pd_protocol.c **** 	VDM_VER10, VDM_VER10, VDM_VER20};
 110:Src/usb_pd_protocol.c **** #define VDO_VER(v) vdo_ver[v]
 111:Src/usb_pd_protocol.c **** #else
 112:Src/usb_pd_protocol.c **** #define VDO_VER(v) VDM_VER10
 113:Src/usb_pd_protocol.c **** #endif
 114:Src/usb_pd_protocol.c **** 
 115:Src/usb_pd_protocol.c **** // variables that used to be pd_task, but had to be promoted 
 116:Src/usb_pd_protocol.c **** // so both pd_init and pd_run_state_machine can see them
 117:Src/usb_pd_protocol.c **** static int head;
 118:Src/usb_pd_protocol.c **** static int port = TASK_ID_TO_PD_PORT(task_get_current());
 119:Src/usb_pd_protocol.c **** static uint32_t payload[7];
 120:Src/usb_pd_protocol.c **** static int timeout = 10*MSEC_US;
 121:Src/usb_pd_protocol.c **** static int cc1, cc2;
 122:Src/usb_pd_protocol.c **** static int res, incoming_packet = 0;
 123:Src/usb_pd_protocol.c **** static int hard_reset_count = 0;
 124:Src/usb_pd_protocol.c **** #ifdef CONFIG_USB_PD_DUAL_ROLE
 125:Src/usb_pd_protocol.c **** static uint64_t next_role_swap = PD_T_DRP_SNK;
 126:Src/usb_pd_protocol.c **** #ifndef CONFIG_USB_PD_VBUS_DETECT_NONE
 127:Src/usb_pd_protocol.c **** static int snk_hard_reset_vbus_off = 0;
 128:Src/usb_pd_protocol.c **** #endif
 129:Src/usb_pd_protocol.c **** #ifdef CONFIG_USB_PD_DUAL_ROLE_AUTO_TOGGLE
 130:Src/usb_pd_protocol.c **** static const int auto_toggle_supported = tcpm_auto_toggle_supported(port);
 131:Src/usb_pd_protocol.c **** #endif
 132:Src/usb_pd_protocol.c **** #if defined(CONFIG_CHARGE_MANAGER)
 133:Src/usb_pd_protocol.c **** static typec_current_t typec_curr = 0, typec_curr_change = 0;
 134:Src/usb_pd_protocol.c **** #endif /* CONFIG_CHARGE_MANAGER */
 135:Src/usb_pd_protocol.c **** #endif /* CONFIG_USB_PD_DUAL_ROLE */
 136:Src/usb_pd_protocol.c **** static enum pd_states this_state;
 137:Src/usb_pd_protocol.c **** static enum pd_cc_states new_cc_state;
 138:Src/usb_pd_protocol.c **** static timestamp_t now;
 139:Src/usb_pd_protocol.c **** static int caps_count = 0, hard_reset_sent = 0;
 140:Src/usb_pd_protocol.c **** static int snk_cap_count = 0;
 141:Src/usb_pd_protocol.c **** static int evt;
 142:Src/usb_pd_protocol.c **** 
 143:Src/usb_pd_protocol.c **** static struct pd_protocol {
 144:Src/usb_pd_protocol.c **** 	/* current port power role (SOURCE or SINK) */
 145:Src/usb_pd_protocol.c **** 	uint8_t power_role;
 146:Src/usb_pd_protocol.c **** 	/* current port data role (DFP or UFP) */
ARM GAS  /tmp/ccoQIC4J.s 			page 4


 147:Src/usb_pd_protocol.c **** 	uint8_t data_role;
 148:Src/usb_pd_protocol.c **** 	/* 3-bit rolling message ID counter */
 149:Src/usb_pd_protocol.c **** 	uint8_t msg_id;
 150:Src/usb_pd_protocol.c **** 	/* Port polarity : 0 => CC1 is CC line, 1 => CC2 is CC line */
 151:Src/usb_pd_protocol.c **** 	uint8_t polarity;
 152:Src/usb_pd_protocol.c **** 	/* PD state for port */
 153:Src/usb_pd_protocol.c **** 	enum pd_states task_state;
 154:Src/usb_pd_protocol.c **** 	/* PD state when we run state handler the last time */
 155:Src/usb_pd_protocol.c **** 	enum pd_states last_state;
 156:Src/usb_pd_protocol.c **** 	/* bool: request state change to SUSPENDED */
 157:Src/usb_pd_protocol.c **** 	uint8_t req_suspend_state;
 158:Src/usb_pd_protocol.c **** 	/* The state to go to after timeout */
 159:Src/usb_pd_protocol.c **** 	enum pd_states timeout_state;
 160:Src/usb_pd_protocol.c **** 	/* port flags, see PD_FLAGS_* */
 161:Src/usb_pd_protocol.c **** 	uint32_t flags;
 162:Src/usb_pd_protocol.c **** 	/* Timeout for the current state. Set to 0 for no timeout. */
 163:Src/usb_pd_protocol.c **** 	uint64_t timeout;
 164:Src/usb_pd_protocol.c **** 	/* Time for source recovery after hard reset */
 165:Src/usb_pd_protocol.c **** 	uint64_t src_recover;
 166:Src/usb_pd_protocol.c **** 	/* Time for CC debounce end */
 167:Src/usb_pd_protocol.c **** 	uint64_t cc_debounce;
 168:Src/usb_pd_protocol.c **** 	/* The cc state */
 169:Src/usb_pd_protocol.c **** 	enum pd_cc_states cc_state;
 170:Src/usb_pd_protocol.c **** 	/* status of last transmit */
 171:Src/usb_pd_protocol.c **** 	uint8_t tx_status;
 172:Src/usb_pd_protocol.c **** 
 173:Src/usb_pd_protocol.c **** 	/* last requested voltage PDO index */
 174:Src/usb_pd_protocol.c **** 	int requested_idx;
 175:Src/usb_pd_protocol.c **** #ifdef CONFIG_USB_PD_DUAL_ROLE
 176:Src/usb_pd_protocol.c **** 	/* Current limit / voltage based on the last request message */
 177:Src/usb_pd_protocol.c **** 	uint32_t curr_limit;
 178:Src/usb_pd_protocol.c **** 	uint32_t supply_voltage;
 179:Src/usb_pd_protocol.c **** 	/* Signal charging update that affects the port */
 180:Src/usb_pd_protocol.c **** 	int new_power_request;
 181:Src/usb_pd_protocol.c **** 	/* Store previously requested voltage request */
 182:Src/usb_pd_protocol.c **** 	int prev_request_mv;
 183:Src/usb_pd_protocol.c **** 	/* Time for Try.SRC states */
 184:Src/usb_pd_protocol.c **** 	uint64_t try_src_marker;
 185:Src/usb_pd_protocol.c **** #endif
 186:Src/usb_pd_protocol.c **** 
 187:Src/usb_pd_protocol.c **** 	/* PD state for Vendor Defined Messages */
 188:Src/usb_pd_protocol.c **** 	enum vdm_states vdm_state;
 189:Src/usb_pd_protocol.c **** 	/* Timeout for the current vdm state.  Set to 0 for no timeout. */
 190:Src/usb_pd_protocol.c **** 	timestamp_t vdm_timeout;
 191:Src/usb_pd_protocol.c **** 	/* next Vendor Defined Message to send */
 192:Src/usb_pd_protocol.c **** 	uint32_t vdo_data[VDO_MAX_SIZE];
 193:Src/usb_pd_protocol.c **** 	uint8_t vdo_count;
 194:Src/usb_pd_protocol.c **** 	/* VDO to retry if UFP responder replied busy. */
 195:Src/usb_pd_protocol.c **** 	uint32_t vdo_retry;
 196:Src/usb_pd_protocol.c **** 
 197:Src/usb_pd_protocol.c **** #ifdef CONFIG_USB_PD_CHROMEOS
 198:Src/usb_pd_protocol.c **** 	/* Attached ChromeOS device id, RW hash, and current RO / RW image */
 199:Src/usb_pd_protocol.c **** 	uint16_t dev_id;
 200:Src/usb_pd_protocol.c **** 	uint32_t dev_rw_hash[PD_RW_HASH_SIZE/4];
 201:Src/usb_pd_protocol.c **** 	enum ec_current_image current_image;
 202:Src/usb_pd_protocol.c **** #endif
 203:Src/usb_pd_protocol.c **** #ifdef CONFIG_USB_PD_REV30
ARM GAS  /tmp/ccoQIC4J.s 			page 5


 204:Src/usb_pd_protocol.c **** 	/* PD Collision avoidance buffer */
 205:Src/usb_pd_protocol.c **** 	uint16_t ca_buffered;
 206:Src/usb_pd_protocol.c **** 	uint16_t ca_header;
 207:Src/usb_pd_protocol.c **** 	uint32_t ca_buffer[PDO_MAX_OBJECTS];
 208:Src/usb_pd_protocol.c **** 	enum tcpm_transmit_type ca_type;
 209:Src/usb_pd_protocol.c **** 	/* protocol revision */
 210:Src/usb_pd_protocol.c **** 	uint8_t rev;
 211:Src/usb_pd_protocol.c **** #endif
 212:Src/usb_pd_protocol.c **** } pd[CONFIG_USB_PD_PORT_COUNT];
 213:Src/usb_pd_protocol.c **** 
 214:Src/usb_pd_protocol.c **** #ifdef CONFIG_COMMON_RUNTIME
 215:Src/usb_pd_protocol.c **** static const char * const pd_state_names[] = {
 216:Src/usb_pd_protocol.c **** 	"DISABLED", "SUSPENDED",
 217:Src/usb_pd_protocol.c **** #ifdef CONFIG_USB_PD_DUAL_ROLE
 218:Src/usb_pd_protocol.c **** 	"SNK_DISCONNECTED", "SNK_DISCONNECTED_DEBOUNCE",
 219:Src/usb_pd_protocol.c **** 	"SNK_HARD_RESET_RECOVER",
 220:Src/usb_pd_protocol.c **** 	"SNK_DISCOVERY", "SNK_REQUESTED", "SNK_TRANSITION", "SNK_READY",
 221:Src/usb_pd_protocol.c **** 	"SNK_SWAP_INIT", "SNK_SWAP_SNK_DISABLE",
 222:Src/usb_pd_protocol.c **** 	"SNK_SWAP_SRC_DISABLE", "SNK_SWAP_STANDBY", "SNK_SWAP_COMPLETE",
 223:Src/usb_pd_protocol.c **** #endif /* CONFIG_USB_PD_DUAL_ROLE */
 224:Src/usb_pd_protocol.c **** 	"SRC_DISCONNECTED", "SRC_DISCONNECTED_DEBOUNCE",
 225:Src/usb_pd_protocol.c **** 	"SRC_HARD_RESET_RECOVER", "SRC_STARTUP",
 226:Src/usb_pd_protocol.c **** 	"SRC_DISCOVERY", "SRC_NEGOCIATE", "SRC_ACCEPTED", "SRC_POWERED",
 227:Src/usb_pd_protocol.c **** 	"SRC_TRANSITION", "SRC_READY", "SRC_GET_SNK_CAP", "DR_SWAP",
 228:Src/usb_pd_protocol.c **** #ifdef CONFIG_USB_PD_DUAL_ROLE
 229:Src/usb_pd_protocol.c **** 	"SRC_SWAP_INIT", "SRC_SWAP_SNK_DISABLE", "SRC_SWAP_SRC_DISABLE",
 230:Src/usb_pd_protocol.c **** 	"SRC_SWAP_STANDBY",
 231:Src/usb_pd_protocol.c **** #ifdef CONFIG_USBC_VCONN_SWAP
 232:Src/usb_pd_protocol.c **** 	"VCONN_SWAP_SEND", "VCONN_SWAP_INIT", "VCONN_SWAP_READY",
 233:Src/usb_pd_protocol.c **** #endif /* CONFIG_USBC_VCONN_SWAP */
 234:Src/usb_pd_protocol.c **** #endif /* CONFIG_USB_PD_DUAL_ROLE */
 235:Src/usb_pd_protocol.c **** 	"SOFT_RESET", "HARD_RESET_SEND", "HARD_RESET_EXECUTE", "BIST_RX",
 236:Src/usb_pd_protocol.c **** 	"BIST_TX",
 237:Src/usb_pd_protocol.c **** #ifdef CONFIG_USB_PD_DUAL_ROLE_AUTO_TOGGLE
 238:Src/usb_pd_protocol.c **** 	"DRP_AUTO_TOGGLE",
 239:Src/usb_pd_protocol.c **** #endif
 240:Src/usb_pd_protocol.c **** };
 241:Src/usb_pd_protocol.c **** BUILD_ASSERT(ARRAY_SIZE(pd_state_names) == PD_STATE_COUNT);
 242:Src/usb_pd_protocol.c **** #endif
 243:Src/usb_pd_protocol.c **** 
 244:Src/usb_pd_protocol.c **** /*
 245:Src/usb_pd_protocol.c ****  * 4 entry rw_hash table of type-C devices that AP has firmware updates for.
 246:Src/usb_pd_protocol.c ****  */
 247:Src/usb_pd_protocol.c **** #ifdef CONFIG_COMMON_RUNTIME
 248:Src/usb_pd_protocol.c **** #define RW_HASH_ENTRIES 4
 249:Src/usb_pd_protocol.c **** static struct ec_params_usb_pd_rw_hash_entry rw_hash_table[RW_HASH_ENTRIES];
 250:Src/usb_pd_protocol.c **** #endif
 251:Src/usb_pd_protocol.c **** 
 252:Src/usb_pd_protocol.c **** int pd_comm_is_enabled(int port)
 253:Src/usb_pd_protocol.c **** {
 254:Src/usb_pd_protocol.c **** #ifdef CONFIG_COMMON_RUNTIME
 255:Src/usb_pd_protocol.c **** 	return pd_comm_enabled[port];
 256:Src/usb_pd_protocol.c **** #else
 257:Src/usb_pd_protocol.c **** 	return 1;
 258:Src/usb_pd_protocol.c **** #endif
 259:Src/usb_pd_protocol.c **** }
 260:Src/usb_pd_protocol.c **** 
ARM GAS  /tmp/ccoQIC4J.s 			page 6


 261:Src/usb_pd_protocol.c **** static inline void set_state_timeout(int port,
 262:Src/usb_pd_protocol.c **** 				     uint64_t timeout,
 263:Src/usb_pd_protocol.c **** 				     enum pd_states timeout_state)
 264:Src/usb_pd_protocol.c **** {
 265:Src/usb_pd_protocol.c **** 	pd[port].timeout = timeout;
 266:Src/usb_pd_protocol.c **** 	pd[port].timeout_state = timeout_state;
 267:Src/usb_pd_protocol.c **** }
 268:Src/usb_pd_protocol.c **** 
 269:Src/usb_pd_protocol.c **** #ifdef CONFIG_USB_PD_REV30
 270:Src/usb_pd_protocol.c **** int pd_get_rev(int port)
 271:Src/usb_pd_protocol.c **** {
 272:Src/usb_pd_protocol.c **** 	return pd[port].rev;
 273:Src/usb_pd_protocol.c **** }
 274:Src/usb_pd_protocol.c **** 
 275:Src/usb_pd_protocol.c **** int pd_get_vdo_ver(int port)
 276:Src/usb_pd_protocol.c **** {
 277:Src/usb_pd_protocol.c **** 	return vdo_ver[pd[port].rev];
 278:Src/usb_pd_protocol.c **** }
 279:Src/usb_pd_protocol.c **** #endif
 280:Src/usb_pd_protocol.c **** 
 281:Src/usb_pd_protocol.c **** /* Return flag for pd state is connected */
 282:Src/usb_pd_protocol.c **** int pd_is_connected(int port)
 283:Src/usb_pd_protocol.c **** {
 284:Src/usb_pd_protocol.c **** 	if (pd[port].task_state == PD_STATE_DISABLED)
 285:Src/usb_pd_protocol.c **** 		return 0;
 286:Src/usb_pd_protocol.c **** 
 287:Src/usb_pd_protocol.c **** #ifdef CONFIG_USB_PD_DUAL_ROLE_AUTO_TOGGLE
 288:Src/usb_pd_protocol.c **** 	if (pd[port].task_state == PD_STATE_DRP_AUTO_TOGGLE)
 289:Src/usb_pd_protocol.c **** 		return 0;
 290:Src/usb_pd_protocol.c **** #endif
 291:Src/usb_pd_protocol.c **** 
 292:Src/usb_pd_protocol.c **** 	return DUAL_ROLE_IF_ELSE(port,
 293:Src/usb_pd_protocol.c **** 		/* sink */
 294:Src/usb_pd_protocol.c **** 		pd[port].task_state != PD_STATE_SNK_DISCONNECTED &&
 295:Src/usb_pd_protocol.c **** 		pd[port].task_state != PD_STATE_SNK_DISCONNECTED_DEBOUNCE,
 296:Src/usb_pd_protocol.c **** 		/* source */
 297:Src/usb_pd_protocol.c **** 		pd[port].task_state != PD_STATE_SRC_DISCONNECTED &&
 298:Src/usb_pd_protocol.c **** 		pd[port].task_state != PD_STATE_SRC_DISCONNECTED_DEBOUNCE);
 299:Src/usb_pd_protocol.c **** }
 300:Src/usb_pd_protocol.c **** 
 301:Src/usb_pd_protocol.c **** /*
 302:Src/usb_pd_protocol.c ****  * Return true if partner port is a DTS or TS capable of entering debug
 303:Src/usb_pd_protocol.c ****  * mode (eg. is presenting Rp/Rp or Rd/Rd).
 304:Src/usb_pd_protocol.c ****  */
 305:Src/usb_pd_protocol.c **** int pd_ts_dts_plugged(int port)
 306:Src/usb_pd_protocol.c **** {
 307:Src/usb_pd_protocol.c **** 	return pd[port].flags & PD_FLAGS_TS_DTS_PARTNER;
 308:Src/usb_pd_protocol.c **** }
 309:Src/usb_pd_protocol.c **** 
 310:Src/usb_pd_protocol.c **** #ifdef CONFIG_USB_PD_DUAL_ROLE
 311:Src/usb_pd_protocol.c **** void pd_vbus_low(int port)
 312:Src/usb_pd_protocol.c **** {
 313:Src/usb_pd_protocol.c **** 	pd[port].flags &= ~PD_FLAGS_VBUS_NEVER_LOW;
 314:Src/usb_pd_protocol.c **** }
 315:Src/usb_pd_protocol.c **** 
 316:Src/usb_pd_protocol.c **** static inline int pd_is_vbus_present(int port)
 317:Src/usb_pd_protocol.c **** {
ARM GAS  /tmp/ccoQIC4J.s 			page 7


 318:Src/usb_pd_protocol.c **** #ifdef CONFIG_USB_PD_VBUS_DETECT_TCPC
 319:Src/usb_pd_protocol.c **** 	return tcpm_get_vbus_level(port);
 320:Src/usb_pd_protocol.c **** #else
 321:Src/usb_pd_protocol.c **** 	return pd_snk_is_vbus_provided(port);
 322:Src/usb_pd_protocol.c **** #endif
 323:Src/usb_pd_protocol.c **** }
 324:Src/usb_pd_protocol.c **** #endif
 325:Src/usb_pd_protocol.c **** 
 326:Src/usb_pd_protocol.c **** static inline void set_state(int port, enum pd_states next_state)
 327:Src/usb_pd_protocol.c **** {
 328:Src/usb_pd_protocol.c **** 	enum pd_states last_state = pd[port].task_state;
 329:Src/usb_pd_protocol.c **** #ifdef CONFIG_LOW_POWER_IDLE
 330:Src/usb_pd_protocol.c **** 	int i;
 331:Src/usb_pd_protocol.c **** #endif
 332:Src/usb_pd_protocol.c **** 
 333:Src/usb_pd_protocol.c **** 	set_state_timeout(port, 0, 0);
 334:Src/usb_pd_protocol.c **** 	pd[port].task_state = next_state;
 335:Src/usb_pd_protocol.c **** 
 336:Src/usb_pd_protocol.c **** 	if (last_state == next_state)
 337:Src/usb_pd_protocol.c **** 		return;
 338:Src/usb_pd_protocol.c **** 
 339:Src/usb_pd_protocol.c **** #ifdef CONFIG_USB_PD_DUAL_ROLE
 340:Src/usb_pd_protocol.c **** #ifdef CONFIG_USB_PD_DUAL_ROLE_AUTO_TOGGLE
 341:Src/usb_pd_protocol.c **** 	/* Clear flag to allow DRP auto toggle when possible */
 342:Src/usb_pd_protocol.c **** 	if (last_state != PD_STATE_DRP_AUTO_TOGGLE)
 343:Src/usb_pd_protocol.c **** 		pd[port].flags &= ~PD_FLAGS_TCPC_DRP_TOGGLE;
 344:Src/usb_pd_protocol.c **** #endif
 345:Src/usb_pd_protocol.c **** 
 346:Src/usb_pd_protocol.c **** 	/* Ignore dual-role toggling between sink and source */
 347:Src/usb_pd_protocol.c **** 	if ((last_state == PD_STATE_SNK_DISCONNECTED &&
 348:Src/usb_pd_protocol.c **** 	     next_state == PD_STATE_SRC_DISCONNECTED) ||
 349:Src/usb_pd_protocol.c **** 	    (last_state == PD_STATE_SRC_DISCONNECTED &&
 350:Src/usb_pd_protocol.c **** 	     next_state == PD_STATE_SNK_DISCONNECTED))
 351:Src/usb_pd_protocol.c **** 		return;
 352:Src/usb_pd_protocol.c **** 
 353:Src/usb_pd_protocol.c **** 	if (next_state == PD_STATE_SRC_DISCONNECTED ||
 354:Src/usb_pd_protocol.c **** 	    next_state == PD_STATE_SNK_DISCONNECTED) {
 355:Src/usb_pd_protocol.c **** 		/* Clear the input current limit */
 356:Src/usb_pd_protocol.c **** 		pd_set_input_current_limit(port, 0, 0);
 357:Src/usb_pd_protocol.c **** #ifdef CONFIG_CHARGE_MANAGER
 358:Src/usb_pd_protocol.c **** 		//typec_set_input_current_limit(port, 0, 0);
 359:Src/usb_pd_protocol.c **** 		//charge_manager_set_ceil(port,
 360:Src/usb_pd_protocol.c **** 		//			CEIL_REQUESTOR_PD,
 361:Src/usb_pd_protocol.c **** 		//			CHARGE_CEIL_NONE);
 362:Src/usb_pd_protocol.c **** #endif
 363:Src/usb_pd_protocol.c **** #ifdef CONFIG_USBC_VCONN
 364:Src/usb_pd_protocol.c **** 		tcpm_set_vconn(port, 0);
 365:Src/usb_pd_protocol.c **** #endif
 366:Src/usb_pd_protocol.c **** #else /* CONFIG_USB_PD_DUAL_ROLE */
 367:Src/usb_pd_protocol.c **** 	if (next_state == PD_STATE_SRC_DISCONNECTED) {
 368:Src/usb_pd_protocol.c **** #endif
 369:Src/usb_pd_protocol.c **** 		/*
 370:Src/usb_pd_protocol.c **** 		 * If we are source, make sure VBUS is off and
 371:Src/usb_pd_protocol.c **** 		 * if PD REV3.0, restore RP.
 372:Src/usb_pd_protocol.c **** 		 */
 373:Src/usb_pd_protocol.c **** 		if (pd[port].power_role == PD_ROLE_SOURCE) {
 374:Src/usb_pd_protocol.c **** 			/*
ARM GAS  /tmp/ccoQIC4J.s 			page 8


 375:Src/usb_pd_protocol.c **** 			 * Rp is restored by pd_power_supply_reset if
 376:Src/usb_pd_protocol.c **** 			 * CONFIG_USB_PD_MAX_SINGLE_SOURCE_CURRENT is defined.
 377:Src/usb_pd_protocol.c **** 			 */
 378:Src/usb_pd_protocol.c **** 			pd_power_supply_reset(port);
 379:Src/usb_pd_protocol.c **** #if !defined(CONFIG_USB_PD_MAX_SINGLE_SOURCE_CURRENT) && \
 380:Src/usb_pd_protocol.c **** 		defined(CONFIG_USB_PD_REV30)
 381:Src/usb_pd_protocol.c **** 			/* Restore Rp */
 382:Src/usb_pd_protocol.c **** 			tcpm_select_rp_value(port, CONFIG_USB_PD_PULLUP);
 383:Src/usb_pd_protocol.c **** 			tcpm_set_cc(port, TYPEC_CC_RP);
 384:Src/usb_pd_protocol.c **** #endif
 385:Src/usb_pd_protocol.c **** 		}
 386:Src/usb_pd_protocol.c **** #ifdef CONFIG_USB_PD_REV30
 387:Src/usb_pd_protocol.c **** 		/* Adjust rev to highest level*/
 388:Src/usb_pd_protocol.c **** 		pd[port].rev = PD_REV30;
 389:Src/usb_pd_protocol.c **** #endif
 390:Src/usb_pd_protocol.c **** #ifdef CONFIG_USB_PD_CHROMEOS
 391:Src/usb_pd_protocol.c **** 		pd[port].dev_id = 0;
 392:Src/usb_pd_protocol.c **** 		pd[port].flags &= ~PD_FLAGS_RESET_ON_DISCONNECT_MASK;
 393:Src/usb_pd_protocol.c **** #endif
 394:Src/usb_pd_protocol.c **** #ifdef CONFIG_CHARGE_MANAGER
 395:Src/usb_pd_protocol.c **** 		//charge_manager_update_dualrole(port, CAP_UNKNOWN);
 396:Src/usb_pd_protocol.c **** #endif
 397:Src/usb_pd_protocol.c **** #ifdef CONFIG_USB_PD_ALT_MODE_DFP
 398:Src/usb_pd_protocol.c **** 		pd_dfp_exit_mode(port, 0, 0);
 399:Src/usb_pd_protocol.c **** #endif
 400:Src/usb_pd_protocol.c **** #ifdef CONFIG_USBC_SS_MUX
 401:Src/usb_pd_protocol.c **** 		usb_mux_set(port, TYPEC_MUX_NONE, USB_SWITCH_DISCONNECT,
 402:Src/usb_pd_protocol.c **** 			    pd[port].polarity);
 403:Src/usb_pd_protocol.c **** #endif
 404:Src/usb_pd_protocol.c **** 		/* Disable TCPC RX */
 405:Src/usb_pd_protocol.c **** 		tcpm_set_rx_enable(port, 0);
 406:Src/usb_pd_protocol.c **** 	}
 407:Src/usb_pd_protocol.c **** 
 408:Src/usb_pd_protocol.c **** #ifdef CONFIG_LOW_POWER_IDLE
 409:Src/usb_pd_protocol.c **** 	/* If a PD device is attached then disable deep sleep */
 410:Src/usb_pd_protocol.c **** 	for (i = 0; i < CONFIG_USB_PD_PORT_COUNT; i++) {
 411:Src/usb_pd_protocol.c **** 		if (pd[i].flags & PD_FLAGS_PREVIOUS_PD_CONN)
 412:Src/usb_pd_protocol.c **** 			break;
 413:Src/usb_pd_protocol.c **** 	}
 414:Src/usb_pd_protocol.c **** 	if (i == CONFIG_USB_PD_PORT_COUNT)
 415:Src/usb_pd_protocol.c **** 		enable_sleep(SLEEP_MASK_USB_PD);
 416:Src/usb_pd_protocol.c **** 	else
 417:Src/usb_pd_protocol.c **** 		disable_sleep(SLEEP_MASK_USB_PD);
 418:Src/usb_pd_protocol.c **** #endif
 419:Src/usb_pd_protocol.c **** 
 420:Src/usb_pd_protocol.c **** 	if (debug_level >= 1)
 421:Src/usb_pd_protocol.c **** 		CPRINTF("C%d st%d %s\n", port, next_state,
 422:Src/usb_pd_protocol.c **** 					 pd_state_names[next_state]);
 423:Src/usb_pd_protocol.c **** 	else
 424:Src/usb_pd_protocol.c **** 		CPRINTF("C%d st%d\n", port, next_state);
 425:Src/usb_pd_protocol.c **** }
 426:Src/usb_pd_protocol.c **** 
 427:Src/usb_pd_protocol.c **** /* increment message ID counter */
 428:Src/usb_pd_protocol.c **** static void inc_id(int port)
 429:Src/usb_pd_protocol.c **** {
  27              		.loc 1 429 1 view -0
  28              		.cfi_startproc
ARM GAS  /tmp/ccoQIC4J.s 			page 9


  29              		@ args = 0, pretend = 0, frame = 0
  30              		@ frame_needed = 0, uses_anonymous_args = 0
  31              		@ link register save eliminated.
 430:Src/usb_pd_protocol.c **** 	pd[port].msg_id = (pd[port].msg_id + 1) & PD_MESSAGE_ID_COUNT;
  32              		.loc 1 430 2 view .LVU1
  33              		.loc 1 430 29 is_stmt 0 view .LVU2
  34 0000 C301     		lsls	r3, r0, #7
  35 0002 0448     		ldr	r0, .L2
  36              	.LVL1:
  37              		.loc 1 430 29 view .LVU3
  38 0004 C018     		adds	r0, r0, r3
  39 0006 8378     		ldrb	r3, [r0, #2]
  40              		.loc 1 430 37 view .LVU4
  41 0008 0133     		adds	r3, r3, #1
  42              		.loc 1 430 42 view .LVU5
  43 000a 0722     		movs	r2, #7
  44 000c 1340     		ands	r3, r2
  45              		.loc 1 430 18 view .LVU6
  46 000e 8370     		strb	r3, [r0, #2]
 431:Src/usb_pd_protocol.c **** }
  47              		.loc 1 431 1 view .LVU7
  48              		@ sp needed
  49 0010 7047     		bx	lr
  50              	.L3:
  51 0012 C046     		.align	2
  52              	.L2:
  53 0014 00000000 		.word	pd
  54              		.cfi_endproc
  55              	.LFE25:
  57              		.section	.text.pd_update_roles,"ax",%progbits
  58              		.align	1
  59              		.syntax unified
  60              		.code	16
  61              		.thumb_func
  62              		.fpu softvfp
  64              	pd_update_roles:
  65              	.LVL2:
  66              	.LFB28:
 432:Src/usb_pd_protocol.c **** 
 433:Src/usb_pd_protocol.c **** #ifdef CONFIG_USB_PD_REV30
 434:Src/usb_pd_protocol.c **** static void sink_can_xmit(int port, int rp)
 435:Src/usb_pd_protocol.c **** {
 436:Src/usb_pd_protocol.c **** 	tcpm_select_rp_value(port, rp);
 437:Src/usb_pd_protocol.c **** 	tcpm_set_cc(port, TYPEC_CC_RP);
 438:Src/usb_pd_protocol.c **** }
 439:Src/usb_pd_protocol.c **** 
 440:Src/usb_pd_protocol.c **** static inline void pd_ca_reset(int port)
 441:Src/usb_pd_protocol.c **** {
 442:Src/usb_pd_protocol.c **** 	pd[port].ca_buffered = 0;
 443:Src/usb_pd_protocol.c **** }
 444:Src/usb_pd_protocol.c **** #endif
 445:Src/usb_pd_protocol.c **** 
 446:Src/usb_pd_protocol.c **** void pd_transmit_complete(int port, int status)
 447:Src/usb_pd_protocol.c **** {
 448:Src/usb_pd_protocol.c **** 	if (status == TCPC_TX_COMPLETE_SUCCESS)
 449:Src/usb_pd_protocol.c **** 		inc_id(port);
 450:Src/usb_pd_protocol.c **** 
ARM GAS  /tmp/ccoQIC4J.s 			page 10


 451:Src/usb_pd_protocol.c **** 	pd[port].tx_status = status;
 452:Src/usb_pd_protocol.c **** 	//task_set_event(PD_PORT_TO_TASK_ID(port), PD_EVENT_TX, 0);
 453:Src/usb_pd_protocol.c **** 	pd_task_set_event(PD_EVENT_TX, 0);
 454:Src/usb_pd_protocol.c **** }
 455:Src/usb_pd_protocol.c **** 
 456:Src/usb_pd_protocol.c **** static int pd_transmit(int port, enum tcpm_transmit_type type,
 457:Src/usb_pd_protocol.c **** 		       uint16_t header, const uint32_t *data)
 458:Src/usb_pd_protocol.c **** {
 459:Src/usb_pd_protocol.c **** 	int evt;
 460:Src/usb_pd_protocol.c **** 
 461:Src/usb_pd_protocol.c **** 	/* If comms are disabled, do not transmit, return error */
 462:Src/usb_pd_protocol.c **** 	if (!pd_comm_is_enabled(port))
 463:Src/usb_pd_protocol.c **** 		return -1;
 464:Src/usb_pd_protocol.c **** #ifdef CONFIG_USB_PD_REV30
 465:Src/usb_pd_protocol.c **** 	/* Source-coordinated collision avoidance */
 466:Src/usb_pd_protocol.c **** 	/*
 467:Src/usb_pd_protocol.c **** 	 * In order to avoid message collisions due to asynchronous Messaging
 468:Src/usb_pd_protocol.c **** 	 * sent from the Sink, the Source sets Rp to SinkTxOk to indicate to
 469:Src/usb_pd_protocol.c **** 	 * the Sink that it is ok to initiate an AMS. When the Source wishes
 470:Src/usb_pd_protocol.c **** 	 * to initiate an AMS it sets Rp to SinkTxNG. When the Sink detects
 471:Src/usb_pd_protocol.c **** 	 * that Rp is set to SinkTxOk it May initiate an AMS. When the Sink
 472:Src/usb_pd_protocol.c **** 	 * detects that Rp is set to SinkTxNG it Shall Not initiate an AMS
 473:Src/usb_pd_protocol.c **** 	 * and Shall only send Messages that are part of an AMS the Source has
 474:Src/usb_pd_protocol.c **** 	 * initiated. Note that this restriction applies to SOP* AMS’s i.e.
 475:Src/usb_pd_protocol.c **** 	 * for both Port to Port and Port to Cable Plug communications.
 476:Src/usb_pd_protocol.c **** 	 *
 477:Src/usb_pd_protocol.c **** 	 * This starts after an Explicit Contract is in place
 478:Src/usb_pd_protocol.c **** 	 * PD R3 V1.1 Section 2.5.2.
 479:Src/usb_pd_protocol.c **** 	 *
 480:Src/usb_pd_protocol.c **** 	 * Note: a Sink can still send Hard Reset signaling at any time.
 481:Src/usb_pd_protocol.c **** 	 */
 482:Src/usb_pd_protocol.c **** 	if ((pd[port].rev == PD_REV30) &&
 483:Src/usb_pd_protocol.c **** 		(pd[port].flags & PD_FLAGS_EXPLICIT_CONTRACT)) {
 484:Src/usb_pd_protocol.c **** 		if (pd[port].power_role == PD_ROLE_SOURCE) {
 485:Src/usb_pd_protocol.c **** 			/*
 486:Src/usb_pd_protocol.c **** 			 * Inform Sink that it can't transmit. If a sink
 487:Src/usb_pd_protocol.c **** 			 * transmition is in progress and a collsion occurs,
 488:Src/usb_pd_protocol.c **** 			 * a reset is generated. This should be rare because
 489:Src/usb_pd_protocol.c **** 			 * all extended messages are chunked. This effectively
 490:Src/usb_pd_protocol.c **** 			 * defaults to PD REV 2.0 collision avoidance.
 491:Src/usb_pd_protocol.c **** 			 */
 492:Src/usb_pd_protocol.c **** 			sink_can_xmit(port, SINK_TX_NG);
 493:Src/usb_pd_protocol.c **** 		} else if (type != TCPC_TX_HARD_RESET) {
 494:Src/usb_pd_protocol.c **** 			int cc1;
 495:Src/usb_pd_protocol.c **** 			int cc2;
 496:Src/usb_pd_protocol.c **** 
 497:Src/usb_pd_protocol.c **** 			tcpm_get_cc(port, &cc1, &cc2);
 498:Src/usb_pd_protocol.c **** 			if (cc1 == TYPEC_CC_VOLT_SNK_1_5 ||
 499:Src/usb_pd_protocol.c **** 				cc2 == TYPEC_CC_VOLT_SNK_1_5) {
 500:Src/usb_pd_protocol.c **** 				/* Sink can't transmit now. */
 501:Src/usb_pd_protocol.c **** 				/* Check if message is already buffered. */
 502:Src/usb_pd_protocol.c **** 				if (pd[port].ca_buffered)
 503:Src/usb_pd_protocol.c **** 					return -1;
 504:Src/usb_pd_protocol.c **** 
 505:Src/usb_pd_protocol.c **** 				/* Buffer message and send later. */
 506:Src/usb_pd_protocol.c **** 				pd[port].ca_type = type;
 507:Src/usb_pd_protocol.c **** 				pd[port].ca_header = header;
ARM GAS  /tmp/ccoQIC4J.s 			page 11


 508:Src/usb_pd_protocol.c **** 				memcpy(pd[port].ca_buffer,
 509:Src/usb_pd_protocol.c **** 					data, sizeof(uint32_t) *
 510:Src/usb_pd_protocol.c **** 					PD_HEADER_CNT(header));
 511:Src/usb_pd_protocol.c **** 				pd[port].ca_buffered = 1;
 512:Src/usb_pd_protocol.c **** 				return 1;
 513:Src/usb_pd_protocol.c **** 			}
 514:Src/usb_pd_protocol.c **** 		}
 515:Src/usb_pd_protocol.c **** 	}
 516:Src/usb_pd_protocol.c **** #endif
 517:Src/usb_pd_protocol.c **** 	tcpm_transmit(port, type, header, data);
 518:Src/usb_pd_protocol.c **** 
 519:Src/usb_pd_protocol.c **** 	/* Wait until TX is complete */
 520:Src/usb_pd_protocol.c **** 	// Would wait, except that we're making tcpm_transmit blocking
 521:Src/usb_pd_protocol.c **** 	//evt = task_wait_event_mask(PD_EVENT_TX, PD_T_TCPC_TX_TIMEOUT);
 522:Src/usb_pd_protocol.c **** 
 523:Src/usb_pd_protocol.c **** #ifdef CONFIG_USB_PD_REV30
 524:Src/usb_pd_protocol.c **** 	/*
 525:Src/usb_pd_protocol.c **** 	 * If the source just completed a transmit, tell
 526:Src/usb_pd_protocol.c **** 	 * the sink it can transmit if it wants to.
 527:Src/usb_pd_protocol.c **** 	 */
 528:Src/usb_pd_protocol.c **** 	if ((pd[port].rev == PD_REV30) &&
 529:Src/usb_pd_protocol.c **** 			(pd[port].power_role == PD_ROLE_SOURCE) &&
 530:Src/usb_pd_protocol.c **** 			(pd[port].flags & PD_FLAGS_EXPLICIT_CONTRACT)) {
 531:Src/usb_pd_protocol.c **** 		sink_can_xmit(port, SINK_TX_OK);
 532:Src/usb_pd_protocol.c **** 	}
 533:Src/usb_pd_protocol.c **** #endif
 534:Src/usb_pd_protocol.c **** 
 535:Src/usb_pd_protocol.c **** 	// removing task-based stuff from the library
 536:Src/usb_pd_protocol.c **** 	//if (evt & TASK_EVENT_TIMER)
 537:Src/usb_pd_protocol.c ****     //		return -1;
 538:Src/usb_pd_protocol.c **** 
 539:Src/usb_pd_protocol.c **** 	/* TODO: give different error condition for failed vs discarded */
 540:Src/usb_pd_protocol.c **** 	return pd[port].tx_status == TCPC_TX_COMPLETE_SUCCESS ? 1 : -1;
 541:Src/usb_pd_protocol.c **** }
 542:Src/usb_pd_protocol.c **** 
 543:Src/usb_pd_protocol.c **** #ifdef CONFIG_USB_PD_REV30
 544:Src/usb_pd_protocol.c **** static void pd_ca_send_pending(int port)
 545:Src/usb_pd_protocol.c **** {
 546:Src/usb_pd_protocol.c **** 	int cc1;
 547:Src/usb_pd_protocol.c **** 	int cc2;
 548:Src/usb_pd_protocol.c **** 
 549:Src/usb_pd_protocol.c **** 	/* Check if a message has been buffered. */
 550:Src/usb_pd_protocol.c **** 	if (!pd[port].ca_buffered)
 551:Src/usb_pd_protocol.c **** 		return;
 552:Src/usb_pd_protocol.c **** 
 553:Src/usb_pd_protocol.c **** 	tcpm_get_cc(port, &cc1, &cc2);
 554:Src/usb_pd_protocol.c **** 	if ((cc1 != TYPEC_CC_VOLT_SNK_1_5) &&
 555:Src/usb_pd_protocol.c **** 			(cc2 != TYPEC_CC_VOLT_SNK_1_5))
 556:Src/usb_pd_protocol.c **** 		if (pd_transmit(port, pd[port].ca_type,
 557:Src/usb_pd_protocol.c **** 				pd[port].ca_header,
 558:Src/usb_pd_protocol.c **** 				pd[port].ca_buffer) < 0)
 559:Src/usb_pd_protocol.c **** 			return;
 560:Src/usb_pd_protocol.c **** 
 561:Src/usb_pd_protocol.c **** 	/* Message was sent, so free up the buffer. */
 562:Src/usb_pd_protocol.c **** 	pd[port].ca_buffered = 0;
 563:Src/usb_pd_protocol.c **** }
 564:Src/usb_pd_protocol.c **** #endif
ARM GAS  /tmp/ccoQIC4J.s 			page 12


 565:Src/usb_pd_protocol.c **** 
 566:Src/usb_pd_protocol.c **** static void pd_update_roles(int port)
 567:Src/usb_pd_protocol.c **** {
  67              		.loc 1 567 1 is_stmt 1 view -0
  68              		.cfi_startproc
  69              		@ args = 0, pretend = 0, frame = 0
  70              		@ frame_needed = 0, uses_anonymous_args = 0
  71              		.loc 1 567 1 is_stmt 0 view .LVU9
  72 0000 10B5     		push	{r4, lr}
  73              	.LCFI0:
  74              		.cfi_def_cfa_offset 8
  75              		.cfi_offset 4, -8
  76              		.cfi_offset 14, -4
 568:Src/usb_pd_protocol.c **** 	/* Notify TCPC of role update */
 569:Src/usb_pd_protocol.c **** 	tcpm_set_msg_header(port, pd[port].power_role, pd[port].data_role);
  77              		.loc 1 569 2 is_stmt 1 view .LVU10
  78              		.loc 1 569 36 is_stmt 0 view .LVU11
  79 0002 064B     		ldr	r3, .L5
  80 0004 C201     		lsls	r2, r0, #7
  81 0006 D15C     		ldrb	r1, [r2, r3]
  82              		.loc 1 569 57 view .LVU12
  83 0008 9B18     		adds	r3, r3, r2
  84 000a 5A78     		ldrb	r2, [r3, #1]
  85              	.LVL3:
  86              	.LBB146:
  87              	.LBI146:
  88              		.file 2 "Inc/tcpm.h"
   1:Inc/tcpm.h    **** /* Copyright 2015 The Chromium OS Authors. All rights reserved.
   2:Inc/tcpm.h    ****  * Use of this source code is governed by a BSD-style license that can be
   3:Inc/tcpm.h    ****  * found in the LICENSE file.
   4:Inc/tcpm.h    ****  */
   5:Inc/tcpm.h    **** 
   6:Inc/tcpm.h    **** /* USB Power delivery port management - common header for TCPM drivers */
   7:Inc/tcpm.h    **** 
   8:Inc/tcpm.h    **** #ifndef __CROS_EC_USB_PD_TCPM_TCPM_H
   9:Inc/tcpm.h    **** #define __CROS_EC_USB_PD_TCPM_TCPM_H
  10:Inc/tcpm.h    **** 
  11:Inc/tcpm.h    **** #ifdef __cplusplus
  12:Inc/tcpm.h    **** extern "C" {
  13:Inc/tcpm.h    **** #endif
  14:Inc/tcpm.h    **** 
  15:Inc/tcpm.h    **** #include "tcpm_driver.h"
  16:Inc/tcpm.h    **** #include "usb_pd_tcpm.h"
  17:Inc/tcpm.h    **** 
  18:Inc/tcpm.h    **** #if defined(CONFIG_USB_PD_DUAL_ROLE_AUTO_TOGGLE) && \
  19:Inc/tcpm.h    **** 	!defined(CONFIG_USB_PD_DUAL_ROLE)
  20:Inc/tcpm.h    **** #error "DRP auto toggle requires board to have DRP support"
  21:Inc/tcpm.h    **** #error "Please upgrade your board configuration"
  22:Inc/tcpm.h    **** #endif
  23:Inc/tcpm.h    **** 
  24:Inc/tcpm.h    **** #ifndef CONFIG_USB_PD_TCPC
  25:Inc/tcpm.h    **** extern const struct tcpc_config_t tcpc_config[];
  26:Inc/tcpm.h    **** 
  27:Inc/tcpm.h    **** /* I2C wrapper functions - get I2C port / slave addr from config struct. */
  28:Inc/tcpm.h    **** int tcpc_write(int port, int reg, int val);
  29:Inc/tcpm.h    **** int tcpc_write16(int port, int reg, int val);
  30:Inc/tcpm.h    **** int tcpc_read(int port, int reg, int *val);
ARM GAS  /tmp/ccoQIC4J.s 			page 13


  31:Inc/tcpm.h    **** int tcpc_read16(int port, int reg, int *val);
  32:Inc/tcpm.h    **** int tcpc_xfer(int port,
  33:Inc/tcpm.h    **** 		const uint8_t *out, int out_size,
  34:Inc/tcpm.h    **** 		uint8_t *in, int in_size,
  35:Inc/tcpm.h    **** 		int flags);
  36:Inc/tcpm.h    **** 
  37:Inc/tcpm.h    **** /* TCPM driver wrapper function */
  38:Inc/tcpm.h    **** static inline int tcpm_init(int port)
  39:Inc/tcpm.h    **** {
  40:Inc/tcpm.h    **** 	int rv;
  41:Inc/tcpm.h    **** 
  42:Inc/tcpm.h    **** 	rv = tcpc_config[port].drv->init(port);
  43:Inc/tcpm.h    **** 	if (rv)
  44:Inc/tcpm.h    **** 		return rv;
  45:Inc/tcpm.h    **** 
  46:Inc/tcpm.h    **** 	/* Board specific post TCPC init */
  47:Inc/tcpm.h    **** 	if (board_tcpc_post_init)
  48:Inc/tcpm.h    **** 		rv = board_tcpc_post_init(port);
  49:Inc/tcpm.h    **** 
  50:Inc/tcpm.h    **** 	return rv;
  51:Inc/tcpm.h    **** }
  52:Inc/tcpm.h    **** 
  53:Inc/tcpm.h    **** static inline int tcpm_release(int port)
  54:Inc/tcpm.h    **** {
  55:Inc/tcpm.h    **** 	return tcpc_config[port].drv->release(port);
  56:Inc/tcpm.h    **** }
  57:Inc/tcpm.h    **** 
  58:Inc/tcpm.h    **** static inline int tcpm_get_cc(int port, int *cc1, int *cc2)
  59:Inc/tcpm.h    **** {
  60:Inc/tcpm.h    **** 	return tcpc_config[port].drv->get_cc(port, cc1, cc2);
  61:Inc/tcpm.h    **** }
  62:Inc/tcpm.h    **** 
  63:Inc/tcpm.h    **** static inline int tcpm_get_vbus_level(int port)
  64:Inc/tcpm.h    **** {
  65:Inc/tcpm.h    **** 	return tcpc_config[port].drv->get_vbus_level(port);
  66:Inc/tcpm.h    **** }
  67:Inc/tcpm.h    **** 
  68:Inc/tcpm.h    **** static inline int tcpm_select_rp_value(int port, int rp)
  69:Inc/tcpm.h    **** {
  70:Inc/tcpm.h    **** 	return tcpc_config[port].drv->select_rp_value(port, rp);
  71:Inc/tcpm.h    **** }
  72:Inc/tcpm.h    **** 
  73:Inc/tcpm.h    **** static inline int tcpm_set_cc(int port, int pull)
  74:Inc/tcpm.h    **** {
  75:Inc/tcpm.h    **** 	return tcpc_config[port].drv->set_cc(port, pull);
  76:Inc/tcpm.h    **** }
  77:Inc/tcpm.h    **** 
  78:Inc/tcpm.h    **** static inline int tcpm_set_polarity(int port, int polarity)
  79:Inc/tcpm.h    **** {
  80:Inc/tcpm.h    **** 	return tcpc_config[port].drv->set_polarity(port, polarity);
  81:Inc/tcpm.h    **** }
  82:Inc/tcpm.h    **** 
  83:Inc/tcpm.h    **** static inline int tcpm_set_vconn(int port, int enable)
  84:Inc/tcpm.h    **** {
  85:Inc/tcpm.h    **** 	return tcpc_config[port].drv->set_vconn(port, enable);
  86:Inc/tcpm.h    **** }
  87:Inc/tcpm.h    **** 
ARM GAS  /tmp/ccoQIC4J.s 			page 14


  88:Inc/tcpm.h    **** static inline int tcpm_set_msg_header(int port, int power_role, int data_role)
  89              		.loc 2 88 19 is_stmt 1 view .LVU13
  90              	.LBB147:
  89:Inc/tcpm.h    **** {
  90:Inc/tcpm.h    **** 	return tcpc_config[port].drv->set_msg_header(port, power_role,
  91              		.loc 2 90 2 view .LVU14
  92              		.loc 2 90 26 is_stmt 0 view .LVU15
  93 000c 0401     		lsls	r4, r0, #4
  94 000e 044B     		ldr	r3, .L5+4
  95 0010 1B19     		adds	r3, r3, r4
  96 0012 9B68     		ldr	r3, [r3, #8]
  97              		.loc 2 90 30 view .LVU16
  98 0014 1B6A     		ldr	r3, [r3, #32]
  99              		.loc 2 90 9 view .LVU17
 100 0016 9847     		blx	r3
 101              	.LVL4:
 102              		.loc 2 90 9 view .LVU18
 103              	.LBE147:
 104              	.LBE146:
 570:Src/usb_pd_protocol.c **** }
 105              		.loc 1 570 1 view .LVU19
 106              		@ sp needed
 107 0018 10BD     		pop	{r4, pc}
 108              	.L6:
 109 001a C046     		.align	2
 110              	.L5:
 111 001c 00000000 		.word	pd
 112 0020 00000000 		.word	tcpc_config
 113              		.cfi_endproc
 114              	.LFE28:
 116              		.section	.text.pd_update_pdo_flags,"ax",%progbits
 117              		.align	1
 118              		.syntax unified
 119              		.code	16
 120              		.thumb_func
 121              		.fpu softvfp
 123              	pd_update_pdo_flags:
 124              	.LVL5:
 125              	.LFB39:
 571:Src/usb_pd_protocol.c **** 
 572:Src/usb_pd_protocol.c **** static int send_control(int port, int type)
 573:Src/usb_pd_protocol.c **** {
 574:Src/usb_pd_protocol.c **** 	int bit_len;
 575:Src/usb_pd_protocol.c **** 	uint16_t header = PD_HEADER(type, pd[port].power_role,
 576:Src/usb_pd_protocol.c **** 				pd[port].data_role, pd[port].msg_id, 0,
 577:Src/usb_pd_protocol.c **** 				pd_get_rev(port), 0);
 578:Src/usb_pd_protocol.c **** 
 579:Src/usb_pd_protocol.c **** 	bit_len = pd_transmit(port, TCPC_TX_SOP, header, NULL);
 580:Src/usb_pd_protocol.c **** 	if (debug_level >= 2)
 581:Src/usb_pd_protocol.c **** 		CPRINTF("CTRL[%d]>%d\n", type, bit_len);
 582:Src/usb_pd_protocol.c **** 
 583:Src/usb_pd_protocol.c **** 	return bit_len;
 584:Src/usb_pd_protocol.c **** }
 585:Src/usb_pd_protocol.c **** 
 586:Src/usb_pd_protocol.c **** static int send_source_cap(int port)
 587:Src/usb_pd_protocol.c **** {
 588:Src/usb_pd_protocol.c **** 	int bit_len;
ARM GAS  /tmp/ccoQIC4J.s 			page 15


 589:Src/usb_pd_protocol.c **** #if defined(CONFIG_USB_PD_DYNAMIC_SRC_CAP) || \
 590:Src/usb_pd_protocol.c **** 		defined(CONFIG_USB_PD_MAX_SINGLE_SOURCE_CURRENT)
 591:Src/usb_pd_protocol.c **** 	const uint32_t *src_pdo;
 592:Src/usb_pd_protocol.c **** 	const int src_pdo_cnt = charge_manager_get_source_pdo(&src_pdo, port);
 593:Src/usb_pd_protocol.c **** #else
 594:Src/usb_pd_protocol.c **** 	const uint32_t *src_pdo = pd_src_pdo;
 595:Src/usb_pd_protocol.c **** 	const int src_pdo_cnt = pd_src_pdo_cnt;
 596:Src/usb_pd_protocol.c **** #endif
 597:Src/usb_pd_protocol.c **** 	uint16_t header;
 598:Src/usb_pd_protocol.c **** 
 599:Src/usb_pd_protocol.c **** 	if (src_pdo_cnt == 0)
 600:Src/usb_pd_protocol.c **** 		/* No source capabilities defined, sink only */
 601:Src/usb_pd_protocol.c **** 		header = PD_HEADER(PD_CTRL_REJECT, pd[port].power_role,
 602:Src/usb_pd_protocol.c **** 			pd[port].data_role, pd[port].msg_id, 0,
 603:Src/usb_pd_protocol.c **** 			pd_get_rev(port), 0);
 604:Src/usb_pd_protocol.c **** 	else
 605:Src/usb_pd_protocol.c **** 		header = PD_HEADER(PD_DATA_SOURCE_CAP, pd[port].power_role,
 606:Src/usb_pd_protocol.c **** 			pd[port].data_role, pd[port].msg_id, src_pdo_cnt,
 607:Src/usb_pd_protocol.c **** 			pd_get_rev(port), 0);
 608:Src/usb_pd_protocol.c **** 
 609:Src/usb_pd_protocol.c **** 	bit_len = pd_transmit(port, TCPC_TX_SOP, header, src_pdo);
 610:Src/usb_pd_protocol.c **** 	if (debug_level >= 2)
 611:Src/usb_pd_protocol.c **** 		CPRINTF("srcCAP>%d\n", bit_len);
 612:Src/usb_pd_protocol.c **** 
 613:Src/usb_pd_protocol.c **** 	return bit_len;
 614:Src/usb_pd_protocol.c **** }
 615:Src/usb_pd_protocol.c **** 
 616:Src/usb_pd_protocol.c **** #ifdef CONFIG_USB_PD_REV30
 617:Src/usb_pd_protocol.c **** static int send_battery_cap(int port, uint32_t *payload)
 618:Src/usb_pd_protocol.c **** {
 619:Src/usb_pd_protocol.c **** 	int bit_len;
 620:Src/usb_pd_protocol.c **** 	uint16_t msg[6] = {0, 0, 0, 0, 0, 0};
 621:Src/usb_pd_protocol.c **** 	uint16_t header = PD_HEADER(PD_EXT_BATTERY_CAP,
 622:Src/usb_pd_protocol.c **** 				    pd[port].power_role,
 623:Src/usb_pd_protocol.c **** 				    pd[port].data_role,
 624:Src/usb_pd_protocol.c **** 				    pd[port].msg_id,
 625:Src/usb_pd_protocol.c **** 				    3, /* Number of Data Objects */
 626:Src/usb_pd_protocol.c **** 				    pd[port].rev,
 627:Src/usb_pd_protocol.c **** 				    1  /* This is an exteded message */
 628:Src/usb_pd_protocol.c **** 				   );
 629:Src/usb_pd_protocol.c **** 
 630:Src/usb_pd_protocol.c **** 	/* Set extended header */
 631:Src/usb_pd_protocol.c **** 	msg[0] = PD_EXT_HEADER(0, /* Chunk Number */
 632:Src/usb_pd_protocol.c **** 			       0, /* Request Chunk */
 633:Src/usb_pd_protocol.c **** 			       9  /* Data Size in bytes */
 634:Src/usb_pd_protocol.c **** 			      );
 635:Src/usb_pd_protocol.c **** 	/* Set VID */
 636:Src/usb_pd_protocol.c **** 	msg[1] = USB_VID_GOOGLE;
 637:Src/usb_pd_protocol.c **** 
 638:Src/usb_pd_protocol.c **** 	/* Set PID */
 639:Src/usb_pd_protocol.c **** 	msg[2] = CONFIG_USB_PID;
 640:Src/usb_pd_protocol.c **** 
 641:Src/usb_pd_protocol.c **** 	if (battery_is_present()) {
 642:Src/usb_pd_protocol.c **** 		/*
 643:Src/usb_pd_protocol.c **** 		 * We only have one fixed battery,
 644:Src/usb_pd_protocol.c **** 		 * so make sure batt cap ref is 0.
 645:Src/usb_pd_protocol.c **** 		 */
ARM GAS  /tmp/ccoQIC4J.s 			page 16


 646:Src/usb_pd_protocol.c **** 		if (BATT_CAP_REF(payload[0]) != 0) {
 647:Src/usb_pd_protocol.c **** 			/* Invalid battery reference */
 648:Src/usb_pd_protocol.c **** 			msg[5] = 1;
 649:Src/usb_pd_protocol.c **** 		} else {
 650:Src/usb_pd_protocol.c **** 			uint32_t v;
 651:Src/usb_pd_protocol.c **** 			uint32_t c;
 652:Src/usb_pd_protocol.c **** 
 653:Src/usb_pd_protocol.c **** 			/*
 654:Src/usb_pd_protocol.c **** 			 * The Battery Design Capacity field shall return the
 655:Src/usb_pd_protocol.c **** 			 * Battery’s design capacity in tenths of Wh. If the
 656:Src/usb_pd_protocol.c **** 			 * Battery is Hot Swappable and is not present, the
 657:Src/usb_pd_protocol.c **** 			 * Battery Design Capacity field shall be set to 0. If
 658:Src/usb_pd_protocol.c **** 			 * the Battery is unable to report its Design Capacity,
 659:Src/usb_pd_protocol.c **** 			 * it shall return 0xFFFF
 660:Src/usb_pd_protocol.c **** 			 */
 661:Src/usb_pd_protocol.c **** 			msg[3] = 0xffff;
 662:Src/usb_pd_protocol.c **** 
 663:Src/usb_pd_protocol.c **** 			/*
 664:Src/usb_pd_protocol.c **** 			 * The Battery Last Full Charge Capacity field shall
 665:Src/usb_pd_protocol.c **** 			 * return the Battery’s last full charge capacity in
 666:Src/usb_pd_protocol.c **** 			 * tenths of Wh. If the Battery is Hot Swappable and
 667:Src/usb_pd_protocol.c **** 			 * is not present, the Battery Last Full Charge Capacity
 668:Src/usb_pd_protocol.c **** 			 * field shall be set to 0. If the Battery is unable to
 669:Src/usb_pd_protocol.c **** 			 * report its Design Capacity, the Battery Last Full
 670:Src/usb_pd_protocol.c **** 			 * Charge Capacity field shall be set to 0xFFFF.
 671:Src/usb_pd_protocol.c **** 			 */
 672:Src/usb_pd_protocol.c **** 			msg[4] = 0xffff;
 673:Src/usb_pd_protocol.c **** 
 674:Src/usb_pd_protocol.c **** 			if (battery_design_voltage(&v) == 0) {
 675:Src/usb_pd_protocol.c **** 				if (battery_design_capacity(&c) == 0) {
 676:Src/usb_pd_protocol.c **** 					/*
 677:Src/usb_pd_protocol.c **** 					 * Wh = (c * v) / 1000000
 678:Src/usb_pd_protocol.c **** 					 * 10th of a Wh = Wh * 10
 679:Src/usb_pd_protocol.c **** 					 */
 680:Src/usb_pd_protocol.c **** 					msg[3] = DIV_ROUND_NEAREST((c * v),
 681:Src/usb_pd_protocol.c **** 								100000);
 682:Src/usb_pd_protocol.c **** 				}
 683:Src/usb_pd_protocol.c **** 
 684:Src/usb_pd_protocol.c **** 				if (battery_full_charge_capacity(&c) == 0) {
 685:Src/usb_pd_protocol.c **** 					/*
 686:Src/usb_pd_protocol.c **** 					 * Wh = (c * v) / 1000000
 687:Src/usb_pd_protocol.c **** 					 * 10th of a Wh = Wh * 10
 688:Src/usb_pd_protocol.c **** 					 */
 689:Src/usb_pd_protocol.c **** 					msg[4] = DIV_ROUND_NEAREST((c * v),
 690:Src/usb_pd_protocol.c **** 								100000);
 691:Src/usb_pd_protocol.c **** 				}
 692:Src/usb_pd_protocol.c **** 			}
 693:Src/usb_pd_protocol.c **** 		}
 694:Src/usb_pd_protocol.c **** 	}
 695:Src/usb_pd_protocol.c **** 
 696:Src/usb_pd_protocol.c **** 	bit_len = pd_transmit(port, TCPC_TX_SOP, header, (uint32_t *)msg);
 697:Src/usb_pd_protocol.c **** 	if (debug_level >= 2)
 698:Src/usb_pd_protocol.c **** 		CPRINTF("batCap>%d\n", bit_len);
 699:Src/usb_pd_protocol.c **** 	return bit_len;
 700:Src/usb_pd_protocol.c **** }
 701:Src/usb_pd_protocol.c **** 
 702:Src/usb_pd_protocol.c **** static int send_battery_status(int port,  uint32_t *payload)
ARM GAS  /tmp/ccoQIC4J.s 			page 17


 703:Src/usb_pd_protocol.c **** {
 704:Src/usb_pd_protocol.c **** 	int bit_len;
 705:Src/usb_pd_protocol.c **** 	uint32_t msg = 0;
 706:Src/usb_pd_protocol.c **** 	uint16_t header = PD_HEADER(PD_DATA_BATTERY_STATUS,
 707:Src/usb_pd_protocol.c **** 				    pd[port].power_role,
 708:Src/usb_pd_protocol.c **** 				    pd[port].data_role,
 709:Src/usb_pd_protocol.c **** 				    pd[port].msg_id,
 710:Src/usb_pd_protocol.c **** 				    1, /* Number of Data Objects */
 711:Src/usb_pd_protocol.c **** 				    pd[port].rev,
 712:Src/usb_pd_protocol.c **** 				    0 /* This is NOT an extended message */
 713:Src/usb_pd_protocol.c **** 				  );
 714:Src/usb_pd_protocol.c **** 
 715:Src/usb_pd_protocol.c **** 	if (battery_is_present()) {
 716:Src/usb_pd_protocol.c **** 		/*
 717:Src/usb_pd_protocol.c **** 		 * We only have one fixed battery,
 718:Src/usb_pd_protocol.c **** 		 * so make sure batt cap ref is 0.
 719:Src/usb_pd_protocol.c **** 		 */
 720:Src/usb_pd_protocol.c **** 		if (BATT_CAP_REF(payload[0]) != 0) {
 721:Src/usb_pd_protocol.c **** 			/* Invalid battery reference */
 722:Src/usb_pd_protocol.c **** 			msg |= BSDO_INVALID;
 723:Src/usb_pd_protocol.c **** 		} else {
 724:Src/usb_pd_protocol.c **** 			uint32_t v;
 725:Src/usb_pd_protocol.c **** 			uint32_t c;
 726:Src/usb_pd_protocol.c **** 
 727:Src/usb_pd_protocol.c **** 			if (battery_design_voltage(&v) != 0 ||
 728:Src/usb_pd_protocol.c **** 					battery_remaining_capacity(&c) != 0) {
 729:Src/usb_pd_protocol.c **** 				msg |= BSDO_CAP(BSDO_CAP_UNKNOWN);
 730:Src/usb_pd_protocol.c **** 			} else {
 731:Src/usb_pd_protocol.c **** 				/*
 732:Src/usb_pd_protocol.c **** 				 * Wh = (c * v) / 1000000
 733:Src/usb_pd_protocol.c **** 				 * 10th of a Wh = Wh * 10
 734:Src/usb_pd_protocol.c **** 				 */
 735:Src/usb_pd_protocol.c **** 				msg |= BSDO_CAP(DIV_ROUND_NEAREST((c * v),
 736:Src/usb_pd_protocol.c **** 								100000));
 737:Src/usb_pd_protocol.c **** 			}
 738:Src/usb_pd_protocol.c **** 
 739:Src/usb_pd_protocol.c **** 			/* Battery is present */
 740:Src/usb_pd_protocol.c **** 			msg |= BSDO_PRESENT;
 741:Src/usb_pd_protocol.c **** 
 742:Src/usb_pd_protocol.c **** 			/*
 743:Src/usb_pd_protocol.c **** 			 * For drivers that are not smart battery compliant,
 744:Src/usb_pd_protocol.c **** 			 * battery_status() returns EC_ERROR_UNIMPLEMENTED and
 745:Src/usb_pd_protocol.c **** 			 * the battery is assumed to be idle.
 746:Src/usb_pd_protocol.c **** 			 */
 747:Src/usb_pd_protocol.c **** 			if (battery_status(&c) != 0) {
 748:Src/usb_pd_protocol.c **** 				msg |= BSDO_IDLE; /* assume idle */
 749:Src/usb_pd_protocol.c **** 			} else {
 750:Src/usb_pd_protocol.c **** 				if (c & STATUS_FULLY_CHARGED)
 751:Src/usb_pd_protocol.c **** 					/* Fully charged */
 752:Src/usb_pd_protocol.c **** 					msg |= BSDO_IDLE;
 753:Src/usb_pd_protocol.c **** 				else if (c & STATUS_DISCHARGING)
 754:Src/usb_pd_protocol.c **** 					/* Discharging */
 755:Src/usb_pd_protocol.c **** 					msg |= BSDO_DISCHARGING;
 756:Src/usb_pd_protocol.c **** 				/* else battery is charging.*/
 757:Src/usb_pd_protocol.c **** 			}
 758:Src/usb_pd_protocol.c **** 		}
 759:Src/usb_pd_protocol.c **** 	} else {
ARM GAS  /tmp/ccoQIC4J.s 			page 18


 760:Src/usb_pd_protocol.c **** 		msg = BSDO_CAP(BSDO_CAP_UNKNOWN);
 761:Src/usb_pd_protocol.c **** 	}
 762:Src/usb_pd_protocol.c **** 
 763:Src/usb_pd_protocol.c **** 	bit_len = pd_transmit(port, TCPC_TX_SOP, header, &msg);
 764:Src/usb_pd_protocol.c **** 	if (debug_level >= 2)
 765:Src/usb_pd_protocol.c **** 		CPRINTF("batStat>%d\n", bit_len);
 766:Src/usb_pd_protocol.c **** 
 767:Src/usb_pd_protocol.c **** 	return bit_len;
 768:Src/usb_pd_protocol.c **** }
 769:Src/usb_pd_protocol.c **** #endif
 770:Src/usb_pd_protocol.c **** 
 771:Src/usb_pd_protocol.c **** #ifdef CONFIG_USB_PD_DUAL_ROLE
 772:Src/usb_pd_protocol.c **** static void send_sink_cap(int port)
 773:Src/usb_pd_protocol.c **** {
 774:Src/usb_pd_protocol.c **** 	int bit_len;
 775:Src/usb_pd_protocol.c **** 	uint16_t header = PD_HEADER(PD_DATA_SINK_CAP, pd[port].power_role,
 776:Src/usb_pd_protocol.c **** 			pd[port].data_role, pd[port].msg_id, pd_snk_pdo_cnt,
 777:Src/usb_pd_protocol.c **** 			pd_get_rev(port), 0);
 778:Src/usb_pd_protocol.c **** 
 779:Src/usb_pd_protocol.c **** 	bit_len = pd_transmit(port, TCPC_TX_SOP, header, pd_snk_pdo);
 780:Src/usb_pd_protocol.c **** 	if (debug_level >= 2)
 781:Src/usb_pd_protocol.c **** 		CPRINTF("snkCAP>%d\n", bit_len);
 782:Src/usb_pd_protocol.c **** }
 783:Src/usb_pd_protocol.c **** 
 784:Src/usb_pd_protocol.c **** static int send_request(int port, uint32_t rdo)
 785:Src/usb_pd_protocol.c **** {
 786:Src/usb_pd_protocol.c **** 	int bit_len;
 787:Src/usb_pd_protocol.c **** 	uint16_t header = PD_HEADER(PD_DATA_REQUEST, pd[port].power_role,
 788:Src/usb_pd_protocol.c **** 			pd[port].data_role, pd[port].msg_id, 1,
 789:Src/usb_pd_protocol.c **** 			pd_get_rev(port), 0);
 790:Src/usb_pd_protocol.c **** 
 791:Src/usb_pd_protocol.c **** 	bit_len = pd_transmit(port, TCPC_TX_SOP, header, &rdo);
 792:Src/usb_pd_protocol.c **** 	if (debug_level >= 2)
 793:Src/usb_pd_protocol.c **** 		CPRINTF("REQ%d>\n", bit_len);
 794:Src/usb_pd_protocol.c **** 
 795:Src/usb_pd_protocol.c **** 	return bit_len;
 796:Src/usb_pd_protocol.c **** }
 797:Src/usb_pd_protocol.c **** #ifdef CONFIG_BBRAM
 798:Src/usb_pd_protocol.c **** static int pd_get_saved_active(int port)
 799:Src/usb_pd_protocol.c **** {
 800:Src/usb_pd_protocol.c **** 	uint8_t val;
 801:Src/usb_pd_protocol.c **** 
 802:Src/usb_pd_protocol.c **** 	if (system_get_bbram(port ? SYSTEM_BBRAM_IDX_PD1 :
 803:Src/usb_pd_protocol.c **** 				    SYSTEM_BBRAM_IDX_PD0, &val)) {
 804:Src/usb_pd_protocol.c **** 		CPRINTS("PD NVRAM FAIL");
 805:Src/usb_pd_protocol.c **** 		return 0;
 806:Src/usb_pd_protocol.c **** 	}
 807:Src/usb_pd_protocol.c **** 	return !!val;
 808:Src/usb_pd_protocol.c **** }
 809:Src/usb_pd_protocol.c **** 
 810:Src/usb_pd_protocol.c **** static void pd_set_saved_active(int port, int val)
 811:Src/usb_pd_protocol.c **** {
 812:Src/usb_pd_protocol.c **** 	if (system_set_bbram(port ? SYSTEM_BBRAM_IDX_PD1 :
 813:Src/usb_pd_protocol.c **** 				    SYSTEM_BBRAM_IDX_PD0, val))
 814:Src/usb_pd_protocol.c **** 		CPRINTS("PD NVRAM FAIL");
 815:Src/usb_pd_protocol.c **** }
 816:Src/usb_pd_protocol.c **** #endif // CONFIG_BBRAM
ARM GAS  /tmp/ccoQIC4J.s 			page 19


 817:Src/usb_pd_protocol.c **** #endif /* CONFIG_USB_PD_DUAL_ROLE */
 818:Src/usb_pd_protocol.c **** 
 819:Src/usb_pd_protocol.c **** #ifdef CONFIG_COMMON_RUNTIME
 820:Src/usb_pd_protocol.c **** static int send_bist_cmd(int port)
 821:Src/usb_pd_protocol.c **** {
 822:Src/usb_pd_protocol.c **** 	/* currently only support sending bist carrier 2 */
 823:Src/usb_pd_protocol.c **** 	uint32_t bdo = BDO(BDO_MODE_CARRIER2, 0);
 824:Src/usb_pd_protocol.c **** 	int bit_len;
 825:Src/usb_pd_protocol.c **** 	uint16_t header = PD_HEADER(PD_DATA_BIST, pd[port].power_role,
 826:Src/usb_pd_protocol.c **** 			pd[port].data_role, pd[port].msg_id, 1,
 827:Src/usb_pd_protocol.c **** 			pd_get_rev(port), 0);
 828:Src/usb_pd_protocol.c **** 
 829:Src/usb_pd_protocol.c **** 	bit_len = pd_transmit(port, TCPC_TX_SOP, header, &bdo);
 830:Src/usb_pd_protocol.c **** 	CPRINTF("BIST>%d\n", bit_len);
 831:Src/usb_pd_protocol.c **** 
 832:Src/usb_pd_protocol.c **** 	return bit_len;
 833:Src/usb_pd_protocol.c **** }
 834:Src/usb_pd_protocol.c **** #endif
 835:Src/usb_pd_protocol.c **** 
 836:Src/usb_pd_protocol.c **** static void queue_vdm(int port, uint32_t *header, const uint32_t *data,
 837:Src/usb_pd_protocol.c **** 			     int data_cnt)
 838:Src/usb_pd_protocol.c **** {
 839:Src/usb_pd_protocol.c **** 	pd[port].vdo_count = data_cnt + 1;
 840:Src/usb_pd_protocol.c **** 	pd[port].vdo_data[0] = header[0];
 841:Src/usb_pd_protocol.c **** 	memcpy(&pd[port].vdo_data[1], data, sizeof(uint32_t) * data_cnt);
 842:Src/usb_pd_protocol.c **** 	/* Set ready, pd task will actually send */
 843:Src/usb_pd_protocol.c **** 	pd[port].vdm_state = VDM_STATE_READY;
 844:Src/usb_pd_protocol.c **** }
 845:Src/usb_pd_protocol.c **** 
 846:Src/usb_pd_protocol.c **** static void handle_vdm_request(int port, int cnt, uint32_t *payload)
 847:Src/usb_pd_protocol.c **** {
 848:Src/usb_pd_protocol.c **** 	int rlen = 0;
 849:Src/usb_pd_protocol.c **** 	uint32_t *rdata;
 850:Src/usb_pd_protocol.c **** 
 851:Src/usb_pd_protocol.c **** 	if (pd[port].vdm_state == VDM_STATE_BUSY) {
 852:Src/usb_pd_protocol.c **** 		/* If UFP responded busy retry after timeout */
 853:Src/usb_pd_protocol.c **** 		if (PD_VDO_CMDT(payload[0]) == CMDT_RSP_BUSY) {
 854:Src/usb_pd_protocol.c **** 			pd[port].vdm_timeout.val = get_time().val +
 855:Src/usb_pd_protocol.c **** 				PD_T_VDM_BUSY;
 856:Src/usb_pd_protocol.c **** 			pd[port].vdm_state = VDM_STATE_WAIT_RSP_BUSY;
 857:Src/usb_pd_protocol.c **** 			pd[port].vdo_retry = (payload[0] & ~VDO_CMDT_MASK) |
 858:Src/usb_pd_protocol.c **** 				CMDT_INIT;
 859:Src/usb_pd_protocol.c **** 			return;
 860:Src/usb_pd_protocol.c **** 		} else {
 861:Src/usb_pd_protocol.c **** 			pd[port].vdm_state = VDM_STATE_DONE;
 862:Src/usb_pd_protocol.c **** 		}
 863:Src/usb_pd_protocol.c **** 	}
 864:Src/usb_pd_protocol.c **** 
 865:Src/usb_pd_protocol.c **** 	if (PD_VDO_SVDM(payload[0]))
 866:Src/usb_pd_protocol.c **** 		rlen = pd_svdm(port, cnt, payload, &rdata);
 867:Src/usb_pd_protocol.c **** 	else
 868:Src/usb_pd_protocol.c **** 		rlen = pd_custom_vdm(port, cnt, payload, &rdata);
 869:Src/usb_pd_protocol.c **** 
 870:Src/usb_pd_protocol.c **** 	if (rlen > 0) {
 871:Src/usb_pd_protocol.c **** 		queue_vdm(port, rdata, &rdata[1], rlen - 1);
 872:Src/usb_pd_protocol.c **** 		return;
 873:Src/usb_pd_protocol.c **** 	}
ARM GAS  /tmp/ccoQIC4J.s 			page 20


 874:Src/usb_pd_protocol.c **** 	if (debug_level >= 2)
 875:Src/usb_pd_protocol.c **** 		CPRINTF("Unhandled VDM VID %04x CMD %04x\n",
 876:Src/usb_pd_protocol.c **** 			PD_VDO_VID(payload[0]), payload[0] & 0xFFFF);
 877:Src/usb_pd_protocol.c **** }
 878:Src/usb_pd_protocol.c **** 
 879:Src/usb_pd_protocol.c **** void pd_execute_hard_reset(int port)
 880:Src/usb_pd_protocol.c **** {
 881:Src/usb_pd_protocol.c **** 	if (pd[port].last_state == PD_STATE_HARD_RESET_SEND)
 882:Src/usb_pd_protocol.c **** 		CPRINTF("C%d HARD RST TX\n", port);
 883:Src/usb_pd_protocol.c **** 	else
 884:Src/usb_pd_protocol.c **** 		CPRINTF("C%d HARD RST RX\n", port);
 885:Src/usb_pd_protocol.c **** 
 886:Src/usb_pd_protocol.c **** 	pd[port].msg_id = 0;
 887:Src/usb_pd_protocol.c **** #ifdef CONFIG_USB_PD_ALT_MODE_DFP
 888:Src/usb_pd_protocol.c **** 	pd_dfp_exit_mode(port, 0, 0);
 889:Src/usb_pd_protocol.c **** #endif
 890:Src/usb_pd_protocol.c **** 
 891:Src/usb_pd_protocol.c **** #ifdef CONFIG_USB_PD_REV30
 892:Src/usb_pd_protocol.c **** 	pd[port].rev = PD_REV30;
 893:Src/usb_pd_protocol.c **** 	pd_ca_reset(port);
 894:Src/usb_pd_protocol.c **** #endif
 895:Src/usb_pd_protocol.c **** 	/*
 896:Src/usb_pd_protocol.c **** 	 * Fake set last state to hard reset to make sure that the next
 897:Src/usb_pd_protocol.c **** 	 * state to run knows that we just did a hard reset.
 898:Src/usb_pd_protocol.c **** 	 */
 899:Src/usb_pd_protocol.c **** 	pd[port].last_state = PD_STATE_HARD_RESET_EXECUTE;
 900:Src/usb_pd_protocol.c **** 
 901:Src/usb_pd_protocol.c **** #ifdef CONFIG_USB_PD_DUAL_ROLE
 902:Src/usb_pd_protocol.c **** 	/*
 903:Src/usb_pd_protocol.c **** 	 * If we are swapping to a source and have changed to Rp, restore back
 904:Src/usb_pd_protocol.c **** 	 * to Rd and turn off vbus to match our power_role.
 905:Src/usb_pd_protocol.c **** 	 */
 906:Src/usb_pd_protocol.c **** 	if (pd[port].task_state == PD_STATE_SNK_SWAP_STANDBY ||
 907:Src/usb_pd_protocol.c **** 	    pd[port].task_state == PD_STATE_SNK_SWAP_COMPLETE) {
 908:Src/usb_pd_protocol.c **** 		tcpm_set_cc(port, TYPEC_CC_RD);
 909:Src/usb_pd_protocol.c **** 		pd_power_supply_reset(port);
 910:Src/usb_pd_protocol.c **** 	}
 911:Src/usb_pd_protocol.c **** 
 912:Src/usb_pd_protocol.c **** 	if (pd[port].power_role == PD_ROLE_SINK) {
 913:Src/usb_pd_protocol.c **** 		/* Clear the input current limit */
 914:Src/usb_pd_protocol.c **** 		pd_set_input_current_limit(port, 0, 0);
 915:Src/usb_pd_protocol.c **** #ifdef CONFIG_CHARGE_MANAGER
 916:Src/usb_pd_protocol.c **** 		//charge_manager_set_ceil(port,
 917:Src/usb_pd_protocol.c **** 		//			CEIL_REQUESTOR_PD,
 918:Src/usb_pd_protocol.c **** 		//			CHARGE_CEIL_NONE);
 919:Src/usb_pd_protocol.c **** #endif /* CONFIG_CHARGE_MANAGER */
 920:Src/usb_pd_protocol.c **** 
 921:Src/usb_pd_protocol.c **** 		set_state(port, PD_STATE_SNK_HARD_RESET_RECOVER);
 922:Src/usb_pd_protocol.c **** 		return;
 923:Src/usb_pd_protocol.c **** 	}
 924:Src/usb_pd_protocol.c **** #endif /* CONFIG_USB_PD_DUAL_ROLE */
 925:Src/usb_pd_protocol.c **** 
 926:Src/usb_pd_protocol.c **** 	/* We are a source, cut power */
 927:Src/usb_pd_protocol.c **** 	pd_power_supply_reset(port);
 928:Src/usb_pd_protocol.c **** 	pd[port].src_recover = get_time().val + PD_T_SRC_RECOVER;
 929:Src/usb_pd_protocol.c **** 	set_state(port, PD_STATE_SRC_HARD_RESET_RECOVER);
 930:Src/usb_pd_protocol.c **** }
ARM GAS  /tmp/ccoQIC4J.s 			page 21


 931:Src/usb_pd_protocol.c **** 
 932:Src/usb_pd_protocol.c **** static void execute_soft_reset(int port)
 933:Src/usb_pd_protocol.c **** {
 934:Src/usb_pd_protocol.c **** 	pd[port].msg_id = 0;
 935:Src/usb_pd_protocol.c **** 	set_state(port, DUAL_ROLE_IF_ELSE(port, PD_STATE_SNK_DISCOVERY,
 936:Src/usb_pd_protocol.c **** 						PD_STATE_SRC_DISCOVERY));
 937:Src/usb_pd_protocol.c **** 	CPRINTF("C%d Soft Rst\n", port);
 938:Src/usb_pd_protocol.c **** }
 939:Src/usb_pd_protocol.c **** 
 940:Src/usb_pd_protocol.c **** void pd_soft_reset(void)
 941:Src/usb_pd_protocol.c **** {
 942:Src/usb_pd_protocol.c **** 	int i;
 943:Src/usb_pd_protocol.c **** 
 944:Src/usb_pd_protocol.c **** 	for (i = 0; i < CONFIG_USB_PD_PORT_COUNT; ++i)
 945:Src/usb_pd_protocol.c **** 		if (pd_is_connected(i)) {
 946:Src/usb_pd_protocol.c **** 			set_state(i, PD_STATE_SOFT_RESET);
 947:Src/usb_pd_protocol.c **** 			// getting rid of task stuff
 948:Src/usb_pd_protocol.c **** 			//task_wake(PD_PORT_TO_TASK_ID(i));
 949:Src/usb_pd_protocol.c **** 		}
 950:Src/usb_pd_protocol.c **** }
 951:Src/usb_pd_protocol.c **** 
 952:Src/usb_pd_protocol.c **** #ifdef CONFIG_USB_PD_DUAL_ROLE
 953:Src/usb_pd_protocol.c **** /*
 954:Src/usb_pd_protocol.c ****  * Request desired charge voltage from source.
 955:Src/usb_pd_protocol.c ****  * Returns EC_SUCCESS on success or non-zero on failure.
 956:Src/usb_pd_protocol.c ****  */
 957:Src/usb_pd_protocol.c **** static int pd_send_request_msg(int port, int always_send_request)
 958:Src/usb_pd_protocol.c **** {
 959:Src/usb_pd_protocol.c **** 	uint32_t rdo, curr_limit, supply_voltage;
 960:Src/usb_pd_protocol.c **** 	int res;
 961:Src/usb_pd_protocol.c **** 
 962:Src/usb_pd_protocol.c **** #ifdef CONFIG_CHARGE_MANAGER
 963:Src/usb_pd_protocol.c **** 	//int charging = (charge_manager_get_active_charge_port() == port);
 964:Src/usb_pd_protocol.c **** 	const int charging = 1;
 965:Src/usb_pd_protocol.c **** #else
 966:Src/usb_pd_protocol.c **** 	const int charging = 1;
 967:Src/usb_pd_protocol.c **** #endif
 968:Src/usb_pd_protocol.c **** 
 969:Src/usb_pd_protocol.c **** #ifdef CONFIG_USB_PD_CHECK_MAX_REQUEST_ALLOWED
 970:Src/usb_pd_protocol.c **** 	int max_request_allowed = pd_is_max_request_allowed();
 971:Src/usb_pd_protocol.c **** #else
 972:Src/usb_pd_protocol.c **** 	const int max_request_allowed = 1;
 973:Src/usb_pd_protocol.c **** #endif
 974:Src/usb_pd_protocol.c **** 
 975:Src/usb_pd_protocol.c **** 	/* Clear new power request */
 976:Src/usb_pd_protocol.c **** 	pd[port].new_power_request = 0;
 977:Src/usb_pd_protocol.c **** 
 978:Src/usb_pd_protocol.c **** 	/* Build and send request RDO */
 979:Src/usb_pd_protocol.c **** 	/*
 980:Src/usb_pd_protocol.c **** 	 * If this port is not actively charging or we are not allowed to
 981:Src/usb_pd_protocol.c **** 	 * request the max voltage, then select vSafe5V
 982:Src/usb_pd_protocol.c **** 	 */
 983:Src/usb_pd_protocol.c **** 	res = pd_build_request(port, &rdo, &curr_limit, &supply_voltage,
 984:Src/usb_pd_protocol.c **** 			       charging && max_request_allowed ?
 985:Src/usb_pd_protocol.c **** 					PD_REQUEST_MAX : PD_REQUEST_VSAFE5V);
 986:Src/usb_pd_protocol.c **** 
 987:Src/usb_pd_protocol.c **** 	if (res != EC_SUCCESS)
ARM GAS  /tmp/ccoQIC4J.s 			page 22


 988:Src/usb_pd_protocol.c **** 		/*
 989:Src/usb_pd_protocol.c **** 		 * If fail to choose voltage, do nothing, let source re-send
 990:Src/usb_pd_protocol.c **** 		 * source cap
 991:Src/usb_pd_protocol.c **** 		 */
 992:Src/usb_pd_protocol.c **** 		return -1;
 993:Src/usb_pd_protocol.c **** 
 994:Src/usb_pd_protocol.c **** 	if (!always_send_request) {
 995:Src/usb_pd_protocol.c **** 		/* Don't re-request the same voltage */
 996:Src/usb_pd_protocol.c **** 		if (pd[port].prev_request_mv == supply_voltage)
 997:Src/usb_pd_protocol.c **** 			return EC_SUCCESS;
 998:Src/usb_pd_protocol.c **** #ifdef CONFIG_CHARGE_MANAGER
 999:Src/usb_pd_protocol.c **** 		/* Limit current to PD_MIN_MA during transition */
1000:Src/usb_pd_protocol.c **** 		//else
1001:Src/usb_pd_protocol.c **** 		//	charge_manager_force_ceil(port, PD_MIN_MA);
1002:Src/usb_pd_protocol.c **** #endif
1003:Src/usb_pd_protocol.c **** 	}
1004:Src/usb_pd_protocol.c **** 
1005:Src/usb_pd_protocol.c **** 	CPRINTF("Req C%d [%d] %dmV %dmA", port, RDO_POS(rdo),
1006:Src/usb_pd_protocol.c **** 		supply_voltage, curr_limit);
1007:Src/usb_pd_protocol.c **** 	if (rdo & RDO_CAP_MISMATCH)
1008:Src/usb_pd_protocol.c **** 		CPRINTF(" Mismatch");
1009:Src/usb_pd_protocol.c **** 	CPRINTF("\n");
1010:Src/usb_pd_protocol.c **** 
1011:Src/usb_pd_protocol.c **** 	pd[port].curr_limit = curr_limit;
1012:Src/usb_pd_protocol.c **** 	pd[port].supply_voltage = supply_voltage;
1013:Src/usb_pd_protocol.c **** 	pd[port].prev_request_mv = supply_voltage;
1014:Src/usb_pd_protocol.c **** 	res = send_request(port, rdo);
1015:Src/usb_pd_protocol.c **** 	if (res < 0)
1016:Src/usb_pd_protocol.c **** 		return res;
1017:Src/usb_pd_protocol.c **** 	set_state(port, PD_STATE_SNK_REQUESTED);
1018:Src/usb_pd_protocol.c **** 	return EC_SUCCESS;
1019:Src/usb_pd_protocol.c **** }
1020:Src/usb_pd_protocol.c **** #endif
1021:Src/usb_pd_protocol.c **** 
1022:Src/usb_pd_protocol.c **** static void pd_update_pdo_flags(int port, uint32_t pdo)
1023:Src/usb_pd_protocol.c **** {
 126              		.loc 1 1023 1 is_stmt 1 view -0
 127              		.cfi_startproc
 128              		@ args = 0, pretend = 0, frame = 0
 129              		@ frame_needed = 0, uses_anonymous_args = 0
 130              		.loc 1 1023 1 is_stmt 0 view .LVU21
 131 0000 10B5     		push	{r4, lr}
 132              	.LCFI1:
 133              		.cfi_def_cfa_offset 8
 134              		.cfi_offset 4, -8
 135              		.cfi_offset 14, -4
1024:Src/usb_pd_protocol.c **** #ifdef CONFIG_CHARGE_MANAGER
1025:Src/usb_pd_protocol.c **** #ifdef CONFIG_USB_PD_ALT_MODE_DFP
1026:Src/usb_pd_protocol.c **** 	int charge_whitelisted =
1027:Src/usb_pd_protocol.c **** 		(pd[port].power_role == PD_ROLE_SINK &&
1028:Src/usb_pd_protocol.c **** 		 pd_charge_from_device(pd_get_identity_vid(port),
1029:Src/usb_pd_protocol.c **** 				       pd_get_identity_pid(port)));
1030:Src/usb_pd_protocol.c **** #else
1031:Src/usb_pd_protocol.c **** 	const int charge_whitelisted = 0;
 136              		.loc 1 1031 2 is_stmt 1 view .LVU22
 137              	.LVL6:
1032:Src/usb_pd_protocol.c **** #endif
ARM GAS  /tmp/ccoQIC4J.s 			page 23


1033:Src/usb_pd_protocol.c **** #endif
1034:Src/usb_pd_protocol.c **** 
1035:Src/usb_pd_protocol.c **** 	/* can only parse PDO flags if type is fixed */
1036:Src/usb_pd_protocol.c **** 	if ((pdo & PDO_TYPE_MASK) != PDO_TYPE_FIXED)
 138              		.loc 1 1036 2 view .LVU23
 139              		.loc 1 1036 11 is_stmt 0 view .LVU24
 140 0002 8B0F     		lsrs	r3, r1, #30
 141              		.loc 1 1036 5 view .LVU25
 142 0004 25D1     		bne	.L7
1037:Src/usb_pd_protocol.c **** 		return;
1038:Src/usb_pd_protocol.c **** 
1039:Src/usb_pd_protocol.c **** #ifdef CONFIG_USB_PD_DUAL_ROLE
1040:Src/usb_pd_protocol.c **** 	if (pdo & PDO_FIXED_DUAL_ROLE)
 143              		.loc 1 1040 2 is_stmt 1 view .LVU26
 144              		.loc 1 1040 5 is_stmt 0 view .LVU27
 145 0006 8B00     		lsls	r3, r1, #2
 146 0008 24D5     		bpl	.L9
1041:Src/usb_pd_protocol.c **** 		pd[port].flags |= PD_FLAGS_PARTNER_DR_POWER;
 147              		.loc 1 1041 3 is_stmt 1 view .LVU28
 148              		.loc 1 1041 18 is_stmt 0 view .LVU29
 149 000a C201     		lsls	r2, r0, #7
 150 000c 214B     		ldr	r3, .L16
 151 000e 9B18     		adds	r3, r3, r2
 152 0010 0222     		movs	r2, #2
 153 0012 9C68     		ldr	r4, [r3, #8]
 154 0014 2243     		orrs	r2, r4
 155 0016 9A60     		str	r2, [r3, #8]
 156              	.L10:
1042:Src/usb_pd_protocol.c **** 	else
1043:Src/usb_pd_protocol.c **** 		pd[port].flags &= ~PD_FLAGS_PARTNER_DR_POWER;
1044:Src/usb_pd_protocol.c **** 
1045:Src/usb_pd_protocol.c **** 	if (pdo & PDO_FIXED_EXTERNAL)
 157              		.loc 1 1045 2 is_stmt 1 view .LVU30
 158              		.loc 1 1045 5 is_stmt 0 view .LVU31
 159 0018 0B01     		lsls	r3, r1, #4
 160 001a 23D5     		bpl	.L11
1046:Src/usb_pd_protocol.c **** 		pd[port].flags |= PD_FLAGS_PARTNER_EXTPOWER;
 161              		.loc 1 1046 3 is_stmt 1 view .LVU32
 162              		.loc 1 1046 18 is_stmt 0 view .LVU33
 163 001c C201     		lsls	r2, r0, #7
 164 001e 1D4B     		ldr	r3, .L16
 165 0020 9B18     		adds	r3, r3, r2
 166 0022 8022     		movs	r2, #128
 167 0024 1201     		lsls	r2, r2, #4
 168 0026 9C68     		ldr	r4, [r3, #8]
 169 0028 2243     		orrs	r2, r4
 170 002a 9A60     		str	r2, [r3, #8]
 171              	.L12:
1047:Src/usb_pd_protocol.c **** 	else
1048:Src/usb_pd_protocol.c **** 		pd[port].flags &= ~PD_FLAGS_PARTNER_EXTPOWER;
1049:Src/usb_pd_protocol.c **** 
1050:Src/usb_pd_protocol.c **** 	if (pdo & PDO_FIXED_COMM_CAP)
 172              		.loc 1 1050 2 is_stmt 1 view .LVU34
 173              		.loc 1 1050 5 is_stmt 0 view .LVU35
 174 002c 4B01     		lsls	r3, r1, #5
 175 002e 21D5     		bpl	.L13
1051:Src/usb_pd_protocol.c **** 		pd[port].flags |= PD_FLAGS_PARTNER_USB_COMM;
ARM GAS  /tmp/ccoQIC4J.s 			page 24


 176              		.loc 1 1051 3 is_stmt 1 view .LVU36
 177              		.loc 1 1051 18 is_stmt 0 view .LVU37
 178 0030 C201     		lsls	r2, r0, #7
 179 0032 184B     		ldr	r3, .L16
 180 0034 9B18     		adds	r3, r3, r2
 181 0036 8022     		movs	r2, #128
 182 0038 D201     		lsls	r2, r2, #7
 183 003a 9C68     		ldr	r4, [r3, #8]
 184 003c 2243     		orrs	r2, r4
 185 003e 9A60     		str	r2, [r3, #8]
 186              	.L14:
1052:Src/usb_pd_protocol.c **** 	else
1053:Src/usb_pd_protocol.c **** 		pd[port].flags &= ~PD_FLAGS_PARTNER_USB_COMM;
1054:Src/usb_pd_protocol.c **** #endif
1055:Src/usb_pd_protocol.c **** 
1056:Src/usb_pd_protocol.c **** 	if (pdo & PDO_FIXED_DATA_SWAP)
 187              		.loc 1 1056 2 is_stmt 1 view .LVU38
 188              		.loc 1 1056 5 is_stmt 0 view .LVU39
 189 0040 8B01     		lsls	r3, r1, #6
 190 0042 1FD5     		bpl	.L15
1057:Src/usb_pd_protocol.c **** 		pd[port].flags |= PD_FLAGS_PARTNER_DR_DATA;
 191              		.loc 1 1057 3 is_stmt 1 view .LVU40
 192              		.loc 1 1057 18 is_stmt 0 view .LVU41
 193 0044 C001     		lsls	r0, r0, #7
 194              	.LVL7:
 195              		.loc 1 1057 18 view .LVU42
 196 0046 134B     		ldr	r3, .L16
 197 0048 1818     		adds	r0, r3, r0
 198 004a 0423     		movs	r3, #4
 199 004c 8268     		ldr	r2, [r0, #8]
 200 004e 1343     		orrs	r3, r2
 201 0050 8360     		str	r3, [r0, #8]
 202              	.L7:
1058:Src/usb_pd_protocol.c **** 	else
1059:Src/usb_pd_protocol.c **** 		pd[port].flags &= ~PD_FLAGS_PARTNER_DR_DATA;
1060:Src/usb_pd_protocol.c **** 
1061:Src/usb_pd_protocol.c **** #ifdef CONFIG_CHARGE_MANAGER
1062:Src/usb_pd_protocol.c **** 	/*
1063:Src/usb_pd_protocol.c **** 	 * Treat device as a dedicated charger (meaning we should charge
1064:Src/usb_pd_protocol.c **** 	 * from it) if it does not support power swap, or if it is externally
1065:Src/usb_pd_protocol.c **** 	 * powered, or if we are a sink and the device identity matches a
1066:Src/usb_pd_protocol.c **** 	 * charging white-list.
1067:Src/usb_pd_protocol.c **** 	 */
1068:Src/usb_pd_protocol.c **** 	/*
1069:Src/usb_pd_protocol.c **** 	if (!(pd[port].flags & PD_FLAGS_PARTNER_DR_POWER) ||
1070:Src/usb_pd_protocol.c **** 	    (pd[port].flags & PD_FLAGS_PARTNER_EXTPOWER) ||
1071:Src/usb_pd_protocol.c **** 	    charge_whitelisted)
1072:Src/usb_pd_protocol.c **** 		charge_manager_update_dualrole(port, CAP_DEDICATED);
1073:Src/usb_pd_protocol.c **** 	else
1074:Src/usb_pd_protocol.c **** 		charge_manager_update_dualrole(port, CAP_DUALROLE);
1075:Src/usb_pd_protocol.c **** 	*/
1076:Src/usb_pd_protocol.c **** #endif
1077:Src/usb_pd_protocol.c **** }
 203              		.loc 1 1077 1 view .LVU43
 204              		@ sp needed
 205 0052 10BD     		pop	{r4, pc}
 206              	.LVL8:
ARM GAS  /tmp/ccoQIC4J.s 			page 25


 207              	.L9:
1043:Src/usb_pd_protocol.c **** 
 208              		.loc 1 1043 3 is_stmt 1 view .LVU44
1043:Src/usb_pd_protocol.c **** 
 209              		.loc 1 1043 18 is_stmt 0 view .LVU45
 210 0054 C201     		lsls	r2, r0, #7
 211 0056 0F4B     		ldr	r3, .L16
 212 0058 9B18     		adds	r3, r3, r2
 213 005a 0222     		movs	r2, #2
 214 005c 9C68     		ldr	r4, [r3, #8]
 215 005e 9443     		bics	r4, r2
 216 0060 9C60     		str	r4, [r3, #8]
 217 0062 D9E7     		b	.L10
 218              	.L11:
1048:Src/usb_pd_protocol.c **** 
 219              		.loc 1 1048 3 is_stmt 1 view .LVU46
1048:Src/usb_pd_protocol.c **** 
 220              		.loc 1 1048 18 is_stmt 0 view .LVU47
 221 0064 C201     		lsls	r2, r0, #7
 222 0066 0B4B     		ldr	r3, .L16
 223 0068 9B18     		adds	r3, r3, r2
 224 006a 0B4A     		ldr	r2, .L16+4
 225 006c 9C68     		ldr	r4, [r3, #8]
 226 006e 2240     		ands	r2, r4
 227 0070 9A60     		str	r2, [r3, #8]
 228 0072 DBE7     		b	.L12
 229              	.L13:
1053:Src/usb_pd_protocol.c **** #endif
 230              		.loc 1 1053 3 is_stmt 1 view .LVU48
1053:Src/usb_pd_protocol.c **** #endif
 231              		.loc 1 1053 18 is_stmt 0 view .LVU49
 232 0074 C201     		lsls	r2, r0, #7
 233 0076 074B     		ldr	r3, .L16
 234 0078 9B18     		adds	r3, r3, r2
 235 007a 084A     		ldr	r2, .L16+8
 236 007c 9C68     		ldr	r4, [r3, #8]
 237 007e 2240     		ands	r2, r4
 238 0080 9A60     		str	r2, [r3, #8]
 239 0082 DDE7     		b	.L14
 240              	.L15:
1059:Src/usb_pd_protocol.c **** 
 241              		.loc 1 1059 3 is_stmt 1 view .LVU50
1059:Src/usb_pd_protocol.c **** 
 242              		.loc 1 1059 18 is_stmt 0 view .LVU51
 243 0084 C001     		lsls	r0, r0, #7
 244              	.LVL9:
1059:Src/usb_pd_protocol.c **** 
 245              		.loc 1 1059 18 view .LVU52
 246 0086 034B     		ldr	r3, .L16
 247 0088 1818     		adds	r0, r3, r0
 248 008a 0423     		movs	r3, #4
 249 008c 8268     		ldr	r2, [r0, #8]
 250 008e 9A43     		bics	r2, r3
 251 0090 8260     		str	r2, [r0, #8]
 252 0092 DEE7     		b	.L7
 253              	.L17:
 254              		.align	2
ARM GAS  /tmp/ccoQIC4J.s 			page 26


 255              	.L16:
 256 0094 00000000 		.word	pd
 257 0098 FFF7FFFF 		.word	-2049
 258 009c FFBFFFFF 		.word	-16385
 259              		.cfi_endproc
 260              	.LFE39:
 262              		.section	.text.vdm_get_ready_timeout,"ax",%progbits
 263              		.align	1
 264              		.syntax unified
 265              		.code	16
 266              		.thumb_func
 267              		.fpu softvfp
 269              	vdm_get_ready_timeout:
 270              	.LVL10:
 271              	.LFB49:
1078:Src/usb_pd_protocol.c **** 
1079:Src/usb_pd_protocol.c **** static void handle_data_request(int port, uint16_t head,
1080:Src/usb_pd_protocol.c **** 		uint32_t *payload)
1081:Src/usb_pd_protocol.c **** {
1082:Src/usb_pd_protocol.c **** 	int type = PD_HEADER_TYPE(head);
1083:Src/usb_pd_protocol.c **** 	int cnt = PD_HEADER_CNT(head);
1084:Src/usb_pd_protocol.c **** 
1085:Src/usb_pd_protocol.c **** 	switch (type) {
1086:Src/usb_pd_protocol.c **** #ifdef CONFIG_USB_PD_DUAL_ROLE
1087:Src/usb_pd_protocol.c **** 	case PD_DATA_SOURCE_CAP:
1088:Src/usb_pd_protocol.c **** 		if ((pd[port].task_state == PD_STATE_SNK_DISCOVERY)
1089:Src/usb_pd_protocol.c **** 			|| (pd[port].task_state == PD_STATE_SNK_TRANSITION)
1090:Src/usb_pd_protocol.c **** #ifdef CONFIG_USB_PD_VBUS_DETECT_NONE
1091:Src/usb_pd_protocol.c **** 			|| (pd[port].task_state ==
1092:Src/usb_pd_protocol.c **** 			    PD_STATE_SNK_HARD_RESET_RECOVER)
1093:Src/usb_pd_protocol.c **** #endif
1094:Src/usb_pd_protocol.c **** 			|| (pd[port].task_state == PD_STATE_SNK_READY)) {
1095:Src/usb_pd_protocol.c **** #ifdef CONFIG_USB_PD_REV30
1096:Src/usb_pd_protocol.c **** 			/*
1097:Src/usb_pd_protocol.c **** 			 * Only adjust sink rev if source rev is higher.
1098:Src/usb_pd_protocol.c **** 			 */
1099:Src/usb_pd_protocol.c **** 			if (PD_HEADER_REV(head) < pd[port].rev)
1100:Src/usb_pd_protocol.c **** 				pd[port].rev = PD_HEADER_REV(head);
1101:Src/usb_pd_protocol.c **** #endif
1102:Src/usb_pd_protocol.c **** 			/* Port partner is now known to be PD capable */
1103:Src/usb_pd_protocol.c **** 			pd[port].flags |= PD_FLAGS_PREVIOUS_PD_CONN;
1104:Src/usb_pd_protocol.c **** 
1105:Src/usb_pd_protocol.c **** 			/* src cap 0 should be fixed PDO */
1106:Src/usb_pd_protocol.c **** 			pd_update_pdo_flags(port, payload[0]);
1107:Src/usb_pd_protocol.c **** 
1108:Src/usb_pd_protocol.c **** 			pd_process_source_cap(port, cnt, payload);
1109:Src/usb_pd_protocol.c **** 			pd_process_source_cap_callback(port, cnt, payload);
1110:Src/usb_pd_protocol.c **** 
1111:Src/usb_pd_protocol.c **** 			/* Source will resend source cap on failure */
1112:Src/usb_pd_protocol.c **** 			pd_send_request_msg(port, 1);
1113:Src/usb_pd_protocol.c **** 		}
1114:Src/usb_pd_protocol.c **** 		break;
1115:Src/usb_pd_protocol.c **** #endif /* CONFIG_USB_PD_DUAL_ROLE */
1116:Src/usb_pd_protocol.c **** 	case PD_DATA_REQUEST:
1117:Src/usb_pd_protocol.c **** 		if ((pd[port].power_role == PD_ROLE_SOURCE) && (cnt == 1)) {
1118:Src/usb_pd_protocol.c **** #ifdef CONFIG_USB_PD_REV30
1119:Src/usb_pd_protocol.c **** 			/*
ARM GAS  /tmp/ccoQIC4J.s 			page 27


1120:Src/usb_pd_protocol.c **** 			 * Adjust the rev level to what the sink supports. If
1121:Src/usb_pd_protocol.c **** 			 * they're equal, no harm done.
1122:Src/usb_pd_protocol.c **** 			 */
1123:Src/usb_pd_protocol.c **** 			pd[port].rev = PD_HEADER_REV(head);
1124:Src/usb_pd_protocol.c **** #endif
1125:Src/usb_pd_protocol.c **** 			if (!pd_check_requested_voltage(payload[0], port)) {
1126:Src/usb_pd_protocol.c **** 				if (send_control(port, PD_CTRL_ACCEPT) < 0)
1127:Src/usb_pd_protocol.c **** 					/*
1128:Src/usb_pd_protocol.c **** 					 * if we fail to send accept, do
1129:Src/usb_pd_protocol.c **** 					 * nothing and let sink timeout and
1130:Src/usb_pd_protocol.c **** 					 * send hard reset
1131:Src/usb_pd_protocol.c **** 					 */
1132:Src/usb_pd_protocol.c **** 					return;
1133:Src/usb_pd_protocol.c **** 
1134:Src/usb_pd_protocol.c **** 				/* explicit contract is now in place */
1135:Src/usb_pd_protocol.c **** 				pd[port].flags |= PD_FLAGS_EXPLICIT_CONTRACT;
1136:Src/usb_pd_protocol.c **** #ifdef CONFIG_USB_PD_REV30
1137:Src/usb_pd_protocol.c **** 				/*
1138:Src/usb_pd_protocol.c **** 				 * Start Source-coordinated collision
1139:Src/usb_pd_protocol.c **** 				 * avoidance
1140:Src/usb_pd_protocol.c **** 				 */
1141:Src/usb_pd_protocol.c **** 				if (pd[port].rev == PD_REV30 &&
1142:Src/usb_pd_protocol.c **** 					pd[port].power_role == PD_ROLE_SOURCE)
1143:Src/usb_pd_protocol.c **** 					sink_can_xmit(port, SINK_TX_OK);
1144:Src/usb_pd_protocol.c **** #endif
1145:Src/usb_pd_protocol.c **** #ifdef CONFIG_USB_PD_DUAL_ROLE
1146:Src/usb_pd_protocol.c **** #ifdef CONFIG_BBRAM
1147:Src/usb_pd_protocol.c **** 				pd_set_saved_active(port, 1);
1148:Src/usb_pd_protocol.c **** #endif
1149:Src/usb_pd_protocol.c **** #endif
1150:Src/usb_pd_protocol.c **** 				pd[port].requested_idx = RDO_POS(payload[0]);
1151:Src/usb_pd_protocol.c **** 				set_state(port, PD_STATE_SRC_ACCEPTED);
1152:Src/usb_pd_protocol.c **** 				return;
1153:Src/usb_pd_protocol.c **** 			}
1154:Src/usb_pd_protocol.c **** 		}
1155:Src/usb_pd_protocol.c **** 		/* the message was incorrect or cannot be satisfied */
1156:Src/usb_pd_protocol.c **** 		send_control(port, PD_CTRL_REJECT);
1157:Src/usb_pd_protocol.c **** 		/* keep last contract in place (whether implicit or explicit) */
1158:Src/usb_pd_protocol.c **** 		set_state(port, PD_STATE_SRC_READY);
1159:Src/usb_pd_protocol.c **** 		break;
1160:Src/usb_pd_protocol.c **** 	case PD_DATA_BIST:
1161:Src/usb_pd_protocol.c **** 		/* If not in READY state, then don't start BIST */
1162:Src/usb_pd_protocol.c **** 		if (DUAL_ROLE_IF_ELSE(port,
1163:Src/usb_pd_protocol.c **** 				pd[port].task_state == PD_STATE_SNK_READY,
1164:Src/usb_pd_protocol.c **** 				pd[port].task_state == PD_STATE_SRC_READY)) {
1165:Src/usb_pd_protocol.c **** 			/* currently only support sending bist carrier mode 2 */
1166:Src/usb_pd_protocol.c **** 			if ((payload[0] >> 28) == 5) {
1167:Src/usb_pd_protocol.c **** 				/* bist data object mode is 2 */
1168:Src/usb_pd_protocol.c **** 				pd_transmit(port, TCPC_TX_BIST_MODE_2, 0,
1169:Src/usb_pd_protocol.c **** 					    NULL);
1170:Src/usb_pd_protocol.c **** 				/* Set to appropriate port disconnected state */
1171:Src/usb_pd_protocol.c **** 				set_state(port, DUAL_ROLE_IF_ELSE(port,
1172:Src/usb_pd_protocol.c **** 						PD_STATE_SNK_DISCONNECTED,
1173:Src/usb_pd_protocol.c **** 						PD_STATE_SRC_DISCONNECTED));
1174:Src/usb_pd_protocol.c **** 			}
1175:Src/usb_pd_protocol.c **** 		}
1176:Src/usb_pd_protocol.c **** 		break;
ARM GAS  /tmp/ccoQIC4J.s 			page 28


1177:Src/usb_pd_protocol.c **** 	case PD_DATA_SINK_CAP:
1178:Src/usb_pd_protocol.c **** 		pd[port].flags |= PD_FLAGS_SNK_CAP_RECVD;
1179:Src/usb_pd_protocol.c **** 		/* snk cap 0 should be fixed PDO */
1180:Src/usb_pd_protocol.c **** 		pd_update_pdo_flags(port, payload[0]);
1181:Src/usb_pd_protocol.c **** 		if (pd[port].task_state == PD_STATE_SRC_GET_SINK_CAP)
1182:Src/usb_pd_protocol.c **** 			set_state(port, PD_STATE_SRC_READY);
1183:Src/usb_pd_protocol.c **** 		break;
1184:Src/usb_pd_protocol.c **** #ifdef CONFIG_USB_PD_REV30
1185:Src/usb_pd_protocol.c **** 	case PD_DATA_BATTERY_STATUS:
1186:Src/usb_pd_protocol.c **** 		break;
1187:Src/usb_pd_protocol.c **** #endif
1188:Src/usb_pd_protocol.c **** 	case PD_DATA_VENDOR_DEF:
1189:Src/usb_pd_protocol.c **** 		handle_vdm_request(port, cnt, payload);
1190:Src/usb_pd_protocol.c **** 		break;
1191:Src/usb_pd_protocol.c **** 	default:
1192:Src/usb_pd_protocol.c **** 		CPRINTF("Unhandled data message type %d\n", type);
1193:Src/usb_pd_protocol.c **** 	}
1194:Src/usb_pd_protocol.c **** }
1195:Src/usb_pd_protocol.c **** 
1196:Src/usb_pd_protocol.c **** #ifdef CONFIG_USB_PD_DUAL_ROLE
1197:Src/usb_pd_protocol.c **** void pd_request_power_swap(int port)
1198:Src/usb_pd_protocol.c **** {
1199:Src/usb_pd_protocol.c **** 	if (pd[port].task_state == PD_STATE_SRC_READY)
1200:Src/usb_pd_protocol.c **** 		set_state(port, PD_STATE_SRC_SWAP_INIT);
1201:Src/usb_pd_protocol.c **** 	else if (pd[port].task_state == PD_STATE_SNK_READY)
1202:Src/usb_pd_protocol.c **** 		set_state(port, PD_STATE_SNK_SWAP_INIT);
1203:Src/usb_pd_protocol.c **** 	// getting rid of task stuff
1204:Src/usb_pd_protocol.c **** 	//task_wake(PD_PORT_TO_TASK_ID(port));
1205:Src/usb_pd_protocol.c **** }
1206:Src/usb_pd_protocol.c **** 
1207:Src/usb_pd_protocol.c **** #ifdef CONFIG_USBC_VCONN_SWAP
1208:Src/usb_pd_protocol.c **** static void pd_request_vconn_swap(int port)
1209:Src/usb_pd_protocol.c **** {
1210:Src/usb_pd_protocol.c **** 	if (pd[port].task_state == PD_STATE_SRC_READY ||
1211:Src/usb_pd_protocol.c **** 	    pd[port].task_state == PD_STATE_SNK_READY)
1212:Src/usb_pd_protocol.c **** 		set_state(port, PD_STATE_VCONN_SWAP_SEND);
1213:Src/usb_pd_protocol.c **** 	// getting rid of task stuff
1214:Src/usb_pd_protocol.c **** 	//task_wake(PD_PORT_TO_TASK_ID(port));
1215:Src/usb_pd_protocol.c **** }
1216:Src/usb_pd_protocol.c **** 
1217:Src/usb_pd_protocol.c **** void pd_try_vconn_src(int port)
1218:Src/usb_pd_protocol.c **** {
1219:Src/usb_pd_protocol.c **** 	/*
1220:Src/usb_pd_protocol.c **** 	 * If we don't currently provide vconn, and we can supply it, send
1221:Src/usb_pd_protocol.c **** 	 * a vconn swap request.
1222:Src/usb_pd_protocol.c **** 	 */
1223:Src/usb_pd_protocol.c **** 	if (!(pd[port].flags & PD_FLAGS_VCONN_ON)) {
1224:Src/usb_pd_protocol.c **** 		if (pd_check_vconn_swap(port))
1225:Src/usb_pd_protocol.c **** 			pd_request_vconn_swap(port);
1226:Src/usb_pd_protocol.c **** 	}
1227:Src/usb_pd_protocol.c **** }
1228:Src/usb_pd_protocol.c **** #endif
1229:Src/usb_pd_protocol.c **** #endif /* CONFIG_USB_PD_DUAL_ROLE */
1230:Src/usb_pd_protocol.c **** 
1231:Src/usb_pd_protocol.c **** void pd_request_data_swap(int port)
1232:Src/usb_pd_protocol.c **** {
1233:Src/usb_pd_protocol.c **** 	if (DUAL_ROLE_IF_ELSE(port,
ARM GAS  /tmp/ccoQIC4J.s 			page 29


1234:Src/usb_pd_protocol.c **** 				pd[port].task_state == PD_STATE_SNK_READY,
1235:Src/usb_pd_protocol.c **** 				pd[port].task_state == PD_STATE_SRC_READY))
1236:Src/usb_pd_protocol.c **** 		set_state(port, PD_STATE_DR_SWAP);
1237:Src/usb_pd_protocol.c **** 	// getting rid of task stuff
1238:Src/usb_pd_protocol.c **** 	//task_wake(PD_PORT_TO_TASK_ID(port));
1239:Src/usb_pd_protocol.c **** }
1240:Src/usb_pd_protocol.c **** 
1241:Src/usb_pd_protocol.c **** static void pd_set_data_role(int port, int role)
1242:Src/usb_pd_protocol.c **** {
1243:Src/usb_pd_protocol.c **** 	pd[port].data_role = role;
1244:Src/usb_pd_protocol.c **** 	pd_execute_data_swap(port, role);
1245:Src/usb_pd_protocol.c **** 
1246:Src/usb_pd_protocol.c **** #ifdef CONFIG_USBC_SS_MUX
1247:Src/usb_pd_protocol.c **** #ifdef CONFIG_USBC_SS_MUX_DFP_ONLY
1248:Src/usb_pd_protocol.c **** 	/*
1249:Src/usb_pd_protocol.c **** 	 * Need to connect SS mux for if new data role is DFP.
1250:Src/usb_pd_protocol.c **** 	 * If new data role is UFP, then disconnect the SS mux.
1251:Src/usb_pd_protocol.c **** 	 */
1252:Src/usb_pd_protocol.c **** 	if (role == PD_ROLE_DFP)
1253:Src/usb_pd_protocol.c **** 		usb_mux_set(port, TYPEC_MUX_USB, USB_SWITCH_CONNECT,
1254:Src/usb_pd_protocol.c **** 			    pd[port].polarity);
1255:Src/usb_pd_protocol.c **** 	else
1256:Src/usb_pd_protocol.c **** 		usb_mux_set(port, TYPEC_MUX_NONE, USB_SWITCH_DISCONNECT,
1257:Src/usb_pd_protocol.c **** 			    pd[port].polarity);
1258:Src/usb_pd_protocol.c **** #else
1259:Src/usb_pd_protocol.c **** 	usb_mux_set(port, TYPEC_MUX_USB, USB_SWITCH_CONNECT,
1260:Src/usb_pd_protocol.c **** 		    pd[port].polarity);
1261:Src/usb_pd_protocol.c **** #endif
1262:Src/usb_pd_protocol.c **** #endif
1263:Src/usb_pd_protocol.c **** 	pd_update_roles(port);
1264:Src/usb_pd_protocol.c **** }
1265:Src/usb_pd_protocol.c **** 
1266:Src/usb_pd_protocol.c **** static void pd_dr_swap(int port)
1267:Src/usb_pd_protocol.c **** {
1268:Src/usb_pd_protocol.c **** 	pd_set_data_role(port, !pd[port].data_role);
1269:Src/usb_pd_protocol.c **** 	pd[port].flags |= PD_FLAGS_CHECK_IDENTITY;
1270:Src/usb_pd_protocol.c **** }
1271:Src/usb_pd_protocol.c **** 
1272:Src/usb_pd_protocol.c **** static void handle_ctrl_request(int port, uint16_t head,
1273:Src/usb_pd_protocol.c **** 		uint32_t *payload)
1274:Src/usb_pd_protocol.c **** {
1275:Src/usb_pd_protocol.c **** 	int type = PD_HEADER_TYPE(head);
1276:Src/usb_pd_protocol.c **** 	int res;
1277:Src/usb_pd_protocol.c **** 
1278:Src/usb_pd_protocol.c **** 	switch (type) {
1279:Src/usb_pd_protocol.c **** 	case PD_CTRL_GOOD_CRC:
1280:Src/usb_pd_protocol.c **** 		/* should not get it */
1281:Src/usb_pd_protocol.c **** 		break;
1282:Src/usb_pd_protocol.c **** 	case PD_CTRL_PING:
1283:Src/usb_pd_protocol.c **** 		/* Nothing else to do */
1284:Src/usb_pd_protocol.c **** 		break;
1285:Src/usb_pd_protocol.c **** 	case PD_CTRL_GET_SOURCE_CAP:
1286:Src/usb_pd_protocol.c **** 		res = send_source_cap(port);
1287:Src/usb_pd_protocol.c **** 		if ((res >= 0) &&
1288:Src/usb_pd_protocol.c **** 		    (pd[port].task_state == PD_STATE_SRC_DISCOVERY))
1289:Src/usb_pd_protocol.c **** 			set_state(port, PD_STATE_SRC_NEGOCIATE);
1290:Src/usb_pd_protocol.c **** 		break;
ARM GAS  /tmp/ccoQIC4J.s 			page 30


1291:Src/usb_pd_protocol.c **** 	case PD_CTRL_GET_SINK_CAP:
1292:Src/usb_pd_protocol.c **** #ifdef CONFIG_USB_PD_DUAL_ROLE
1293:Src/usb_pd_protocol.c **** 		send_sink_cap(port);
1294:Src/usb_pd_protocol.c **** #else
1295:Src/usb_pd_protocol.c **** 		send_control(port, REFUSE(pd[port].rev));
1296:Src/usb_pd_protocol.c **** #endif
1297:Src/usb_pd_protocol.c **** 		break;
1298:Src/usb_pd_protocol.c **** #ifdef CONFIG_USB_PD_DUAL_ROLE
1299:Src/usb_pd_protocol.c **** 	case PD_CTRL_GOTO_MIN:
1300:Src/usb_pd_protocol.c **** #ifdef CONFIG_USB_PD_GIVE_BACK
1301:Src/usb_pd_protocol.c **** 		if (pd[port].task_state == PD_STATE_SNK_READY) {
1302:Src/usb_pd_protocol.c **** 			/*
1303:Src/usb_pd_protocol.c **** 			 * Reduce power consumption now!
1304:Src/usb_pd_protocol.c **** 			 *
1305:Src/usb_pd_protocol.c **** 			 * The source will restore power to this sink
1306:Src/usb_pd_protocol.c **** 			 * by sending a new source cap message at a
1307:Src/usb_pd_protocol.c **** 			 * later time.
1308:Src/usb_pd_protocol.c **** 			 */
1309:Src/usb_pd_protocol.c **** 			pd_snk_give_back(port, &pd[port].curr_limit,
1310:Src/usb_pd_protocol.c **** 				&pd[port].supply_voltage);
1311:Src/usb_pd_protocol.c **** 			set_state(port, PD_STATE_SNK_TRANSITION);
1312:Src/usb_pd_protocol.c **** 		}
1313:Src/usb_pd_protocol.c **** #endif
1314:Src/usb_pd_protocol.c **** 
1315:Src/usb_pd_protocol.c **** 		break;
1316:Src/usb_pd_protocol.c **** 	case PD_CTRL_PS_RDY:
1317:Src/usb_pd_protocol.c **** 		if (pd[port].task_state == PD_STATE_SNK_SWAP_SRC_DISABLE) {
1318:Src/usb_pd_protocol.c **** 			set_state(port, PD_STATE_SNK_SWAP_STANDBY);
1319:Src/usb_pd_protocol.c **** 		} else if (pd[port].task_state == PD_STATE_SRC_SWAP_STANDBY) {
1320:Src/usb_pd_protocol.c **** 			/* reset message ID and swap roles */
1321:Src/usb_pd_protocol.c **** 			pd[port].msg_id = 0;
1322:Src/usb_pd_protocol.c **** 			pd[port].power_role = PD_ROLE_SINK;
1323:Src/usb_pd_protocol.c **** 			pd_update_roles(port);
1324:Src/usb_pd_protocol.c **** 			set_state(port, PD_STATE_SNK_DISCOVERY);
1325:Src/usb_pd_protocol.c **** #ifdef CONFIG_USBC_VCONN_SWAP
1326:Src/usb_pd_protocol.c **** 		} else if (pd[port].task_state == PD_STATE_VCONN_SWAP_INIT) {
1327:Src/usb_pd_protocol.c **** 			/*
1328:Src/usb_pd_protocol.c **** 			 * If VCONN is on, then this PS_RDY tells us it's
1329:Src/usb_pd_protocol.c **** 			 * ok to turn VCONN off
1330:Src/usb_pd_protocol.c **** 			 */
1331:Src/usb_pd_protocol.c **** 			if (pd[port].flags & PD_FLAGS_VCONN_ON)
1332:Src/usb_pd_protocol.c **** 				set_state(port, PD_STATE_VCONN_SWAP_READY);
1333:Src/usb_pd_protocol.c **** #endif
1334:Src/usb_pd_protocol.c **** 		} else if (pd[port].task_state == PD_STATE_SNK_DISCOVERY) {
1335:Src/usb_pd_protocol.c **** 			/* Don't know what power source is ready. Reset. */
1336:Src/usb_pd_protocol.c **** 			set_state(port, PD_STATE_HARD_RESET_SEND);
1337:Src/usb_pd_protocol.c **** 		} else if (pd[port].task_state == PD_STATE_SNK_SWAP_STANDBY) {
1338:Src/usb_pd_protocol.c **** 			/* Do nothing, assume this is a redundant PD_RDY */
1339:Src/usb_pd_protocol.c **** 		} else if (pd[port].power_role == PD_ROLE_SINK) {
1340:Src/usb_pd_protocol.c **** 			set_state(port, PD_STATE_SNK_READY);
1341:Src/usb_pd_protocol.c **** 			pd_set_input_current_limit(port, pd[port].curr_limit,
1342:Src/usb_pd_protocol.c **** 						   pd[port].supply_voltage);
1343:Src/usb_pd_protocol.c **** #ifdef CONFIG_CHARGE_MANAGER
1344:Src/usb_pd_protocol.c **** 			/* Set ceiling based on what's negotiated */
1345:Src/usb_pd_protocol.c **** 			//charge_manager_set_ceil(port,
1346:Src/usb_pd_protocol.c **** 			//			CEIL_REQUESTOR_PD,
1347:Src/usb_pd_protocol.c **** 			//			pd[port].curr_limit);
ARM GAS  /tmp/ccoQIC4J.s 			page 31


1348:Src/usb_pd_protocol.c **** #endif
1349:Src/usb_pd_protocol.c **** 		}
1350:Src/usb_pd_protocol.c **** 		break;
1351:Src/usb_pd_protocol.c **** #endif
1352:Src/usb_pd_protocol.c **** 	case PD_CTRL_REJECT:
1353:Src/usb_pd_protocol.c **** 	case PD_CTRL_WAIT:
1354:Src/usb_pd_protocol.c **** 		if (pd[port].task_state == PD_STATE_DR_SWAP)
1355:Src/usb_pd_protocol.c **** 			set_state(port, READY_RETURN_STATE(port));
1356:Src/usb_pd_protocol.c **** #ifdef CONFIG_USBC_VCONN_SWAP
1357:Src/usb_pd_protocol.c **** 		else if (pd[port].task_state == PD_STATE_VCONN_SWAP_SEND)
1358:Src/usb_pd_protocol.c **** 			set_state(port, READY_RETURN_STATE(port));
1359:Src/usb_pd_protocol.c **** #endif
1360:Src/usb_pd_protocol.c **** #ifdef CONFIG_USB_PD_DUAL_ROLE
1361:Src/usb_pd_protocol.c **** 		else if (pd[port].task_state == PD_STATE_SRC_SWAP_INIT)
1362:Src/usb_pd_protocol.c **** 			set_state(port, PD_STATE_SRC_READY);
1363:Src/usb_pd_protocol.c **** 		else if (pd[port].task_state == PD_STATE_SNK_SWAP_INIT)
1364:Src/usb_pd_protocol.c **** 			set_state(port, PD_STATE_SNK_READY);
1365:Src/usb_pd_protocol.c **** 		else if (pd[port].task_state == PD_STATE_SNK_REQUESTED) {
1366:Src/usb_pd_protocol.c **** 			/*
1367:Src/usb_pd_protocol.c **** 			 * Explicit Contract in place
1368:Src/usb_pd_protocol.c **** 			 *
1369:Src/usb_pd_protocol.c **** 			 *  On reception of a WAIT message, transition to
1370:Src/usb_pd_protocol.c **** 			 *  PD_STATE_SNK_READY after PD_T_SINK_REQUEST ms to
1371:Src/usb_pd_protocol.c **** 			 *  send another reqest.
1372:Src/usb_pd_protocol.c **** 			 *
1373:Src/usb_pd_protocol.c **** 			 *  On reception of a REJECT messag, transition to
1374:Src/usb_pd_protocol.c **** 			 *  PD_STATE_SNK_READY but don't resend the request.
1375:Src/usb_pd_protocol.c **** 			 *
1376:Src/usb_pd_protocol.c **** 			 * NO Explicit Contract in place
1377:Src/usb_pd_protocol.c **** 			 *
1378:Src/usb_pd_protocol.c **** 			 *  On reception of a WAIT or REJECT message,
1379:Src/usb_pd_protocol.c **** 			 *  transition to PD_STATE_SNK_DISCOVERY
1380:Src/usb_pd_protocol.c **** 			 */
1381:Src/usb_pd_protocol.c **** 			if (pd[port].flags & PD_FLAGS_EXPLICIT_CONTRACT) {
1382:Src/usb_pd_protocol.c **** 				/* We have an explicit contract */
1383:Src/usb_pd_protocol.c **** 				if (type == PD_CTRL_WAIT) {
1384:Src/usb_pd_protocol.c **** 					/*
1385:Src/usb_pd_protocol.c **** 					 * Trigger a new power request when
1386:Src/usb_pd_protocol.c **** 					 * we enter PD_STATE_SNK_READY
1387:Src/usb_pd_protocol.c **** 					 */
1388:Src/usb_pd_protocol.c **** 					pd[port].new_power_request = 1;
1389:Src/usb_pd_protocol.c **** 
1390:Src/usb_pd_protocol.c **** 					/*
1391:Src/usb_pd_protocol.c **** 					 * After the request is triggered,
1392:Src/usb_pd_protocol.c **** 					 * make sure the request is sent.
1393:Src/usb_pd_protocol.c **** 					 */
1394:Src/usb_pd_protocol.c **** 					pd[port].prev_request_mv = 0;
1395:Src/usb_pd_protocol.c **** 
1396:Src/usb_pd_protocol.c **** 					/*
1397:Src/usb_pd_protocol.c **** 					 * Transition to PD_STATE_SNK_READY
1398:Src/usb_pd_protocol.c **** 					 * after PD_T_SINK_REQUEST ms.
1399:Src/usb_pd_protocol.c **** 					 */
1400:Src/usb_pd_protocol.c **** 					set_state_timeout(port, get_time().val +
1401:Src/usb_pd_protocol.c **** 							PD_T_SINK_REQUEST,
1402:Src/usb_pd_protocol.c **** 							PD_STATE_SNK_READY);
1403:Src/usb_pd_protocol.c **** 				} else {
1404:Src/usb_pd_protocol.c **** 					/* The request was rejected */
ARM GAS  /tmp/ccoQIC4J.s 			page 32


1405:Src/usb_pd_protocol.c **** 					set_state(port, PD_STATE_SNK_READY);
1406:Src/usb_pd_protocol.c **** 				}
1407:Src/usb_pd_protocol.c **** 			} else {
1408:Src/usb_pd_protocol.c **** 				/* No explicit contract */
1409:Src/usb_pd_protocol.c **** 				set_state(port, PD_STATE_SNK_DISCOVERY);
1410:Src/usb_pd_protocol.c **** 			}
1411:Src/usb_pd_protocol.c **** 		}
1412:Src/usb_pd_protocol.c **** #endif
1413:Src/usb_pd_protocol.c **** 		break;
1414:Src/usb_pd_protocol.c **** 	case PD_CTRL_ACCEPT:
1415:Src/usb_pd_protocol.c **** 		if (pd[port].task_state == PD_STATE_SOFT_RESET) {
1416:Src/usb_pd_protocol.c **** 			/*
1417:Src/usb_pd_protocol.c **** 			 * For the case that we sent soft reset in SNK_DISCOVERY
1418:Src/usb_pd_protocol.c **** 			 * on startup due to VBUS never low, clear the flag.
1419:Src/usb_pd_protocol.c **** 			 */
1420:Src/usb_pd_protocol.c **** 			pd[port].flags &= ~PD_FLAGS_VBUS_NEVER_LOW;
1421:Src/usb_pd_protocol.c **** 			execute_soft_reset(port);
1422:Src/usb_pd_protocol.c **** 		} else if (pd[port].task_state == PD_STATE_DR_SWAP) {
1423:Src/usb_pd_protocol.c **** 			/* switch data role */
1424:Src/usb_pd_protocol.c **** 			pd_dr_swap(port);
1425:Src/usb_pd_protocol.c **** 			set_state(port, READY_RETURN_STATE(port));
1426:Src/usb_pd_protocol.c **** #ifdef CONFIG_USB_PD_DUAL_ROLE
1427:Src/usb_pd_protocol.c **** #ifdef CONFIG_USBC_VCONN_SWAP
1428:Src/usb_pd_protocol.c **** 		} else if (pd[port].task_state == PD_STATE_VCONN_SWAP_SEND) {
1429:Src/usb_pd_protocol.c **** 			/* switch vconn */
1430:Src/usb_pd_protocol.c **** 			set_state(port, PD_STATE_VCONN_SWAP_INIT);
1431:Src/usb_pd_protocol.c **** #endif
1432:Src/usb_pd_protocol.c **** 		} else if (pd[port].task_state == PD_STATE_SRC_SWAP_INIT) {
1433:Src/usb_pd_protocol.c **** 			/* explicit contract goes away for power swap */
1434:Src/usb_pd_protocol.c **** 			pd[port].flags &= ~PD_FLAGS_EXPLICIT_CONTRACT;
1435:Src/usb_pd_protocol.c **** 			set_state(port, PD_STATE_SRC_SWAP_SNK_DISABLE);
1436:Src/usb_pd_protocol.c **** 		} else if (pd[port].task_state == PD_STATE_SNK_SWAP_INIT) {
1437:Src/usb_pd_protocol.c **** 			/* explicit contract goes away for power swap */
1438:Src/usb_pd_protocol.c **** 			pd[port].flags &= ~PD_FLAGS_EXPLICIT_CONTRACT;
1439:Src/usb_pd_protocol.c **** 			set_state(port, PD_STATE_SNK_SWAP_SNK_DISABLE);
1440:Src/usb_pd_protocol.c **** 		} else if (pd[port].task_state == PD_STATE_SNK_REQUESTED) {
1441:Src/usb_pd_protocol.c **** 			/* explicit contract is now in place */
1442:Src/usb_pd_protocol.c **** 			pd[port].flags |= PD_FLAGS_EXPLICIT_CONTRACT;
1443:Src/usb_pd_protocol.c **** #ifdef CONFIG_BBRAM
1444:Src/usb_pd_protocol.c **** 			pd_set_saved_active(port, 1);
1445:Src/usb_pd_protocol.c **** #endif
1446:Src/usb_pd_protocol.c **** 			set_state(port, PD_STATE_SNK_TRANSITION);
1447:Src/usb_pd_protocol.c **** #endif
1448:Src/usb_pd_protocol.c **** 		}
1449:Src/usb_pd_protocol.c **** 		break;
1450:Src/usb_pd_protocol.c **** 	case PD_CTRL_SOFT_RESET:
1451:Src/usb_pd_protocol.c **** 		execute_soft_reset(port);
1452:Src/usb_pd_protocol.c **** 		/* We are done, acknowledge with an Accept packet */
1453:Src/usb_pd_protocol.c **** 		send_control(port, PD_CTRL_ACCEPT);
1454:Src/usb_pd_protocol.c **** 		break;
1455:Src/usb_pd_protocol.c **** 	case PD_CTRL_PR_SWAP:
1456:Src/usb_pd_protocol.c **** #ifdef CONFIG_USB_PD_DUAL_ROLE
1457:Src/usb_pd_protocol.c **** 		if (pd_check_power_swap(port)) {
1458:Src/usb_pd_protocol.c **** 			send_control(port, PD_CTRL_ACCEPT);
1459:Src/usb_pd_protocol.c **** 			/*
1460:Src/usb_pd_protocol.c **** 			 * Clear flag for checking power role to avoid
1461:Src/usb_pd_protocol.c **** 			 * immediately requesting another swap.
ARM GAS  /tmp/ccoQIC4J.s 			page 33


1462:Src/usb_pd_protocol.c **** 			 */
1463:Src/usb_pd_protocol.c **** 			pd[port].flags &= ~PD_FLAGS_CHECK_PR_ROLE;
1464:Src/usb_pd_protocol.c **** 			set_state(port,
1465:Src/usb_pd_protocol.c **** 				  DUAL_ROLE_IF_ELSE(port,
1466:Src/usb_pd_protocol.c **** 					PD_STATE_SNK_SWAP_SNK_DISABLE,
1467:Src/usb_pd_protocol.c **** 					PD_STATE_SRC_SWAP_SNK_DISABLE));
1468:Src/usb_pd_protocol.c **** 		} else {
1469:Src/usb_pd_protocol.c **** 			send_control(port, REFUSE(pd[port].rev));
1470:Src/usb_pd_protocol.c **** 		}
1471:Src/usb_pd_protocol.c **** #else
1472:Src/usb_pd_protocol.c **** 		send_control(port, REFUSE(pd[port].rev));
1473:Src/usb_pd_protocol.c **** #endif
1474:Src/usb_pd_protocol.c **** 		break;
1475:Src/usb_pd_protocol.c **** 	case PD_CTRL_DR_SWAP:
1476:Src/usb_pd_protocol.c **** 		if (pd_check_data_swap(port, pd[port].data_role)) {
1477:Src/usb_pd_protocol.c **** 			/*
1478:Src/usb_pd_protocol.c **** 			 * Accept switch and perform data swap. Clear
1479:Src/usb_pd_protocol.c **** 			 * flag for checking data role to avoid
1480:Src/usb_pd_protocol.c **** 			 * immediately requesting another swap.
1481:Src/usb_pd_protocol.c **** 			 */
1482:Src/usb_pd_protocol.c **** 			pd[port].flags &= ~PD_FLAGS_CHECK_DR_ROLE;
1483:Src/usb_pd_protocol.c **** 			if (send_control(port, PD_CTRL_ACCEPT) >= 0)
1484:Src/usb_pd_protocol.c **** 				pd_dr_swap(port);
1485:Src/usb_pd_protocol.c **** 		} else {
1486:Src/usb_pd_protocol.c **** 			send_control(port, REFUSE(pd[port].rev));
1487:Src/usb_pd_protocol.c **** 
1488:Src/usb_pd_protocol.c **** 		}
1489:Src/usb_pd_protocol.c **** 		break;
1490:Src/usb_pd_protocol.c **** 	case PD_CTRL_VCONN_SWAP:
1491:Src/usb_pd_protocol.c **** #ifdef CONFIG_USBC_VCONN_SWAP
1492:Src/usb_pd_protocol.c **** 		if (pd[port].task_state == PD_STATE_SRC_READY ||
1493:Src/usb_pd_protocol.c **** 		    pd[port].task_state == PD_STATE_SNK_READY) {
1494:Src/usb_pd_protocol.c **** 			if (pd_check_vconn_swap(port)) {
1495:Src/usb_pd_protocol.c **** 				if (send_control(port, PD_CTRL_ACCEPT) > 0)
1496:Src/usb_pd_protocol.c **** 					set_state(port,
1497:Src/usb_pd_protocol.c **** 						  PD_STATE_VCONN_SWAP_INIT);
1498:Src/usb_pd_protocol.c **** 			} else {
1499:Src/usb_pd_protocol.c **** 				send_control(port, REFUSE(pd[port].rev));
1500:Src/usb_pd_protocol.c **** 			}
1501:Src/usb_pd_protocol.c **** 		}
1502:Src/usb_pd_protocol.c **** #else
1503:Src/usb_pd_protocol.c **** 		send_control(port, REFUSE(pd[port].rev));
1504:Src/usb_pd_protocol.c **** #endif
1505:Src/usb_pd_protocol.c **** 		break;
1506:Src/usb_pd_protocol.c **** 	default:
1507:Src/usb_pd_protocol.c **** #ifdef CONFIG_USB_PD_REV30
1508:Src/usb_pd_protocol.c **** 		send_control(port, PD_CTRL_NOT_SUPPORTED);
1509:Src/usb_pd_protocol.c **** #endif
1510:Src/usb_pd_protocol.c **** 		CPRINTF("Unhandled ctrl message type %d\n", type);
1511:Src/usb_pd_protocol.c **** 	}
1512:Src/usb_pd_protocol.c **** }
1513:Src/usb_pd_protocol.c **** 
1514:Src/usb_pd_protocol.c **** #ifdef CONFIG_USB_PD_REV30
1515:Src/usb_pd_protocol.c **** static void handle_ext_request(int port, uint16_t head, uint32_t *payload)
1516:Src/usb_pd_protocol.c **** {
1517:Src/usb_pd_protocol.c **** 	int type = PD_HEADER_TYPE(head);
1518:Src/usb_pd_protocol.c **** 
ARM GAS  /tmp/ccoQIC4J.s 			page 34


1519:Src/usb_pd_protocol.c **** 	switch (type) {
1520:Src/usb_pd_protocol.c **** 	case PD_EXT_GET_BATTERY_CAP:
1521:Src/usb_pd_protocol.c **** 		send_battery_cap(port, payload);
1522:Src/usb_pd_protocol.c **** 		break;
1523:Src/usb_pd_protocol.c **** 	case PD_EXT_GET_BATTERY_STATUS:
1524:Src/usb_pd_protocol.c **** 		send_battery_status(port, payload);
1525:Src/usb_pd_protocol.c **** 		break;
1526:Src/usb_pd_protocol.c **** 	case PD_EXT_BATTERY_CAP:
1527:Src/usb_pd_protocol.c **** 		break;
1528:Src/usb_pd_protocol.c **** 	default:
1529:Src/usb_pd_protocol.c **** 		send_control(port, PD_CTRL_NOT_SUPPORTED);
1530:Src/usb_pd_protocol.c **** 	}
1531:Src/usb_pd_protocol.c **** }
1532:Src/usb_pd_protocol.c **** #endif
1533:Src/usb_pd_protocol.c **** 
1534:Src/usb_pd_protocol.c **** static void handle_request(int port, uint16_t head,
1535:Src/usb_pd_protocol.c **** 		uint32_t *payload)
1536:Src/usb_pd_protocol.c **** {
1537:Src/usb_pd_protocol.c **** 	int cnt = PD_HEADER_CNT(head);
1538:Src/usb_pd_protocol.c **** 	int p;
1539:Src/usb_pd_protocol.c **** 
1540:Src/usb_pd_protocol.c **** 	/* dump received packet content (only dump ping at debug level 3) */
1541:Src/usb_pd_protocol.c **** 	if ((debug_level == 2 && PD_HEADER_TYPE(head) != PD_CTRL_PING) ||
1542:Src/usb_pd_protocol.c **** 	    debug_level >= 3) {
1543:Src/usb_pd_protocol.c **** 		CPRINTF("RECV %04x/%d ", head, cnt);
1544:Src/usb_pd_protocol.c **** 		for (p = 0; p < cnt; p++)
1545:Src/usb_pd_protocol.c **** 			CPRINTF("[%d]%08x ", p, payload[p]);
1546:Src/usb_pd_protocol.c **** 		CPRINTF("\n");
1547:Src/usb_pd_protocol.c **** 	}
1548:Src/usb_pd_protocol.c **** 
1549:Src/usb_pd_protocol.c **** 	/*
1550:Src/usb_pd_protocol.c **** 	 * If we are in disconnected state, we shouldn't get a request. Do
1551:Src/usb_pd_protocol.c **** 	 * a hard reset if we get one.
1552:Src/usb_pd_protocol.c **** 	 */
1553:Src/usb_pd_protocol.c **** 	if (!pd_is_connected(port))
1554:Src/usb_pd_protocol.c **** 		set_state(port, PD_STATE_HARD_RESET_SEND);
1555:Src/usb_pd_protocol.c **** 
1556:Src/usb_pd_protocol.c **** #ifdef CONFIG_USB_PD_REV30
1557:Src/usb_pd_protocol.c **** 	/* Check if this is an extended chunked data message. */
1558:Src/usb_pd_protocol.c **** 	if (pd[port].rev == PD_REV30 && PD_HEADER_EXT(head)) {
1559:Src/usb_pd_protocol.c **** 		handle_ext_request(port, head, payload);
1560:Src/usb_pd_protocol.c **** 		return;
1561:Src/usb_pd_protocol.c **** 	}
1562:Src/usb_pd_protocol.c **** #endif
1563:Src/usb_pd_protocol.c **** 	if (cnt)
1564:Src/usb_pd_protocol.c **** 		handle_data_request(port, head, payload);
1565:Src/usb_pd_protocol.c **** 	else
1566:Src/usb_pd_protocol.c **** 		handle_ctrl_request(port, head, payload);
1567:Src/usb_pd_protocol.c **** }
1568:Src/usb_pd_protocol.c **** 
1569:Src/usb_pd_protocol.c **** void pd_send_vdm(int port, uint32_t vid, int cmd, const uint32_t *data,
1570:Src/usb_pd_protocol.c **** 		 int count)
1571:Src/usb_pd_protocol.c **** {
1572:Src/usb_pd_protocol.c **** 	if (count > VDO_MAX_SIZE - 1) {
1573:Src/usb_pd_protocol.c **** 		CPRINTF("VDM over max size\n");
1574:Src/usb_pd_protocol.c **** 		return;
1575:Src/usb_pd_protocol.c **** 	}
ARM GAS  /tmp/ccoQIC4J.s 			page 35


1576:Src/usb_pd_protocol.c **** 
1577:Src/usb_pd_protocol.c **** 	/* set VDM header with VID & CMD */
1578:Src/usb_pd_protocol.c **** 	pd[port].vdo_data[0] = VDO(vid, ((vid & USB_SID_PD) == USB_SID_PD) ?
1579:Src/usb_pd_protocol.c **** 				   1 : (PD_VDO_CMD(cmd) <= CMD_ATTENTION), cmd);
1580:Src/usb_pd_protocol.c **** #ifdef CONFIG_USB_PD_REV30
1581:Src/usb_pd_protocol.c **** 	pd[port].vdo_data[0] |= VDO_SVDM_VERS(vdo_ver[pd[port].rev]);
1582:Src/usb_pd_protocol.c **** #endif
1583:Src/usb_pd_protocol.c **** 	queue_vdm(port, pd[port].vdo_data, data, count);
1584:Src/usb_pd_protocol.c **** 
1585:Src/usb_pd_protocol.c **** 	// getting rid of task stuff
1586:Src/usb_pd_protocol.c **** 	//task_wake(PD_PORT_TO_TASK_ID(port));
1587:Src/usb_pd_protocol.c **** }
1588:Src/usb_pd_protocol.c **** 
1589:Src/usb_pd_protocol.c **** static inline int pdo_busy(int port)
1590:Src/usb_pd_protocol.c **** {
1591:Src/usb_pd_protocol.c **** 	/*
1592:Src/usb_pd_protocol.c **** 	 * Note, main PDO state machine (pd_task) uses READY state exclusively
1593:Src/usb_pd_protocol.c **** 	 * to denote port partners have successfully negociated a contract.  All
1594:Src/usb_pd_protocol.c **** 	 * other protocol actions force state transitions.
1595:Src/usb_pd_protocol.c **** 	 */
1596:Src/usb_pd_protocol.c **** 	int rv = (pd[port].task_state != PD_STATE_SRC_READY);
1597:Src/usb_pd_protocol.c **** #ifdef CONFIG_USB_PD_DUAL_ROLE
1598:Src/usb_pd_protocol.c **** 	rv &= (pd[port].task_state != PD_STATE_SNK_READY);
1599:Src/usb_pd_protocol.c **** #endif
1600:Src/usb_pd_protocol.c **** 	return rv;
1601:Src/usb_pd_protocol.c **** }
1602:Src/usb_pd_protocol.c **** 
1603:Src/usb_pd_protocol.c **** static uint64_t vdm_get_ready_timeout(uint32_t vdm_hdr)
1604:Src/usb_pd_protocol.c **** {
 272              		.loc 1 1604 1 is_stmt 1 view -0
 273              		.cfi_startproc
 274              		@ args = 0, pretend = 0, frame = 0
 275              		@ frame_needed = 0, uses_anonymous_args = 0
 276              		@ link register save eliminated.
1605:Src/usb_pd_protocol.c **** 	uint64_t timeout;
 277              		.loc 1 1605 2 view .LVU54
1606:Src/usb_pd_protocol.c **** 	int cmd = PD_VDO_CMD(vdm_hdr);
 278              		.loc 1 1606 2 view .LVU55
 279              		.loc 1 1606 6 is_stmt 0 view .LVU56
 280 0000 1F23     		movs	r3, #31
 281 0002 0340     		ands	r3, r0
 282              	.LVL11:
1607:Src/usb_pd_protocol.c **** 
1608:Src/usb_pd_protocol.c **** 	/* its not a structured VDM command */
1609:Src/usb_pd_protocol.c **** 	if (!PD_VDO_SVDM(vdm_hdr))
 283              		.loc 1 1609 2 is_stmt 1 view .LVU57
 284              		.loc 1 1609 5 is_stmt 0 view .LVU58
 285 0004 0204     		lsls	r2, r0, #16
 286 0006 14D5     		bpl	.L21
1610:Src/usb_pd_protocol.c **** 		return 500*MSEC_US;
1611:Src/usb_pd_protocol.c **** 
1612:Src/usb_pd_protocol.c **** 	switch (PD_VDO_CMDT(vdm_hdr)) {
 287              		.loc 1 1612 2 is_stmt 1 view .LVU59
 288              		.loc 1 1612 10 is_stmt 0 view .LVU60
 289 0008 8009     		lsrs	r0, r0, #6
 290              	.LVL12:
 291              		.loc 1 1612 2 view .LVU61
ARM GAS  /tmp/ccoQIC4J.s 			page 36


 292 000a 8207     		lsls	r2, r0, #30
 293 000c 08D1     		bne	.L20
1613:Src/usb_pd_protocol.c **** 	case CMDT_INIT:
1614:Src/usb_pd_protocol.c **** 		if ((cmd == CMD_ENTER_MODE) || (cmd == CMD_EXIT_MODE))
 294              		.loc 1 1614 3 is_stmt 1 view .LVU62
 295              		.loc 1 1614 31 is_stmt 0 view .LVU63
 296 000e 043B     		subs	r3, r3, #4
 297              	.LVL13:
 298              		.loc 1 1614 6 view .LVU64
 299 0010 012B     		cmp	r3, #1
 300 0012 02D9     		bls	.L24
1615:Src/usb_pd_protocol.c **** 			timeout = PD_T_VDM_WAIT_MODE_E;
1616:Src/usb_pd_protocol.c **** 		else
1617:Src/usb_pd_protocol.c **** 			timeout = PD_T_VDM_SNDR_RSP;
 301              		.loc 1 1617 12 view .LVU65
 302 0014 0848     		ldr	r0, .L26
 303 0016 0021     		movs	r1, #0
 304 0018 0DE0     		b	.L18
 305              	.L24:
1615:Src/usb_pd_protocol.c **** 			timeout = PD_T_VDM_WAIT_MODE_E;
 306              		.loc 1 1615 12 view .LVU66
 307 001a 0848     		ldr	r0, .L26+4
 308 001c 0021     		movs	r1, #0
 309 001e 0AE0     		b	.L18
 310              	.LVL14:
 311              	.L20:
1618:Src/usb_pd_protocol.c **** 		break;
1619:Src/usb_pd_protocol.c **** 	default:
1620:Src/usb_pd_protocol.c **** 		if ((cmd == CMD_ENTER_MODE) || (cmd == CMD_EXIT_MODE))
 312              		.loc 1 1620 3 is_stmt 1 view .LVU67
 313              		.loc 1 1620 31 is_stmt 0 view .LVU68
 314 0020 043B     		subs	r3, r3, #4
 315              	.LVL15:
 316              		.loc 1 1620 6 view .LVU69
 317 0022 012B     		cmp	r3, #1
 318 0024 02D9     		bls	.L25
1621:Src/usb_pd_protocol.c **** 			timeout = PD_T_VDM_E_MODE;
1622:Src/usb_pd_protocol.c **** 		else
1623:Src/usb_pd_protocol.c **** 			timeout = PD_T_VDM_RCVR_RSP;
 319              		.loc 1 1623 12 view .LVU70
 320 0026 0648     		ldr	r0, .L26+8
 321 0028 0021     		movs	r1, #0
 322 002a 04E0     		b	.L18
 323              	.L25:
1621:Src/usb_pd_protocol.c **** 			timeout = PD_T_VDM_E_MODE;
 324              		.loc 1 1621 12 view .LVU71
 325 002c 0548     		ldr	r0, .L26+12
 326 002e 0021     		movs	r1, #0
 327 0030 01E0     		b	.L18
 328              	.LVL16:
 329              	.L21:
1610:Src/usb_pd_protocol.c **** 
 330              		.loc 1 1610 10 view .LVU72
 331 0032 0548     		ldr	r0, .L26+16
 332              	.LVL17:
1610:Src/usb_pd_protocol.c **** 
 333              		.loc 1 1610 10 view .LVU73
ARM GAS  /tmp/ccoQIC4J.s 			page 37


 334 0034 0021     		movs	r1, #0
 335              	.LVL18:
 336              	.L18:
1624:Src/usb_pd_protocol.c **** 		break;
1625:Src/usb_pd_protocol.c **** 	}
1626:Src/usb_pd_protocol.c **** 	return timeout;
1627:Src/usb_pd_protocol.c **** }
 337              		.loc 1 1627 1 view .LVU74
 338              		@ sp needed
 339 0036 7047     		bx	lr
 340              	.L27:
 341              		.align	2
 342              	.L26:
 343 0038 30750000 		.word	30000
 344 003c A0860100 		.word	100000
 345 0040 983A0000 		.word	15000
 346 0044 A8610000 		.word	25000
 347 0048 20A10700 		.word	500000
 348              		.cfi_endproc
 349              	.LFE49:
 351              		.section	.text.pd_is_power_swapping,"ax",%progbits
 352              		.align	1
 353              		.syntax unified
 354              		.code	16
 355              		.thumb_func
 356              		.fpu softvfp
 358              	pd_is_power_swapping:
 359              	.LVL19:
 360              	.LFB56:
1628:Src/usb_pd_protocol.c **** 
1629:Src/usb_pd_protocol.c **** static void pd_vdm_send_state_machine(int port)
1630:Src/usb_pd_protocol.c **** {
1631:Src/usb_pd_protocol.c **** 	int res;
1632:Src/usb_pd_protocol.c **** 	uint16_t header;
1633:Src/usb_pd_protocol.c **** 
1634:Src/usb_pd_protocol.c **** 	switch (pd[port].vdm_state) {
1635:Src/usb_pd_protocol.c **** 	case VDM_STATE_READY:
1636:Src/usb_pd_protocol.c **** 		/* Only transmit VDM if connected. */
1637:Src/usb_pd_protocol.c **** 		if (!pd_is_connected(port)) {
1638:Src/usb_pd_protocol.c **** 			pd[port].vdm_state = VDM_STATE_ERR_BUSY;
1639:Src/usb_pd_protocol.c **** 			break;
1640:Src/usb_pd_protocol.c **** 		}
1641:Src/usb_pd_protocol.c **** 
1642:Src/usb_pd_protocol.c **** 		/*
1643:Src/usb_pd_protocol.c **** 		 * if there's traffic or we're not in PDO ready state don't send
1644:Src/usb_pd_protocol.c **** 		 * a VDM.
1645:Src/usb_pd_protocol.c **** 		 */
1646:Src/usb_pd_protocol.c **** 		if (pdo_busy(port))
1647:Src/usb_pd_protocol.c **** 			break;
1648:Src/usb_pd_protocol.c **** 
1649:Src/usb_pd_protocol.c **** 		/* Prepare and send VDM */
1650:Src/usb_pd_protocol.c **** 		header = PD_HEADER(PD_DATA_VENDOR_DEF, pd[port].power_role,
1651:Src/usb_pd_protocol.c **** 				   pd[port].data_role, pd[port].msg_id,
1652:Src/usb_pd_protocol.c **** 				   (int)pd[port].vdo_count,
1653:Src/usb_pd_protocol.c **** 				   pd_get_rev(port), 0);
1654:Src/usb_pd_protocol.c **** 		res = pd_transmit(port, TCPC_TX_SOP, header,
1655:Src/usb_pd_protocol.c **** 				  pd[port].vdo_data);
ARM GAS  /tmp/ccoQIC4J.s 			page 38


1656:Src/usb_pd_protocol.c **** 		if (res < 0) {
1657:Src/usb_pd_protocol.c **** 			pd[port].vdm_state = VDM_STATE_ERR_SEND;
1658:Src/usb_pd_protocol.c **** 		} else {
1659:Src/usb_pd_protocol.c **** 			pd[port].vdm_state = VDM_STATE_BUSY;
1660:Src/usb_pd_protocol.c **** 			pd[port].vdm_timeout.val = get_time().val +
1661:Src/usb_pd_protocol.c **** 				vdm_get_ready_timeout(pd[port].vdo_data[0]);
1662:Src/usb_pd_protocol.c **** 		}
1663:Src/usb_pd_protocol.c **** 		break;
1664:Src/usb_pd_protocol.c **** 	case VDM_STATE_WAIT_RSP_BUSY:
1665:Src/usb_pd_protocol.c **** 		/* wait and then initiate request again */
1666:Src/usb_pd_protocol.c **** 		if (get_time().val > pd[port].vdm_timeout.val) {
1667:Src/usb_pd_protocol.c **** 			pd[port].vdo_data[0] = pd[port].vdo_retry;
1668:Src/usb_pd_protocol.c **** 			pd[port].vdo_count = 1;
1669:Src/usb_pd_protocol.c **** 			pd[port].vdm_state = VDM_STATE_READY;
1670:Src/usb_pd_protocol.c **** 		}
1671:Src/usb_pd_protocol.c **** 		break;
1672:Src/usb_pd_protocol.c **** 	case VDM_STATE_BUSY:
1673:Src/usb_pd_protocol.c **** 		/* Wait for VDM response or timeout */
1674:Src/usb_pd_protocol.c **** 		if (pd[port].vdm_timeout.val &&
1675:Src/usb_pd_protocol.c **** 		    (get_time().val > pd[port].vdm_timeout.val)) {
1676:Src/usb_pd_protocol.c **** 			pd[port].vdm_state = VDM_STATE_ERR_TMOUT;
1677:Src/usb_pd_protocol.c **** 		}
1678:Src/usb_pd_protocol.c **** 		break;
1679:Src/usb_pd_protocol.c **** 	default:
1680:Src/usb_pd_protocol.c **** 		break;
1681:Src/usb_pd_protocol.c **** 	}
1682:Src/usb_pd_protocol.c **** }
1683:Src/usb_pd_protocol.c **** 
1684:Src/usb_pd_protocol.c **** #ifdef CONFIG_CMD_PD_DEV_DUMP_INFO
1685:Src/usb_pd_protocol.c **** static inline void pd_dev_dump_info(uint16_t dev_id, uint8_t *hash)
1686:Src/usb_pd_protocol.c **** {
1687:Src/usb_pd_protocol.c **** 	int j;
1688:Src/usb_pd_protocol.c **** 	ccprintf("DevId:%d.%d Hash:", HW_DEV_ID_MAJ(dev_id),
1689:Src/usb_pd_protocol.c **** 		 HW_DEV_ID_MIN(dev_id));
1690:Src/usb_pd_protocol.c **** 	for (j = 0; j < PD_RW_HASH_SIZE; j += 4) {
1691:Src/usb_pd_protocol.c **** 		ccprintf(" 0x%02x%02x%02x%02x", hash[j + 3], hash[j + 2],
1692:Src/usb_pd_protocol.c **** 			 hash[j + 1], hash[j]);
1693:Src/usb_pd_protocol.c **** 	}
1694:Src/usb_pd_protocol.c **** 	ccprintf("\n");
1695:Src/usb_pd_protocol.c **** }
1696:Src/usb_pd_protocol.c **** #endif /* CONFIG_CMD_PD_DEV_DUMP_INFO */
1697:Src/usb_pd_protocol.c **** 
1698:Src/usb_pd_protocol.c **** int pd_dev_store_rw_hash(int port, uint16_t dev_id, uint32_t *rw_hash,
1699:Src/usb_pd_protocol.c **** 			 uint32_t current_image)
1700:Src/usb_pd_protocol.c **** {
1701:Src/usb_pd_protocol.c **** #ifdef CONFIG_COMMON_RUNTIME
1702:Src/usb_pd_protocol.c **** 	int i;
1703:Src/usb_pd_protocol.c **** #endif
1704:Src/usb_pd_protocol.c **** 
1705:Src/usb_pd_protocol.c **** #ifdef CONFIG_USB_PD_CHROMEOS
1706:Src/usb_pd_protocol.c **** 	pd[port].dev_id = dev_id;
1707:Src/usb_pd_protocol.c **** 	memcpy(pd[port].dev_rw_hash, rw_hash, PD_RW_HASH_SIZE);
1708:Src/usb_pd_protocol.c **** #endif
1709:Src/usb_pd_protocol.c **** #ifdef CONFIG_CMD_PD_DEV_DUMP_INFO
1710:Src/usb_pd_protocol.c **** 	if (debug_level >= 2)
1711:Src/usb_pd_protocol.c **** 		pd_dev_dump_info(dev_id, (uint8_t *)rw_hash);
1712:Src/usb_pd_protocol.c **** #endif
ARM GAS  /tmp/ccoQIC4J.s 			page 39


1713:Src/usb_pd_protocol.c **** #ifdef CONFIG_USB_PD_CHROMEOS
1714:Src/usb_pd_protocol.c **** 	pd[port].current_image = current_image;
1715:Src/usb_pd_protocol.c **** #endif
1716:Src/usb_pd_protocol.c **** 
1717:Src/usb_pd_protocol.c **** #ifdef CONFIG_COMMON_RUNTIME
1718:Src/usb_pd_protocol.c **** 	/* Search table for matching device / hash */
1719:Src/usb_pd_protocol.c **** 	for (i = 0; i < RW_HASH_ENTRIES; i++)
1720:Src/usb_pd_protocol.c **** 		if (dev_id == rw_hash_table[i].dev_id)
1721:Src/usb_pd_protocol.c **** 			return !memcmp(rw_hash,
1722:Src/usb_pd_protocol.c **** 				       rw_hash_table[i].dev_rw_hash,
1723:Src/usb_pd_protocol.c **** 				       PD_RW_HASH_SIZE);
1724:Src/usb_pd_protocol.c **** #endif
1725:Src/usb_pd_protocol.c **** 	return 0;
1726:Src/usb_pd_protocol.c **** }
1727:Src/usb_pd_protocol.c **** 
1728:Src/usb_pd_protocol.c **** #ifdef CONFIG_USB_PD_DUAL_ROLE
1729:Src/usb_pd_protocol.c **** enum pd_dual_role_states pd_get_dual_role(void)
1730:Src/usb_pd_protocol.c **** {
1731:Src/usb_pd_protocol.c **** 	return drp_state;
1732:Src/usb_pd_protocol.c **** }
1733:Src/usb_pd_protocol.c **** 
1734:Src/usb_pd_protocol.c **** #ifdef CONFIG_USB_PD_TRY_SRC
1735:Src/usb_pd_protocol.c **** static void pd_update_try_source(void)
1736:Src/usb_pd_protocol.c **** {
1737:Src/usb_pd_protocol.c **** 	int i;
1738:Src/usb_pd_protocol.c **** 
1739:Src/usb_pd_protocol.c **** #ifndef CONFIG_CHARGER
1740:Src/usb_pd_protocol.c **** 	int batt_soc = board_get_battery_soc();
1741:Src/usb_pd_protocol.c **** #else
1742:Src/usb_pd_protocol.c **** 	int batt_soc = charge_get_percent();
1743:Src/usb_pd_protocol.c **** #endif
1744:Src/usb_pd_protocol.c **** 
1745:Src/usb_pd_protocol.c **** 	/*
1746:Src/usb_pd_protocol.c **** 	 * Enable try source when dual-role toggling AND battery is present
1747:Src/usb_pd_protocol.c **** 	 * and at some minimum percentage.
1748:Src/usb_pd_protocol.c **** 	 */
1749:Src/usb_pd_protocol.c **** 	pd_try_src_enable = drp_state == PD_DRP_TOGGLE_ON &&
1750:Src/usb_pd_protocol.c **** 			    batt_soc >= CONFIG_USB_PD_TRY_SRC_MIN_BATT_SOC;
1751:Src/usb_pd_protocol.c **** #if defined(CONFIG_BATTERY_PRESENT_CUSTOM) || \
1752:Src/usb_pd_protocol.c **** 	defined(CONFIG_BATTERY_PRESENT_GPIO)
1753:Src/usb_pd_protocol.c **** 	/*
1754:Src/usb_pd_protocol.c **** 	 * When battery is cutoff in ship mode it may not be reliable to
1755:Src/usb_pd_protocol.c **** 	 * check if battery is present with its state of charge.
1756:Src/usb_pd_protocol.c **** 	 * Also check if battery is initialized and ready to provide power.
1757:Src/usb_pd_protocol.c **** 	 */
1758:Src/usb_pd_protocol.c **** 	pd_try_src_enable &= (battery_is_present() == BP_YES);
1759:Src/usb_pd_protocol.c **** #endif
1760:Src/usb_pd_protocol.c **** 
1761:Src/usb_pd_protocol.c **** 	/*
1762:Src/usb_pd_protocol.c **** 	 * Clear this flag to cover case where a TrySrc
1763:Src/usb_pd_protocol.c **** 	 * mode went from enabled to disabled and trying_source
1764:Src/usb_pd_protocol.c **** 	 * was active at that time.
1765:Src/usb_pd_protocol.c **** 	 */
1766:Src/usb_pd_protocol.c **** 	for (i = 0; i < CONFIG_USB_PD_PORT_COUNT; i++)
1767:Src/usb_pd_protocol.c **** 		pd[i].flags &= ~PD_FLAGS_TRY_SRC;
1768:Src/usb_pd_protocol.c **** 
1769:Src/usb_pd_protocol.c **** }
ARM GAS  /tmp/ccoQIC4J.s 			page 40


1770:Src/usb_pd_protocol.c **** DECLARE_HOOK(HOOK_BATTERY_SOC_CHANGE, pd_update_try_source, HOOK_PRIO_DEFAULT);
1771:Src/usb_pd_protocol.c **** #endif
1772:Src/usb_pd_protocol.c **** 
1773:Src/usb_pd_protocol.c **** void pd_set_dual_role(enum pd_dual_role_states state)
1774:Src/usb_pd_protocol.c **** {
1775:Src/usb_pd_protocol.c **** 	int i;
1776:Src/usb_pd_protocol.c **** 	drp_state = state;
1777:Src/usb_pd_protocol.c **** 
1778:Src/usb_pd_protocol.c **** #ifdef CONFIG_USB_PD_TRY_SRC
1779:Src/usb_pd_protocol.c **** 	pd_update_try_source();
1780:Src/usb_pd_protocol.c **** #endif
1781:Src/usb_pd_protocol.c **** 
1782:Src/usb_pd_protocol.c **** 	/* Inform PD tasks of dual role change. */
1783:Src/usb_pd_protocol.c **** 	for (i = 0; i < CONFIG_USB_PD_PORT_COUNT; i++)
1784:Src/usb_pd_protocol.c **** 		// getting rid of task stuff
1785:Src/usb_pd_protocol.c **** 		//task_set_event(PD_PORT_TO_TASK_ID(i),
1786:Src/usb_pd_protocol.c **** 		//	       PD_EVENT_UPDATE_DUAL_ROLE, 0);
1787:Src/usb_pd_protocol.c **** 		;
1788:Src/usb_pd_protocol.c **** }
1789:Src/usb_pd_protocol.c **** 
1790:Src/usb_pd_protocol.c **** void pd_update_dual_role_config(int port)
1791:Src/usb_pd_protocol.c **** {
1792:Src/usb_pd_protocol.c **** 	/*
1793:Src/usb_pd_protocol.c **** 	 * Change to sink if port is currently a source AND (new DRP
1794:Src/usb_pd_protocol.c **** 	 * state is force sink OR new DRP state is either toggle off
1795:Src/usb_pd_protocol.c **** 	 * or debug accessory toggle only and we are in the source
1796:Src/usb_pd_protocol.c **** 	 * disconnected state).
1797:Src/usb_pd_protocol.c **** 	 */
1798:Src/usb_pd_protocol.c **** 	if (pd[port].power_role == PD_ROLE_SOURCE &&
1799:Src/usb_pd_protocol.c **** 	    ((drp_state == PD_DRP_FORCE_SINK && !pd_ts_dts_plugged(port)) ||
1800:Src/usb_pd_protocol.c **** 	     (drp_state == PD_DRP_TOGGLE_OFF
1801:Src/usb_pd_protocol.c **** 	      && pd[port].task_state == PD_STATE_SRC_DISCONNECTED))) {
1802:Src/usb_pd_protocol.c **** 		pd[port].power_role = PD_ROLE_SINK;
1803:Src/usb_pd_protocol.c **** 		set_state(port, PD_STATE_SNK_DISCONNECTED);
1804:Src/usb_pd_protocol.c **** 		tcpm_set_cc(port, TYPEC_CC_RD);
1805:Src/usb_pd_protocol.c **** 		/* Make sure we're not sourcing VBUS. */
1806:Src/usb_pd_protocol.c **** 		pd_power_supply_reset(port);
1807:Src/usb_pd_protocol.c **** 	}
1808:Src/usb_pd_protocol.c **** 
1809:Src/usb_pd_protocol.c **** 	/*
1810:Src/usb_pd_protocol.c **** 	 * Change to source if port is currently a sink and the
1811:Src/usb_pd_protocol.c **** 	 * new DRP state is force source.
1812:Src/usb_pd_protocol.c **** 	 */
1813:Src/usb_pd_protocol.c **** 	if (pd[port].power_role == PD_ROLE_SINK &&
1814:Src/usb_pd_protocol.c **** 	    drp_state == PD_DRP_FORCE_SOURCE) {
1815:Src/usb_pd_protocol.c **** 		pd[port].power_role = PD_ROLE_SOURCE;
1816:Src/usb_pd_protocol.c **** 		set_state(port, PD_STATE_SRC_DISCONNECTED);
1817:Src/usb_pd_protocol.c **** 		tcpm_set_cc(port, TYPEC_CC_RP);
1818:Src/usb_pd_protocol.c **** 	}
1819:Src/usb_pd_protocol.c **** 
1820:Src/usb_pd_protocol.c **** #if defined(CONFIG_USB_PD_DUAL_ROLE_AUTO_TOGGLE) && \
1821:Src/usb_pd_protocol.c **** 	defined(CONFIG_USB_PD_TCPC_LOW_POWER)
1822:Src/usb_pd_protocol.c **** 	/* When switching drp mode, make sure tcpc is out of standby mode */
1823:Src/usb_pd_protocol.c **** 	tcpm_set_drp_toggle(port, 0);
1824:Src/usb_pd_protocol.c **** #endif
1825:Src/usb_pd_protocol.c **** }
1826:Src/usb_pd_protocol.c **** 
ARM GAS  /tmp/ccoQIC4J.s 			page 41


1827:Src/usb_pd_protocol.c **** int pd_get_role(int port)
1828:Src/usb_pd_protocol.c **** {
1829:Src/usb_pd_protocol.c **** 	return pd[port].power_role;
1830:Src/usb_pd_protocol.c **** }
1831:Src/usb_pd_protocol.c **** 
1832:Src/usb_pd_protocol.c **** static int pd_is_power_swapping(int port)
1833:Src/usb_pd_protocol.c **** {
 361              		.loc 1 1833 1 is_stmt 1 view -0
 362              		.cfi_startproc
 363              		@ args = 0, pretend = 0, frame = 0
 364              		@ frame_needed = 0, uses_anonymous_args = 0
 365              		@ link register save eliminated.
1834:Src/usb_pd_protocol.c **** 	/* return true if in the act of swapping power roles */
1835:Src/usb_pd_protocol.c **** 	return  pd[port].task_state == PD_STATE_SNK_SWAP_SNK_DISABLE ||
 366              		.loc 1 1835 2 view .LVU76
 367              		.loc 1 1835 18 is_stmt 0 view .LVU77
 368 0000 C301     		lsls	r3, r0, #7
 369 0002 0C48     		ldr	r0, .L35
 370              	.LVL20:
 371              		.loc 1 1835 18 view .LVU78
 372 0004 C018     		adds	r0, r0, r3
 373 0006 0279     		ldrb	r2, [r0, #4]
1836:Src/usb_pd_protocol.c **** 		pd[port].task_state == PD_STATE_SNK_SWAP_SRC_DISABLE ||
1837:Src/usb_pd_protocol.c **** 		pd[port].task_state == PD_STATE_SNK_SWAP_STANDBY ||
 374              		.loc 1 1837 52 view .LVU79
 375 0008 1300     		movs	r3, r2
 376 000a 0A3B     		subs	r3, r3, #10
 377 000c DBB2     		uxtb	r3, r3
1838:Src/usb_pd_protocol.c **** 		pd[port].task_state == PD_STATE_SNK_SWAP_COMPLETE ||
1839:Src/usb_pd_protocol.c **** 		pd[port].task_state == PD_STATE_SRC_SWAP_SNK_DISABLE ||
1840:Src/usb_pd_protocol.c **** 		pd[port].task_state == PD_STATE_SRC_SWAP_SRC_DISABLE ||
 378              		.loc 1 1840 56 view .LVU80
 379 000e 032B     		cmp	r3, #3
 380 0010 09D9     		bls	.L30
1838:Src/usb_pd_protocol.c **** 		pd[port].task_state == PD_STATE_SNK_SWAP_COMPLETE ||
 381              		.loc 1 1838 53 view .LVU81
 382 0012 1B2A     		cmp	r2, #27
 383 0014 09D0     		beq	.L31
1839:Src/usb_pd_protocol.c **** 		pd[port].task_state == PD_STATE_SRC_SWAP_SRC_DISABLE ||
 384              		.loc 1 1839 56 view .LVU82
 385 0016 1C2A     		cmp	r2, #28
 386 0018 09D0     		beq	.L32
 387              		.loc 1 1840 56 discriminator 2 view .LVU83
 388 001a 1D2A     		cmp	r2, #29
 389 001c 01D0     		beq	.L34
 390              		.loc 1 1840 56 view .LVU84
 391 001e 0020     		movs	r0, #0
 392 0020 02E0     		b	.L28
 393              	.L34:
 394 0022 0120     		movs	r0, #1
 395 0024 00E0     		b	.L28
 396              	.L30:
 397 0026 0120     		movs	r0, #1
 398              	.L28:
1841:Src/usb_pd_protocol.c **** 		pd[port].task_state == PD_STATE_SRC_SWAP_STANDBY;
1842:Src/usb_pd_protocol.c **** }
 399              		.loc 1 1842 1 view .LVU85
ARM GAS  /tmp/ccoQIC4J.s 			page 42


 400              		@ sp needed
 401 0028 7047     		bx	lr
 402              	.L31:
1840:Src/usb_pd_protocol.c **** 		pd[port].task_state == PD_STATE_SRC_SWAP_STANDBY;
 403              		.loc 1 1840 56 view .LVU86
 404 002a 0120     		movs	r0, #1
 405 002c FCE7     		b	.L28
 406              	.L32:
 407 002e 0120     		movs	r0, #1
 408 0030 FAE7     		b	.L28
 409              	.L36:
 410 0032 C046     		.align	2
 411              	.L35:
 412 0034 00000000 		.word	pd
 413              		.cfi_endproc
 414              	.LFE56:
 416              		.section	.text.get_typec_current_limit,"ax",%progbits
 417              		.align	1
 418              		.syntax unified
 419              		.code	16
 420              		.thumb_func
 421              		.fpu softvfp
 423              	get_typec_current_limit:
 424              	.LVL21:
 425              	.LFB63:
1843:Src/usb_pd_protocol.c **** 
1844:Src/usb_pd_protocol.c **** /*
1845:Src/usb_pd_protocol.c ****  * Provide Rp to ensure the partner port is in a known state (eg. not
1846:Src/usb_pd_protocol.c ****  * PD negotiated, not sourcing 20V).
1847:Src/usb_pd_protocol.c ****  */
1848:Src/usb_pd_protocol.c **** static void pd_partner_port_reset(int port)
1849:Src/usb_pd_protocol.c **** {
1850:Src/usb_pd_protocol.c **** 	uint64_t timeout;
1851:Src/usb_pd_protocol.c **** 
1852:Src/usb_pd_protocol.c **** #ifdef CONFIG_BBRAM
1853:Src/usb_pd_protocol.c **** 	/*
1854:Src/usb_pd_protocol.c **** 	 * Check our battery-backed previous port state. If PD comms were
1855:Src/usb_pd_protocol.c **** 	 * active, and we didn't just lose power, make sure we
1856:Src/usb_pd_protocol.c **** 	 * don't boot into RO with a pre-existing power contract.
1857:Src/usb_pd_protocol.c **** 	 */
1858:Src/usb_pd_protocol.c **** 	if (!pd_get_saved_active(port) ||
1859:Src/usb_pd_protocol.c **** 	   system_get_image_copy() != SYSTEM_IMAGE_RO ||
1860:Src/usb_pd_protocol.c **** 	   system_get_reset_flags() &
1861:Src/usb_pd_protocol.c **** 	   (RESET_FLAG_BROWNOUT | RESET_FLAG_POWER_ON))
1862:Src/usb_pd_protocol.c **** 		return;
1863:Src/usb_pd_protocol.c **** #endif // CONFIG_BBRAM
1864:Src/usb_pd_protocol.c **** 	/* Provide Rp for 100 msec. or until we no longer have VBUS. */
1865:Src/usb_pd_protocol.c **** 	tcpm_set_cc(port, TYPEC_CC_RP);
1866:Src/usb_pd_protocol.c **** 	timeout = get_time().val + 100 * MSEC_US;
1867:Src/usb_pd_protocol.c **** 
1868:Src/usb_pd_protocol.c **** 	while (get_time().val < timeout && pd_is_vbus_present(port))
1869:Src/usb_pd_protocol.c **** 		msleep(10);
1870:Src/usb_pd_protocol.c **** #ifdef CONFIG_BBRAM
1871:Src/usb_pd_protocol.c **** 	pd_set_saved_active(port, 0);
1872:Src/usb_pd_protocol.c **** #endif
1873:Src/usb_pd_protocol.c **** }
1874:Src/usb_pd_protocol.c **** #endif /* CONFIG_USB_PD_DUAL_ROLE */
ARM GAS  /tmp/ccoQIC4J.s 			page 43


1875:Src/usb_pd_protocol.c **** 
1876:Src/usb_pd_protocol.c **** int pd_get_polarity(int port)
1877:Src/usb_pd_protocol.c **** {
1878:Src/usb_pd_protocol.c **** 	return pd[port].polarity;
1879:Src/usb_pd_protocol.c **** }
1880:Src/usb_pd_protocol.c **** 
1881:Src/usb_pd_protocol.c **** int pd_get_partner_data_swap_capable(int port)
1882:Src/usb_pd_protocol.c **** {
1883:Src/usb_pd_protocol.c **** 	/* return data swap capable status of port partner */
1884:Src/usb_pd_protocol.c **** 	return pd[port].flags & PD_FLAGS_PARTNER_DR_DATA;
1885:Src/usb_pd_protocol.c **** }
1886:Src/usb_pd_protocol.c **** 
1887:Src/usb_pd_protocol.c **** #ifdef CONFIG_COMMON_RUNTIME
1888:Src/usb_pd_protocol.c **** void pd_comm_enable(int port, int enable)
1889:Src/usb_pd_protocol.c **** {
1890:Src/usb_pd_protocol.c **** 	/* We don't check port >= CONFIG_USB_PD_PORT_COUNT deliberately */
1891:Src/usb_pd_protocol.c **** 	pd_comm_enabled[port] = enable;
1892:Src/usb_pd_protocol.c **** 
1893:Src/usb_pd_protocol.c **** 	/* If type-C connection, then update the TCPC RX enable */
1894:Src/usb_pd_protocol.c **** 	if (pd_is_connected(port))
1895:Src/usb_pd_protocol.c **** 		tcpm_set_rx_enable(port, enable);
1896:Src/usb_pd_protocol.c **** 
1897:Src/usb_pd_protocol.c **** #ifdef CONFIG_USB_PD_DUAL_ROLE
1898:Src/usb_pd_protocol.c **** 	/*
1899:Src/usb_pd_protocol.c **** 	 * If communications are enabled, start hard reset timer for
1900:Src/usb_pd_protocol.c **** 	 * any port in PD_SNK_DISCOVERY.
1901:Src/usb_pd_protocol.c **** 	 */
1902:Src/usb_pd_protocol.c **** 	if (enable && pd[port].task_state == PD_STATE_SNK_DISCOVERY)
1903:Src/usb_pd_protocol.c **** 		set_state_timeout(port,
1904:Src/usb_pd_protocol.c **** 				  get_time().val + PD_T_SINK_WAIT_CAP,
1905:Src/usb_pd_protocol.c **** 				  PD_STATE_HARD_RESET_SEND);
1906:Src/usb_pd_protocol.c **** #endif
1907:Src/usb_pd_protocol.c **** }
1908:Src/usb_pd_protocol.c **** #endif
1909:Src/usb_pd_protocol.c **** 
1910:Src/usb_pd_protocol.c **** void pd_ping_enable(int port, int enable)
1911:Src/usb_pd_protocol.c **** {
1912:Src/usb_pd_protocol.c **** 	if (enable)
1913:Src/usb_pd_protocol.c **** 		pd[port].flags |= PD_FLAGS_PING_ENABLED;
1914:Src/usb_pd_protocol.c **** 	else
1915:Src/usb_pd_protocol.c **** 		pd[port].flags &= ~PD_FLAGS_PING_ENABLED;
1916:Src/usb_pd_protocol.c **** }
1917:Src/usb_pd_protocol.c **** 
1918:Src/usb_pd_protocol.c **** /**
1919:Src/usb_pd_protocol.c ****  * Returns whether the sink has detected a Rp resistor on the other side.
1920:Src/usb_pd_protocol.c ****  */
1921:Src/usb_pd_protocol.c **** static inline int cc_is_rp(int cc)
1922:Src/usb_pd_protocol.c **** {
1923:Src/usb_pd_protocol.c **** 	return (cc == TYPEC_CC_VOLT_SNK_DEF) || (cc == TYPEC_CC_VOLT_SNK_1_5) ||
1924:Src/usb_pd_protocol.c **** 	       (cc == TYPEC_CC_VOLT_SNK_3_0);
1925:Src/usb_pd_protocol.c **** }
1926:Src/usb_pd_protocol.c **** 
1927:Src/usb_pd_protocol.c **** /*
1928:Src/usb_pd_protocol.c ****  * CC values for regular sources and Debug sources (aka DTS)
1929:Src/usb_pd_protocol.c ****  *
1930:Src/usb_pd_protocol.c ****  * Source type  Mode of Operation   CC1    CC2
1931:Src/usb_pd_protocol.c ****  * ---------------------------------------------
ARM GAS  /tmp/ccoQIC4J.s 			page 44


1932:Src/usb_pd_protocol.c ****  * Regular      Default USB Power   RpUSB  Open
1933:Src/usb_pd_protocol.c ****  * Regular      USB-C @ 1.5 A       Rp1A5  Open
1934:Src/usb_pd_protocol.c ****  * Regular      USB-C @ 3 A         Rp3A0  Open
1935:Src/usb_pd_protocol.c ****  * DTS          Default USB Power   Rp3A0  Rp1A5
1936:Src/usb_pd_protocol.c ****  * DTS          USB-C @ 1.5 A       Rp1A5  RpUSB
1937:Src/usb_pd_protocol.c ****  * DTS          USB-C @ 3 A         Rp3A0  RpUSB
1938:Src/usb_pd_protocol.c **** */
1939:Src/usb_pd_protocol.c **** 
1940:Src/usb_pd_protocol.c **** /**
1941:Src/usb_pd_protocol.c ****  * Returns the polarity of a Sink.
1942:Src/usb_pd_protocol.c ****  */
1943:Src/usb_pd_protocol.c **** static inline int get_snk_polarity(int cc1, int cc2)
1944:Src/usb_pd_protocol.c **** {
1945:Src/usb_pd_protocol.c **** 	/* the following assumes:
1946:Src/usb_pd_protocol.c **** 	 * TYPEC_CC_VOLT_SNK_3_0 > TYPEC_CC_VOLT_SNK_1_5
1947:Src/usb_pd_protocol.c **** 	 * TYPEC_CC_VOLT_SNK_1_5 > TYPEC_CC_VOLT_SNK_DEF
1948:Src/usb_pd_protocol.c **** 	 * TYPEC_CC_VOLT_SNK_DEF > TYPEC_CC_VOLT_OPEN
1949:Src/usb_pd_protocol.c **** 	 */
1950:Src/usb_pd_protocol.c **** 	return (cc2 > cc1);
1951:Src/usb_pd_protocol.c **** }
1952:Src/usb_pd_protocol.c **** 
1953:Src/usb_pd_protocol.c **** #if defined(CONFIG_CHARGE_MANAGER)
1954:Src/usb_pd_protocol.c **** /**
1955:Src/usb_pd_protocol.c ****  * Returns type C current limit (mA) based upon cc_voltage (mV).
1956:Src/usb_pd_protocol.c ****  */
1957:Src/usb_pd_protocol.c **** static typec_current_t get_typec_current_limit(int polarity, int cc1, int cc2)
1958:Src/usb_pd_protocol.c **** {
 426              		.loc 1 1958 1 is_stmt 1 view -0
 427              		.cfi_startproc
 428              		@ args = 0, pretend = 0, frame = 0
 429              		@ frame_needed = 0, uses_anonymous_args = 0
 430              		@ link register save eliminated.
1959:Src/usb_pd_protocol.c **** 	typec_current_t charge;
 431              		.loc 1 1959 2 view .LVU88
1960:Src/usb_pd_protocol.c **** 	int cc = polarity ? cc2 : cc1;
 432              		.loc 1 1960 2 view .LVU89
 433              		.loc 1 1960 26 is_stmt 0 view .LVU90
 434 0000 0028     		cmp	r0, #0
 435 0002 0FD0     		beq	.L43
 436 0004 1300     		movs	r3, r2
 437              	.L38:
 438              	.LVL22:
1961:Src/usb_pd_protocol.c **** 	int cc_alt = polarity ? cc1 : cc2;
 439              		.loc 1 1961 2 is_stmt 1 discriminator 4 view .LVU91
 440              		.loc 1 1961 30 is_stmt 0 discriminator 4 view .LVU92
 441 0006 0028     		cmp	r0, #0
 442 0008 00D0     		beq	.L39
 443              		.loc 1 1961 30 view .LVU93
 444 000a 0A00     		movs	r2, r1
 445              	.LVL23:
 446              	.L39:
1962:Src/usb_pd_protocol.c **** 
1963:Src/usb_pd_protocol.c **** 	if (cc == TYPEC_CC_VOLT_SNK_3_0 && cc_alt != TYPEC_CC_VOLT_SNK_1_5)
 447              		.loc 1 1963 2 is_stmt 1 discriminator 4 view .LVU94
 448              		.loc 1 1963 5 is_stmt 0 discriminator 4 view .LVU95
 449 000c 072B     		cmp	r3, #7
 450 000e 0BD0     		beq	.L46
ARM GAS  /tmp/ccoQIC4J.s 			page 45


 451              	.L40:
1964:Src/usb_pd_protocol.c **** 		charge = 3000;
1965:Src/usb_pd_protocol.c **** 	else if (cc == TYPEC_CC_VOLT_SNK_1_5)
 452              		.loc 1 1965 7 is_stmt 1 view .LVU96
 453              		.loc 1 1965 10 is_stmt 0 view .LVU97
 454 0010 062B     		cmp	r3, #6
 455 0012 0DD0     		beq	.L47
1966:Src/usb_pd_protocol.c **** 		charge = 1500;
1967:Src/usb_pd_protocol.c **** 	else
1968:Src/usb_pd_protocol.c **** 		charge = 0;
 456              		.loc 1 1968 10 view .LVU98
 457 0014 0020     		movs	r0, #0
 458              	.LVL24:
 459              	.L41:
1969:Src/usb_pd_protocol.c **** 
1970:Src/usb_pd_protocol.c **** 	if (cc_is_rp(cc_alt))
 460              		.loc 1 1970 2 is_stmt 1 view .LVU99
 461              	.LBB148:
 462              	.LBI148:
1921:Src/usb_pd_protocol.c **** {
 463              		.loc 1 1921 19 view .LVU100
 464              	.LBB149:
1923:Src/usb_pd_protocol.c **** 	       (cc == TYPEC_CC_VOLT_SNK_3_0);
 465              		.loc 1 1923 2 view .LVU101
1923:Src/usb_pd_protocol.c **** 	       (cc == TYPEC_CC_VOLT_SNK_3_0);
 466              		.loc 1 1923 72 is_stmt 0 view .LVU102
 467 0016 053A     		subs	r2, r2, #5
 468              	.LVL25:
1923:Src/usb_pd_protocol.c **** 	       (cc == TYPEC_CC_VOLT_SNK_3_0);
 469              		.loc 1 1923 72 view .LVU103
 470              	.LBE149:
 471              	.LBE148:
 472              		.loc 1 1970 5 view .LVU104
 473 0018 022A     		cmp	r2, #2
 474 001a 02D8     		bhi	.L37
1971:Src/usb_pd_protocol.c **** 		charge |= TYPEC_CURRENT_DTS_MASK;
 475              		.loc 1 1971 3 is_stmt 1 view .LVU105
 476              		.loc 1 1971 10 is_stmt 0 view .LVU106
 477 001c 8023     		movs	r3, #128
 478              	.LVL26:
 479              		.loc 1 1971 10 view .LVU107
 480 001e 1B06     		lsls	r3, r3, #24
 481 0020 1843     		orrs	r0, r3
 482              	.LVL27:
1972:Src/usb_pd_protocol.c **** 
1973:Src/usb_pd_protocol.c **** 	return charge;
 483              		.loc 1 1973 2 is_stmt 1 view .LVU108
 484              	.L37:
1974:Src/usb_pd_protocol.c **** }
 485              		.loc 1 1974 1 is_stmt 0 view .LVU109
 486              		@ sp needed
 487 0022 7047     		bx	lr
 488              	.LVL28:
 489              	.L43:
1960:Src/usb_pd_protocol.c **** 	int cc_alt = polarity ? cc1 : cc2;
 490              		.loc 1 1960 26 view .LVU110
 491 0024 0B00     		movs	r3, r1
ARM GAS  /tmp/ccoQIC4J.s 			page 46


 492 0026 EEE7     		b	.L38
 493              	.LVL29:
 494              	.L46:
1963:Src/usb_pd_protocol.c **** 		charge = 3000;
 495              		.loc 1 1963 34 discriminator 1 view .LVU111
 496 0028 062A     		cmp	r2, #6
 497 002a F1D0     		beq	.L40
1964:Src/usb_pd_protocol.c **** 	else if (cc == TYPEC_CC_VOLT_SNK_1_5)
 498              		.loc 1 1964 10 view .LVU112
 499 002c 0148     		ldr	r0, .L48
 500              	.LVL30:
1964:Src/usb_pd_protocol.c **** 	else if (cc == TYPEC_CC_VOLT_SNK_1_5)
 501              		.loc 1 1964 10 view .LVU113
 502 002e F2E7     		b	.L41
 503              	.LVL31:
 504              	.L47:
1966:Src/usb_pd_protocol.c **** 	else
 505              		.loc 1 1966 10 view .LVU114
 506 0030 0148     		ldr	r0, .L48+4
 507              	.LVL32:
1966:Src/usb_pd_protocol.c **** 	else
 508              		.loc 1 1966 10 view .LVU115
 509 0032 F0E7     		b	.L41
 510              	.L49:
 511              		.align	2
 512              	.L48:
 513 0034 B80B0000 		.word	3000
 514 0038 DC050000 		.word	1500
 515              		.cfi_endproc
 516              	.LFE63:
 518              		.section	.text.set_state,"ax",%progbits
 519              		.align	1
 520              		.syntax unified
 521              		.code	16
 522              		.thumb_func
 523              		.fpu softvfp
 525              	set_state:
 526              	.LVL33:
 527              	.LFB24:
 327:Src/usb_pd_protocol.c **** 	enum pd_states last_state = pd[port].task_state;
 528              		.loc 1 327 1 is_stmt 1 view -0
 529              		.cfi_startproc
 530              		@ args = 0, pretend = 0, frame = 0
 531              		@ frame_needed = 0, uses_anonymous_args = 0
 327:Src/usb_pd_protocol.c **** 	enum pd_states last_state = pd[port].task_state;
 532              		.loc 1 327 1 is_stmt 0 view .LVU117
 533 0000 70B5     		push	{r4, r5, r6, lr}
 534              	.LCFI2:
 535              		.cfi_def_cfa_offset 16
 536              		.cfi_offset 4, -16
 537              		.cfi_offset 5, -12
 538              		.cfi_offset 6, -8
 539              		.cfi_offset 14, -4
 540 0002 0600     		movs	r6, r0
 328:Src/usb_pd_protocol.c **** #ifdef CONFIG_LOW_POWER_IDLE
 541              		.loc 1 328 2 is_stmt 1 view .LVU118
 328:Src/usb_pd_protocol.c **** #ifdef CONFIG_LOW_POWER_IDLE
ARM GAS  /tmp/ccoQIC4J.s 			page 47


 542              		.loc 1 328 17 is_stmt 0 view .LVU119
 543 0004 C201     		lsls	r2, r0, #7
 544 0006 194B     		ldr	r3, .L59
 545 0008 9B18     		adds	r3, r3, r2
 546 000a 1A79     		ldrb	r2, [r3, #4]
 547              	.LVL34:
 333:Src/usb_pd_protocol.c **** 	pd[port].task_state = next_state;
 548              		.loc 1 333 2 is_stmt 1 view .LVU120
 549              	.LBB154:
 550              	.LBI154:
 261:Src/usb_pd_protocol.c **** 				     uint64_t timeout,
 551              		.loc 1 261 20 view .LVU121
 552              	.LBB155:
 265:Src/usb_pd_protocol.c **** 	pd[port].timeout_state = timeout_state;
 553              		.loc 1 265 2 view .LVU122
 265:Src/usb_pd_protocol.c **** 	pd[port].timeout_state = timeout_state;
 554              		.loc 1 265 19 is_stmt 0 view .LVU123
 555 000c 0024     		movs	r4, #0
 556 000e 0025     		movs	r5, #0
 557 0010 1C61     		str	r4, [r3, #16]
 558 0012 5D61     		str	r5, [r3, #20]
 266:Src/usb_pd_protocol.c **** }
 559              		.loc 1 266 2 is_stmt 1 view .LVU124
 266:Src/usb_pd_protocol.c **** }
 560              		.loc 1 266 25 is_stmt 0 view .LVU125
 561 0014 0020     		movs	r0, #0
 562              	.LVL35:
 266:Src/usb_pd_protocol.c **** }
 563              		.loc 1 266 25 view .LVU126
 564 0016 D871     		strb	r0, [r3, #7]
 565              	.LVL36:
 266:Src/usb_pd_protocol.c **** }
 566              		.loc 1 266 25 view .LVU127
 567              	.LBE155:
 568              	.LBE154:
 334:Src/usb_pd_protocol.c **** 
 569              		.loc 1 334 2 is_stmt 1 view .LVU128
 334:Src/usb_pd_protocol.c **** 
 570              		.loc 1 334 22 is_stmt 0 view .LVU129
 571 0018 1971     		strb	r1, [r3, #4]
 336:Src/usb_pd_protocol.c **** 		return;
 572              		.loc 1 336 2 is_stmt 1 view .LVU130
 336:Src/usb_pd_protocol.c **** 		return;
 573              		.loc 1 336 5 is_stmt 0 view .LVU131
 574 001a 8A42     		cmp	r2, r1
 575 001c 07D0     		beq	.L50
 347:Src/usb_pd_protocol.c **** 	     next_state == PD_STATE_SRC_DISCONNECTED) ||
 576              		.loc 1 347 2 is_stmt 1 view .LVU132
 347:Src/usb_pd_protocol.c **** 	     next_state == PD_STATE_SRC_DISCONNECTED) ||
 577              		.loc 1 347 5 is_stmt 0 view .LVU133
 578 001e 022A     		cmp	r2, #2
 579 0020 06D0     		beq	.L56
 580              	.L52:
 348:Src/usb_pd_protocol.c **** 	    (last_state == PD_STATE_SRC_DISCONNECTED &&
 581              		.loc 1 348 48 view .LVU134
 582 0022 0E2A     		cmp	r2, #14
 583 0024 07D0     		beq	.L57
ARM GAS  /tmp/ccoQIC4J.s 			page 48


 584              	.L53:
 353:Src/usb_pd_protocol.c **** 	    next_state == PD_STATE_SNK_DISCONNECTED) {
 585              		.loc 1 353 2 is_stmt 1 view .LVU135
 353:Src/usb_pd_protocol.c **** 	    next_state == PD_STATE_SNK_DISCONNECTED) {
 586              		.loc 1 353 5 is_stmt 0 view .LVU136
 587 0026 0E29     		cmp	r1, #14
 588 0028 08D0     		beq	.L54
 353:Src/usb_pd_protocol.c **** 	    next_state == PD_STATE_SNK_DISCONNECTED) {
 589              		.loc 1 353 46 discriminator 1 view .LVU137
 590 002a 0229     		cmp	r1, #2
 591 002c 06D0     		beq	.L54
 592              	.LVL37:
 593              	.L50:
 425:Src/usb_pd_protocol.c **** 
 594              		.loc 1 425 1 view .LVU138
 595              		@ sp needed
 596              	.LVL38:
 425:Src/usb_pd_protocol.c **** 
 597              		.loc 1 425 1 view .LVU139
 598 002e 70BD     		pop	{r4, r5, r6, pc}
 599              	.LVL39:
 600              	.L56:
 347:Src/usb_pd_protocol.c **** 	     next_state == PD_STATE_SRC_DISCONNECTED) ||
 601              		.loc 1 347 47 discriminator 1 view .LVU140
 602 0030 0E29     		cmp	r1, #14
 603 0032 F6D1     		bne	.L52
 604 0034 FBE7     		b	.L50
 605              	.L57:
 349:Src/usb_pd_protocol.c **** 	     next_state == PD_STATE_SNK_DISCONNECTED))
 606              		.loc 1 349 47 view .LVU141
 607 0036 0229     		cmp	r1, #2
 608 0038 F5D1     		bne	.L53
 609 003a F8E7     		b	.L50
 610              	.L54:
 356:Src/usb_pd_protocol.c **** #ifdef CONFIG_CHARGE_MANAGER
 611              		.loc 1 356 3 is_stmt 1 view .LVU142
 612 003c 0022     		movs	r2, #0
 613              	.LVL40:
 356:Src/usb_pd_protocol.c **** #ifdef CONFIG_CHARGE_MANAGER
 614              		.loc 1 356 3 is_stmt 0 view .LVU143
 615 003e 0021     		movs	r1, #0
 616              	.LVL41:
 356:Src/usb_pd_protocol.c **** #ifdef CONFIG_CHARGE_MANAGER
 617              		.loc 1 356 3 view .LVU144
 618 0040 3000     		movs	r0, r6
 619 0042 FFF7FEFF 		bl	pd_set_input_current_limit
 620              	.LVL42:
 373:Src/usb_pd_protocol.c **** 			/*
 621              		.loc 1 373 3 is_stmt 1 view .LVU145
 373:Src/usb_pd_protocol.c **** 			/*
 622              		.loc 1 373 15 is_stmt 0 view .LVU146
 623 0046 F301     		lsls	r3, r6, #7
 624 0048 084A     		ldr	r2, .L59
 625 004a 9B5C     		ldrb	r3, [r3, r2]
 373:Src/usb_pd_protocol.c **** 			/*
 626              		.loc 1 373 6 view .LVU147
 627 004c 012B     		cmp	r3, #1
ARM GAS  /tmp/ccoQIC4J.s 			page 49


 628 004e 08D0     		beq	.L58
 629              	.L55:
 405:Src/usb_pd_protocol.c **** 	}
 630              		.loc 1 405 3 is_stmt 1 view .LVU148
 631              	.LVL43:
 632              	.LBB156:
 633              	.LBI156:
  91:Inc/tcpm.h    **** 						     data_role);
  92:Inc/tcpm.h    **** }
  93:Inc/tcpm.h    **** 
  94:Inc/tcpm.h    **** static inline int tcpm_set_rx_enable(int port, int enable)
 634              		.loc 2 94 19 view .LVU149
 635              	.LBB157:
  95:Inc/tcpm.h    **** {
  96:Inc/tcpm.h    **** 	return tcpc_config[port].drv->set_rx_enable(port, enable);
 636              		.loc 2 96 2 view .LVU150
 637              		.loc 2 96 26 is_stmt 0 view .LVU151
 638 0050 3201     		lsls	r2, r6, #4
 639 0052 074B     		ldr	r3, .L59+4
 640 0054 9B18     		adds	r3, r3, r2
 641 0056 9B68     		ldr	r3, [r3, #8]
 642              		.loc 2 96 30 view .LVU152
 643 0058 5B6A     		ldr	r3, [r3, #36]
 644              		.loc 2 96 9 view .LVU153
 645 005a 0021     		movs	r1, #0
 646 005c 3000     		movs	r0, r6
 647 005e 9847     		blx	r3
 648              	.LVL44:
 649 0060 E5E7     		b	.L50
 650              	.LVL45:
 651              	.L58:
 652              		.loc 2 96 9 view .LVU154
 653              	.LBE157:
 654              	.LBE156:
 378:Src/usb_pd_protocol.c **** #if !defined(CONFIG_USB_PD_MAX_SINGLE_SOURCE_CURRENT) && \
 655              		.loc 1 378 4 is_stmt 1 view .LVU155
 656 0062 3000     		movs	r0, r6
 657 0064 FFF7FEFF 		bl	pd_power_supply_reset
 658              	.LVL46:
 659 0068 F2E7     		b	.L55
 660              	.L60:
 661 006a C046     		.align	2
 662              	.L59:
 663 006c 00000000 		.word	pd
 664 0070 00000000 		.word	tcpc_config
 665              		.cfi_endproc
 666              	.LFE24:
 668              		.section	.text.queue_vdm,"ax",%progbits
 669              		.align	1
 670              		.syntax unified
 671              		.code	16
 672              		.thumb_func
 673              		.fpu softvfp
 675              	queue_vdm:
 676              	.LVL47:
 677              	.LFB33:
 838:Src/usb_pd_protocol.c **** 	pd[port].vdo_count = data_cnt + 1;
ARM GAS  /tmp/ccoQIC4J.s 			page 50


 678              		.loc 1 838 1 view -0
 679              		.cfi_startproc
 680              		@ args = 0, pretend = 0, frame = 0
 681              		@ frame_needed = 0, uses_anonymous_args = 0
 838:Src/usb_pd_protocol.c **** 	pd[port].vdo_count = data_cnt + 1;
 682              		.loc 1 838 1 is_stmt 0 view .LVU157
 683 0000 F8B5     		push	{r3, r4, r5, r6, r7, lr}
 684              	.LCFI3:
 685              		.cfi_def_cfa_offset 24
 686              		.cfi_offset 3, -24
 687              		.cfi_offset 4, -20
 688              		.cfi_offset 5, -16
 689              		.cfi_offset 6, -12
 690              		.cfi_offset 7, -8
 691              		.cfi_offset 14, -4
 692 0002 1500     		movs	r5, r2
 839:Src/usb_pd_protocol.c **** 	pd[port].vdo_data[0] = header[0];
 693              		.loc 1 839 2 is_stmt 1 view .LVU158
 839:Src/usb_pd_protocol.c **** 	pd[port].vdo_data[0] = header[0];
 694              		.loc 1 839 32 is_stmt 0 view .LVU159
 695 0004 5F1C     		adds	r7, r3, #1
 839:Src/usb_pd_protocol.c **** 	pd[port].vdo_data[0] = header[0];
 696              		.loc 1 839 21 view .LVU160
 697 0006 094A     		ldr	r2, .L62
 698              	.LVL48:
 839:Src/usb_pd_protocol.c **** 	pd[port].vdo_data[0] = header[0];
 699              		.loc 1 839 21 view .LVU161
 700 0008 C001     		lsls	r0, r0, #7
 701              	.LVL49:
 839:Src/usb_pd_protocol.c **** 	pd[port].vdo_data[0] = header[0];
 702              		.loc 1 839 21 view .LVU162
 703 000a 1418     		adds	r4, r2, r0
 704 000c 2600     		movs	r6, r4
 705 000e 7436     		adds	r6, r6, #116
 706 0010 3770     		strb	r7, [r6]
 840:Src/usb_pd_protocol.c **** 	memcpy(&pd[port].vdo_data[1], data, sizeof(uint32_t) * data_cnt);
 707              		.loc 1 840 2 is_stmt 1 view .LVU163
 840:Src/usb_pd_protocol.c **** 	memcpy(&pd[port].vdo_data[1], data, sizeof(uint32_t) * data_cnt);
 708              		.loc 1 840 31 is_stmt 0 view .LVU164
 709 0012 0968     		ldr	r1, [r1]
 710              	.LVL50:
 840:Src/usb_pd_protocol.c **** 	memcpy(&pd[port].vdo_data[1], data, sizeof(uint32_t) * data_cnt);
 711              		.loc 1 840 31 view .LVU165
 712 0014 A165     		str	r1, [r4, #88]
 841:Src/usb_pd_protocol.c **** 	/* Set ready, pd task will actually send */
 713              		.loc 1 841 2 is_stmt 1 view .LVU166
 841:Src/usb_pd_protocol.c **** 	/* Set ready, pd task will actually send */
 714              		.loc 1 841 9 is_stmt 0 view .LVU167
 715 0016 5C30     		adds	r0, r0, #92
 716 0018 8018     		adds	r0, r0, r2
 841:Src/usb_pd_protocol.c **** 	/* Set ready, pd task will actually send */
 717              		.loc 1 841 2 view .LVU168
 718 001a 9A00     		lsls	r2, r3, #2
 719 001c 2900     		movs	r1, r5
 720 001e FFF7FEFF 		bl	memcpy
 721              	.LVL51:
 843:Src/usb_pd_protocol.c **** }
ARM GAS  /tmp/ccoQIC4J.s 			page 51


 722              		.loc 1 843 2 is_stmt 1 view .LVU169
 843:Src/usb_pd_protocol.c **** }
 723              		.loc 1 843 21 is_stmt 0 view .LVU170
 724 0022 4834     		adds	r4, r4, #72
 725 0024 0123     		movs	r3, #1
 726 0026 2370     		strb	r3, [r4]
 844:Src/usb_pd_protocol.c **** 
 727              		.loc 1 844 1 view .LVU171
 728              		@ sp needed
 729              	.LVL52:
 730              	.LVL53:
 844:Src/usb_pd_protocol.c **** 
 731              		.loc 1 844 1 view .LVU172
 732 0028 F8BD     		pop	{r3, r4, r5, r6, r7, pc}
 733              	.L63:
 734 002a C046     		.align	2
 735              	.L62:
 736 002c 00000000 		.word	pd
 737              		.cfi_endproc
 738              	.LFE33:
 740              		.section	.text.handle_vdm_request,"ax",%progbits
 741              		.align	1
 742              		.syntax unified
 743              		.code	16
 744              		.thumb_func
 745              		.fpu softvfp
 747              	handle_vdm_request:
 748              	.LVL54:
 749              	.LFB34:
 847:Src/usb_pd_protocol.c **** 	int rlen = 0;
 750              		.loc 1 847 1 is_stmt 1 view -0
 751              		.cfi_startproc
 752              		@ args = 0, pretend = 0, frame = 16
 753              		@ frame_needed = 0, uses_anonymous_args = 0
 847:Src/usb_pd_protocol.c **** 	int rlen = 0;
 754              		.loc 1 847 1 is_stmt 0 view .LVU174
 755 0000 30B5     		push	{r4, r5, lr}
 756              	.LCFI4:
 757              		.cfi_def_cfa_offset 12
 758              		.cfi_offset 4, -12
 759              		.cfi_offset 5, -8
 760              		.cfi_offset 14, -4
 761 0002 85B0     		sub	sp, sp, #20
 762              	.LCFI5:
 763              		.cfi_def_cfa_offset 32
 764 0004 0400     		movs	r4, r0
 765 0006 1500     		movs	r5, r2
 848:Src/usb_pd_protocol.c **** 	uint32_t *rdata;
 766              		.loc 1 848 2 is_stmt 1 view .LVU175
 767              	.LVL55:
 849:Src/usb_pd_protocol.c **** 
 768              		.loc 1 849 2 view .LVU176
 851:Src/usb_pd_protocol.c **** 		/* If UFP responded busy retry after timeout */
 769              		.loc 1 851 2 view .LVU177
 851:Src/usb_pd_protocol.c **** 		/* If UFP responded busy retry after timeout */
 770              		.loc 1 851 14 is_stmt 0 view .LVU178
 771 0008 C201     		lsls	r2, r0, #7
ARM GAS  /tmp/ccoQIC4J.s 			page 52


 772              	.LVL56:
 851:Src/usb_pd_protocol.c **** 		/* If UFP responded busy retry after timeout */
 773              		.loc 1 851 14 view .LVU179
 774 000a 224B     		ldr	r3, .L75
 775 000c 9B18     		adds	r3, r3, r2
 776 000e 4833     		adds	r3, r3, #72
 777 0010 1B78     		ldrb	r3, [r3]
 778 0012 5BB2     		sxtb	r3, r3
 851:Src/usb_pd_protocol.c **** 		/* If UFP responded busy retry after timeout */
 779              		.loc 1 851 5 view .LVU180
 780 0014 022B     		cmp	r3, #2
 781 0016 0BD0     		beq	.L72
 782              	.L65:
 865:Src/usb_pd_protocol.c **** 		rlen = pd_svdm(port, cnt, payload, &rdata);
 783              		.loc 1 865 2 is_stmt 1 view .LVU181
 865:Src/usb_pd_protocol.c **** 		rlen = pd_svdm(port, cnt, payload, &rdata);
 784              		.loc 1 865 5 is_stmt 0 view .LVU182
 785 0018 2B68     		ldr	r3, [r5]
 786 001a 1B04     		lsls	r3, r3, #16
 787 001c 2CD5     		bpl	.L68
 866:Src/usb_pd_protocol.c **** 	else
 788              		.loc 1 866 3 is_stmt 1 view .LVU183
 866:Src/usb_pd_protocol.c **** 	else
 789              		.loc 1 866 10 is_stmt 0 view .LVU184
 790 001e 03AB     		add	r3, sp, #12
 791 0020 2A00     		movs	r2, r5
 792 0022 2000     		movs	r0, r4
 793              	.LVL57:
 866:Src/usb_pd_protocol.c **** 	else
 794              		.loc 1 866 10 view .LVU185
 795 0024 FFF7FEFF 		bl	pd_svdm
 796              	.LVL58:
 797              	.L69:
 870:Src/usb_pd_protocol.c **** 		queue_vdm(port, rdata, &rdata[1], rlen - 1);
 798              		.loc 1 870 2 is_stmt 1 view .LVU186
 870:Src/usb_pd_protocol.c **** 		queue_vdm(port, rdata, &rdata[1], rlen - 1);
 799              		.loc 1 870 5 is_stmt 0 view .LVU187
 800 0028 0028     		cmp	r0, #0
 801 002a 2BDC     		bgt	.L73
 802              	.LVL59:
 803              	.L64:
 877:Src/usb_pd_protocol.c **** 
 804              		.loc 1 877 1 view .LVU188
 805 002c 05B0     		add	sp, sp, #20
 806              		@ sp needed
 807              	.LVL60:
 877:Src/usb_pd_protocol.c **** 
 808              		.loc 1 877 1 view .LVU189
 809 002e 30BD     		pop	{r4, r5, pc}
 810              	.LVL61:
 811              	.L72:
 853:Src/usb_pd_protocol.c **** 			pd[port].vdm_timeout.val = get_time().val +
 812              		.loc 1 853 3 is_stmt 1 view .LVU190
 853:Src/usb_pd_protocol.c **** 			pd[port].vdm_timeout.val = get_time().val +
 813              		.loc 1 853 7 is_stmt 0 view .LVU191
 814 0030 2B68     		ldr	r3, [r5]
 815 0032 9A09     		lsrs	r2, r3, #6
ARM GAS  /tmp/ccoQIC4J.s 			page 53


 816 0034 0323     		movs	r3, #3
 817 0036 1340     		ands	r3, r2
 853:Src/usb_pd_protocol.c **** 			pd[port].vdm_timeout.val = get_time().val +
 818              		.loc 1 853 6 view .LVU192
 819 0038 032B     		cmp	r3, #3
 820 003a 06D0     		beq	.L74
 861:Src/usb_pd_protocol.c **** 		}
 821              		.loc 1 861 4 is_stmt 1 view .LVU193
 861:Src/usb_pd_protocol.c **** 		}
 822              		.loc 1 861 23 is_stmt 0 view .LVU194
 823 003c C201     		lsls	r2, r0, #7
 824 003e 154B     		ldr	r3, .L75
 825 0040 9B18     		adds	r3, r3, r2
 826 0042 4833     		adds	r3, r3, #72
 827 0044 0022     		movs	r2, #0
 828 0046 1A70     		strb	r2, [r3]
 829 0048 E6E7     		b	.L65
 830              	.L74:
 854:Src/usb_pd_protocol.c **** 				PD_T_VDM_BUSY;
 831              		.loc 1 854 4 is_stmt 1 view .LVU195
 854:Src/usb_pd_protocol.c **** 				PD_T_VDM_BUSY;
 832              		.loc 1 854 31 is_stmt 0 view .LVU196
 833 004a 6846     		mov	r0, sp
 834              	.LVL62:
 854:Src/usb_pd_protocol.c **** 				PD_T_VDM_BUSY;
 835              		.loc 1 854 31 view .LVU197
 836 004c FFF7FEFF 		bl	get_time
 837              	.LVL63:
 854:Src/usb_pd_protocol.c **** 				PD_T_VDM_BUSY;
 838              		.loc 1 854 46 view .LVU198
 839 0050 114A     		ldr	r2, .L75+4
 840 0052 0023     		movs	r3, #0
 841 0054 0098     		ldr	r0, [sp]
 842 0056 0199     		ldr	r1, [sp, #4]
 843 0058 1218     		adds	r2, r2, r0
 844 005a 4B41     		adcs	r3, r3, r1
 854:Src/usb_pd_protocol.c **** 				PD_T_VDM_BUSY;
 845              		.loc 1 854 29 view .LVU199
 846 005c E401     		lsls	r4, r4, #7
 847              	.LVL64:
 854:Src/usb_pd_protocol.c **** 				PD_T_VDM_BUSY;
 848              		.loc 1 854 29 view .LVU200
 849 005e 0D49     		ldr	r1, .L75
 850 0060 0C19     		adds	r4, r1, r4
 851 0062 2265     		str	r2, [r4, #80]
 852 0064 6365     		str	r3, [r4, #84]
 856:Src/usb_pd_protocol.c **** 			pd[port].vdo_retry = (payload[0] & ~VDO_CMDT_MASK) |
 853              		.loc 1 856 4 is_stmt 1 view .LVU201
 856:Src/usb_pd_protocol.c **** 			pd[port].vdo_retry = (payload[0] & ~VDO_CMDT_MASK) |
 854              		.loc 1 856 23 is_stmt 0 view .LVU202
 855 0066 2300     		movs	r3, r4
 856 0068 4833     		adds	r3, r3, #72
 857 006a 0322     		movs	r2, #3
 858 006c 1A70     		strb	r2, [r3]
 857:Src/usb_pd_protocol.c **** 				CMDT_INIT;
 859              		.loc 1 857 4 is_stmt 1 view .LVU203
 857:Src/usb_pd_protocol.c **** 				CMDT_INIT;
ARM GAS  /tmp/ccoQIC4J.s 			page 54


 860              		.loc 1 857 33 is_stmt 0 view .LVU204
 861 006e 2B68     		ldr	r3, [r5]
 857:Src/usb_pd_protocol.c **** 				CMDT_INIT;
 862              		.loc 1 857 55 view .LVU205
 863 0070 BD32     		adds	r2, r2, #189
 864 0072 9343     		bics	r3, r2
 857:Src/usb_pd_protocol.c **** 				CMDT_INIT;
 865              		.loc 1 857 23 view .LVU206
 866 0074 A367     		str	r3, [r4, #120]
 859:Src/usb_pd_protocol.c **** 		} else {
 867              		.loc 1 859 4 is_stmt 1 view .LVU207
 868 0076 D9E7     		b	.L64
 869              	.LVL65:
 870              	.L68:
 868:Src/usb_pd_protocol.c **** 
 871              		.loc 1 868 3 view .LVU208
 868:Src/usb_pd_protocol.c **** 
 872              		.loc 1 868 10 is_stmt 0 view .LVU209
 873 0078 03AB     		add	r3, sp, #12
 874 007a 2A00     		movs	r2, r5
 875 007c 2000     		movs	r0, r4
 876              	.LVL66:
 868:Src/usb_pd_protocol.c **** 
 877              		.loc 1 868 10 view .LVU210
 878 007e FFF7FEFF 		bl	pd_custom_vdm
 879              	.LVL67:
 868:Src/usb_pd_protocol.c **** 
 880              		.loc 1 868 10 view .LVU211
 881 0082 D1E7     		b	.L69
 882              	.L73:
 871:Src/usb_pd_protocol.c **** 		return;
 883              		.loc 1 871 3 is_stmt 1 view .LVU212
 871:Src/usb_pd_protocol.c **** 		return;
 884              		.loc 1 871 26 is_stmt 0 view .LVU213
 885 0084 039B     		ldr	r3, [sp, #12]
 886 0086 1A1D     		adds	r2, r3, #4
 871:Src/usb_pd_protocol.c **** 		return;
 887              		.loc 1 871 3 view .LVU214
 888 0088 431E     		subs	r3, r0, #1
 889 008a 0399     		ldr	r1, [sp, #12]
 890 008c 2000     		movs	r0, r4
 891              	.LVL68:
 871:Src/usb_pd_protocol.c **** 		return;
 892              		.loc 1 871 3 view .LVU215
 893 008e FFF7FEFF 		bl	queue_vdm
 894              	.LVL69:
 872:Src/usb_pd_protocol.c **** 	}
 895              		.loc 1 872 3 is_stmt 1 view .LVU216
 896 0092 CBE7     		b	.L64
 897              	.L76:
 898              		.align	2
 899              	.L75:
 900 0094 00000000 		.word	pd
 901 0098 A0860100 		.word	100000
 902              		.cfi_endproc
 903              	.LFE34:
 905              		.section	.text.pd_set_data_role,"ax",%progbits
ARM GAS  /tmp/ccoQIC4J.s 			page 55


 906              		.align	1
 907              		.syntax unified
 908              		.code	16
 909              		.thumb_func
 910              		.fpu softvfp
 912              	pd_set_data_role:
 913              	.LVL70:
 914              	.LFB43:
1242:Src/usb_pd_protocol.c **** 	pd[port].data_role = role;
 915              		.loc 1 1242 1 view -0
 916              		.cfi_startproc
 917              		@ args = 0, pretend = 0, frame = 0
 918              		@ frame_needed = 0, uses_anonymous_args = 0
1242:Src/usb_pd_protocol.c **** 	pd[port].data_role = role;
 919              		.loc 1 1242 1 is_stmt 0 view .LVU218
 920 0000 10B5     		push	{r4, lr}
 921              	.LCFI6:
 922              		.cfi_def_cfa_offset 8
 923              		.cfi_offset 4, -8
 924              		.cfi_offset 14, -4
 925 0002 0400     		movs	r4, r0
1243:Src/usb_pd_protocol.c **** 	pd_execute_data_swap(port, role);
 926              		.loc 1 1243 2 is_stmt 1 view .LVU219
1243:Src/usb_pd_protocol.c **** 	pd_execute_data_swap(port, role);
 927              		.loc 1 1243 21 is_stmt 0 view .LVU220
 928 0004 C201     		lsls	r2, r0, #7
 929 0006 044B     		ldr	r3, .L78
 930 0008 9B18     		adds	r3, r3, r2
 931 000a 5970     		strb	r1, [r3, #1]
1244:Src/usb_pd_protocol.c **** 
 932              		.loc 1 1244 2 is_stmt 1 view .LVU221
 933 000c FFF7FEFF 		bl	pd_execute_data_swap
 934              	.LVL71:
1263:Src/usb_pd_protocol.c **** }
 935              		.loc 1 1263 2 view .LVU222
 936 0010 2000     		movs	r0, r4
 937 0012 FFF7FEFF 		bl	pd_update_roles
 938              	.LVL72:
1264:Src/usb_pd_protocol.c **** 
 939              		.loc 1 1264 1 is_stmt 0 view .LVU223
 940              		@ sp needed
 941              	.LVL73:
1264:Src/usb_pd_protocol.c **** 
 942              		.loc 1 1264 1 view .LVU224
 943 0016 10BD     		pop	{r4, pc}
 944              	.L79:
 945              		.align	2
 946              	.L78:
 947 0018 00000000 		.word	pd
 948              		.cfi_endproc
 949              	.LFE43:
 951              		.section	.text.pd_dr_swap,"ax",%progbits
 952              		.align	1
 953              		.syntax unified
 954              		.code	16
 955              		.thumb_func
 956              		.fpu softvfp
ARM GAS  /tmp/ccoQIC4J.s 			page 56


 958              	pd_dr_swap:
 959              	.LVL74:
 960              	.LFB44:
1267:Src/usb_pd_protocol.c **** 	pd_set_data_role(port, !pd[port].data_role);
 961              		.loc 1 1267 1 is_stmt 1 view -0
 962              		.cfi_startproc
 963              		@ args = 0, pretend = 0, frame = 0
 964              		@ frame_needed = 0, uses_anonymous_args = 0
1267:Src/usb_pd_protocol.c **** 	pd_set_data_role(port, !pd[port].data_role);
 965              		.loc 1 1267 1 is_stmt 0 view .LVU226
 966 0000 10B5     		push	{r4, lr}
 967              	.LCFI7:
 968              		.cfi_def_cfa_offset 8
 969              		.cfi_offset 4, -8
 970              		.cfi_offset 14, -4
1268:Src/usb_pd_protocol.c **** 	pd[port].flags |= PD_FLAGS_CHECK_IDENTITY;
 971              		.loc 1 1268 2 is_stmt 1 view .LVU227
1268:Src/usb_pd_protocol.c **** 	pd[port].flags |= PD_FLAGS_CHECK_IDENTITY;
 972              		.loc 1 1268 34 is_stmt 0 view .LVU228
 973 0002 C301     		lsls	r3, r0, #7
 974 0004 054C     		ldr	r4, .L81
 975 0006 E418     		adds	r4, r4, r3
 976 0008 6178     		ldrb	r1, [r4, #1]
1268:Src/usb_pd_protocol.c **** 	pd[port].flags |= PD_FLAGS_CHECK_IDENTITY;
 977              		.loc 1 1268 2 view .LVU229
 978 000a 4B42     		rsbs	r3, r1, #0
 979 000c 5941     		adcs	r1, r1, r3
 980 000e FFF7FEFF 		bl	pd_set_data_role
 981              	.LVL75:
1269:Src/usb_pd_protocol.c **** }
 982              		.loc 1 1269 2 is_stmt 1 view .LVU230
1269:Src/usb_pd_protocol.c **** }
 983              		.loc 1 1269 17 is_stmt 0 view .LVU231
 984 0012 0823     		movs	r3, #8
 985 0014 A268     		ldr	r2, [r4, #8]
 986 0016 1343     		orrs	r3, r2
 987 0018 A360     		str	r3, [r4, #8]
1270:Src/usb_pd_protocol.c **** 
 988              		.loc 1 1270 1 view .LVU232
 989              		@ sp needed
 990 001a 10BD     		pop	{r4, pc}
 991              	.L82:
 992              		.align	2
 993              	.L81:
 994 001c 00000000 		.word	pd
 995              		.cfi_endproc
 996              	.LFE44:
 998              		.section	.text.pd_restart_tcpc,"ax",%progbits
 999              		.align	1
 1000              		.syntax unified
 1001              		.code	16
 1002              		.thumb_func
 1003              		.fpu softvfp
 1005              	pd_restart_tcpc:
 1006              	.LVL76:
 1007              	.LFB65:
1975:Src/usb_pd_protocol.c **** 
ARM GAS  /tmp/ccoQIC4J.s 			page 57


1976:Src/usb_pd_protocol.c **** /**
1977:Src/usb_pd_protocol.c ****  * Signal power request to indicate a charger update that affects the port.
1978:Src/usb_pd_protocol.c ****  */
1979:Src/usb_pd_protocol.c **** void pd_set_new_power_request(int port)
1980:Src/usb_pd_protocol.c **** {
1981:Src/usb_pd_protocol.c **** 	pd[port].new_power_request = 1;
1982:Src/usb_pd_protocol.c **** 	// getting rid of task stuff
1983:Src/usb_pd_protocol.c **** 	//task_wake(PD_PORT_TO_TASK_ID(port));
1984:Src/usb_pd_protocol.c **** }
1985:Src/usb_pd_protocol.c **** #endif /* CONFIG_CHARGE_MANAGER */
1986:Src/usb_pd_protocol.c **** 
1987:Src/usb_pd_protocol.c **** #if defined(CONFIG_USBC_BACKWARDS_COMPATIBLE_DFP) && defined(CONFIG_USBC_SS_MUX)
1988:Src/usb_pd_protocol.c **** /*
1989:Src/usb_pd_protocol.c ****  * Backwards compatible DFP does not support USB SS because it applies VBUS
1990:Src/usb_pd_protocol.c ****  * before debouncing CC and setting USB SS muxes, but SS detection will fail
1991:Src/usb_pd_protocol.c ****  * before we are done debouncing CC.
1992:Src/usb_pd_protocol.c ****  */
1993:Src/usb_pd_protocol.c **** #error "Backwards compatible DFP does not support USB"
1994:Src/usb_pd_protocol.c **** #endif
1995:Src/usb_pd_protocol.c **** 
1996:Src/usb_pd_protocol.c **** #ifdef CONFIG_COMMON_RUNTIME
1997:Src/usb_pd_protocol.c **** 
1998:Src/usb_pd_protocol.c **** /* Initialize globals based on system state. */
1999:Src/usb_pd_protocol.c **** static void pd_init_tasks(void)
2000:Src/usb_pd_protocol.c **** {
2001:Src/usb_pd_protocol.c **** 	static int initialized;
2002:Src/usb_pd_protocol.c **** 	int enable = 1;
2003:Src/usb_pd_protocol.c **** 	int i;
2004:Src/usb_pd_protocol.c **** 
2005:Src/usb_pd_protocol.c **** 	/* Initialize globals once, for all PD tasks.  */
2006:Src/usb_pd_protocol.c **** 	if (initialized)
2007:Src/usb_pd_protocol.c **** 		return;
2008:Src/usb_pd_protocol.c **** 
2009:Src/usb_pd_protocol.c **** #if defined(HAS_TASK_CHIPSET) && defined(CONFIG_USB_PD_DUAL_ROLE)
2010:Src/usb_pd_protocol.c **** 	/* Set dual-role state based on chipset power state */
2011:Src/usb_pd_protocol.c **** 	if (chipset_in_state(CHIPSET_STATE_ANY_OFF))
2012:Src/usb_pd_protocol.c **** 		drp_state = PD_DRP_FORCE_SINK;
2013:Src/usb_pd_protocol.c **** 	else if (chipset_in_state(CHIPSET_STATE_SUSPEND))
2014:Src/usb_pd_protocol.c **** 		drp_state = PD_DRP_TOGGLE_OFF;
2015:Src/usb_pd_protocol.c **** 	else /* CHIPSET_STATE_ON */
2016:Src/usb_pd_protocol.c **** 		drp_state = PD_DRP_TOGGLE_ON;
2017:Src/usb_pd_protocol.c **** #endif
2018:Src/usb_pd_protocol.c **** 
2019:Src/usb_pd_protocol.c **** #if defined(CONFIG_USB_PD_COMM_DISABLED)
2020:Src/usb_pd_protocol.c **** 	enable = 0;
2021:Src/usb_pd_protocol.c **** #elif defined(CONFIG_USB_PD_COMM_LOCKED)
2022:Src/usb_pd_protocol.c **** 	/* Disable PD communication at init if we're in RO and locked. */
2023:Src/usb_pd_protocol.c **** 	if (!system_is_in_rw() && system_is_locked())
2024:Src/usb_pd_protocol.c **** 		enable = 0;
2025:Src/usb_pd_protocol.c **** #endif
2026:Src/usb_pd_protocol.c **** 	for (i = 0; i < CONFIG_USB_PD_PORT_COUNT; i++)
2027:Src/usb_pd_protocol.c **** 		pd_comm_enabled[i] = enable;
2028:Src/usb_pd_protocol.c **** 	CPRINTS("PD comm %sabled", enable ? "en" : "dis");
2029:Src/usb_pd_protocol.c **** 
2030:Src/usb_pd_protocol.c **** 	initialized = 1;
2031:Src/usb_pd_protocol.c **** }
2032:Src/usb_pd_protocol.c **** #endif /* CONFIG_COMMON_RUNTIME */
ARM GAS  /tmp/ccoQIC4J.s 			page 58


2033:Src/usb_pd_protocol.c **** 
2034:Src/usb_pd_protocol.c **** #ifndef CONFIG_USB_PD_TCPC
2035:Src/usb_pd_protocol.c **** static int pd_restart_tcpc(int port)
2036:Src/usb_pd_protocol.c **** {
 1008              		.loc 1 2036 1 is_stmt 1 view -0
 1009              		.cfi_startproc
 1010              		@ args = 0, pretend = 0, frame = 0
 1011              		@ frame_needed = 0, uses_anonymous_args = 0
 1012              		.loc 1 2036 1 is_stmt 0 view .LVU234
 1013 0000 10B5     		push	{r4, lr}
 1014              	.LCFI8:
 1015              		.cfi_def_cfa_offset 8
 1016              		.cfi_offset 4, -8
 1017              		.cfi_offset 14, -4
 1018 0002 0400     		movs	r4, r0
2037:Src/usb_pd_protocol.c **** 	if (board_set_tcpc_power_mode) {
 1019              		.loc 1 2037 2 is_stmt 1 view .LVU235
 1020              		.loc 1 2037 5 is_stmt 0 view .LVU236
 1021 0004 0A4B     		ldr	r3, .L86
 1022 0006 002B     		cmp	r3, #0
 1023 0008 02D0     		beq	.L84
2038:Src/usb_pd_protocol.c **** 		/* force chip reset */
2039:Src/usb_pd_protocol.c **** 		board_set_tcpc_power_mode(port, 0);
 1024              		.loc 1 2039 3 is_stmt 1 view .LVU237
 1025 000a 0021     		movs	r1, #0
 1026 000c FFF7FEFF 		bl	board_set_tcpc_power_mode
 1027              	.LVL77:
 1028              	.L84:
2040:Src/usb_pd_protocol.c **** 	}
2041:Src/usb_pd_protocol.c **** 	return tcpm_init(port);
 1029              		.loc 1 2041 2 view .LVU238
 1030              	.LBB160:
 1031              	.LBI160:
  38:Inc/tcpm.h    **** {
 1032              		.loc 2 38 19 view .LVU239
 1033              	.LBB161:
  40:Inc/tcpm.h    **** 
 1034              		.loc 2 40 2 view .LVU240
  42:Inc/tcpm.h    **** 	if (rv)
 1035              		.loc 2 42 2 view .LVU241
  42:Inc/tcpm.h    **** 	if (rv)
 1036              		.loc 2 42 24 is_stmt 0 view .LVU242
 1037 0010 2201     		lsls	r2, r4, #4
 1038 0012 084B     		ldr	r3, .L86+4
 1039 0014 9B18     		adds	r3, r3, r2
 1040 0016 9B68     		ldr	r3, [r3, #8]
  42:Inc/tcpm.h    **** 	if (rv)
 1041              		.loc 2 42 28 view .LVU243
 1042 0018 1B68     		ldr	r3, [r3]
  42:Inc/tcpm.h    **** 	if (rv)
 1043              		.loc 2 42 7 view .LVU244
 1044 001a 2000     		movs	r0, r4
 1045 001c 9847     		blx	r3
 1046              	.LVL78:
  43:Inc/tcpm.h    **** 		return rv;
 1047              		.loc 2 43 2 is_stmt 1 view .LVU245
  43:Inc/tcpm.h    **** 		return rv;
ARM GAS  /tmp/ccoQIC4J.s 			page 59


 1048              		.loc 2 43 5 is_stmt 0 view .LVU246
 1049 001e 0028     		cmp	r0, #0
 1050 0020 05D1     		bne	.L83
  47:Inc/tcpm.h    **** 		rv = board_tcpc_post_init(port);
 1051              		.loc 2 47 2 is_stmt 1 view .LVU247
  47:Inc/tcpm.h    **** 		rv = board_tcpc_post_init(port);
 1052              		.loc 2 47 5 is_stmt 0 view .LVU248
 1053 0022 054B     		ldr	r3, .L86+8
 1054 0024 002B     		cmp	r3, #0
 1055 0026 02D0     		beq	.L83
  48:Inc/tcpm.h    **** 
 1056              		.loc 2 48 3 is_stmt 1 view .LVU249
  48:Inc/tcpm.h    **** 
 1057              		.loc 2 48 8 is_stmt 0 view .LVU250
 1058 0028 2000     		movs	r0, r4
 1059              	.LVL79:
  48:Inc/tcpm.h    **** 
 1060              		.loc 2 48 8 view .LVU251
 1061 002a FFF7FEFF 		bl	board_tcpc_post_init
 1062              	.LVL80:
 1063              	.L83:
  48:Inc/tcpm.h    **** 
 1064              		.loc 2 48 8 view .LVU252
 1065              	.LBE161:
 1066              	.LBE160:
2042:Src/usb_pd_protocol.c **** }
 1067              		.loc 1 2042 1 view .LVU253
 1068              		@ sp needed
 1069              	.LVL81:
 1070              		.loc 1 2042 1 view .LVU254
 1071 002e 10BD     		pop	{r4, pc}
 1072              	.L87:
 1073              		.align	2
 1074              	.L86:
 1075 0030 00000000 		.word	board_set_tcpc_power_mode
 1076 0034 00000000 		.word	tcpc_config
 1077 0038 00000000 		.word	board_tcpc_post_init
 1078              		.cfi_endproc
 1079              	.LFE65:
 1081              		.section	.text.execute_soft_reset,"ax",%progbits
 1082              		.align	1
 1083              		.syntax unified
 1084              		.code	16
 1085              		.thumb_func
 1086              		.fpu softvfp
 1088              	execute_soft_reset:
 1089              	.LVL82:
 1090              	.LFB36:
 933:Src/usb_pd_protocol.c **** 	pd[port].msg_id = 0;
 1091              		.loc 1 933 1 is_stmt 1 view -0
 1092              		.cfi_startproc
 1093              		@ args = 0, pretend = 0, frame = 0
 1094              		@ frame_needed = 0, uses_anonymous_args = 0
 933:Src/usb_pd_protocol.c **** 	pd[port].msg_id = 0;
 1095              		.loc 1 933 1 is_stmt 0 view .LVU256
 1096 0000 D0B5     		push	{r4, r6, r7, lr}
 1097              	.LCFI9:
ARM GAS  /tmp/ccoQIC4J.s 			page 60


 1098              		.cfi_def_cfa_offset 16
 1099              		.cfi_offset 4, -16
 1100              		.cfi_offset 6, -12
 1101              		.cfi_offset 7, -8
 1102              		.cfi_offset 14, -4
 1103 0002 0400     		movs	r4, r0
 934:Src/usb_pd_protocol.c **** 	set_state(port, DUAL_ROLE_IF_ELSE(port, PD_STATE_SNK_DISCOVERY,
 1104              		.loc 1 934 2 is_stmt 1 view .LVU257
 934:Src/usb_pd_protocol.c **** 	set_state(port, DUAL_ROLE_IF_ELSE(port, PD_STATE_SNK_DISCOVERY,
 1105              		.loc 1 934 18 is_stmt 0 view .LVU258
 1106 0004 1B4B     		ldr	r3, .L97
 1107 0006 C201     		lsls	r2, r0, #7
 1108 0008 9918     		adds	r1, r3, r2
 1109 000a 0020     		movs	r0, #0
 1110              	.LVL83:
 934:Src/usb_pd_protocol.c **** 	set_state(port, DUAL_ROLE_IF_ELSE(port, PD_STATE_SNK_DISCOVERY,
 1111              		.loc 1 934 18 view .LVU259
 1112 000c 8870     		strb	r0, [r1, #2]
 935:Src/usb_pd_protocol.c **** 						PD_STATE_SRC_DISCOVERY));
 1113              		.loc 1 935 2 is_stmt 1 view .LVU260
 935:Src/usb_pd_protocol.c **** 						PD_STATE_SRC_DISCOVERY));
 1114              		.loc 1 935 18 is_stmt 0 view .LVU261
 1115 000e D35C     		ldrb	r3, [r2, r3]
 935:Src/usb_pd_protocol.c **** 						PD_STATE_SRC_DISCOVERY));
 1116              		.loc 1 935 2 view .LVU262
 1117 0010 002B     		cmp	r3, #0
 1118 0012 12D1     		bne	.L93
 1119 0014 0521     		movs	r1, #5
 1120              	.L89:
 1121              	.LVL84:
 1122              	.LBB168:
 1123              	.LBI168:
 326:Src/usb_pd_protocol.c **** {
 1124              		.loc 1 326 20 is_stmt 1 discriminator 4 view .LVU263
 1125              	.LBB169:
 328:Src/usb_pd_protocol.c **** #ifdef CONFIG_LOW_POWER_IDLE
 1126              		.loc 1 328 2 discriminator 4 view .LVU264
 328:Src/usb_pd_protocol.c **** #ifdef CONFIG_LOW_POWER_IDLE
 1127              		.loc 1 328 17 is_stmt 0 discriminator 4 view .LVU265
 1128 0016 E201     		lsls	r2, r4, #7
 1129 0018 164B     		ldr	r3, .L97
 1130 001a 9B18     		adds	r3, r3, r2
 1131 001c 1A79     		ldrb	r2, [r3, #4]
 1132              	.LVL85:
 333:Src/usb_pd_protocol.c **** 	pd[port].task_state = next_state;
 1133              		.loc 1 333 2 is_stmt 1 discriminator 4 view .LVU266
 1134              	.LBB170:
 1135              	.LBI170:
 261:Src/usb_pd_protocol.c **** 				     uint64_t timeout,
 1136              		.loc 1 261 20 discriminator 4 view .LVU267
 1137              	.LBB171:
 265:Src/usb_pd_protocol.c **** 	pd[port].timeout_state = timeout_state;
 1138              		.loc 1 265 2 discriminator 4 view .LVU268
 265:Src/usb_pd_protocol.c **** 	pd[port].timeout_state = timeout_state;
 1139              		.loc 1 265 19 is_stmt 0 discriminator 4 view .LVU269
 1140 001e 0026     		movs	r6, #0
 1141 0020 0027     		movs	r7, #0
ARM GAS  /tmp/ccoQIC4J.s 			page 61


 1142 0022 1E61     		str	r6, [r3, #16]
 1143 0024 5F61     		str	r7, [r3, #20]
 266:Src/usb_pd_protocol.c **** }
 1144              		.loc 1 266 2 is_stmt 1 discriminator 4 view .LVU270
 266:Src/usb_pd_protocol.c **** }
 1145              		.loc 1 266 25 is_stmt 0 discriminator 4 view .LVU271
 1146 0026 0020     		movs	r0, #0
 1147 0028 D871     		strb	r0, [r3, #7]
 1148              	.LVL86:
 266:Src/usb_pd_protocol.c **** }
 1149              		.loc 1 266 25 discriminator 4 view .LVU272
 1150              	.LBE171:
 1151              	.LBE170:
 334:Src/usb_pd_protocol.c **** 
 1152              		.loc 1 334 2 is_stmt 1 discriminator 4 view .LVU273
 334:Src/usb_pd_protocol.c **** 
 1153              		.loc 1 334 22 is_stmt 0 discriminator 4 view .LVU274
 1154 002a 1971     		strb	r1, [r3, #4]
 336:Src/usb_pd_protocol.c **** 		return;
 1155              		.loc 1 336 2 is_stmt 1 discriminator 4 view .LVU275
 336:Src/usb_pd_protocol.c **** 		return;
 1156              		.loc 1 336 5 is_stmt 0 discriminator 4 view .LVU276
 1157 002c 9142     		cmp	r1, r2
 1158 002e 03D0     		beq	.L88
 347:Src/usb_pd_protocol.c **** 	     next_state == PD_STATE_SRC_DISCONNECTED) ||
 1159              		.loc 1 347 2 is_stmt 1 view .LVU277
 348:Src/usb_pd_protocol.c **** 	    (last_state == PD_STATE_SRC_DISCONNECTED &&
 1160              		.loc 1 348 48 is_stmt 0 view .LVU278
 1161 0030 0E2A     		cmp	r2, #14
 1162 0032 04D0     		beq	.L94
 1163              	.L91:
 353:Src/usb_pd_protocol.c **** 	    next_state == PD_STATE_SNK_DISCONNECTED) {
 1164              		.loc 1 353 2 is_stmt 1 view .LVU279
 353:Src/usb_pd_protocol.c **** 	    next_state == PD_STATE_SNK_DISCONNECTED) {
 1165              		.loc 1 353 46 is_stmt 0 view .LVU280
 1166 0034 0229     		cmp	r1, #2
 1167 0036 05D0     		beq	.L95
 1168              	.LVL87:
 1169              	.L88:
 353:Src/usb_pd_protocol.c **** 	    next_state == PD_STATE_SNK_DISCONNECTED) {
 1170              		.loc 1 353 46 view .LVU281
 1171              	.LBE169:
 1172              	.LBE168:
 938:Src/usb_pd_protocol.c **** 
 1173              		.loc 1 938 1 view .LVU282
 1174              		@ sp needed
 1175              	.LVL88:
 938:Src/usb_pd_protocol.c **** 
 1176              		.loc 1 938 1 view .LVU283
 1177 0038 D0BD     		pop	{r4, r6, r7, pc}
 1178              	.LVL89:
 1179              	.L93:
 935:Src/usb_pd_protocol.c **** 						PD_STATE_SRC_DISCOVERY));
 1180              		.loc 1 935 2 view .LVU284
 1181 003a 1221     		movs	r1, #18
 1182 003c EBE7     		b	.L89
 1183              	.LVL90:
ARM GAS  /tmp/ccoQIC4J.s 			page 62


 1184              	.L94:
 1185              	.LBB176:
 1186              	.LBB174:
 349:Src/usb_pd_protocol.c **** 	     next_state == PD_STATE_SNK_DISCONNECTED))
 1187              		.loc 1 349 47 view .LVU285
 1188 003e 0229     		cmp	r1, #2
 1189 0040 F8D1     		bne	.L91
 1190 0042 F9E7     		b	.L88
 1191              	.L95:
 356:Src/usb_pd_protocol.c **** #ifdef CONFIG_CHARGE_MANAGER
 1192              		.loc 1 356 3 is_stmt 1 view .LVU286
 1193 0044 0022     		movs	r2, #0
 1194              	.LVL91:
 356:Src/usb_pd_protocol.c **** #ifdef CONFIG_CHARGE_MANAGER
 1195              		.loc 1 356 3 is_stmt 0 view .LVU287
 1196 0046 0021     		movs	r1, #0
 1197              	.LVL92:
 356:Src/usb_pd_protocol.c **** #ifdef CONFIG_CHARGE_MANAGER
 1198              		.loc 1 356 3 view .LVU288
 1199 0048 2000     		movs	r0, r4
 1200 004a FFF7FEFF 		bl	pd_set_input_current_limit
 1201              	.LVL93:
 373:Src/usb_pd_protocol.c **** 			/*
 1202              		.loc 1 373 3 is_stmt 1 view .LVU289
 373:Src/usb_pd_protocol.c **** 			/*
 1203              		.loc 1 373 15 is_stmt 0 view .LVU290
 1204 004e E301     		lsls	r3, r4, #7
 1205 0050 084A     		ldr	r2, .L97
 1206 0052 9B5C     		ldrb	r3, [r3, r2]
 373:Src/usb_pd_protocol.c **** 			/*
 1207              		.loc 1 373 6 view .LVU291
 1208 0054 012B     		cmp	r3, #1
 1209 0056 08D0     		beq	.L96
 1210              	.L92:
 405:Src/usb_pd_protocol.c **** 	}
 1211              		.loc 1 405 3 is_stmt 1 view .LVU292
 1212              	.LVL94:
 1213              	.LBB172:
 1214              	.LBI172:
  94:Inc/tcpm.h    **** {
 1215              		.loc 2 94 19 view .LVU293
 1216              	.LBB173:
 1217              		.loc 2 96 2 view .LVU294
 1218              		.loc 2 96 26 is_stmt 0 view .LVU295
 1219 0058 2201     		lsls	r2, r4, #4
 1220 005a 074B     		ldr	r3, .L97+4
 1221 005c 9B18     		adds	r3, r3, r2
 1222 005e 9B68     		ldr	r3, [r3, #8]
 1223              		.loc 2 96 30 view .LVU296
 1224 0060 5B6A     		ldr	r3, [r3, #36]
 1225              		.loc 2 96 9 view .LVU297
 1226 0062 0021     		movs	r1, #0
 1227 0064 2000     		movs	r0, r4
 1228 0066 9847     		blx	r3
 1229              	.LVL95:
 1230              		.loc 2 96 9 view .LVU298
 1231              	.LBE173:
ARM GAS  /tmp/ccoQIC4J.s 			page 63


 1232              	.LBE172:
 1233              	.LBE174:
 1234              	.LBE176:
 937:Src/usb_pd_protocol.c **** }
 1235              		.loc 1 937 33 is_stmt 1 view .LVU299
 938:Src/usb_pd_protocol.c **** 
 1236              		.loc 1 938 1 is_stmt 0 view .LVU300
 1237 0068 E6E7     		b	.L88
 1238              	.LVL96:
 1239              	.L96:
 1240              	.LBB177:
 1241              	.LBB175:
 378:Src/usb_pd_protocol.c **** #if !defined(CONFIG_USB_PD_MAX_SINGLE_SOURCE_CURRENT) && \
 1242              		.loc 1 378 4 is_stmt 1 view .LVU301
 1243 006a 2000     		movs	r0, r4
 1244 006c FFF7FEFF 		bl	pd_power_supply_reset
 1245              	.LVL97:
 1246 0070 F2E7     		b	.L92
 1247              	.L98:
 1248 0072 C046     		.align	2
 1249              	.L97:
 1250 0074 00000000 		.word	pd
 1251 0078 00000000 		.word	tcpc_config
 1252              	.LBE175:
 1253              	.LBE177:
 1254              		.cfi_endproc
 1255              	.LFE36:
 1257              		.section	.text.pd_comm_is_enabled,"ax",%progbits
 1258              		.align	1
 1259              		.global	pd_comm_is_enabled
 1260              		.syntax unified
 1261              		.code	16
 1262              		.thumb_func
 1263              		.fpu softvfp
 1265              	pd_comm_is_enabled:
 1266              	.LVL98:
 1267              	.LFB18:
 253:Src/usb_pd_protocol.c **** #ifdef CONFIG_COMMON_RUNTIME
 1268              		.loc 1 253 1 view -0
 1269              		.cfi_startproc
 1270              		@ args = 0, pretend = 0, frame = 0
 1271              		@ frame_needed = 0, uses_anonymous_args = 0
 1272              		@ link register save eliminated.
 257:Src/usb_pd_protocol.c **** #endif
 1273              		.loc 1 257 2 view .LVU303
 259:Src/usb_pd_protocol.c **** 
 1274              		.loc 1 259 1 is_stmt 0 view .LVU304
 1275 0000 0120     		movs	r0, #1
 1276              	.LVL99:
 259:Src/usb_pd_protocol.c **** 
 1277              		.loc 1 259 1 view .LVU305
 1278              		@ sp needed
 1279 0002 7047     		bx	lr
 1280              		.cfi_endproc
 1281              	.LFE18:
 1283              		.section	.text.pd_transmit,"ax",%progbits
 1284              		.align	1
ARM GAS  /tmp/ccoQIC4J.s 			page 64


 1285              		.syntax unified
 1286              		.code	16
 1287              		.thumb_func
 1288              		.fpu softvfp
 1290              	pd_transmit:
 1291              	.LVL100:
 1292              	.LFB27:
 458:Src/usb_pd_protocol.c **** 	int evt;
 1293              		.loc 1 458 1 is_stmt 1 view -0
 1294              		.cfi_startproc
 1295              		@ args = 0, pretend = 0, frame = 8
 1296              		@ frame_needed = 0, uses_anonymous_args = 0
 458:Src/usb_pd_protocol.c **** 	int evt;
 1297              		.loc 1 458 1 is_stmt 0 view .LVU307
 1298 0000 F0B5     		push	{r4, r5, r6, r7, lr}
 1299              	.LCFI10:
 1300              		.cfi_def_cfa_offset 20
 1301              		.cfi_offset 4, -20
 1302              		.cfi_offset 5, -16
 1303              		.cfi_offset 6, -12
 1304              		.cfi_offset 7, -8
 1305              		.cfi_offset 14, -4
 1306 0002 83B0     		sub	sp, sp, #12
 1307              	.LCFI11:
 1308              		.cfi_def_cfa_offset 32
 1309 0004 0400     		movs	r4, r0
 1310 0006 0191     		str	r1, [sp, #4]
 1311 0008 1600     		movs	r6, r2
 1312 000a 1F00     		movs	r7, r3
 459:Src/usb_pd_protocol.c **** 
 1313              		.loc 1 459 2 is_stmt 1 view .LVU308
 462:Src/usb_pd_protocol.c **** 		return -1;
 1314              		.loc 1 462 2 view .LVU309
 462:Src/usb_pd_protocol.c **** 		return -1;
 1315              		.loc 1 462 7 is_stmt 0 view .LVU310
 1316 000c FFF7FEFF 		bl	pd_comm_is_enabled
 1317              	.LVL101:
 462:Src/usb_pd_protocol.c **** 		return -1;
 1318              		.loc 1 462 5 view .LVU311
 1319 0010 0028     		cmp	r0, #0
 1320 0012 12D0     		beq	.L102
 517:Src/usb_pd_protocol.c **** 
 1321              		.loc 1 517 2 is_stmt 1 view .LVU312
 1322              	.LVL102:
 1323              	.LBB178:
 1324              	.LBI178:
  97:Inc/tcpm.h    **** }
  98:Inc/tcpm.h    **** 
  99:Inc/tcpm.h    **** static inline int tcpm_get_message(int port, uint32_t *payload, int *head)
 100:Inc/tcpm.h    **** {
 101:Inc/tcpm.h    **** 	return tcpc_config[port].drv->get_message(port, payload, head);
 102:Inc/tcpm.h    **** }
 103:Inc/tcpm.h    **** 
 104:Inc/tcpm.h    **** static inline int tcpm_transmit(int port, enum tcpm_transmit_type type,
 1325              		.loc 2 104 19 view .LVU313
 1326              	.LBB179:
 105:Inc/tcpm.h    **** 		  uint16_t header, const uint32_t *data)
ARM GAS  /tmp/ccoQIC4J.s 			page 65


 106:Inc/tcpm.h    **** {
 107:Inc/tcpm.h    **** 	return tcpc_config[port].drv->transmit(port, type, header, data);
 1327              		.loc 2 107 2 view .LVU314
 1328              		.loc 2 107 26 is_stmt 0 view .LVU315
 1329 0014 2201     		lsls	r2, r4, #4
 1330 0016 0C4B     		ldr	r3, .L104
 1331 0018 9B18     		adds	r3, r3, r2
 1332 001a 9B68     		ldr	r3, [r3, #8]
 1333              		.loc 2 107 30 view .LVU316
 1334 001c DD6A     		ldr	r5, [r3, #44]
 1335              		.loc 2 107 9 view .LVU317
 1336 001e 3B00     		movs	r3, r7
 1337 0020 3200     		movs	r2, r6
 1338 0022 0199     		ldr	r1, [sp, #4]
 1339 0024 2000     		movs	r0, r4
 1340 0026 A847     		blx	r5
 1341              	.LVL103:
 1342              		.loc 2 107 9 view .LVU318
 1343              	.LBE179:
 1344              	.LBE178:
 540:Src/usb_pd_protocol.c **** }
 1345              		.loc 1 540 2 is_stmt 1 view .LVU319
 540:Src/usb_pd_protocol.c **** }
 1346              		.loc 1 540 17 is_stmt 0 view .LVU320
 1347 0028 E401     		lsls	r4, r4, #7
 1348              	.LVL104:
 540:Src/usb_pd_protocol.c **** }
 1349              		.loc 1 540 17 view .LVU321
 1350 002a 084B     		ldr	r3, .L104+4
 1351 002c 1C19     		adds	r4, r3, r4
 1352 002e 2934     		adds	r4, r4, #41
 1353 0030 2378     		ldrb	r3, [r4]
 540:Src/usb_pd_protocol.c **** }
 1354              		.loc 1 540 60 view .LVU322
 1355 0032 002B     		cmp	r3, #0
 1356 0034 05D1     		bne	.L103
 1357 0036 0120     		movs	r0, #1
 1358 0038 01E0     		b	.L100
 1359              	.LVL105:
 1360              	.L102:
 463:Src/usb_pd_protocol.c **** #ifdef CONFIG_USB_PD_REV30
 1361              		.loc 1 463 10 view .LVU323
 1362 003a 0120     		movs	r0, #1
 1363 003c 4042     		rsbs	r0, r0, #0
 1364              	.LVL106:
 1365              	.L100:
 541:Src/usb_pd_protocol.c **** 
 1366              		.loc 1 541 1 view .LVU324
 1367 003e 03B0     		add	sp, sp, #12
 1368              		@ sp needed
 1369              	.LVL107:
 541:Src/usb_pd_protocol.c **** 
 1370              		.loc 1 541 1 view .LVU325
 1371 0040 F0BD     		pop	{r4, r5, r6, r7, pc}
 1372              	.LVL108:
 1373              	.L103:
 540:Src/usb_pd_protocol.c **** }
ARM GAS  /tmp/ccoQIC4J.s 			page 66


 1374              		.loc 1 540 60 view .LVU326
 1375 0042 0120     		movs	r0, #1
 1376 0044 4042     		rsbs	r0, r0, #0
 1377 0046 FAE7     		b	.L100
 1378              	.L105:
 1379              		.align	2
 1380              	.L104:
 1381 0048 00000000 		.word	tcpc_config
 1382 004c 00000000 		.word	pd
 1383              		.cfi_endproc
 1384              	.LFE27:
 1386              		.section	.text.send_sink_cap,"ax",%progbits
 1387              		.align	1
 1388              		.syntax unified
 1389              		.code	16
 1390              		.thumb_func
 1391              		.fpu softvfp
 1393              	send_sink_cap:
 1394              	.LVL109:
 1395              	.LFB31:
 773:Src/usb_pd_protocol.c **** 	int bit_len;
 1396              		.loc 1 773 1 is_stmt 1 view -0
 1397              		.cfi_startproc
 1398              		@ args = 0, pretend = 0, frame = 0
 1399              		@ frame_needed = 0, uses_anonymous_args = 0
 773:Src/usb_pd_protocol.c **** 	int bit_len;
 1400              		.loc 1 773 1 is_stmt 0 view .LVU328
 1401 0000 70B5     		push	{r4, r5, r6, lr}
 1402              	.LCFI12:
 1403              		.cfi_def_cfa_offset 16
 1404              		.cfi_offset 4, -16
 1405              		.cfi_offset 5, -12
 1406              		.cfi_offset 6, -8
 1407              		.cfi_offset 14, -4
 774:Src/usb_pd_protocol.c **** 	uint16_t header = PD_HEADER(PD_DATA_SINK_CAP, pd[port].power_role,
 1408              		.loc 1 774 2 is_stmt 1 view .LVU329
 775:Src/usb_pd_protocol.c **** 			pd[port].data_role, pd[port].msg_id, pd_snk_pdo_cnt,
 1409              		.loc 1 775 2 view .LVU330
 775:Src/usb_pd_protocol.c **** 			pd[port].data_role, pd[port].msg_id, pd_snk_pdo_cnt,
 1410              		.loc 1 775 20 is_stmt 0 view .LVU331
 1411 0002 0D4B     		ldr	r3, .L107
 1412 0004 C401     		lsls	r4, r0, #7
 1413 0006 1919     		adds	r1, r3, r4
 1414 0008 4A78     		ldrb	r2, [r1, #1]
 1415 000a 5201     		lsls	r2, r2, #5
 1416 000c 4425     		movs	r5, #68
 1417 000e 2A43     		orrs	r2, r5
 1418 0010 E35C     		ldrb	r3, [r4, r3]
 1419 0012 1B02     		lsls	r3, r3, #8
 1420 0014 1A43     		orrs	r2, r3
 1421 0016 12B2     		sxth	r2, r2
 1422 0018 8B78     		ldrb	r3, [r1, #2]
 1423 001a 5B02     		lsls	r3, r3, #9
 1424 001c 1A43     		orrs	r2, r3
 1425 001e 12B2     		sxth	r2, r2
 1426 0020 064B     		ldr	r3, .L107+4
 1427 0022 1B68     		ldr	r3, [r3]
ARM GAS  /tmp/ccoQIC4J.s 			page 67


 1428 0024 1B03     		lsls	r3, r3, #12
 1429 0026 1A43     		orrs	r2, r3
 1430 0028 12B2     		sxth	r2, r2
 775:Src/usb_pd_protocol.c **** 			pd[port].data_role, pd[port].msg_id, pd_snk_pdo_cnt,
 1431              		.loc 1 775 11 view .LVU332
 1432 002a 92B2     		uxth	r2, r2
 1433              	.LVL110:
 779:Src/usb_pd_protocol.c **** 	if (debug_level >= 2)
 1434              		.loc 1 779 2 is_stmt 1 view .LVU333
 779:Src/usb_pd_protocol.c **** 	if (debug_level >= 2)
 1435              		.loc 1 779 12 is_stmt 0 view .LVU334
 1436 002c 044B     		ldr	r3, .L107+8
 1437 002e 0021     		movs	r1, #0
 1438 0030 FFF7FEFF 		bl	pd_transmit
 1439              	.LVL111:
 780:Src/usb_pd_protocol.c **** 		CPRINTF("snkCAP>%d\n", bit_len);
 1440              		.loc 1 780 2 is_stmt 1 view .LVU335
 782:Src/usb_pd_protocol.c **** 
 1441              		.loc 1 782 1 is_stmt 0 view .LVU336
 1442              		@ sp needed
 1443 0034 70BD     		pop	{r4, r5, r6, pc}
 1444              	.L108:
 1445 0036 C046     		.align	2
 1446              	.L107:
 1447 0038 00000000 		.word	pd
 1448 003c 00000000 		.word	pd_snk_pdo_cnt
 1449 0040 00000000 		.word	pd_snk_pdo
 1450              		.cfi_endproc
 1451              	.LFE31:
 1453              		.section	.text.send_source_cap,"ax",%progbits
 1454              		.align	1
 1455              		.syntax unified
 1456              		.code	16
 1457              		.thumb_func
 1458              		.fpu softvfp
 1460              	send_source_cap:
 1461              	.LVL112:
 1462              	.LFB30:
 587:Src/usb_pd_protocol.c **** 	int bit_len;
 1463              		.loc 1 587 1 is_stmt 1 view -0
 1464              		.cfi_startproc
 1465              		@ args = 0, pretend = 0, frame = 0
 1466              		@ frame_needed = 0, uses_anonymous_args = 0
 587:Src/usb_pd_protocol.c **** 	int bit_len;
 1467              		.loc 1 587 1 is_stmt 0 view .LVU338
 1468 0000 70B5     		push	{r4, r5, r6, lr}
 1469              	.LCFI13:
 1470              		.cfi_def_cfa_offset 16
 1471              		.cfi_offset 4, -16
 1472              		.cfi_offset 5, -12
 1473              		.cfi_offset 6, -8
 1474              		.cfi_offset 14, -4
 588:Src/usb_pd_protocol.c **** #if defined(CONFIG_USB_PD_DYNAMIC_SRC_CAP) || \
 1475              		.loc 1 588 2 is_stmt 1 view .LVU339
 594:Src/usb_pd_protocol.c **** 	const int src_pdo_cnt = pd_src_pdo_cnt;
 1476              		.loc 1 594 2 view .LVU340
 1477              	.LVL113:
ARM GAS  /tmp/ccoQIC4J.s 			page 68


 595:Src/usb_pd_protocol.c **** #endif
 1478              		.loc 1 595 2 view .LVU341
 595:Src/usb_pd_protocol.c **** #endif
 1479              		.loc 1 595 12 is_stmt 0 view .LVU342
 1480 0002 164B     		ldr	r3, .L112
 1481 0004 1968     		ldr	r1, [r3]
 1482              	.LVL114:
 597:Src/usb_pd_protocol.c **** 
 1483              		.loc 1 597 2 is_stmt 1 view .LVU343
 599:Src/usb_pd_protocol.c **** 		/* No source capabilities defined, sink only */
 1484              		.loc 1 599 2 view .LVU344
 599:Src/usb_pd_protocol.c **** 		/* No source capabilities defined, sink only */
 1485              		.loc 1 599 5 is_stmt 0 view .LVU345
 1486 0006 0029     		cmp	r1, #0
 1487 0008 14D1     		bne	.L110
 601:Src/usb_pd_protocol.c **** 			pd[port].data_role, pd[port].msg_id, 0,
 1488              		.loc 1 601 3 is_stmt 1 view .LVU346
 601:Src/usb_pd_protocol.c **** 			pd[port].data_role, pd[port].msg_id, 0,
 1489              		.loc 1 601 12 is_stmt 0 view .LVU347
 1490 000a 154B     		ldr	r3, .L112+4
 1491 000c C401     		lsls	r4, r0, #7
 1492 000e 1919     		adds	r1, r3, r4
 1493              	.LVL115:
 601:Src/usb_pd_protocol.c **** 			pd[port].data_role, pd[port].msg_id, 0,
 1494              		.loc 1 601 12 view .LVU348
 1495 0010 4A78     		ldrb	r2, [r1, #1]
 1496 0012 5201     		lsls	r2, r2, #5
 1497 0014 4425     		movs	r5, #68
 1498 0016 2A43     		orrs	r2, r5
 1499 0018 E35C     		ldrb	r3, [r4, r3]
 1500 001a 1B02     		lsls	r3, r3, #8
 1501 001c 1A43     		orrs	r2, r3
 1502 001e 12B2     		sxth	r2, r2
 1503 0020 8B78     		ldrb	r3, [r1, #2]
 1504 0022 5B02     		lsls	r3, r3, #9
 1505 0024 1A43     		orrs	r2, r3
 1506 0026 12B2     		sxth	r2, r2
 601:Src/usb_pd_protocol.c **** 			pd[port].data_role, pd[port].msg_id, 0,
 1507              		.loc 1 601 10 view .LVU349
 1508 0028 92B2     		uxth	r2, r2
 1509              	.LVL116:
 1510              	.L111:
 609:Src/usb_pd_protocol.c **** 	if (debug_level >= 2)
 1511              		.loc 1 609 2 is_stmt 1 view .LVU350
 609:Src/usb_pd_protocol.c **** 	if (debug_level >= 2)
 1512              		.loc 1 609 12 is_stmt 0 view .LVU351
 1513 002a 0E4B     		ldr	r3, .L112+8
 1514 002c 0021     		movs	r1, #0
 1515 002e FFF7FEFF 		bl	pd_transmit
 1516              	.LVL117:
 610:Src/usb_pd_protocol.c **** 		CPRINTF("srcCAP>%d\n", bit_len);
 1517              		.loc 1 610 2 is_stmt 1 view .LVU352
 613:Src/usb_pd_protocol.c **** }
 1518              		.loc 1 613 2 view .LVU353
 614:Src/usb_pd_protocol.c **** 
 1519              		.loc 1 614 1 is_stmt 0 view .LVU354
 1520              		@ sp needed
ARM GAS  /tmp/ccoQIC4J.s 			page 69


 1521 0032 70BD     		pop	{r4, r5, r6, pc}
 1522              	.LVL118:
 1523              	.L110:
 605:Src/usb_pd_protocol.c **** 			pd[port].data_role, pd[port].msg_id, src_pdo_cnt,
 1524              		.loc 1 605 3 is_stmt 1 view .LVU355
 605:Src/usb_pd_protocol.c **** 			pd[port].data_role, pd[port].msg_id, src_pdo_cnt,
 1525              		.loc 1 605 12 is_stmt 0 view .LVU356
 1526 0034 0A4D     		ldr	r5, .L112+4
 1527 0036 C601     		lsls	r6, r0, #7
 1528 0038 AC19     		adds	r4, r5, r6
 1529 003a 6378     		ldrb	r3, [r4, #1]
 1530 003c 5B01     		lsls	r3, r3, #5
 1531 003e 4122     		movs	r2, #65
 1532 0040 1343     		orrs	r3, r2
 1533 0042 725D     		ldrb	r2, [r6, r5]
 1534 0044 1202     		lsls	r2, r2, #8
 1535 0046 1343     		orrs	r3, r2
 1536 0048 1BB2     		sxth	r3, r3
 1537 004a A278     		ldrb	r2, [r4, #2]
 1538 004c 5202     		lsls	r2, r2, #9
 1539 004e 1A43     		orrs	r2, r3
 1540 0050 12B2     		sxth	r2, r2
 1541 0052 0903     		lsls	r1, r1, #12
 1542              	.LVL119:
 605:Src/usb_pd_protocol.c **** 			pd[port].data_role, pd[port].msg_id, src_pdo_cnt,
 1543              		.loc 1 605 12 view .LVU357
 1544 0054 0A43     		orrs	r2, r1
 1545 0056 12B2     		sxth	r2, r2
 605:Src/usb_pd_protocol.c **** 			pd[port].data_role, pd[port].msg_id, src_pdo_cnt,
 1546              		.loc 1 605 10 view .LVU358
 1547 0058 92B2     		uxth	r2, r2
 1548              	.LVL120:
 605:Src/usb_pd_protocol.c **** 			pd[port].data_role, pd[port].msg_id, src_pdo_cnt,
 1549              		.loc 1 605 10 view .LVU359
 1550 005a E6E7     		b	.L111
 1551              	.L113:
 1552              		.align	2
 1553              	.L112:
 1554 005c 00000000 		.word	pd_src_pdo_cnt
 1555 0060 00000000 		.word	pd
 1556 0064 00000000 		.word	pd_src_pdo
 1557              		.cfi_endproc
 1558              	.LFE30:
 1560              		.section	.text.send_request,"ax",%progbits
 1561              		.align	1
 1562              		.syntax unified
 1563              		.code	16
 1564              		.thumb_func
 1565              		.fpu softvfp
 1567              	send_request:
 1568              	.LVL121:
 1569              	.LFB32:
 785:Src/usb_pd_protocol.c **** 	int bit_len;
 1570              		.loc 1 785 1 is_stmt 1 view -0
 1571              		.cfi_startproc
 1572              		@ args = 0, pretend = 0, frame = 8
 1573              		@ frame_needed = 0, uses_anonymous_args = 0
ARM GAS  /tmp/ccoQIC4J.s 			page 70


 785:Src/usb_pd_protocol.c **** 	int bit_len;
 1574              		.loc 1 785 1 is_stmt 0 view .LVU361
 1575 0000 30B5     		push	{r4, r5, lr}
 1576              	.LCFI14:
 1577              		.cfi_def_cfa_offset 12
 1578              		.cfi_offset 4, -12
 1579              		.cfi_offset 5, -8
 1580              		.cfi_offset 14, -4
 1581 0002 83B0     		sub	sp, sp, #12
 1582              	.LCFI15:
 1583              		.cfi_def_cfa_offset 24
 1584 0004 0191     		str	r1, [sp, #4]
 786:Src/usb_pd_protocol.c **** 	uint16_t header = PD_HEADER(PD_DATA_REQUEST, pd[port].power_role,
 1585              		.loc 1 786 2 is_stmt 1 view .LVU362
 787:Src/usb_pd_protocol.c **** 			pd[port].data_role, pd[port].msg_id, 1,
 1586              		.loc 1 787 2 view .LVU363
 787:Src/usb_pd_protocol.c **** 			pd[port].data_role, pd[port].msg_id, 1,
 1587              		.loc 1 787 20 is_stmt 0 view .LVU364
 1588 0006 0C4B     		ldr	r3, .L115
 1589 0008 C401     		lsls	r4, r0, #7
 1590 000a 1919     		adds	r1, r3, r4
 1591              	.LVL122:
 787:Src/usb_pd_protocol.c **** 			pd[port].data_role, pd[port].msg_id, 1,
 1592              		.loc 1 787 20 view .LVU365
 1593 000c 4A78     		ldrb	r2, [r1, #1]
 1594 000e 5201     		lsls	r2, r2, #5
 1595 0010 4225     		movs	r5, #66
 1596 0012 2A43     		orrs	r2, r5
 1597 0014 E35C     		ldrb	r3, [r4, r3]
 1598 0016 1B02     		lsls	r3, r3, #8
 1599 0018 1A43     		orrs	r2, r3
 1600 001a 12B2     		sxth	r2, r2
 1601 001c 8B78     		ldrb	r3, [r1, #2]
 1602 001e 5B02     		lsls	r3, r3, #9
 1603 0020 1A43     		orrs	r2, r3
 1604 0022 12B2     		sxth	r2, r2
 1605 0024 8023     		movs	r3, #128
 1606 0026 5B01     		lsls	r3, r3, #5
 1607 0028 1A43     		orrs	r2, r3
 787:Src/usb_pd_protocol.c **** 			pd[port].data_role, pd[port].msg_id, 1,
 1608              		.loc 1 787 11 view .LVU366
 1609 002a 92B2     		uxth	r2, r2
 1610              	.LVL123:
 791:Src/usb_pd_protocol.c **** 	if (debug_level >= 2)
 1611              		.loc 1 791 2 is_stmt 1 view .LVU367
 791:Src/usb_pd_protocol.c **** 	if (debug_level >= 2)
 1612              		.loc 1 791 12 is_stmt 0 view .LVU368
 1613 002c 01AB     		add	r3, sp, #4
 1614              	.LVL124:
 791:Src/usb_pd_protocol.c **** 	if (debug_level >= 2)
 1615              		.loc 1 791 12 view .LVU369
 1616 002e 0021     		movs	r1, #0
 1617 0030 FFF7FEFF 		bl	pd_transmit
 1618              	.LVL125:
 792:Src/usb_pd_protocol.c **** 		CPRINTF("REQ%d>\n", bit_len);
 1619              		.loc 1 792 2 is_stmt 1 view .LVU370
 795:Src/usb_pd_protocol.c **** }
ARM GAS  /tmp/ccoQIC4J.s 			page 71


 1620              		.loc 1 795 2 view .LVU371
 796:Src/usb_pd_protocol.c **** #ifdef CONFIG_BBRAM
 1621              		.loc 1 796 1 is_stmt 0 view .LVU372
 1622 0034 03B0     		add	sp, sp, #12
 1623              		@ sp needed
 1624 0036 30BD     		pop	{r4, r5, pc}
 1625              	.L116:
 1626              		.align	2
 1627              	.L115:
 1628 0038 00000000 		.word	pd
 1629              		.cfi_endproc
 1630              	.LFE32:
 1632              		.section	.text.pd_send_request_msg,"ax",%progbits
 1633              		.align	1
 1634              		.syntax unified
 1635              		.code	16
 1636              		.thumb_func
 1637              		.fpu softvfp
 1639              	pd_send_request_msg:
 1640              	.LVL126:
 1641              	.LFB38:
 958:Src/usb_pd_protocol.c **** 	uint32_t rdo, curr_limit, supply_voltage;
 1642              		.loc 1 958 1 is_stmt 1 view -0
 1643              		.cfi_startproc
 1644              		@ args = 0, pretend = 0, frame = 16
 1645              		@ frame_needed = 0, uses_anonymous_args = 0
 958:Src/usb_pd_protocol.c **** 	uint32_t rdo, curr_limit, supply_voltage;
 1646              		.loc 1 958 1 is_stmt 0 view .LVU374
 1647 0000 70B5     		push	{r4, r5, r6, lr}
 1648              	.LCFI16:
 1649              		.cfi_def_cfa_offset 16
 1650              		.cfi_offset 4, -16
 1651              		.cfi_offset 5, -12
 1652              		.cfi_offset 6, -8
 1653              		.cfi_offset 14, -4
 1654 0002 86B0     		sub	sp, sp, #24
 1655              	.LCFI17:
 1656              		.cfi_def_cfa_offset 40
 1657 0004 0400     		movs	r4, r0
 1658 0006 0E00     		movs	r6, r1
 959:Src/usb_pd_protocol.c **** 	int res;
 1659              		.loc 1 959 2 is_stmt 1 view .LVU375
 960:Src/usb_pd_protocol.c **** 
 1660              		.loc 1 960 2 view .LVU376
 964:Src/usb_pd_protocol.c **** #else
 1661              		.loc 1 964 2 view .LVU377
 1662              	.LVL127:
 972:Src/usb_pd_protocol.c **** #endif
 1663              		.loc 1 972 2 view .LVU378
 976:Src/usb_pd_protocol.c **** 
 1664              		.loc 1 976 2 view .LVU379
 976:Src/usb_pd_protocol.c **** 
 1665              		.loc 1 976 29 is_stmt 0 view .LVU380
 1666 0008 C201     		lsls	r2, r0, #7
 1667 000a 1B4B     		ldr	r3, .L122
 1668 000c 9B18     		adds	r3, r3, r2
 1669 000e 0022     		movs	r2, #0
ARM GAS  /tmp/ccoQIC4J.s 			page 72


 1670 0010 9A63     		str	r2, [r3, #56]
 983:Src/usb_pd_protocol.c **** 			       charging && max_request_allowed ?
 1671              		.loc 1 983 2 is_stmt 1 view .LVU381
 983:Src/usb_pd_protocol.c **** 			       charging && max_request_allowed ?
 1672              		.loc 1 983 8 is_stmt 0 view .LVU382
 1673 0012 0123     		movs	r3, #1
 1674 0014 0093     		str	r3, [sp]
 1675 0016 03AB     		add	r3, sp, #12
 1676 0018 04AA     		add	r2, sp, #16
 1677 001a 05A9     		add	r1, sp, #20
 1678              	.LVL128:
 983:Src/usb_pd_protocol.c **** 			       charging && max_request_allowed ?
 1679              		.loc 1 983 8 view .LVU383
 1680 001c FFF7FEFF 		bl	pd_build_request
 1681              	.LVL129:
 983:Src/usb_pd_protocol.c **** 			       charging && max_request_allowed ?
 1682              		.loc 1 983 8 view .LVU384
 1683 0020 051E     		subs	r5, r0, #0
 1684              	.LVL130:
 987:Src/usb_pd_protocol.c **** 		/*
 1685              		.loc 1 987 2 is_stmt 1 view .LVU385
 987:Src/usb_pd_protocol.c **** 		/*
 1686              		.loc 1 987 5 is_stmt 0 view .LVU386
 1687 0022 24D1     		bne	.L120
 994:Src/usb_pd_protocol.c **** 		/* Don't re-request the same voltage */
 1688              		.loc 1 994 2 is_stmt 1 view .LVU387
 994:Src/usb_pd_protocol.c **** 		/* Don't re-request the same voltage */
 1689              		.loc 1 994 5 is_stmt 0 view .LVU388
 1690 0024 002E     		cmp	r6, #0
 1691 0026 06D1     		bne	.L119
 996:Src/usb_pd_protocol.c **** 			return EC_SUCCESS;
 1692              		.loc 1 996 3 is_stmt 1 view .LVU389
 996:Src/usb_pd_protocol.c **** 			return EC_SUCCESS;
 1693              		.loc 1 996 15 is_stmt 0 view .LVU390
 1694 0028 E201     		lsls	r2, r4, #7
 1695 002a 134B     		ldr	r3, .L122
 1696 002c 9B18     		adds	r3, r3, r2
 1697 002e DB6B     		ldr	r3, [r3, #60]
 996:Src/usb_pd_protocol.c **** 			return EC_SUCCESS;
 1698              		.loc 1 996 6 view .LVU391
 1699 0030 039A     		ldr	r2, [sp, #12]
 1700 0032 9342     		cmp	r3, r2
 1701 0034 1ED0     		beq	.L121
 1702              	.L119:
1006:Src/usb_pd_protocol.c **** 	if (rdo & RDO_CAP_MISMATCH)
 1703              		.loc 1 1006 30 is_stmt 1 view .LVU392
1007:Src/usb_pd_protocol.c **** 		CPRINTF(" Mismatch");
 1704              		.loc 1 1007 2 view .LVU393
1009:Src/usb_pd_protocol.c **** 
 1705              		.loc 1 1009 15 view .LVU394
1011:Src/usb_pd_protocol.c **** 	pd[port].supply_voltage = supply_voltage;
 1706              		.loc 1 1011 2 view .LVU395
1011:Src/usb_pd_protocol.c **** 	pd[port].supply_voltage = supply_voltage;
 1707              		.loc 1 1011 22 is_stmt 0 view .LVU396
 1708 0036 E201     		lsls	r2, r4, #7
 1709 0038 0F4B     		ldr	r3, .L122
 1710 003a 9B18     		adds	r3, r3, r2
ARM GAS  /tmp/ccoQIC4J.s 			page 73


 1711 003c 049A     		ldr	r2, [sp, #16]
 1712 003e 1A63     		str	r2, [r3, #48]
1012:Src/usb_pd_protocol.c **** 	pd[port].prev_request_mv = supply_voltage;
 1713              		.loc 1 1012 2 is_stmt 1 view .LVU397
1012:Src/usb_pd_protocol.c **** 	pd[port].prev_request_mv = supply_voltage;
 1714              		.loc 1 1012 26 is_stmt 0 view .LVU398
 1715 0040 039A     		ldr	r2, [sp, #12]
 1716 0042 5A63     		str	r2, [r3, #52]
1013:Src/usb_pd_protocol.c **** 	res = send_request(port, rdo);
 1717              		.loc 1 1013 2 is_stmt 1 view .LVU399
1013:Src/usb_pd_protocol.c **** 	res = send_request(port, rdo);
 1718              		.loc 1 1013 27 is_stmt 0 view .LVU400
 1719 0044 DA63     		str	r2, [r3, #60]
1014:Src/usb_pd_protocol.c **** 	if (res < 0)
 1720              		.loc 1 1014 2 is_stmt 1 view .LVU401
1014:Src/usb_pd_protocol.c **** 	if (res < 0)
 1721              		.loc 1 1014 8 is_stmt 0 view .LVU402
 1722 0046 0599     		ldr	r1, [sp, #20]
 1723 0048 2000     		movs	r0, r4
 1724              	.LVL131:
1014:Src/usb_pd_protocol.c **** 	if (res < 0)
 1725              		.loc 1 1014 8 view .LVU403
 1726 004a FFF7FEFF 		bl	send_request
 1727              	.LVL132:
1015:Src/usb_pd_protocol.c **** 		return res;
 1728              		.loc 1 1015 2 is_stmt 1 view .LVU404
1015:Src/usb_pd_protocol.c **** 		return res;
 1729              		.loc 1 1015 5 is_stmt 0 view .LVU405
 1730 004e 0028     		cmp	r0, #0
 1731 0050 0BDB     		blt	.L117
1017:Src/usb_pd_protocol.c **** 	return EC_SUCCESS;
 1732              		.loc 1 1017 2 is_stmt 1 view .LVU406
 1733              	.LVL133:
 1734              	.LBB186:
 1735              	.LBI186:
 326:Src/usb_pd_protocol.c **** {
 1736              		.loc 1 326 20 view .LVU407
 1737              	.LBB187:
 328:Src/usb_pd_protocol.c **** #ifdef CONFIG_LOW_POWER_IDLE
 1738              		.loc 1 328 2 view .LVU408
 333:Src/usb_pd_protocol.c **** 	pd[port].task_state = next_state;
 1739              		.loc 1 333 2 view .LVU409
 1740              	.LBB188:
 1741              	.LBI188:
 261:Src/usb_pd_protocol.c **** 				     uint64_t timeout,
 1742              		.loc 1 261 20 view .LVU410
 1743              	.LBB189:
 265:Src/usb_pd_protocol.c **** 	pd[port].timeout_state = timeout_state;
 1744              		.loc 1 265 2 view .LVU411
 265:Src/usb_pd_protocol.c **** 	pd[port].timeout_state = timeout_state;
 1745              		.loc 1 265 19 is_stmt 0 view .LVU412
 1746 0052 E401     		lsls	r4, r4, #7
 1747              	.LVL134:
 265:Src/usb_pd_protocol.c **** 	pd[port].timeout_state = timeout_state;
 1748              		.loc 1 265 19 view .LVU413
 1749 0054 084B     		ldr	r3, .L122
 1750 0056 1C19     		adds	r4, r3, r4
ARM GAS  /tmp/ccoQIC4J.s 			page 74


 1751 0058 0022     		movs	r2, #0
 1752 005a 0023     		movs	r3, #0
 1753 005c 2261     		str	r2, [r4, #16]
 1754 005e 6361     		str	r3, [r4, #20]
 266:Src/usb_pd_protocol.c **** }
 1755              		.loc 1 266 2 is_stmt 1 view .LVU414
 266:Src/usb_pd_protocol.c **** }
 1756              		.loc 1 266 25 is_stmt 0 view .LVU415
 1757 0060 0023     		movs	r3, #0
 1758 0062 E371     		strb	r3, [r4, #7]
 1759              	.LVL135:
 266:Src/usb_pd_protocol.c **** }
 1760              		.loc 1 266 25 view .LVU416
 1761              	.LBE189:
 1762              	.LBE188:
 334:Src/usb_pd_protocol.c **** 
 1763              		.loc 1 334 2 is_stmt 1 view .LVU417
 334:Src/usb_pd_protocol.c **** 
 1764              		.loc 1 334 22 is_stmt 0 view .LVU418
 1765 0064 0633     		adds	r3, r3, #6
 1766 0066 2371     		strb	r3, [r4, #4]
 1767              	.LVL136:
 336:Src/usb_pd_protocol.c **** 		return;
 1768              		.loc 1 336 2 is_stmt 1 view .LVU419
 1769              	.LBE187:
 1770              	.LBE186:
1018:Src/usb_pd_protocol.c **** }
 1771              		.loc 1 1018 9 is_stmt 0 view .LVU420
 1772 0068 2800     		movs	r0, r5
 1773              	.LVL137:
 1774              	.L117:
1019:Src/usb_pd_protocol.c **** #endif
 1775              		.loc 1 1019 1 view .LVU421
 1776 006a 06B0     		add	sp, sp, #24
 1777              		@ sp needed
 1778              	.LVL138:
1019:Src/usb_pd_protocol.c **** #endif
 1779              		.loc 1 1019 1 view .LVU422
 1780 006c 70BD     		pop	{r4, r5, r6, pc}
 1781              	.LVL139:
 1782              	.L120:
 992:Src/usb_pd_protocol.c **** 
 1783              		.loc 1 992 10 view .LVU423
 1784 006e 0120     		movs	r0, #1
 1785              	.LVL140:
 992:Src/usb_pd_protocol.c **** 
 1786              		.loc 1 992 10 view .LVU424
 1787 0070 4042     		rsbs	r0, r0, #0
 1788 0072 FAE7     		b	.L117
 1789              	.LVL141:
 1790              	.L121:
 997:Src/usb_pd_protocol.c **** #ifdef CONFIG_CHARGE_MANAGER
 1791              		.loc 1 997 11 view .LVU425
 1792 0074 3000     		movs	r0, r6
 1793              	.LVL142:
 997:Src/usb_pd_protocol.c **** #ifdef CONFIG_CHARGE_MANAGER
 1794              		.loc 1 997 11 view .LVU426
ARM GAS  /tmp/ccoQIC4J.s 			page 75


 1795 0076 F8E7     		b	.L117
 1796              	.L123:
 1797              		.align	2
 1798              	.L122:
 1799 0078 00000000 		.word	pd
 1800              		.cfi_endproc
 1801              	.LFE38:
 1803              		.section	.text.send_control,"ax",%progbits
 1804              		.align	1
 1805              		.syntax unified
 1806              		.code	16
 1807              		.thumb_func
 1808              		.fpu softvfp
 1810              	send_control:
 1811              	.LVL143:
 1812              	.LFB29:
 573:Src/usb_pd_protocol.c **** 	int bit_len;
 1813              		.loc 1 573 1 is_stmt 1 view -0
 1814              		.cfi_startproc
 1815              		@ args = 0, pretend = 0, frame = 0
 1816              		@ frame_needed = 0, uses_anonymous_args = 0
 573:Src/usb_pd_protocol.c **** 	int bit_len;
 1817              		.loc 1 573 1 is_stmt 0 view .LVU428
 1818 0000 70B5     		push	{r4, r5, r6, lr}
 1819              	.LCFI18:
 1820              		.cfi_def_cfa_offset 16
 1821              		.cfi_offset 4, -16
 1822              		.cfi_offset 5, -12
 1823              		.cfi_offset 6, -8
 1824              		.cfi_offset 14, -4
 574:Src/usb_pd_protocol.c **** 	uint16_t header = PD_HEADER(type, pd[port].power_role,
 1825              		.loc 1 574 2 is_stmt 1 view .LVU429
 575:Src/usb_pd_protocol.c **** 				pd[port].data_role, pd[port].msg_id, 0,
 1826              		.loc 1 575 2 view .LVU430
 575:Src/usb_pd_protocol.c **** 				pd[port].data_role, pd[port].msg_id, 0,
 1827              		.loc 1 575 20 is_stmt 0 view .LVU431
 1828 0002 4022     		movs	r2, #64
 1829 0004 0A43     		orrs	r2, r1
 1830 0006 12B2     		sxth	r2, r2
 1831 0008 094C     		ldr	r4, .L125
 1832 000a C501     		lsls	r5, r0, #7
 1833 000c 6319     		adds	r3, r4, r5
 1834 000e 5978     		ldrb	r1, [r3, #1]
 1835              	.LVL144:
 575:Src/usb_pd_protocol.c **** 				pd[port].data_role, pd[port].msg_id, 0,
 1836              		.loc 1 575 20 view .LVU432
 1837 0010 4901     		lsls	r1, r1, #5
 1838 0012 0A43     		orrs	r2, r1
 1839 0014 295D     		ldrb	r1, [r5, r4]
 1840 0016 0902     		lsls	r1, r1, #8
 1841 0018 0A43     		orrs	r2, r1
 1842 001a 12B2     		sxth	r2, r2
 1843 001c 9B78     		ldrb	r3, [r3, #2]
 1844 001e 5B02     		lsls	r3, r3, #9
 1845 0020 1A43     		orrs	r2, r3
 575:Src/usb_pd_protocol.c **** 				pd[port].data_role, pd[port].msg_id, 0,
 1846              		.loc 1 575 11 view .LVU433
ARM GAS  /tmp/ccoQIC4J.s 			page 76


 1847 0022 92B2     		uxth	r2, r2
 1848              	.LVL145:
 579:Src/usb_pd_protocol.c **** 	if (debug_level >= 2)
 1849              		.loc 1 579 2 is_stmt 1 view .LVU434
 579:Src/usb_pd_protocol.c **** 	if (debug_level >= 2)
 1850              		.loc 1 579 12 is_stmt 0 view .LVU435
 1851 0024 0023     		movs	r3, #0
 1852 0026 0021     		movs	r1, #0
 1853 0028 FFF7FEFF 		bl	pd_transmit
 1854              	.LVL146:
 580:Src/usb_pd_protocol.c **** 		CPRINTF("CTRL[%d]>%d\n", type, bit_len);
 1855              		.loc 1 580 2 is_stmt 1 view .LVU436
 583:Src/usb_pd_protocol.c **** }
 1856              		.loc 1 583 2 view .LVU437
 584:Src/usb_pd_protocol.c **** 
 1857              		.loc 1 584 1 is_stmt 0 view .LVU438
 1858              		@ sp needed
 1859 002c 70BD     		pop	{r4, r5, r6, pc}
 1860              	.L126:
 1861 002e C046     		.align	2
 1862              	.L125:
 1863 0030 00000000 		.word	pd
 1864              		.cfi_endproc
 1865              	.LFE29:
 1867              		.section	.text.handle_ctrl_request,"ax",%progbits
 1868              		.align	1
 1869              		.syntax unified
 1870              		.code	16
 1871              		.thumb_func
 1872              		.fpu softvfp
 1874              	handle_ctrl_request:
 1875              	.LVL147:
 1876              	.LFB45:
1274:Src/usb_pd_protocol.c **** 	int type = PD_HEADER_TYPE(head);
 1877              		.loc 1 1274 1 is_stmt 1 view -0
 1878              		.cfi_startproc
 1879              		@ args = 0, pretend = 0, frame = 8
 1880              		@ frame_needed = 0, uses_anonymous_args = 0
1274:Src/usb_pd_protocol.c **** 	int type = PD_HEADER_TYPE(head);
 1881              		.loc 1 1274 1 is_stmt 0 view .LVU440
 1882 0000 F0B5     		push	{r4, r5, r6, r7, lr}
 1883              	.LCFI19:
 1884              		.cfi_def_cfa_offset 20
 1885              		.cfi_offset 4, -20
 1886              		.cfi_offset 5, -16
 1887              		.cfi_offset 6, -12
 1888              		.cfi_offset 7, -8
 1889              		.cfi_offset 14, -4
 1890 0002 83B0     		sub	sp, sp, #12
 1891              	.LCFI20:
 1892              		.cfi_def_cfa_offset 32
 1893 0004 0400     		movs	r4, r0
1275:Src/usb_pd_protocol.c **** 	int res;
 1894              		.loc 1 1275 2 is_stmt 1 view .LVU441
 1895 0006 0F23     		movs	r3, #15
 1896 0008 1940     		ands	r1, r3
 1897              	.LVL148:
ARM GAS  /tmp/ccoQIC4J.s 			page 77


1276:Src/usb_pd_protocol.c **** 
 1898              		.loc 1 1276 2 view .LVU442
1278:Src/usb_pd_protocol.c **** 	case PD_CTRL_GOOD_CRC:
 1899              		.loc 1 1278 2 view .LVU443
 1900 000a CB1E     		subs	r3, r1, #3
 1901 000c 9AB2     		uxth	r2, r3
 1902              	.LVL149:
1278:Src/usb_pd_protocol.c **** 	case PD_CTRL_GOOD_CRC:
 1903              		.loc 1 1278 2 is_stmt 0 view .LVU444
 1904 000e 0A2A     		cmp	r2, #10
 1905 0010 1AD8     		bhi	.L127
 1906 0012 9300     		lsls	r3, r2, #2
 1907 0014 C24A     		ldr	r2, .L188
 1908 0016 D358     		ldr	r3, [r2, r3]
 1909 0018 9F46     		mov	pc, r3
 1910              		.section	.rodata.handle_ctrl_request,"a",%progbits
 1911              		.align	2
 1912              	.L130:
 1913 0000 06020000 		.word	.L138
 1914 0004 DE000000 		.word	.L131
 1915 0008 48000000 		.word	.L127
 1916 000c 4C000000 		.word	.L137
 1917 0010 1A000000 		.word	.L136
 1918 0014 44000000 		.word	.L135
 1919 0018 BE030000 		.word	.L134
 1920 001c 30030000 		.word	.L133
 1921 0020 FC030000 		.word	.L132
 1922 0024 DE000000 		.word	.L131
 1923 0028 12030000 		.word	.L129
 1924              		.section	.text.handle_ctrl_request
 1925              	.L136:
1286:Src/usb_pd_protocol.c **** 		if ((res >= 0) &&
 1926              		.loc 1 1286 3 is_stmt 1 view .LVU445
1286:Src/usb_pd_protocol.c **** 		if ((res >= 0) &&
 1927              		.loc 1 1286 9 is_stmt 0 view .LVU446
 1928 001a FFF7FEFF 		bl	send_source_cap
 1929              	.LVL150:
1287:Src/usb_pd_protocol.c **** 		    (pd[port].task_state == PD_STATE_SRC_DISCOVERY))
 1930              		.loc 1 1287 3 is_stmt 1 view .LVU447
1287:Src/usb_pd_protocol.c **** 		    (pd[port].task_state == PD_STATE_SRC_DISCOVERY))
 1931              		.loc 1 1287 6 is_stmt 0 view .LVU448
 1932 001e 0028     		cmp	r0, #0
 1933 0020 12DB     		blt	.L127
1288:Src/usb_pd_protocol.c **** 			set_state(port, PD_STATE_SRC_NEGOCIATE);
 1934              		.loc 1 1288 16 discriminator 1 view .LVU449
 1935 0022 E201     		lsls	r2, r4, #7
 1936 0024 BF4B     		ldr	r3, .L188+4
 1937 0026 9B18     		adds	r3, r3, r2
 1938 0028 1B79     		ldrb	r3, [r3, #4]
1287:Src/usb_pd_protocol.c **** 		    (pd[port].task_state == PD_STATE_SRC_DISCOVERY))
 1939              		.loc 1 1287 18 discriminator 1 view .LVU450
 1940 002a 122B     		cmp	r3, #18
 1941 002c 0CD1     		bne	.L127
1289:Src/usb_pd_protocol.c **** 		break;
 1942              		.loc 1 1289 4 is_stmt 1 view .LVU451
 1943              	.LVL151:
 1944              	.LBB282:
ARM GAS  /tmp/ccoQIC4J.s 			page 78


 1945              	.LBI282:
 326:Src/usb_pd_protocol.c **** {
 1946              		.loc 1 326 20 view .LVU452
 1947              	.LBB283:
 328:Src/usb_pd_protocol.c **** #ifdef CONFIG_LOW_POWER_IDLE
 1948              		.loc 1 328 2 view .LVU453
 333:Src/usb_pd_protocol.c **** 	pd[port].task_state = next_state;
 1949              		.loc 1 333 2 view .LVU454
 1950              	.LBB284:
 1951              	.LBI284:
 261:Src/usb_pd_protocol.c **** 				     uint64_t timeout,
 1952              		.loc 1 261 20 view .LVU455
 1953              	.LBB285:
 265:Src/usb_pd_protocol.c **** 	pd[port].timeout_state = timeout_state;
 1954              		.loc 1 265 2 view .LVU456
 265:Src/usb_pd_protocol.c **** 	pd[port].timeout_state = timeout_state;
 1955              		.loc 1 265 19 is_stmt 0 view .LVU457
 1956 002e BD4B     		ldr	r3, .L188+4
 1957 0030 9C18     		adds	r4, r3, r2
 1958              	.LVL152:
 265:Src/usb_pd_protocol.c **** 	pd[port].timeout_state = timeout_state;
 1959              		.loc 1 265 19 view .LVU458
 1960 0032 0022     		movs	r2, #0
 1961 0034 0023     		movs	r3, #0
 1962 0036 2261     		str	r2, [r4, #16]
 1963 0038 6361     		str	r3, [r4, #20]
 266:Src/usb_pd_protocol.c **** }
 1964              		.loc 1 266 2 is_stmt 1 view .LVU459
 266:Src/usb_pd_protocol.c **** }
 1965              		.loc 1 266 25 is_stmt 0 view .LVU460
 1966 003a 0023     		movs	r3, #0
 1967 003c E371     		strb	r3, [r4, #7]
 1968              	.LVL153:
 266:Src/usb_pd_protocol.c **** }
 1969              		.loc 1 266 25 view .LVU461
 1970              	.LBE285:
 1971              	.LBE284:
 334:Src/usb_pd_protocol.c **** 
 1972              		.loc 1 334 2 is_stmt 1 view .LVU462
 334:Src/usb_pd_protocol.c **** 
 1973              		.loc 1 334 22 is_stmt 0 view .LVU463
 1974 003e 1333     		adds	r3, r3, #19
 1975 0040 2371     		strb	r3, [r4, #4]
 336:Src/usb_pd_protocol.c **** 		return;
 1976              		.loc 1 336 2 is_stmt 1 view .LVU464
 1977 0042 01E0     		b	.L127
 1978              	.LVL154:
 1979              	.L135:
 336:Src/usb_pd_protocol.c **** 		return;
 1980              		.loc 1 336 2 is_stmt 0 view .LVU465
 1981              	.LBE283:
 1982              	.LBE282:
1293:Src/usb_pd_protocol.c **** #else
 1983              		.loc 1 1293 3 is_stmt 1 view .LVU466
 1984 0044 FFF7FEFF 		bl	send_sink_cap
 1985              	.LVL155:
1297:Src/usb_pd_protocol.c **** #ifdef CONFIG_USB_PD_DUAL_ROLE
ARM GAS  /tmp/ccoQIC4J.s 			page 79


 1986              		.loc 1 1297 3 view .LVU467
 1987              	.L127:
1512:Src/usb_pd_protocol.c **** 
 1988              		.loc 1 1512 1 is_stmt 0 view .LVU468
 1989 0048 03B0     		add	sp, sp, #12
 1990              		@ sp needed
 1991 004a F0BD     		pop	{r4, r5, r6, r7, pc}
 1992              	.LVL156:
 1993              	.L137:
1317:Src/usb_pd_protocol.c **** 			set_state(port, PD_STATE_SNK_SWAP_STANDBY);
 1994              		.loc 1 1317 3 is_stmt 1 view .LVU469
1317:Src/usb_pd_protocol.c **** 			set_state(port, PD_STATE_SNK_SWAP_STANDBY);
 1995              		.loc 1 1317 15 is_stmt 0 view .LVU470
 1996 004c C201     		lsls	r2, r0, #7
 1997 004e B54B     		ldr	r3, .L188+4
 1998 0050 9B18     		adds	r3, r3, r2
 1999 0052 1B79     		ldrb	r3, [r3, #4]
1317:Src/usb_pd_protocol.c **** 			set_state(port, PD_STATE_SNK_SWAP_STANDBY);
 2000              		.loc 1 1317 6 view .LVU471
 2001 0054 0B2B     		cmp	r3, #11
 2002 0056 1BD0     		beq	.L169
1319:Src/usb_pd_protocol.c **** 			/* reset message ID and swap roles */
 2003              		.loc 1 1319 10 is_stmt 1 view .LVU472
1319:Src/usb_pd_protocol.c **** 			/* reset message ID and swap roles */
 2004              		.loc 1 1319 13 is_stmt 0 view .LVU473
 2005 0058 1D2B     		cmp	r3, #29
 2006 005a 24D0     		beq	.L170
1334:Src/usb_pd_protocol.c **** 			/* Don't know what power source is ready. Reset. */
 2007              		.loc 1 1334 10 is_stmt 1 view .LVU474
1334:Src/usb_pd_protocol.c **** 			/* Don't know what power source is ready. Reset. */
 2008              		.loc 1 1334 13 is_stmt 0 view .LVU475
 2009 005c 052B     		cmp	r3, #5
 2010 005e 32D0     		beq	.L171
1337:Src/usb_pd_protocol.c **** 			/* Do nothing, assume this is a redundant PD_RDY */
 2011              		.loc 1 1337 10 is_stmt 1 view .LVU476
1337:Src/usb_pd_protocol.c **** 			/* Do nothing, assume this is a redundant PD_RDY */
 2012              		.loc 1 1337 13 is_stmt 0 view .LVU477
 2013 0060 0C2B     		cmp	r3, #12
 2014 0062 F1D0     		beq	.L127
1339:Src/usb_pd_protocol.c **** 			set_state(port, PD_STATE_SNK_READY);
 2015              		.loc 1 1339 10 is_stmt 1 view .LVU478
1339:Src/usb_pd_protocol.c **** 			set_state(port, PD_STATE_SNK_READY);
 2016              		.loc 1 1339 22 is_stmt 0 view .LVU479
 2017 0064 C301     		lsls	r3, r0, #7
 2018 0066 AF4A     		ldr	r2, .L188+4
 2019 0068 9B5C     		ldrb	r3, [r3, r2]
1339:Src/usb_pd_protocol.c **** 			set_state(port, PD_STATE_SNK_READY);
 2020              		.loc 1 1339 13 view .LVU480
 2021 006a 002B     		cmp	r3, #0
 2022 006c ECD1     		bne	.L127
1340:Src/usb_pd_protocol.c **** 			pd_set_input_current_limit(port, pd[port].curr_limit,
 2023              		.loc 1 1340 4 is_stmt 1 view .LVU481
 2024              	.LVL157:
 2025              	.LBB286:
 2026              	.LBI286:
 326:Src/usb_pd_protocol.c **** {
 2027              		.loc 1 326 20 view .LVU482
ARM GAS  /tmp/ccoQIC4J.s 			page 80


 2028              	.LBB287:
 328:Src/usb_pd_protocol.c **** #ifdef CONFIG_LOW_POWER_IDLE
 2029              		.loc 1 328 2 view .LVU483
 333:Src/usb_pd_protocol.c **** 	pd[port].task_state = next_state;
 2030              		.loc 1 333 2 view .LVU484
 2031              	.LBB288:
 2032              	.LBI288:
 261:Src/usb_pd_protocol.c **** 				     uint64_t timeout,
 2033              		.loc 1 261 20 view .LVU485
 2034              	.LBB289:
 265:Src/usb_pd_protocol.c **** 	pd[port].timeout_state = timeout_state;
 2035              		.loc 1 265 2 view .LVU486
 265:Src/usb_pd_protocol.c **** 	pd[port].timeout_state = timeout_state;
 2036              		.loc 1 265 19 is_stmt 0 view .LVU487
 2037 006e C201     		lsls	r2, r0, #7
 2038 0070 AC4B     		ldr	r3, .L188+4
 2039 0072 9B18     		adds	r3, r3, r2
 2040 0074 0020     		movs	r0, #0
 2041              	.LVL158:
 265:Src/usb_pd_protocol.c **** 	pd[port].timeout_state = timeout_state;
 2042              		.loc 1 265 19 view .LVU488
 2043 0076 0021     		movs	r1, #0
 2044              	.LVL159:
 265:Src/usb_pd_protocol.c **** 	pd[port].timeout_state = timeout_state;
 2045              		.loc 1 265 19 view .LVU489
 2046 0078 1861     		str	r0, [r3, #16]
 2047 007a 5961     		str	r1, [r3, #20]
 266:Src/usb_pd_protocol.c **** }
 2048              		.loc 1 266 2 is_stmt 1 view .LVU490
 266:Src/usb_pd_protocol.c **** }
 2049              		.loc 1 266 25 is_stmt 0 view .LVU491
 2050 007c 0022     		movs	r2, #0
 2051 007e DA71     		strb	r2, [r3, #7]
 2052              	.LVL160:
 266:Src/usb_pd_protocol.c **** }
 2053              		.loc 1 266 25 view .LVU492
 2054              	.LBE289:
 2055              	.LBE288:
 334:Src/usb_pd_protocol.c **** 
 2056              		.loc 1 334 2 is_stmt 1 view .LVU493
 334:Src/usb_pd_protocol.c **** 
 2057              		.loc 1 334 22 is_stmt 0 view .LVU494
 2058 0080 0832     		adds	r2, r2, #8
 2059 0082 1A71     		strb	r2, [r3, #4]
 2060              	.LVL161:
 336:Src/usb_pd_protocol.c **** 		return;
 2061              		.loc 1 336 2 is_stmt 1 view .LVU495
 336:Src/usb_pd_protocol.c **** 		return;
 2062              		.loc 1 336 2 is_stmt 0 view .LVU496
 2063              	.LBE287:
 2064              	.LBE286:
1341:Src/usb_pd_protocol.c **** 						   pd[port].supply_voltage);
 2065              		.loc 1 1341 4 is_stmt 1 view .LVU497
 2066 0084 5A6B     		ldr	r2, [r3, #52]
 2067 0086 196B     		ldr	r1, [r3, #48]
 2068 0088 2000     		movs	r0, r4
 2069 008a FFF7FEFF 		bl	pd_set_input_current_limit
ARM GAS  /tmp/ccoQIC4J.s 			page 81


 2070              	.LVL162:
 2071 008e DBE7     		b	.L127
 2072              	.LVL163:
 2073              	.L169:
1318:Src/usb_pd_protocol.c **** 		} else if (pd[port].task_state == PD_STATE_SRC_SWAP_STANDBY) {
 2074              		.loc 1 1318 4 view .LVU498
 2075              	.LBB290:
 2076              	.LBI290:
 326:Src/usb_pd_protocol.c **** {
 2077              		.loc 1 326 20 view .LVU499
 2078              	.LBB291:
 328:Src/usb_pd_protocol.c **** #ifdef CONFIG_LOW_POWER_IDLE
 2079              		.loc 1 328 2 view .LVU500
 333:Src/usb_pd_protocol.c **** 	pd[port].task_state = next_state;
 2080              		.loc 1 333 2 view .LVU501
 2081              	.LBB292:
 2082              	.LBI292:
 261:Src/usb_pd_protocol.c **** 				     uint64_t timeout,
 2083              		.loc 1 261 20 view .LVU502
 2084              	.LBB293:
 265:Src/usb_pd_protocol.c **** 	pd[port].timeout_state = timeout_state;
 2085              		.loc 1 265 2 view .LVU503
 265:Src/usb_pd_protocol.c **** 	pd[port].timeout_state = timeout_state;
 2086              		.loc 1 265 19 is_stmt 0 view .LVU504
 2087 0090 A44B     		ldr	r3, .L188+4
 2088 0092 9C18     		adds	r4, r3, r2
 2089 0094 0022     		movs	r2, #0
 2090 0096 0023     		movs	r3, #0
 2091 0098 2261     		str	r2, [r4, #16]
 2092 009a 6361     		str	r3, [r4, #20]
 266:Src/usb_pd_protocol.c **** }
 2093              		.loc 1 266 2 is_stmt 1 view .LVU505
 266:Src/usb_pd_protocol.c **** }
 2094              		.loc 1 266 25 is_stmt 0 view .LVU506
 2095 009c 0023     		movs	r3, #0
 2096 009e E371     		strb	r3, [r4, #7]
 2097              	.LVL164:
 266:Src/usb_pd_protocol.c **** }
 2098              		.loc 1 266 25 view .LVU507
 2099              	.LBE293:
 2100              	.LBE292:
 334:Src/usb_pd_protocol.c **** 
 2101              		.loc 1 334 2 is_stmt 1 view .LVU508
 334:Src/usb_pd_protocol.c **** 
 2102              		.loc 1 334 22 is_stmt 0 view .LVU509
 2103 00a0 0C33     		adds	r3, r3, #12
 2104 00a2 2371     		strb	r3, [r4, #4]
 336:Src/usb_pd_protocol.c **** 		return;
 2105              		.loc 1 336 2 is_stmt 1 view .LVU510
 2106 00a4 D0E7     		b	.L127
 2107              	.LVL165:
 2108              	.L170:
 336:Src/usb_pd_protocol.c **** 		return;
 2109              		.loc 1 336 2 is_stmt 0 view .LVU511
 2110              	.LBE291:
 2111              	.LBE290:
1321:Src/usb_pd_protocol.c **** 			pd[port].power_role = PD_ROLE_SINK;
ARM GAS  /tmp/ccoQIC4J.s 			page 82


 2112              		.loc 1 1321 4 is_stmt 1 view .LVU512
1321:Src/usb_pd_protocol.c **** 			pd[port].power_role = PD_ROLE_SINK;
 2113              		.loc 1 1321 20 is_stmt 0 view .LVU513
 2114 00a6 9F4B     		ldr	r3, .L188+4
 2115 00a8 C201     		lsls	r2, r0, #7
 2116 00aa 9D18     		adds	r5, r3, r2
 2117 00ac 0026     		movs	r6, #0
 2118 00ae AE70     		strb	r6, [r5, #2]
1322:Src/usb_pd_protocol.c **** 			pd_update_roles(port);
 2119              		.loc 1 1322 4 is_stmt 1 view .LVU514
1322:Src/usb_pd_protocol.c **** 			pd_update_roles(port);
 2120              		.loc 1 1322 24 is_stmt 0 view .LVU515
 2121 00b0 D654     		strb	r6, [r2, r3]
1323:Src/usb_pd_protocol.c **** 			set_state(port, PD_STATE_SNK_DISCOVERY);
 2122              		.loc 1 1323 4 is_stmt 1 view .LVU516
 2123 00b2 FFF7FEFF 		bl	pd_update_roles
 2124              	.LVL166:
1324:Src/usb_pd_protocol.c **** #ifdef CONFIG_USBC_VCONN_SWAP
 2125              		.loc 1 1324 4 view .LVU517
 2126              	.LBB294:
 2127              	.LBI294:
 326:Src/usb_pd_protocol.c **** {
 2128              		.loc 1 326 20 view .LVU518
 2129              	.LBB295:
 328:Src/usb_pd_protocol.c **** #ifdef CONFIG_LOW_POWER_IDLE
 2130              		.loc 1 328 2 view .LVU519
 333:Src/usb_pd_protocol.c **** 	pd[port].task_state = next_state;
 2131              		.loc 1 333 2 view .LVU520
 2132              	.LBB296:
 2133              	.LBI296:
 261:Src/usb_pd_protocol.c **** 				     uint64_t timeout,
 2134              		.loc 1 261 20 view .LVU521
 2135              	.LBB297:
 265:Src/usb_pd_protocol.c **** 	pd[port].timeout_state = timeout_state;
 2136              		.loc 1 265 2 view .LVU522
 265:Src/usb_pd_protocol.c **** 	pd[port].timeout_state = timeout_state;
 2137              		.loc 1 265 19 is_stmt 0 view .LVU523
 2138 00b6 0022     		movs	r2, #0
 2139 00b8 0023     		movs	r3, #0
 2140 00ba 2A61     		str	r2, [r5, #16]
 2141 00bc 6B61     		str	r3, [r5, #20]
 266:Src/usb_pd_protocol.c **** }
 2142              		.loc 1 266 2 is_stmt 1 view .LVU524
 266:Src/usb_pd_protocol.c **** }
 2143              		.loc 1 266 25 is_stmt 0 view .LVU525
 2144 00be EE71     		strb	r6, [r5, #7]
 2145              	.LVL167:
 266:Src/usb_pd_protocol.c **** }
 2146              		.loc 1 266 25 view .LVU526
 2147              	.LBE297:
 2148              	.LBE296:
 334:Src/usb_pd_protocol.c **** 
 2149              		.loc 1 334 2 is_stmt 1 view .LVU527
 334:Src/usb_pd_protocol.c **** 
 2150              		.loc 1 334 22 is_stmt 0 view .LVU528
 2151 00c0 0523     		movs	r3, #5
 2152 00c2 2B71     		strb	r3, [r5, #4]
ARM GAS  /tmp/ccoQIC4J.s 			page 83


 336:Src/usb_pd_protocol.c **** 		return;
 2153              		.loc 1 336 2 is_stmt 1 view .LVU529
 2154 00c4 C0E7     		b	.L127
 2155              	.LVL168:
 2156              	.L171:
 336:Src/usb_pd_protocol.c **** 		return;
 2157              		.loc 1 336 2 is_stmt 0 view .LVU530
 2158              	.LBE295:
 2159              	.LBE294:
1336:Src/usb_pd_protocol.c **** 		} else if (pd[port].task_state == PD_STATE_SNK_SWAP_STANDBY) {
 2160              		.loc 1 1336 4 is_stmt 1 view .LVU531
 2161              	.LBB298:
 2162              	.LBI298:
 326:Src/usb_pd_protocol.c **** {
 2163              		.loc 1 326 20 view .LVU532
 2164              	.LBB299:
 328:Src/usb_pd_protocol.c **** #ifdef CONFIG_LOW_POWER_IDLE
 2165              		.loc 1 328 2 view .LVU533
 333:Src/usb_pd_protocol.c **** 	pd[port].task_state = next_state;
 2166              		.loc 1 333 2 view .LVU534
 2167              	.LBB300:
 2168              	.LBI300:
 261:Src/usb_pd_protocol.c **** 				     uint64_t timeout,
 2169              		.loc 1 261 20 view .LVU535
 2170              	.LBB301:
 265:Src/usb_pd_protocol.c **** 	pd[port].timeout_state = timeout_state;
 2171              		.loc 1 265 2 view .LVU536
 265:Src/usb_pd_protocol.c **** 	pd[port].timeout_state = timeout_state;
 2172              		.loc 1 265 19 is_stmt 0 view .LVU537
 2173 00c6 C401     		lsls	r4, r0, #7
 2174 00c8 964B     		ldr	r3, .L188+4
 2175 00ca 1C19     		adds	r4, r3, r4
 2176 00cc 0022     		movs	r2, #0
 2177 00ce 0023     		movs	r3, #0
 2178 00d0 2261     		str	r2, [r4, #16]
 2179 00d2 6361     		str	r3, [r4, #20]
 266:Src/usb_pd_protocol.c **** }
 2180              		.loc 1 266 2 is_stmt 1 view .LVU538
 266:Src/usb_pd_protocol.c **** }
 2181              		.loc 1 266 25 is_stmt 0 view .LVU539
 2182 00d4 0023     		movs	r3, #0
 2183 00d6 E371     		strb	r3, [r4, #7]
 2184              	.LVL169:
 266:Src/usb_pd_protocol.c **** }
 2185              		.loc 1 266 25 view .LVU540
 2186              	.LBE301:
 2187              	.LBE300:
 334:Src/usb_pd_protocol.c **** 
 2188              		.loc 1 334 2 is_stmt 1 view .LVU541
 334:Src/usb_pd_protocol.c **** 
 2189              		.loc 1 334 22 is_stmt 0 view .LVU542
 2190 00d8 1F33     		adds	r3, r3, #31
 2191 00da 2371     		strb	r3, [r4, #4]
 2192              	.LVL170:
 336:Src/usb_pd_protocol.c **** 		return;
 2193              		.loc 1 336 2 is_stmt 1 view .LVU543
 2194 00dc B4E7     		b	.L127
ARM GAS  /tmp/ccoQIC4J.s 			page 84


 2195              	.LVL171:
 2196              	.L131:
 336:Src/usb_pd_protocol.c **** 		return;
 2197              		.loc 1 336 2 is_stmt 0 view .LVU544
 2198              	.LBE299:
 2199              	.LBE298:
1354:Src/usb_pd_protocol.c **** 			set_state(port, READY_RETURN_STATE(port));
 2200              		.loc 1 1354 3 is_stmt 1 view .LVU545
1354:Src/usb_pd_protocol.c **** 			set_state(port, READY_RETURN_STATE(port));
 2201              		.loc 1 1354 15 is_stmt 0 view .LVU546
 2202 00de C201     		lsls	r2, r0, #7
 2203 00e0 904B     		ldr	r3, .L188+4
 2204 00e2 9B18     		adds	r3, r3, r2
 2205 00e4 1B79     		ldrb	r3, [r3, #4]
1354:Src/usb_pd_protocol.c **** 			set_state(port, READY_RETURN_STATE(port));
 2206              		.loc 1 1354 6 view .LVU547
 2207 00e6 192B     		cmp	r3, #25
 2208 00e8 19D0     		beq	.L172
1361:Src/usb_pd_protocol.c **** 			set_state(port, PD_STATE_SRC_READY);
 2209              		.loc 1 1361 8 is_stmt 1 view .LVU548
1361:Src/usb_pd_protocol.c **** 			set_state(port, PD_STATE_SRC_READY);
 2210              		.loc 1 1361 11 is_stmt 0 view .LVU549
 2211 00ea 1A2B     		cmp	r3, #26
 2212 00ec 53D0     		beq	.L173
1363:Src/usb_pd_protocol.c **** 			set_state(port, PD_STATE_SNK_READY);
 2213              		.loc 1 1363 8 is_stmt 1 view .LVU550
1363:Src/usb_pd_protocol.c **** 			set_state(port, PD_STATE_SNK_READY);
 2214              		.loc 1 1363 11 is_stmt 0 view .LVU551
 2215 00ee 092B     		cmp	r3, #9
 2216 00f0 5DD0     		beq	.L174
1365:Src/usb_pd_protocol.c **** 			/*
 2217              		.loc 1 1365 8 is_stmt 1 view .LVU552
1365:Src/usb_pd_protocol.c **** 			/*
 2218              		.loc 1 1365 11 is_stmt 0 view .LVU553
 2219 00f2 062B     		cmp	r3, #6
 2220 00f4 A8D1     		bne	.L127
1381:Src/usb_pd_protocol.c **** 				/* We have an explicit contract */
 2221              		.loc 1 1381 4 is_stmt 1 view .LVU554
1381:Src/usb_pd_protocol.c **** 				/* We have an explicit contract */
 2222              		.loc 1 1381 16 is_stmt 0 view .LVU555
 2223 00f6 C201     		lsls	r2, r0, #7
 2224 00f8 8A4B     		ldr	r3, .L188+4
 2225 00fa 9B18     		adds	r3, r3, r2
 2226 00fc 9B68     		ldr	r3, [r3, #8]
1381:Src/usb_pd_protocol.c **** 				/* We have an explicit contract */
 2227              		.loc 1 1381 7 view .LVU556
 2228 00fe 5B06     		lsls	r3, r3, #25
 2229 0100 75D5     		bpl	.L150
1383:Src/usb_pd_protocol.c **** 					/*
 2230              		.loc 1 1383 5 is_stmt 1 view .LVU557
1383:Src/usb_pd_protocol.c **** 					/*
 2231              		.loc 1 1383 8 is_stmt 0 view .LVU558
 2232 0102 0C29     		cmp	r1, #12
 2233 0104 5FD0     		beq	.L175
1405:Src/usb_pd_protocol.c **** 				}
 2234              		.loc 1 1405 6 is_stmt 1 view .LVU559
 2235              	.LVL172:
ARM GAS  /tmp/ccoQIC4J.s 			page 85


 2236              	.LBB302:
 2237              	.LBI302:
 326:Src/usb_pd_protocol.c **** {
 2238              		.loc 1 326 20 view .LVU560
 2239              	.LBB303:
 328:Src/usb_pd_protocol.c **** #ifdef CONFIG_LOW_POWER_IDLE
 2240              		.loc 1 328 2 view .LVU561
 333:Src/usb_pd_protocol.c **** 	pd[port].task_state = next_state;
 2241              		.loc 1 333 2 view .LVU562
 2242              	.LBB304:
 2243              	.LBI304:
 261:Src/usb_pd_protocol.c **** 				     uint64_t timeout,
 2244              		.loc 1 261 20 view .LVU563
 2245              	.LBB305:
 265:Src/usb_pd_protocol.c **** 	pd[port].timeout_state = timeout_state;
 2246              		.loc 1 265 2 view .LVU564
 265:Src/usb_pd_protocol.c **** 	pd[port].timeout_state = timeout_state;
 2247              		.loc 1 265 19 is_stmt 0 view .LVU565
 2248 0106 C401     		lsls	r4, r0, #7
 2249 0108 864B     		ldr	r3, .L188+4
 2250 010a 1C19     		adds	r4, r3, r4
 2251 010c 0022     		movs	r2, #0
 2252 010e 0023     		movs	r3, #0
 2253 0110 2261     		str	r2, [r4, #16]
 2254 0112 6361     		str	r3, [r4, #20]
 266:Src/usb_pd_protocol.c **** }
 2255              		.loc 1 266 2 is_stmt 1 view .LVU566
 266:Src/usb_pd_protocol.c **** }
 2256              		.loc 1 266 25 is_stmt 0 view .LVU567
 2257 0114 0023     		movs	r3, #0
 2258 0116 E371     		strb	r3, [r4, #7]
 2259              	.LVL173:
 266:Src/usb_pd_protocol.c **** }
 2260              		.loc 1 266 25 view .LVU568
 2261              	.LBE305:
 2262              	.LBE304:
 334:Src/usb_pd_protocol.c **** 
 2263              		.loc 1 334 2 is_stmt 1 view .LVU569
 334:Src/usb_pd_protocol.c **** 
 2264              		.loc 1 334 22 is_stmt 0 view .LVU570
 2265 0118 0833     		adds	r3, r3, #8
 2266 011a 2371     		strb	r3, [r4, #4]
 2267              	.LVL174:
 336:Src/usb_pd_protocol.c **** 		return;
 2268              		.loc 1 336 2 is_stmt 1 view .LVU571
 2269 011c 94E7     		b	.L127
 2270              	.LVL175:
 2271              	.L172:
 336:Src/usb_pd_protocol.c **** 		return;
 2272              		.loc 1 336 2 is_stmt 0 view .LVU572
 2273              	.LBE303:
 2274              	.LBE302:
1355:Src/usb_pd_protocol.c **** #ifdef CONFIG_USBC_VCONN_SWAP
 2275              		.loc 1 1355 4 is_stmt 1 view .LVU573
1355:Src/usb_pd_protocol.c **** #ifdef CONFIG_USBC_VCONN_SWAP
 2276              		.loc 1 1355 20 is_stmt 0 view .LVU574
 2277 011e 1300     		movs	r3, r2
ARM GAS  /tmp/ccoQIC4J.s 			page 86


 2278 0120 804A     		ldr	r2, .L188+4
 2279 0122 9B5C     		ldrb	r3, [r3, r2]
1355:Src/usb_pd_protocol.c **** #ifdef CONFIG_USBC_VCONN_SWAP
 2280              		.loc 1 1355 4 view .LVU575
 2281 0124 002B     		cmp	r3, #0
 2282 0126 2AD1     		bne	.L166
 2283 0128 0822     		movs	r2, #8
 2284              	.L143:
 2285              	.LVL176:
 2286              	.LBB306:
 2287              	.LBI306:
 326:Src/usb_pd_protocol.c **** {
 2288              		.loc 1 326 20 is_stmt 1 discriminator 4 view .LVU576
 2289              	.LBB307:
 328:Src/usb_pd_protocol.c **** #ifdef CONFIG_LOW_POWER_IDLE
 2290              		.loc 1 328 2 discriminator 4 view .LVU577
 328:Src/usb_pd_protocol.c **** #ifdef CONFIG_LOW_POWER_IDLE
 2291              		.loc 1 328 17 is_stmt 0 discriminator 4 view .LVU578
 2292 012a E101     		lsls	r1, r4, #7
 2293              	.LVL177:
 328:Src/usb_pd_protocol.c **** #ifdef CONFIG_LOW_POWER_IDLE
 2294              		.loc 1 328 17 discriminator 4 view .LVU579
 2295 012c 7D4B     		ldr	r3, .L188+4
 2296 012e 5B18     		adds	r3, r3, r1
 2297 0130 1D79     		ldrb	r5, [r3, #4]
 2298              	.LVL178:
 333:Src/usb_pd_protocol.c **** 	pd[port].task_state = next_state;
 2299              		.loc 1 333 2 is_stmt 1 discriminator 4 view .LVU580
 2300              	.LBB308:
 2301              	.LBI308:
 261:Src/usb_pd_protocol.c **** 				     uint64_t timeout,
 2302              		.loc 1 261 20 discriminator 4 view .LVU581
 2303              	.LBB309:
 265:Src/usb_pd_protocol.c **** 	pd[port].timeout_state = timeout_state;
 2304              		.loc 1 265 2 discriminator 4 view .LVU582
 265:Src/usb_pd_protocol.c **** 	pd[port].timeout_state = timeout_state;
 2305              		.loc 1 265 19 is_stmt 0 discriminator 4 view .LVU583
 2306 0132 0020     		movs	r0, #0
 2307              	.LVL179:
 265:Src/usb_pd_protocol.c **** 	pd[port].timeout_state = timeout_state;
 2308              		.loc 1 265 19 discriminator 4 view .LVU584
 2309 0134 0021     		movs	r1, #0
 2310 0136 1861     		str	r0, [r3, #16]
 2311 0138 5961     		str	r1, [r3, #20]
 266:Src/usb_pd_protocol.c **** }
 2312              		.loc 1 266 2 is_stmt 1 discriminator 4 view .LVU585
 266:Src/usb_pd_protocol.c **** }
 2313              		.loc 1 266 25 is_stmt 0 discriminator 4 view .LVU586
 2314 013a 0021     		movs	r1, #0
 2315 013c D971     		strb	r1, [r3, #7]
 2316              	.LVL180:
 266:Src/usb_pd_protocol.c **** }
 2317              		.loc 1 266 25 discriminator 4 view .LVU587
 2318              	.LBE309:
 2319              	.LBE308:
 334:Src/usb_pd_protocol.c **** 
 2320              		.loc 1 334 2 is_stmt 1 discriminator 4 view .LVU588
ARM GAS  /tmp/ccoQIC4J.s 			page 87


 334:Src/usb_pd_protocol.c **** 
 2321              		.loc 1 334 22 is_stmt 0 discriminator 4 view .LVU589
 2322 013e 1A71     		strb	r2, [r3, #4]
 336:Src/usb_pd_protocol.c **** 		return;
 2323              		.loc 1 336 2 is_stmt 1 discriminator 4 view .LVU590
 336:Src/usb_pd_protocol.c **** 		return;
 2324              		.loc 1 336 5 is_stmt 0 discriminator 4 view .LVU591
 2325 0140 AA42     		cmp	r2, r5
 2326 0142 00D1     		bne	.LCB2195
 2327 0144 80E7     		b	.L127	@long jump
 2328              	.LCB2195:
 347:Src/usb_pd_protocol.c **** 	     next_state == PD_STATE_SRC_DISCONNECTED) ||
 2329              		.loc 1 347 2 is_stmt 1 view .LVU592
 347:Src/usb_pd_protocol.c **** 	     next_state == PD_STATE_SRC_DISCONNECTED) ||
 2330              		.loc 1 347 5 is_stmt 0 view .LVU593
 2331 0146 022D     		cmp	r5, #2
 2332 0148 1BD0     		beq	.L176
 2333              	.L144:
 348:Src/usb_pd_protocol.c **** 	    (last_state == PD_STATE_SRC_DISCONNECTED &&
 2334              		.loc 1 348 48 view .LVU594
 2335 014a 0E2D     		cmp	r5, #14
 2336 014c 1CD0     		beq	.L177
 2337              	.L145:
 353:Src/usb_pd_protocol.c **** 	    next_state == PD_STATE_SNK_DISCONNECTED) {
 2338              		.loc 1 353 2 is_stmt 1 view .LVU595
 353:Src/usb_pd_protocol.c **** 	    next_state == PD_STATE_SNK_DISCONNECTED) {
 2339              		.loc 1 353 5 is_stmt 0 view .LVU596
 2340 014e 0E2A     		cmp	r2, #14
 2341 0150 02D0     		beq	.L146
 353:Src/usb_pd_protocol.c **** 	    next_state == PD_STATE_SNK_DISCONNECTED) {
 2342              		.loc 1 353 46 view .LVU597
 2343 0152 022A     		cmp	r2, #2
 2344 0154 00D0     		beq	.LCB2208
 2345 0156 77E7     		b	.L127	@long jump
 2346              	.LCB2208:
 2347              	.L146:
 356:Src/usb_pd_protocol.c **** #ifdef CONFIG_CHARGE_MANAGER
 2348              		.loc 1 356 3 is_stmt 1 view .LVU598
 2349 0158 0022     		movs	r2, #0
 2350              	.LVL181:
 356:Src/usb_pd_protocol.c **** #ifdef CONFIG_CHARGE_MANAGER
 2351              		.loc 1 356 3 is_stmt 0 view .LVU599
 2352 015a 0021     		movs	r1, #0
 2353 015c 2000     		movs	r0, r4
 2354 015e FFF7FEFF 		bl	pd_set_input_current_limit
 2355              	.LVL182:
 373:Src/usb_pd_protocol.c **** 			/*
 2356              		.loc 1 373 3 is_stmt 1 view .LVU600
 373:Src/usb_pd_protocol.c **** 			/*
 2357              		.loc 1 373 15 is_stmt 0 view .LVU601
 2358 0162 E301     		lsls	r3, r4, #7
 2359 0164 6F4A     		ldr	r2, .L188+4
 2360 0166 9B5C     		ldrb	r3, [r3, r2]
 373:Src/usb_pd_protocol.c **** 			/*
 2361              		.loc 1 373 6 view .LVU602
 2362 0168 012B     		cmp	r3, #1
 2363 016a 10D0     		beq	.L178
ARM GAS  /tmp/ccoQIC4J.s 			page 88


 2364              	.L147:
 405:Src/usb_pd_protocol.c **** 	}
 2365              		.loc 1 405 3 is_stmt 1 view .LVU603
 2366              	.LVL183:
 2367              	.LBB310:
 2368              	.LBI310:
  94:Inc/tcpm.h    **** {
 2369              		.loc 2 94 19 view .LVU604
 2370              	.LBB311:
  96:Inc/tcpm.h    **** }
 2371              		.loc 2 96 2 view .LVU605
  96:Inc/tcpm.h    **** }
 2372              		.loc 2 96 26 is_stmt 0 view .LVU606
 2373 016c 2201     		lsls	r2, r4, #4
 2374 016e 6E4B     		ldr	r3, .L188+8
 2375 0170 9B18     		adds	r3, r3, r2
 2376 0172 9B68     		ldr	r3, [r3, #8]
  96:Inc/tcpm.h    **** }
 2377              		.loc 2 96 30 view .LVU607
 2378 0174 5B6A     		ldr	r3, [r3, #36]
  96:Inc/tcpm.h    **** }
 2379              		.loc 2 96 9 view .LVU608
 2380 0176 0021     		movs	r1, #0
 2381 0178 2000     		movs	r0, r4
 2382 017a 9847     		blx	r3
 2383              	.LVL184:
 2384 017c 64E7     		b	.L127
 2385              	.LVL185:
 2386              	.L166:
  96:Inc/tcpm.h    **** }
 2387              		.loc 2 96 9 view .LVU609
 2388              	.LBE311:
 2389              	.LBE310:
 2390              	.LBE307:
 2391              	.LBE306:
1355:Src/usb_pd_protocol.c **** #ifdef CONFIG_USBC_VCONN_SWAP
 2392              		.loc 1 1355 4 view .LVU610
 2393 017e 1722     		movs	r2, #23
 2394 0180 D3E7     		b	.L143
 2395              	.LVL186:
 2396              	.L176:
 2397              	.LBB313:
 2398              	.LBB312:
 347:Src/usb_pd_protocol.c **** 	     next_state == PD_STATE_SRC_DISCONNECTED) ||
 2399              		.loc 1 347 47 view .LVU611
 2400 0182 0E2A     		cmp	r2, #14
 2401 0184 E1D1     		bne	.L144
 2402 0186 5FE7     		b	.L127
 2403              	.L177:
 349:Src/usb_pd_protocol.c **** 	     next_state == PD_STATE_SNK_DISCONNECTED))
 2404              		.loc 1 349 47 view .LVU612
 2405 0188 022A     		cmp	r2, #2
