ARM GAS  /tmp/ccAhcryT.s 			page 1


   1              		.cpu cortex-m0
   2              		.eabi_attribute 20, 1
   3              		.eabi_attribute 21, 1
   4              		.eabi_attribute 23, 3
   5              		.eabi_attribute 24, 1
   6              		.eabi_attribute 25, 1
   7              		.eabi_attribute 26, 1
   8              		.eabi_attribute 30, 1
   9              		.eabi_attribute 34, 0
  10              		.eabi_attribute 18, 4
  11              		.file	"cmsis_os.c"
  12              		.text
  13              	.Ltext0:
  14              		.cfi_sections	.debug_frame
  15              		.section	.text.makeFreeRtosPriority,"ax",%progbits
  16              		.align	1
  17              		.arch armv6s-m
  18              		.syntax unified
  19              		.code	16
  20              		.thumb_func
  21              		.fpu softvfp
  23              	makeFreeRtosPriority:
  24              	.LVL0:
  25              	.LFB25:
  26              		.file 1 "Middlewares/Third_Party/FreeRTOS/Source/CMSIS_RTOS/cmsis_os.c"
   1:Middlewares/Third_Party/FreeRTOS/Source/CMSIS_RTOS/cmsis_os.c **** /* ----------------------------------------------------------------------
   2:Middlewares/Third_Party/FreeRTOS/Source/CMSIS_RTOS/cmsis_os.c ****  * $Date:        5. February 2013
   3:Middlewares/Third_Party/FreeRTOS/Source/CMSIS_RTOS/cmsis_os.c ****  * $Revision:    V1.02
   4:Middlewares/Third_Party/FreeRTOS/Source/CMSIS_RTOS/cmsis_os.c ****  *
   5:Middlewares/Third_Party/FreeRTOS/Source/CMSIS_RTOS/cmsis_os.c ****  * Project:      CMSIS-RTOS API
   6:Middlewares/Third_Party/FreeRTOS/Source/CMSIS_RTOS/cmsis_os.c ****  * Title:        cmsis_os.c
   7:Middlewares/Third_Party/FreeRTOS/Source/CMSIS_RTOS/cmsis_os.c ****  *
   8:Middlewares/Third_Party/FreeRTOS/Source/CMSIS_RTOS/cmsis_os.c ****  * Version 0.02
   9:Middlewares/Third_Party/FreeRTOS/Source/CMSIS_RTOS/cmsis_os.c ****  *    Initial Proposal Phase
  10:Middlewares/Third_Party/FreeRTOS/Source/CMSIS_RTOS/cmsis_os.c ****  * Version 0.03
  11:Middlewares/Third_Party/FreeRTOS/Source/CMSIS_RTOS/cmsis_os.c ****  *    osKernelStart added, optional feature: main started as thread
  12:Middlewares/Third_Party/FreeRTOS/Source/CMSIS_RTOS/cmsis_os.c ****  *    osSemaphores have standard behavior
  13:Middlewares/Third_Party/FreeRTOS/Source/CMSIS_RTOS/cmsis_os.c ****  *    osTimerCreate does not start the timer, added osTimerStart
  14:Middlewares/Third_Party/FreeRTOS/Source/CMSIS_RTOS/cmsis_os.c ****  *    osThreadPass is renamed to osThreadYield
  15:Middlewares/Third_Party/FreeRTOS/Source/CMSIS_RTOS/cmsis_os.c ****  * Version 1.01
  16:Middlewares/Third_Party/FreeRTOS/Source/CMSIS_RTOS/cmsis_os.c ****  *    Support for C++ interface
  17:Middlewares/Third_Party/FreeRTOS/Source/CMSIS_RTOS/cmsis_os.c ****  *     - const attribute removed from the osXxxxDef_t typedef's
  18:Middlewares/Third_Party/FreeRTOS/Source/CMSIS_RTOS/cmsis_os.c ****  *     - const attribute added to the osXxxxDef macros
  19:Middlewares/Third_Party/FreeRTOS/Source/CMSIS_RTOS/cmsis_os.c ****  *    Added: osTimerDelete, osMutexDelete, osSemaphoreDelete
  20:Middlewares/Third_Party/FreeRTOS/Source/CMSIS_RTOS/cmsis_os.c ****  *    Added: osKernelInitialize
  21:Middlewares/Third_Party/FreeRTOS/Source/CMSIS_RTOS/cmsis_os.c ****  * Version 1.02
  22:Middlewares/Third_Party/FreeRTOS/Source/CMSIS_RTOS/cmsis_os.c ****  *    Control functions for short timeouts in microsecond resolution:
  23:Middlewares/Third_Party/FreeRTOS/Source/CMSIS_RTOS/cmsis_os.c ****  *    Added: osKernelSysTick, osKernelSysTickFrequency, osKernelSysTickMicroSec
  24:Middlewares/Third_Party/FreeRTOS/Source/CMSIS_RTOS/cmsis_os.c ****  *    Removed: osSignalGet 
  25:Middlewares/Third_Party/FreeRTOS/Source/CMSIS_RTOS/cmsis_os.c ****  *    
  26:Middlewares/Third_Party/FreeRTOS/Source/CMSIS_RTOS/cmsis_os.c ****  *  
  27:Middlewares/Third_Party/FreeRTOS/Source/CMSIS_RTOS/cmsis_os.c ****  *----------------------------------------------------------------------------
  28:Middlewares/Third_Party/FreeRTOS/Source/CMSIS_RTOS/cmsis_os.c ****  *
  29:Middlewares/Third_Party/FreeRTOS/Source/CMSIS_RTOS/cmsis_os.c ****  * Portions Copyright © 2016 STMicroelectronics International N.V. All rights reserved.
  30:Middlewares/Third_Party/FreeRTOS/Source/CMSIS_RTOS/cmsis_os.c ****  * Portions Copyright (c) 2013 ARM LIMITED
  31:Middlewares/Third_Party/FreeRTOS/Source/CMSIS_RTOS/cmsis_os.c ****  * All rights reserved.
  32:Middlewares/Third_Party/FreeRTOS/Source/CMSIS_RTOS/cmsis_os.c ****  * Redistribution and use in source and binary forms, with or without
ARM GAS  /tmp/ccAhcryT.s 			page 2


  33:Middlewares/Third_Party/FreeRTOS/Source/CMSIS_RTOS/cmsis_os.c ****  * modification, are permitted provided that the following conditions are met:
  34:Middlewares/Third_Party/FreeRTOS/Source/CMSIS_RTOS/cmsis_os.c ****  *  - Redistributions of source code must retain the above copyright
  35:Middlewares/Third_Party/FreeRTOS/Source/CMSIS_RTOS/cmsis_os.c ****  *    notice, this list of conditions and the following disclaimer.
  36:Middlewares/Third_Party/FreeRTOS/Source/CMSIS_RTOS/cmsis_os.c ****  *  - Redistributions in binary form must reproduce the above copyright
  37:Middlewares/Third_Party/FreeRTOS/Source/CMSIS_RTOS/cmsis_os.c ****  *    notice, this list of conditions and the following disclaimer in the
  38:Middlewares/Third_Party/FreeRTOS/Source/CMSIS_RTOS/cmsis_os.c ****  *    documentation and/or other materials provided with the distribution.
  39:Middlewares/Third_Party/FreeRTOS/Source/CMSIS_RTOS/cmsis_os.c ****  *  - Neither the name of ARM  nor the names of its contributors may be used
  40:Middlewares/Third_Party/FreeRTOS/Source/CMSIS_RTOS/cmsis_os.c ****  *    to endorse or promote products derived from this software without
  41:Middlewares/Third_Party/FreeRTOS/Source/CMSIS_RTOS/cmsis_os.c ****  *    specific prior written permission.
  42:Middlewares/Third_Party/FreeRTOS/Source/CMSIS_RTOS/cmsis_os.c ****  *
  43:Middlewares/Third_Party/FreeRTOS/Source/CMSIS_RTOS/cmsis_os.c ****  * THIS SOFTWARE IS PROVIDED BY THE COPYRIGHT HOLDERS AND CONTRIBUTORS "AS IS"
  44:Middlewares/Third_Party/FreeRTOS/Source/CMSIS_RTOS/cmsis_os.c ****  * AND ANY EXPRESS OR IMPLIED WARRANTIES, INCLUDING, BUT NOT LIMITED TO, THE
  45:Middlewares/Third_Party/FreeRTOS/Source/CMSIS_RTOS/cmsis_os.c ****  * IMPLIED WARRANTIES OF MERCHANTABILITY AND FITNESS FOR A PARTICULAR PURPOSE
  46:Middlewares/Third_Party/FreeRTOS/Source/CMSIS_RTOS/cmsis_os.c ****  * ARE DISCLAIMED. IN NO EVENT SHALL COPYRIGHT HOLDERS AND CONTRIBUTORS BE
  47:Middlewares/Third_Party/FreeRTOS/Source/CMSIS_RTOS/cmsis_os.c ****  * LIABLE FOR ANY DIRECT, INDIRECT, INCIDENTAL, SPECIAL, EXEMPLARY, OR
  48:Middlewares/Third_Party/FreeRTOS/Source/CMSIS_RTOS/cmsis_os.c ****  * CONSEQUENTIAL DAMAGES (INCLUDING, BUT NOT LIMITED TO, PROCUREMENT OF
  49:Middlewares/Third_Party/FreeRTOS/Source/CMSIS_RTOS/cmsis_os.c ****  * SUBSTITUTE GOODS OR SERVICES; LOSS OF USE, DATA, OR PROFITS; OR BUSINESS
  50:Middlewares/Third_Party/FreeRTOS/Source/CMSIS_RTOS/cmsis_os.c ****  * INTERRUPTION) HOWEVER CAUSED AND ON ANY THEORY OF LIABILITY, WHETHER IN
  51:Middlewares/Third_Party/FreeRTOS/Source/CMSIS_RTOS/cmsis_os.c ****  * CONTRACT, STRICT LIABILITY, OR TORT (INCLUDING NEGLIGENCE OR OTHERWISE)
  52:Middlewares/Third_Party/FreeRTOS/Source/CMSIS_RTOS/cmsis_os.c ****  * ARISING IN ANY WAY OUT OF THE USE OF THIS SOFTWARE, EVEN IF ADVISED OF THE
  53:Middlewares/Third_Party/FreeRTOS/Source/CMSIS_RTOS/cmsis_os.c ****  * POSSIBILITY OF SUCH DAMAGE.
  54:Middlewares/Third_Party/FreeRTOS/Source/CMSIS_RTOS/cmsis_os.c ****  *---------------------------------------------------------------------------*/
  55:Middlewares/Third_Party/FreeRTOS/Source/CMSIS_RTOS/cmsis_os.c **** 
  56:Middlewares/Third_Party/FreeRTOS/Source/CMSIS_RTOS/cmsis_os.c ****  /**
  57:Middlewares/Third_Party/FreeRTOS/Source/CMSIS_RTOS/cmsis_os.c ****   ******************************************************************************
  58:Middlewares/Third_Party/FreeRTOS/Source/CMSIS_RTOS/cmsis_os.c ****   * @file    cmsis_os.c
  59:Middlewares/Third_Party/FreeRTOS/Source/CMSIS_RTOS/cmsis_os.c ****   * @author  MCD Application Team
  60:Middlewares/Third_Party/FreeRTOS/Source/CMSIS_RTOS/cmsis_os.c ****   * @date    03-March-2017
  61:Middlewares/Third_Party/FreeRTOS/Source/CMSIS_RTOS/cmsis_os.c ****   * @brief   CMSIS-RTOS API implementation for FreeRTOS V9.0.0
  62:Middlewares/Third_Party/FreeRTOS/Source/CMSIS_RTOS/cmsis_os.c ****   ******************************************************************************
  63:Middlewares/Third_Party/FreeRTOS/Source/CMSIS_RTOS/cmsis_os.c ****   * @attention
  64:Middlewares/Third_Party/FreeRTOS/Source/CMSIS_RTOS/cmsis_os.c ****   *
  65:Middlewares/Third_Party/FreeRTOS/Source/CMSIS_RTOS/cmsis_os.c ****   * Redistribution and use in source and binary forms, with or without 
  66:Middlewares/Third_Party/FreeRTOS/Source/CMSIS_RTOS/cmsis_os.c ****   * modification, are permitted, provided that the following conditions are met:
  67:Middlewares/Third_Party/FreeRTOS/Source/CMSIS_RTOS/cmsis_os.c ****   *
  68:Middlewares/Third_Party/FreeRTOS/Source/CMSIS_RTOS/cmsis_os.c ****   * 1. Redistribution of source code must retain the above copyright notice, 
  69:Middlewares/Third_Party/FreeRTOS/Source/CMSIS_RTOS/cmsis_os.c ****   *    this list of conditions and the following disclaimer.
  70:Middlewares/Third_Party/FreeRTOS/Source/CMSIS_RTOS/cmsis_os.c ****   * 2. Redistributions in binary form must reproduce the above copyright notice,
  71:Middlewares/Third_Party/FreeRTOS/Source/CMSIS_RTOS/cmsis_os.c ****   *    this list of conditions and the following disclaimer in the documentation
  72:Middlewares/Third_Party/FreeRTOS/Source/CMSIS_RTOS/cmsis_os.c ****   *    and/or other materials provided with the distribution.
  73:Middlewares/Third_Party/FreeRTOS/Source/CMSIS_RTOS/cmsis_os.c ****   * 3. Neither the name of STMicroelectronics nor the names of other 
  74:Middlewares/Third_Party/FreeRTOS/Source/CMSIS_RTOS/cmsis_os.c ****   *    contributors to this software may be used to endorse or promote products 
  75:Middlewares/Third_Party/FreeRTOS/Source/CMSIS_RTOS/cmsis_os.c ****   *    derived from this software without specific written permission.
  76:Middlewares/Third_Party/FreeRTOS/Source/CMSIS_RTOS/cmsis_os.c ****   * 4. This software, including modifications and/or derivative works of this 
  77:Middlewares/Third_Party/FreeRTOS/Source/CMSIS_RTOS/cmsis_os.c ****   *    software, must execute solely and exclusively on microcontroller or
  78:Middlewares/Third_Party/FreeRTOS/Source/CMSIS_RTOS/cmsis_os.c ****   *    microprocessor devices manufactured by or for STMicroelectronics.
  79:Middlewares/Third_Party/FreeRTOS/Source/CMSIS_RTOS/cmsis_os.c ****   * 5. Redistribution and use of this software other than as permitted under 
  80:Middlewares/Third_Party/FreeRTOS/Source/CMSIS_RTOS/cmsis_os.c ****   *    this license is void and will automatically terminate your rights under 
  81:Middlewares/Third_Party/FreeRTOS/Source/CMSIS_RTOS/cmsis_os.c ****   *    this license. 
  82:Middlewares/Third_Party/FreeRTOS/Source/CMSIS_RTOS/cmsis_os.c ****   *
  83:Middlewares/Third_Party/FreeRTOS/Source/CMSIS_RTOS/cmsis_os.c ****   * THIS SOFTWARE IS PROVIDED BY STMICROELECTRONICS AND CONTRIBUTORS "AS IS" 
  84:Middlewares/Third_Party/FreeRTOS/Source/CMSIS_RTOS/cmsis_os.c ****   * AND ANY EXPRESS, IMPLIED OR STATUTORY WARRANTIES, INCLUDING, BUT NOT 
  85:Middlewares/Third_Party/FreeRTOS/Source/CMSIS_RTOS/cmsis_os.c ****   * LIMITED TO, THE IMPLIED WARRANTIES OF MERCHANTABILITY, FITNESS FOR A 
  86:Middlewares/Third_Party/FreeRTOS/Source/CMSIS_RTOS/cmsis_os.c ****   * PARTICULAR PURPOSE AND NON-INFRINGEMENT OF THIRD PARTY INTELLECTUAL PROPERTY
  87:Middlewares/Third_Party/FreeRTOS/Source/CMSIS_RTOS/cmsis_os.c ****   * RIGHTS ARE DISCLAIMED TO THE FULLEST EXTENT PERMITTED BY LAW. IN NO EVENT 
  88:Middlewares/Third_Party/FreeRTOS/Source/CMSIS_RTOS/cmsis_os.c ****   * SHALL STMICROELECTRONICS OR CONTRIBUTORS BE LIABLE FOR ANY DIRECT, INDIRECT,
  89:Middlewares/Third_Party/FreeRTOS/Source/CMSIS_RTOS/cmsis_os.c ****   * INCIDENTAL, SPECIAL, EXEMPLARY, OR CONSEQUENTIAL DAMAGES (INCLUDING, BUT NOT
ARM GAS  /tmp/ccAhcryT.s 			page 3


  90:Middlewares/Third_Party/FreeRTOS/Source/CMSIS_RTOS/cmsis_os.c ****   * LIMITED TO, PROCUREMENT OF SUBSTITUTE GOODS OR SERVICES; LOSS OF USE, DATA, 
  91:Middlewares/Third_Party/FreeRTOS/Source/CMSIS_RTOS/cmsis_os.c ****   * OR PROFITS; OR BUSINESS INTERRUPTION) HOWEVER CAUSED AND ON ANY THEORY OF 
  92:Middlewares/Third_Party/FreeRTOS/Source/CMSIS_RTOS/cmsis_os.c ****   * LIABILITY, WHETHER IN CONTRACT, STRICT LIABILITY, OR TORT (INCLUDING 
  93:Middlewares/Third_Party/FreeRTOS/Source/CMSIS_RTOS/cmsis_os.c ****   * NEGLIGENCE OR OTHERWISE) ARISING IN ANY WAY OUT OF THE USE OF THIS SOFTWARE,
  94:Middlewares/Third_Party/FreeRTOS/Source/CMSIS_RTOS/cmsis_os.c ****   * EVEN IF ADVISED OF THE POSSIBILITY OF SUCH DAMAGE.
  95:Middlewares/Third_Party/FreeRTOS/Source/CMSIS_RTOS/cmsis_os.c ****   *
  96:Middlewares/Third_Party/FreeRTOS/Source/CMSIS_RTOS/cmsis_os.c ****   ******************************************************************************
  97:Middlewares/Third_Party/FreeRTOS/Source/CMSIS_RTOS/cmsis_os.c ****   */ 
  98:Middlewares/Third_Party/FreeRTOS/Source/CMSIS_RTOS/cmsis_os.c **** 
  99:Middlewares/Third_Party/FreeRTOS/Source/CMSIS_RTOS/cmsis_os.c **** #include <string.h>
 100:Middlewares/Third_Party/FreeRTOS/Source/CMSIS_RTOS/cmsis_os.c **** #include "cmsis_os.h"
 101:Middlewares/Third_Party/FreeRTOS/Source/CMSIS_RTOS/cmsis_os.c **** 
 102:Middlewares/Third_Party/FreeRTOS/Source/CMSIS_RTOS/cmsis_os.c **** /*
 103:Middlewares/Third_Party/FreeRTOS/Source/CMSIS_RTOS/cmsis_os.c ****  * ARM Compiler 4/5
 104:Middlewares/Third_Party/FreeRTOS/Source/CMSIS_RTOS/cmsis_os.c ****  */
 105:Middlewares/Third_Party/FreeRTOS/Source/CMSIS_RTOS/cmsis_os.c **** #if   defined ( __CC_ARM )
 106:Middlewares/Third_Party/FreeRTOS/Source/CMSIS_RTOS/cmsis_os.c **** 
 107:Middlewares/Third_Party/FreeRTOS/Source/CMSIS_RTOS/cmsis_os.c ****   #define __ASM            __asm                                      
 108:Middlewares/Third_Party/FreeRTOS/Source/CMSIS_RTOS/cmsis_os.c ****   #define __INLINE         __inline                                     
 109:Middlewares/Third_Party/FreeRTOS/Source/CMSIS_RTOS/cmsis_os.c ****   #define __STATIC_INLINE  static __inline
 110:Middlewares/Third_Party/FreeRTOS/Source/CMSIS_RTOS/cmsis_os.c ****   #include "cmsis_armcc.h"
 111:Middlewares/Third_Party/FreeRTOS/Source/CMSIS_RTOS/cmsis_os.c **** 
 112:Middlewares/Third_Party/FreeRTOS/Source/CMSIS_RTOS/cmsis_os.c **** /*
 113:Middlewares/Third_Party/FreeRTOS/Source/CMSIS_RTOS/cmsis_os.c ****  * GNU Compiler
 114:Middlewares/Third_Party/FreeRTOS/Source/CMSIS_RTOS/cmsis_os.c ****  */
 115:Middlewares/Third_Party/FreeRTOS/Source/CMSIS_RTOS/cmsis_os.c **** #elif defined ( __GNUC__ )
 116:Middlewares/Third_Party/FreeRTOS/Source/CMSIS_RTOS/cmsis_os.c **** 
 117:Middlewares/Third_Party/FreeRTOS/Source/CMSIS_RTOS/cmsis_os.c ****   #define __ASM            __asm                                      /*!< asm keyword for GNU Comp
 118:Middlewares/Third_Party/FreeRTOS/Source/CMSIS_RTOS/cmsis_os.c ****   #define __INLINE         inline                                     /*!< inline keyword for GNU C
 119:Middlewares/Third_Party/FreeRTOS/Source/CMSIS_RTOS/cmsis_os.c ****   #define __STATIC_INLINE  static inline
 120:Middlewares/Third_Party/FreeRTOS/Source/CMSIS_RTOS/cmsis_os.c **** 
 121:Middlewares/Third_Party/FreeRTOS/Source/CMSIS_RTOS/cmsis_os.c **** 
 122:Middlewares/Third_Party/FreeRTOS/Source/CMSIS_RTOS/cmsis_os.c ****   #include "cmsis_gcc.h"
 123:Middlewares/Third_Party/FreeRTOS/Source/CMSIS_RTOS/cmsis_os.c **** 
 124:Middlewares/Third_Party/FreeRTOS/Source/CMSIS_RTOS/cmsis_os.c **** 
 125:Middlewares/Third_Party/FreeRTOS/Source/CMSIS_RTOS/cmsis_os.c **** /*
 126:Middlewares/Third_Party/FreeRTOS/Source/CMSIS_RTOS/cmsis_os.c ****  * IAR Compiler
 127:Middlewares/Third_Party/FreeRTOS/Source/CMSIS_RTOS/cmsis_os.c ****  */
 128:Middlewares/Third_Party/FreeRTOS/Source/CMSIS_RTOS/cmsis_os.c **** #elif defined ( __ICCARM__ )
 129:Middlewares/Third_Party/FreeRTOS/Source/CMSIS_RTOS/cmsis_os.c **** 
 130:Middlewares/Third_Party/FreeRTOS/Source/CMSIS_RTOS/cmsis_os.c ****   #ifndef   __ASM
 131:Middlewares/Third_Party/FreeRTOS/Source/CMSIS_RTOS/cmsis_os.c ****     #define __ASM                     __asm
 132:Middlewares/Third_Party/FreeRTOS/Source/CMSIS_RTOS/cmsis_os.c ****   #endif
 133:Middlewares/Third_Party/FreeRTOS/Source/CMSIS_RTOS/cmsis_os.c ****   #ifndef   __INLINE
 134:Middlewares/Third_Party/FreeRTOS/Source/CMSIS_RTOS/cmsis_os.c ****     #define __INLINE                  inline
 135:Middlewares/Third_Party/FreeRTOS/Source/CMSIS_RTOS/cmsis_os.c ****   #endif
 136:Middlewares/Third_Party/FreeRTOS/Source/CMSIS_RTOS/cmsis_os.c ****   #ifndef   __STATIC_INLINE
 137:Middlewares/Third_Party/FreeRTOS/Source/CMSIS_RTOS/cmsis_os.c ****     #define __STATIC_INLINE           static inline
 138:Middlewares/Third_Party/FreeRTOS/Source/CMSIS_RTOS/cmsis_os.c ****   #endif
 139:Middlewares/Third_Party/FreeRTOS/Source/CMSIS_RTOS/cmsis_os.c **** 
 140:Middlewares/Third_Party/FreeRTOS/Source/CMSIS_RTOS/cmsis_os.c ****   #include <cmsis_iar.h>
 141:Middlewares/Third_Party/FreeRTOS/Source/CMSIS_RTOS/cmsis_os.c **** #endif
 142:Middlewares/Third_Party/FreeRTOS/Source/CMSIS_RTOS/cmsis_os.c **** 
 143:Middlewares/Third_Party/FreeRTOS/Source/CMSIS_RTOS/cmsis_os.c **** extern void xPortSysTickHandler(void);
 144:Middlewares/Third_Party/FreeRTOS/Source/CMSIS_RTOS/cmsis_os.c **** 
 145:Middlewares/Third_Party/FreeRTOS/Source/CMSIS_RTOS/cmsis_os.c **** /* Convert from CMSIS type osPriority to FreeRTOS priority number */
 146:Middlewares/Third_Party/FreeRTOS/Source/CMSIS_RTOS/cmsis_os.c **** static unsigned portBASE_TYPE makeFreeRtosPriority (osPriority priority)
ARM GAS  /tmp/ccAhcryT.s 			page 4


 147:Middlewares/Third_Party/FreeRTOS/Source/CMSIS_RTOS/cmsis_os.c **** {
  27              		.loc 1 147 1 view -0
  28              		.cfi_startproc
  29              		@ args = 0, pretend = 0, frame = 0
  30              		@ frame_needed = 0, uses_anonymous_args = 0
  31              		@ link register save eliminated.
 148:Middlewares/Third_Party/FreeRTOS/Source/CMSIS_RTOS/cmsis_os.c ****   unsigned portBASE_TYPE fpriority = tskIDLE_PRIORITY;
  32              		.loc 1 148 3 view .LVU1
 149:Middlewares/Third_Party/FreeRTOS/Source/CMSIS_RTOS/cmsis_os.c ****   
 150:Middlewares/Third_Party/FreeRTOS/Source/CMSIS_RTOS/cmsis_os.c ****   if (priority != osPriorityError) {
  33              		.loc 1 150 3 view .LVU2
  34              		.loc 1 150 6 is_stmt 0 view .LVU3
  35 0000 8428     		cmp	r0, #132
  36 0002 01D0     		beq	.L3
 151:Middlewares/Third_Party/FreeRTOS/Source/CMSIS_RTOS/cmsis_os.c ****     fpriority += (priority - osPriorityIdle);
  37              		.loc 1 151 5 is_stmt 1 view .LVU4
  38              		.loc 1 151 15 is_stmt 0 view .LVU5
  39 0004 0330     		adds	r0, r0, #3
  40              	.LVL1:
  41              	.L1:
 152:Middlewares/Third_Party/FreeRTOS/Source/CMSIS_RTOS/cmsis_os.c ****   }
 153:Middlewares/Third_Party/FreeRTOS/Source/CMSIS_RTOS/cmsis_os.c ****   
 154:Middlewares/Third_Party/FreeRTOS/Source/CMSIS_RTOS/cmsis_os.c ****   return fpriority;
 155:Middlewares/Third_Party/FreeRTOS/Source/CMSIS_RTOS/cmsis_os.c **** }
  42              		.loc 1 155 1 view .LVU6
  43              		@ sp needed
  44 0006 7047     		bx	lr
  45              	.LVL2:
  46              	.L3:
 148:Middlewares/Third_Party/FreeRTOS/Source/CMSIS_RTOS/cmsis_os.c ****   
  47              		.loc 1 148 26 view .LVU7
  48 0008 0020     		movs	r0, #0
  49              	.LVL3:
 154:Middlewares/Third_Party/FreeRTOS/Source/CMSIS_RTOS/cmsis_os.c **** }
  50              		.loc 1 154 3 is_stmt 1 view .LVU8
 154:Middlewares/Third_Party/FreeRTOS/Source/CMSIS_RTOS/cmsis_os.c **** }
  51              		.loc 1 154 10 is_stmt 0 view .LVU9
  52 000a FCE7     		b	.L1
  53              		.cfi_endproc
  54              	.LFE25:
  56              		.section	.text.makeCmsisPriority,"ax",%progbits
  57              		.align	1
  58              		.syntax unified
  59              		.code	16
  60              		.thumb_func
  61              		.fpu softvfp
  63              	makeCmsisPriority:
  64              	.LVL4:
  65              	.LFB26:
 156:Middlewares/Third_Party/FreeRTOS/Source/CMSIS_RTOS/cmsis_os.c **** 
 157:Middlewares/Third_Party/FreeRTOS/Source/CMSIS_RTOS/cmsis_os.c **** #if (INCLUDE_uxTaskPriorityGet == 1)
 158:Middlewares/Third_Party/FreeRTOS/Source/CMSIS_RTOS/cmsis_os.c **** /* Convert from FreeRTOS priority number to CMSIS type osPriority */
 159:Middlewares/Third_Party/FreeRTOS/Source/CMSIS_RTOS/cmsis_os.c **** static osPriority makeCmsisPriority (unsigned portBASE_TYPE fpriority)
 160:Middlewares/Third_Party/FreeRTOS/Source/CMSIS_RTOS/cmsis_os.c **** {
  66              		.loc 1 160 1 is_stmt 1 view -0
  67              		.cfi_startproc
  68              		@ args = 0, pretend = 0, frame = 0
ARM GAS  /tmp/ccAhcryT.s 			page 5


  69              		@ frame_needed = 0, uses_anonymous_args = 0
  70              		@ link register save eliminated.
 161:Middlewares/Third_Party/FreeRTOS/Source/CMSIS_RTOS/cmsis_os.c ****   osPriority priority = osPriorityError;
  71              		.loc 1 161 3 view .LVU11
 162:Middlewares/Third_Party/FreeRTOS/Source/CMSIS_RTOS/cmsis_os.c ****   
 163:Middlewares/Third_Party/FreeRTOS/Source/CMSIS_RTOS/cmsis_os.c ****   if ((fpriority - tskIDLE_PRIORITY) <= (osPriorityRealtime - osPriorityIdle)) {
  72              		.loc 1 163 3 view .LVU12
  73              		.loc 1 163 6 is_stmt 0 view .LVU13
  74 0000 0628     		cmp	r0, #6
  75 0002 02D8     		bhi	.L6
 164:Middlewares/Third_Party/FreeRTOS/Source/CMSIS_RTOS/cmsis_os.c ****     priority = (osPriority)((int)osPriorityIdle + (int)(fpriority - tskIDLE_PRIORITY));
  76              		.loc 1 164 5 is_stmt 1 view .LVU14
  77              		.loc 1 164 49 is_stmt 0 view .LVU15
  78 0004 0338     		subs	r0, r0, #3
  79              	.LVL5:
  80              		.loc 1 164 14 view .LVU16
  81 0006 00B2     		sxth	r0, r0
  82              	.LVL6:
  83              	.L5:
 165:Middlewares/Third_Party/FreeRTOS/Source/CMSIS_RTOS/cmsis_os.c ****   }
 166:Middlewares/Third_Party/FreeRTOS/Source/CMSIS_RTOS/cmsis_os.c ****   
 167:Middlewares/Third_Party/FreeRTOS/Source/CMSIS_RTOS/cmsis_os.c ****   return priority;
  84              		.loc 1 167 3 is_stmt 1 view .LVU17
 168:Middlewares/Third_Party/FreeRTOS/Source/CMSIS_RTOS/cmsis_os.c **** }
  85              		.loc 1 168 1 is_stmt 0 view .LVU18
  86              		@ sp needed
  87 0008 7047     		bx	lr
  88              	.LVL7:
  89              	.L6:
 161:Middlewares/Third_Party/FreeRTOS/Source/CMSIS_RTOS/cmsis_os.c ****   
  90              		.loc 1 161 14 view .LVU19
  91 000a 8420     		movs	r0, #132
  92              	.LVL8:
 161:Middlewares/Third_Party/FreeRTOS/Source/CMSIS_RTOS/cmsis_os.c ****   
  93              		.loc 1 161 14 view .LVU20
  94 000c FCE7     		b	.L5
  95              		.cfi_endproc
  96              	.LFE26:
  98              		.section	.text.inHandlerMode,"ax",%progbits
  99              		.align	1
 100              		.syntax unified
 101              		.code	16
 102              		.thumb_func
 103              		.fpu softvfp
 105              	inHandlerMode:
 106              	.LFB27:
 169:Middlewares/Third_Party/FreeRTOS/Source/CMSIS_RTOS/cmsis_os.c **** #endif
 170:Middlewares/Third_Party/FreeRTOS/Source/CMSIS_RTOS/cmsis_os.c **** 
 171:Middlewares/Third_Party/FreeRTOS/Source/CMSIS_RTOS/cmsis_os.c **** 
 172:Middlewares/Third_Party/FreeRTOS/Source/CMSIS_RTOS/cmsis_os.c **** /* Determine whether we are in thread mode or handler mode. */
 173:Middlewares/Third_Party/FreeRTOS/Source/CMSIS_RTOS/cmsis_os.c **** static int inHandlerMode (void)
 174:Middlewares/Third_Party/FreeRTOS/Source/CMSIS_RTOS/cmsis_os.c **** {
 107              		.loc 1 174 1 is_stmt 1 view -0
 108              		.cfi_startproc
 109              		@ args = 0, pretend = 0, frame = 0
 110              		@ frame_needed = 0, uses_anonymous_args = 0
 111              		@ link register save eliminated.
ARM GAS  /tmp/ccAhcryT.s 			page 6


 175:Middlewares/Third_Party/FreeRTOS/Source/CMSIS_RTOS/cmsis_os.c ****   return __get_IPSR() != 0;
 112              		.loc 1 175 3 view .LVU22
 113              	.LBB4:
 114              	.LBI4:
 115              		.file 2 "Drivers/CMSIS/Include/cmsis_gcc.h"
   1:Drivers/CMSIS/Include/cmsis_gcc.h **** /**************************************************************************//**
   2:Drivers/CMSIS/Include/cmsis_gcc.h ****  * @file     cmsis_gcc.h
   3:Drivers/CMSIS/Include/cmsis_gcc.h ****  * @brief    CMSIS Cortex-M Core Function/Instruction Header File
   4:Drivers/CMSIS/Include/cmsis_gcc.h ****  * @version  V4.30
   5:Drivers/CMSIS/Include/cmsis_gcc.h ****  * @date     20. October 2015
   6:Drivers/CMSIS/Include/cmsis_gcc.h ****  ******************************************************************************/
   7:Drivers/CMSIS/Include/cmsis_gcc.h **** /* Copyright (c) 2009 - 2015 ARM LIMITED
   8:Drivers/CMSIS/Include/cmsis_gcc.h **** 
   9:Drivers/CMSIS/Include/cmsis_gcc.h ****    All rights reserved.
  10:Drivers/CMSIS/Include/cmsis_gcc.h ****    Redistribution and use in source and binary forms, with or without
  11:Drivers/CMSIS/Include/cmsis_gcc.h ****    modification, are permitted provided that the following conditions are met:
  12:Drivers/CMSIS/Include/cmsis_gcc.h ****    - Redistributions of source code must retain the above copyright
  13:Drivers/CMSIS/Include/cmsis_gcc.h ****      notice, this list of conditions and the following disclaimer.
  14:Drivers/CMSIS/Include/cmsis_gcc.h ****    - Redistributions in binary form must reproduce the above copyright
  15:Drivers/CMSIS/Include/cmsis_gcc.h ****      notice, this list of conditions and the following disclaimer in the
  16:Drivers/CMSIS/Include/cmsis_gcc.h ****      documentation and/or other materials provided with the distribution.
  17:Drivers/CMSIS/Include/cmsis_gcc.h ****    - Neither the name of ARM nor the names of its contributors may be used
  18:Drivers/CMSIS/Include/cmsis_gcc.h ****      to endorse or promote products derived from this software without
  19:Drivers/CMSIS/Include/cmsis_gcc.h ****      specific prior written permission.
  20:Drivers/CMSIS/Include/cmsis_gcc.h ****    *
  21:Drivers/CMSIS/Include/cmsis_gcc.h ****    THIS SOFTWARE IS PROVIDED BY THE COPYRIGHT HOLDERS AND CONTRIBUTORS "AS IS"
  22:Drivers/CMSIS/Include/cmsis_gcc.h ****    AND ANY EXPRESS OR IMPLIED WARRANTIES, INCLUDING, BUT NOT LIMITED TO, THE
  23:Drivers/CMSIS/Include/cmsis_gcc.h ****    IMPLIED WARRANTIES OF MERCHANTABILITY AND FITNESS FOR A PARTICULAR PURPOSE
  24:Drivers/CMSIS/Include/cmsis_gcc.h ****    ARE DISCLAIMED. IN NO EVENT SHALL COPYRIGHT HOLDERS AND CONTRIBUTORS BE
  25:Drivers/CMSIS/Include/cmsis_gcc.h ****    LIABLE FOR ANY DIRECT, INDIRECT, INCIDENTAL, SPECIAL, EXEMPLARY, OR
  26:Drivers/CMSIS/Include/cmsis_gcc.h ****    CONSEQUENTIAL DAMAGES (INCLUDING, BUT NOT LIMITED TO, PROCUREMENT OF
  27:Drivers/CMSIS/Include/cmsis_gcc.h ****    SUBSTITUTE GOODS OR SERVICES; LOSS OF USE, DATA, OR PROFITS; OR BUSINESS
  28:Drivers/CMSIS/Include/cmsis_gcc.h ****    INTERRUPTION) HOWEVER CAUSED AND ON ANY THEORY OF LIABILITY, WHETHER IN
  29:Drivers/CMSIS/Include/cmsis_gcc.h ****    CONTRACT, STRICT LIABILITY, OR TORT (INCLUDING NEGLIGENCE OR OTHERWISE)
  30:Drivers/CMSIS/Include/cmsis_gcc.h ****    ARISING IN ANY WAY OUT OF THE USE OF THIS SOFTWARE, EVEN IF ADVISED OF THE
  31:Drivers/CMSIS/Include/cmsis_gcc.h ****    POSSIBILITY OF SUCH DAMAGE.
  32:Drivers/CMSIS/Include/cmsis_gcc.h ****    ---------------------------------------------------------------------------*/
  33:Drivers/CMSIS/Include/cmsis_gcc.h **** 
  34:Drivers/CMSIS/Include/cmsis_gcc.h **** 
  35:Drivers/CMSIS/Include/cmsis_gcc.h **** #ifndef __CMSIS_GCC_H
  36:Drivers/CMSIS/Include/cmsis_gcc.h **** #define __CMSIS_GCC_H
  37:Drivers/CMSIS/Include/cmsis_gcc.h **** 
  38:Drivers/CMSIS/Include/cmsis_gcc.h **** /* ignore some GCC warnings */
  39:Drivers/CMSIS/Include/cmsis_gcc.h **** #if defined ( __GNUC__ )
  40:Drivers/CMSIS/Include/cmsis_gcc.h **** #pragma GCC diagnostic push
  41:Drivers/CMSIS/Include/cmsis_gcc.h **** #pragma GCC diagnostic ignored "-Wsign-conversion"
  42:Drivers/CMSIS/Include/cmsis_gcc.h **** #pragma GCC diagnostic ignored "-Wconversion"
  43:Drivers/CMSIS/Include/cmsis_gcc.h **** #pragma GCC diagnostic ignored "-Wunused-parameter"
  44:Drivers/CMSIS/Include/cmsis_gcc.h **** #endif
  45:Drivers/CMSIS/Include/cmsis_gcc.h **** 
  46:Drivers/CMSIS/Include/cmsis_gcc.h **** 
  47:Drivers/CMSIS/Include/cmsis_gcc.h **** /* ###########################  Core Function Access  ########################### */
  48:Drivers/CMSIS/Include/cmsis_gcc.h **** /** \ingroup  CMSIS_Core_FunctionInterface
  49:Drivers/CMSIS/Include/cmsis_gcc.h ****     \defgroup CMSIS_Core_RegAccFunctions CMSIS Core Register Access Functions
  50:Drivers/CMSIS/Include/cmsis_gcc.h ****   @{
  51:Drivers/CMSIS/Include/cmsis_gcc.h ****  */
  52:Drivers/CMSIS/Include/cmsis_gcc.h **** 
ARM GAS  /tmp/ccAhcryT.s 			page 7


  53:Drivers/CMSIS/Include/cmsis_gcc.h **** /**
  54:Drivers/CMSIS/Include/cmsis_gcc.h ****   \brief   Enable IRQ Interrupts
  55:Drivers/CMSIS/Include/cmsis_gcc.h ****   \details Enables IRQ interrupts by clearing the I-bit in the CPSR.
  56:Drivers/CMSIS/Include/cmsis_gcc.h ****            Can only be executed in Privileged modes.
  57:Drivers/CMSIS/Include/cmsis_gcc.h ****  */
  58:Drivers/CMSIS/Include/cmsis_gcc.h **** __attribute__( ( always_inline ) ) __STATIC_INLINE void __enable_irq(void)
  59:Drivers/CMSIS/Include/cmsis_gcc.h **** {
  60:Drivers/CMSIS/Include/cmsis_gcc.h ****   __ASM volatile ("cpsie i" : : : "memory");
  61:Drivers/CMSIS/Include/cmsis_gcc.h **** }
  62:Drivers/CMSIS/Include/cmsis_gcc.h **** 
  63:Drivers/CMSIS/Include/cmsis_gcc.h **** 
  64:Drivers/CMSIS/Include/cmsis_gcc.h **** /**
  65:Drivers/CMSIS/Include/cmsis_gcc.h ****   \brief   Disable IRQ Interrupts
  66:Drivers/CMSIS/Include/cmsis_gcc.h ****   \details Disables IRQ interrupts by setting the I-bit in the CPSR.
  67:Drivers/CMSIS/Include/cmsis_gcc.h ****   Can only be executed in Privileged modes.
  68:Drivers/CMSIS/Include/cmsis_gcc.h ****  */
  69:Drivers/CMSIS/Include/cmsis_gcc.h **** __attribute__( ( always_inline ) ) __STATIC_INLINE void __disable_irq(void)
  70:Drivers/CMSIS/Include/cmsis_gcc.h **** {
  71:Drivers/CMSIS/Include/cmsis_gcc.h ****   __ASM volatile ("cpsid i" : : : "memory");
  72:Drivers/CMSIS/Include/cmsis_gcc.h **** }
  73:Drivers/CMSIS/Include/cmsis_gcc.h **** 
  74:Drivers/CMSIS/Include/cmsis_gcc.h **** 
  75:Drivers/CMSIS/Include/cmsis_gcc.h **** /**
  76:Drivers/CMSIS/Include/cmsis_gcc.h ****   \brief   Get Control Register
  77:Drivers/CMSIS/Include/cmsis_gcc.h ****   \details Returns the content of the Control Register.
  78:Drivers/CMSIS/Include/cmsis_gcc.h ****   \return               Control Register value
  79:Drivers/CMSIS/Include/cmsis_gcc.h ****  */
  80:Drivers/CMSIS/Include/cmsis_gcc.h **** __attribute__( ( always_inline ) ) __STATIC_INLINE uint32_t __get_CONTROL(void)
  81:Drivers/CMSIS/Include/cmsis_gcc.h **** {
  82:Drivers/CMSIS/Include/cmsis_gcc.h ****   uint32_t result;
  83:Drivers/CMSIS/Include/cmsis_gcc.h **** 
  84:Drivers/CMSIS/Include/cmsis_gcc.h ****   __ASM volatile ("MRS %0, control" : "=r" (result) );
  85:Drivers/CMSIS/Include/cmsis_gcc.h ****   return(result);
  86:Drivers/CMSIS/Include/cmsis_gcc.h **** }
  87:Drivers/CMSIS/Include/cmsis_gcc.h **** 
  88:Drivers/CMSIS/Include/cmsis_gcc.h **** 
  89:Drivers/CMSIS/Include/cmsis_gcc.h **** /**
  90:Drivers/CMSIS/Include/cmsis_gcc.h ****   \brief   Set Control Register
  91:Drivers/CMSIS/Include/cmsis_gcc.h ****   \details Writes the given value to the Control Register.
  92:Drivers/CMSIS/Include/cmsis_gcc.h ****   \param [in]    control  Control Register value to set
  93:Drivers/CMSIS/Include/cmsis_gcc.h ****  */
  94:Drivers/CMSIS/Include/cmsis_gcc.h **** __attribute__( ( always_inline ) ) __STATIC_INLINE void __set_CONTROL(uint32_t control)
  95:Drivers/CMSIS/Include/cmsis_gcc.h **** {
  96:Drivers/CMSIS/Include/cmsis_gcc.h ****   __ASM volatile ("MSR control, %0" : : "r" (control) : "memory");
  97:Drivers/CMSIS/Include/cmsis_gcc.h **** }
  98:Drivers/CMSIS/Include/cmsis_gcc.h **** 
  99:Drivers/CMSIS/Include/cmsis_gcc.h **** 
 100:Drivers/CMSIS/Include/cmsis_gcc.h **** /**
 101:Drivers/CMSIS/Include/cmsis_gcc.h ****   \brief   Get IPSR Register
 102:Drivers/CMSIS/Include/cmsis_gcc.h ****   \details Returns the content of the IPSR Register.
 103:Drivers/CMSIS/Include/cmsis_gcc.h ****   \return               IPSR Register value
 104:Drivers/CMSIS/Include/cmsis_gcc.h ****  */
 105:Drivers/CMSIS/Include/cmsis_gcc.h **** __attribute__( ( always_inline ) ) __STATIC_INLINE uint32_t __get_IPSR(void)
 116              		.loc 2 105 61 view .LVU23
 117              	.LBB5:
 106:Drivers/CMSIS/Include/cmsis_gcc.h **** {
 107:Drivers/CMSIS/Include/cmsis_gcc.h ****   uint32_t result;
ARM GAS  /tmp/ccAhcryT.s 			page 8


 118              		.loc 2 107 3 view .LVU24
 108:Drivers/CMSIS/Include/cmsis_gcc.h **** 
 109:Drivers/CMSIS/Include/cmsis_gcc.h ****   __ASM volatile ("MRS %0, ipsr" : "=r" (result) );
 119              		.loc 2 109 3 view .LVU25
 120              		.syntax divided
 121              	@ 109 "Drivers/CMSIS/Include/cmsis_gcc.h" 1
 122 0000 EFF30580 		MRS r0, ipsr
 123              	@ 0 "" 2
 124              	.LVL9:
 110:Drivers/CMSIS/Include/cmsis_gcc.h ****   return(result);
 125              		.loc 2 110 3 view .LVU26
 126              		.loc 2 110 3 is_stmt 0 view .LVU27
 127              		.thumb
 128              		.syntax unified
 129              	.LBE5:
 130              	.LBE4:
 131              		.loc 1 175 23 view .LVU28
 132 0004 431E     		subs	r3, r0, #1
 133 0006 9841     		sbcs	r0, r0, r3
 176:Middlewares/Third_Party/FreeRTOS/Source/CMSIS_RTOS/cmsis_os.c **** }
 134              		.loc 1 176 1 view .LVU29
 135              		@ sp needed
 136 0008 7047     		bx	lr
 137              		.cfi_endproc
 138              	.LFE27:
 140              		.section	.text.osKernelStart,"ax",%progbits
 141              		.align	1
 142              		.global	osKernelStart
 143              		.syntax unified
 144              		.code	16
 145              		.thumb_func
 146              		.fpu softvfp
 148              	osKernelStart:
 149              	.LFB28:
 177:Middlewares/Third_Party/FreeRTOS/Source/CMSIS_RTOS/cmsis_os.c **** 
 178:Middlewares/Third_Party/FreeRTOS/Source/CMSIS_RTOS/cmsis_os.c **** /*********************** Kernel Control Functions *****************************/
 179:Middlewares/Third_Party/FreeRTOS/Source/CMSIS_RTOS/cmsis_os.c **** /**
 180:Middlewares/Third_Party/FreeRTOS/Source/CMSIS_RTOS/cmsis_os.c **** * @brief  Initialize the RTOS Kernel for creating objects.
 181:Middlewares/Third_Party/FreeRTOS/Source/CMSIS_RTOS/cmsis_os.c **** * @retval status code that indicates the execution status of the function.
 182:Middlewares/Third_Party/FreeRTOS/Source/CMSIS_RTOS/cmsis_os.c **** * @note   MUST REMAIN UNCHANGED: \b osKernelInitialize shall be consistent in every CMSIS-RTOS.
 183:Middlewares/Third_Party/FreeRTOS/Source/CMSIS_RTOS/cmsis_os.c **** */
 184:Middlewares/Third_Party/FreeRTOS/Source/CMSIS_RTOS/cmsis_os.c **** osStatus osKernelInitialize (void);
 185:Middlewares/Third_Party/FreeRTOS/Source/CMSIS_RTOS/cmsis_os.c **** 
 186:Middlewares/Third_Party/FreeRTOS/Source/CMSIS_RTOS/cmsis_os.c **** /**
 187:Middlewares/Third_Party/FreeRTOS/Source/CMSIS_RTOS/cmsis_os.c **** * @brief  Start the RTOS Kernel with executing the specified thread.
 188:Middlewares/Third_Party/FreeRTOS/Source/CMSIS_RTOS/cmsis_os.c **** * @param  thread_def    thread definition referenced with \ref osThread.
 189:Middlewares/Third_Party/FreeRTOS/Source/CMSIS_RTOS/cmsis_os.c **** * @param  argument      pointer that is passed to the thread function as start argument.
 190:Middlewares/Third_Party/FreeRTOS/Source/CMSIS_RTOS/cmsis_os.c **** * @retval status code that indicates the execution status of the function
 191:Middlewares/Third_Party/FreeRTOS/Source/CMSIS_RTOS/cmsis_os.c **** * @note   MUST REMAIN UNCHANGED: \b osKernelStart shall be consistent in every CMSIS-RTOS.
 192:Middlewares/Third_Party/FreeRTOS/Source/CMSIS_RTOS/cmsis_os.c **** */
 193:Middlewares/Third_Party/FreeRTOS/Source/CMSIS_RTOS/cmsis_os.c **** osStatus osKernelStart (void)
 194:Middlewares/Third_Party/FreeRTOS/Source/CMSIS_RTOS/cmsis_os.c **** {
 150              		.loc 1 194 1 is_stmt 1 view -0
 151              		.cfi_startproc
 152              		@ args = 0, pretend = 0, frame = 0
 153              		@ frame_needed = 0, uses_anonymous_args = 0
 154 0000 10B5     		push	{r4, lr}
ARM GAS  /tmp/ccAhcryT.s 			page 9


 155              	.LCFI0:
 156              		.cfi_def_cfa_offset 8
 157              		.cfi_offset 4, -8
 158              		.cfi_offset 14, -4
 195:Middlewares/Third_Party/FreeRTOS/Source/CMSIS_RTOS/cmsis_os.c ****   vTaskStartScheduler();
 159              		.loc 1 195 3 view .LVU31
 160 0002 FFF7FEFF 		bl	vTaskStartScheduler
 161              	.LVL10:
 196:Middlewares/Third_Party/FreeRTOS/Source/CMSIS_RTOS/cmsis_os.c ****   
 197:Middlewares/Third_Party/FreeRTOS/Source/CMSIS_RTOS/cmsis_os.c ****   return osOK;
 162              		.loc 1 197 3 view .LVU32
 198:Middlewares/Third_Party/FreeRTOS/Source/CMSIS_RTOS/cmsis_os.c **** }
 163              		.loc 1 198 1 is_stmt 0 view .LVU33
 164 0006 0020     		movs	r0, #0
 165              		@ sp needed
 166 0008 10BD     		pop	{r4, pc}
 167              		.cfi_endproc
 168              	.LFE28:
 170              		.section	.text.osKernelRunning,"ax",%progbits
 171              		.align	1
 172              		.global	osKernelRunning
 173              		.syntax unified
 174              		.code	16
 175              		.thumb_func
 176              		.fpu softvfp
 178              	osKernelRunning:
 179              	.LFB29:
 199:Middlewares/Third_Party/FreeRTOS/Source/CMSIS_RTOS/cmsis_os.c **** 
 200:Middlewares/Third_Party/FreeRTOS/Source/CMSIS_RTOS/cmsis_os.c **** /**
 201:Middlewares/Third_Party/FreeRTOS/Source/CMSIS_RTOS/cmsis_os.c **** * @brief  Check if the RTOS kernel is already started
 202:Middlewares/Third_Party/FreeRTOS/Source/CMSIS_RTOS/cmsis_os.c **** * @param  None
 203:Middlewares/Third_Party/FreeRTOS/Source/CMSIS_RTOS/cmsis_os.c **** * @retval (0) RTOS is not started
 204:Middlewares/Third_Party/FreeRTOS/Source/CMSIS_RTOS/cmsis_os.c **** *         (1) RTOS is started
 205:Middlewares/Third_Party/FreeRTOS/Source/CMSIS_RTOS/cmsis_os.c **** *         (-1) if this feature is disabled in FreeRTOSConfig.h 
 206:Middlewares/Third_Party/FreeRTOS/Source/CMSIS_RTOS/cmsis_os.c **** * @note  MUST REMAIN UNCHANGED: \b osKernelRunning shall be consistent in every CMSIS-RTOS.
 207:Middlewares/Third_Party/FreeRTOS/Source/CMSIS_RTOS/cmsis_os.c **** */
 208:Middlewares/Third_Party/FreeRTOS/Source/CMSIS_RTOS/cmsis_os.c **** int32_t osKernelRunning(void)
 209:Middlewares/Third_Party/FreeRTOS/Source/CMSIS_RTOS/cmsis_os.c **** {
 180              		.loc 1 209 1 is_stmt 1 view -0
 181              		.cfi_startproc
 182              		@ args = 0, pretend = 0, frame = 0
 183              		@ frame_needed = 0, uses_anonymous_args = 0
 184 0000 10B5     		push	{r4, lr}
 185              	.LCFI1:
 186              		.cfi_def_cfa_offset 8
 187              		.cfi_offset 4, -8
 188              		.cfi_offset 14, -4
 210:Middlewares/Third_Party/FreeRTOS/Source/CMSIS_RTOS/cmsis_os.c **** #if ( ( INCLUDE_xTaskGetSchedulerState == 1 ) || ( configUSE_TIMERS == 1 ) )
 211:Middlewares/Third_Party/FreeRTOS/Source/CMSIS_RTOS/cmsis_os.c ****   if (xTaskGetSchedulerState() == taskSCHEDULER_NOT_STARTED)
 189              		.loc 1 211 3 view .LVU35
 190              		.loc 1 211 7 is_stmt 0 view .LVU36
 191 0002 FFF7FEFF 		bl	xTaskGetSchedulerState
 192              	.LVL11:
 193              		.loc 1 211 6 view .LVU37
 194 0006 0128     		cmp	r0, #1
 195 0008 01D0     		beq	.L12
 212:Middlewares/Third_Party/FreeRTOS/Source/CMSIS_RTOS/cmsis_os.c ****     return 0;
ARM GAS  /tmp/ccAhcryT.s 			page 10


 213:Middlewares/Third_Party/FreeRTOS/Source/CMSIS_RTOS/cmsis_os.c ****   else
 214:Middlewares/Third_Party/FreeRTOS/Source/CMSIS_RTOS/cmsis_os.c ****     return 1;
 196              		.loc 1 214 12 view .LVU38
 197 000a 0120     		movs	r0, #1
 198              	.L9:
 215:Middlewares/Third_Party/FreeRTOS/Source/CMSIS_RTOS/cmsis_os.c **** #else
 216:Middlewares/Third_Party/FreeRTOS/Source/CMSIS_RTOS/cmsis_os.c **** 	return (-1);
 217:Middlewares/Third_Party/FreeRTOS/Source/CMSIS_RTOS/cmsis_os.c **** #endif	
 218:Middlewares/Third_Party/FreeRTOS/Source/CMSIS_RTOS/cmsis_os.c **** }
 199              		.loc 1 218 1 view .LVU39
 200              		@ sp needed
 201 000c 10BD     		pop	{r4, pc}
 202              	.L12:
 212:Middlewares/Third_Party/FreeRTOS/Source/CMSIS_RTOS/cmsis_os.c ****     return 0;
 203              		.loc 1 212 12 view .LVU40
 204 000e 0020     		movs	r0, #0
 205 0010 FCE7     		b	.L9
 206              		.cfi_endproc
 207              	.LFE29:
 209              		.section	.text.osKernelSysTick,"ax",%progbits
 210              		.align	1
 211              		.global	osKernelSysTick
 212              		.syntax unified
 213              		.code	16
 214              		.thumb_func
 215              		.fpu softvfp
 217              	osKernelSysTick:
 218              	.LFB30:
 219:Middlewares/Third_Party/FreeRTOS/Source/CMSIS_RTOS/cmsis_os.c **** 
 220:Middlewares/Third_Party/FreeRTOS/Source/CMSIS_RTOS/cmsis_os.c **** #if (defined (osFeature_SysTick)  &&  (osFeature_SysTick != 0))     // System Timer available
 221:Middlewares/Third_Party/FreeRTOS/Source/CMSIS_RTOS/cmsis_os.c **** /**
 222:Middlewares/Third_Party/FreeRTOS/Source/CMSIS_RTOS/cmsis_os.c **** * @brief  Get the value of the Kernel SysTick timer
 223:Middlewares/Third_Party/FreeRTOS/Source/CMSIS_RTOS/cmsis_os.c **** * @param  None
 224:Middlewares/Third_Party/FreeRTOS/Source/CMSIS_RTOS/cmsis_os.c **** * @retval None
 225:Middlewares/Third_Party/FreeRTOS/Source/CMSIS_RTOS/cmsis_os.c **** * @note   MUST REMAIN UNCHANGED: \b osKernelSysTick shall be consistent in every CMSIS-RTOS.
 226:Middlewares/Third_Party/FreeRTOS/Source/CMSIS_RTOS/cmsis_os.c **** */
 227:Middlewares/Third_Party/FreeRTOS/Source/CMSIS_RTOS/cmsis_os.c **** uint32_t osKernelSysTick(void)
 228:Middlewares/Third_Party/FreeRTOS/Source/CMSIS_RTOS/cmsis_os.c **** {
 219              		.loc 1 228 1 is_stmt 1 view -0
 220              		.cfi_startproc
 221              		@ args = 0, pretend = 0, frame = 0
 222              		@ frame_needed = 0, uses_anonymous_args = 0
 223 0000 10B5     		push	{r4, lr}
 224              	.LCFI2:
 225              		.cfi_def_cfa_offset 8
 226              		.cfi_offset 4, -8
 227              		.cfi_offset 14, -4
 229:Middlewares/Third_Party/FreeRTOS/Source/CMSIS_RTOS/cmsis_os.c ****   if (inHandlerMode()) {
 228              		.loc 1 229 3 view .LVU42
 229              		.loc 1 229 7 is_stmt 0 view .LVU43
 230 0002 FFF7FEFF 		bl	inHandlerMode
 231              	.LVL12:
 232              		.loc 1 229 6 view .LVU44
 233 0006 0028     		cmp	r0, #0
 234 0008 02D0     		beq	.L14
 230:Middlewares/Third_Party/FreeRTOS/Source/CMSIS_RTOS/cmsis_os.c ****     return xTaskGetTickCountFromISR();
 235              		.loc 1 230 5 is_stmt 1 view .LVU45
ARM GAS  /tmp/ccAhcryT.s 			page 11


 236              		.loc 1 230 12 is_stmt 0 view .LVU46
 237 000a FFF7FEFF 		bl	xTaskGetTickCountFromISR
 238              	.LVL13:
 239              	.L13:
 231:Middlewares/Third_Party/FreeRTOS/Source/CMSIS_RTOS/cmsis_os.c ****   }
 232:Middlewares/Third_Party/FreeRTOS/Source/CMSIS_RTOS/cmsis_os.c ****   else {
 233:Middlewares/Third_Party/FreeRTOS/Source/CMSIS_RTOS/cmsis_os.c ****     return xTaskGetTickCount();
 234:Middlewares/Third_Party/FreeRTOS/Source/CMSIS_RTOS/cmsis_os.c ****   }
 235:Middlewares/Third_Party/FreeRTOS/Source/CMSIS_RTOS/cmsis_os.c **** }
 240              		.loc 1 235 1 view .LVU47
 241              		@ sp needed
 242 000e 10BD     		pop	{r4, pc}
 243              	.L14:
 233:Middlewares/Third_Party/FreeRTOS/Source/CMSIS_RTOS/cmsis_os.c ****   }
 244              		.loc 1 233 5 is_stmt 1 view .LVU48
 233:Middlewares/Third_Party/FreeRTOS/Source/CMSIS_RTOS/cmsis_os.c ****   }
 245              		.loc 1 233 12 is_stmt 0 view .LVU49
 246 0010 FFF7FEFF 		bl	xTaskGetTickCount
 247              	.LVL14:
 248 0014 FBE7     		b	.L13
 249              		.cfi_endproc
 250              	.LFE30:
 252              		.section	.text.osThreadCreate,"ax",%progbits
 253              		.align	1
 254              		.global	osThreadCreate
 255              		.syntax unified
 256              		.code	16
 257              		.thumb_func
 258              		.fpu softvfp
 260              	osThreadCreate:
 261              	.LVL15:
 262              	.LFB31:
 236:Middlewares/Third_Party/FreeRTOS/Source/CMSIS_RTOS/cmsis_os.c **** #endif    // System Timer available
 237:Middlewares/Third_Party/FreeRTOS/Source/CMSIS_RTOS/cmsis_os.c **** /*********************** Thread Management *****************************/
 238:Middlewares/Third_Party/FreeRTOS/Source/CMSIS_RTOS/cmsis_os.c **** /**
 239:Middlewares/Third_Party/FreeRTOS/Source/CMSIS_RTOS/cmsis_os.c **** * @brief  Create a thread and add it to Active Threads and set it to state READY.
 240:Middlewares/Third_Party/FreeRTOS/Source/CMSIS_RTOS/cmsis_os.c **** * @param  thread_def    thread definition referenced with \ref osThread.
 241:Middlewares/Third_Party/FreeRTOS/Source/CMSIS_RTOS/cmsis_os.c **** * @param  argument      pointer that is passed to the thread function as start argument.
 242:Middlewares/Third_Party/FreeRTOS/Source/CMSIS_RTOS/cmsis_os.c **** * @retval thread ID for reference by other functions or NULL in case of error.
 243:Middlewares/Third_Party/FreeRTOS/Source/CMSIS_RTOS/cmsis_os.c **** * @note   MUST REMAIN UNCHANGED: \b osThreadCreate shall be consistent in every CMSIS-RTOS.
 244:Middlewares/Third_Party/FreeRTOS/Source/CMSIS_RTOS/cmsis_os.c **** */
 245:Middlewares/Third_Party/FreeRTOS/Source/CMSIS_RTOS/cmsis_os.c **** osThreadId osThreadCreate (const osThreadDef_t *thread_def, void *argument)
 246:Middlewares/Third_Party/FreeRTOS/Source/CMSIS_RTOS/cmsis_os.c **** {
 263              		.loc 1 246 1 is_stmt 1 view -0
 264              		.cfi_startproc
 265              		@ args = 0, pretend = 0, frame = 8
 266              		@ frame_needed = 0, uses_anonymous_args = 0
 267              		.loc 1 246 1 is_stmt 0 view .LVU51
 268 0000 F0B5     		push	{r4, r5, r6, r7, lr}
 269              	.LCFI3:
 270              		.cfi_def_cfa_offset 20
 271              		.cfi_offset 4, -20
 272              		.cfi_offset 5, -16
 273              		.cfi_offset 6, -12
 274              		.cfi_offset 7, -8
 275              		.cfi_offset 14, -4
 276 0002 85B0     		sub	sp, sp, #20
ARM GAS  /tmp/ccAhcryT.s 			page 12


 277              	.LCFI4:
 278              		.cfi_def_cfa_offset 40
 279 0004 0D00     		movs	r5, r1
 247:Middlewares/Third_Party/FreeRTOS/Source/CMSIS_RTOS/cmsis_os.c ****   TaskHandle_t handle;
 280              		.loc 1 247 3 is_stmt 1 view .LVU52
 248:Middlewares/Third_Party/FreeRTOS/Source/CMSIS_RTOS/cmsis_os.c ****   
 249:Middlewares/Third_Party/FreeRTOS/Source/CMSIS_RTOS/cmsis_os.c **** #if( configSUPPORT_STATIC_ALLOCATION == 1 ) &&  ( configSUPPORT_DYNAMIC_ALLOCATION == 1 )
 250:Middlewares/Third_Party/FreeRTOS/Source/CMSIS_RTOS/cmsis_os.c ****   if((thread_def->buffer != NULL) && (thread_def->controlblock != NULL)) {
 251:Middlewares/Third_Party/FreeRTOS/Source/CMSIS_RTOS/cmsis_os.c ****     handle = xTaskCreateStatic((TaskFunction_t)thread_def->pthread,(const portCHAR *)thread_def->na
 252:Middlewares/Third_Party/FreeRTOS/Source/CMSIS_RTOS/cmsis_os.c ****               thread_def->stacksize, argument, makeFreeRtosPriority(thread_def->tpriority),
 253:Middlewares/Third_Party/FreeRTOS/Source/CMSIS_RTOS/cmsis_os.c ****               thread_def->buffer, thread_def->controlblock);
 254:Middlewares/Third_Party/FreeRTOS/Source/CMSIS_RTOS/cmsis_os.c ****   }
 255:Middlewares/Third_Party/FreeRTOS/Source/CMSIS_RTOS/cmsis_os.c ****   else {
 256:Middlewares/Third_Party/FreeRTOS/Source/CMSIS_RTOS/cmsis_os.c ****     if (xTaskCreate((TaskFunction_t)thread_def->pthread,(const portCHAR *)thread_def->name,
 257:Middlewares/Third_Party/FreeRTOS/Source/CMSIS_RTOS/cmsis_os.c ****               thread_def->stacksize, argument, makeFreeRtosPriority(thread_def->tpriority),
 258:Middlewares/Third_Party/FreeRTOS/Source/CMSIS_RTOS/cmsis_os.c ****               &handle) != pdPASS)  {
 259:Middlewares/Third_Party/FreeRTOS/Source/CMSIS_RTOS/cmsis_os.c ****       return NULL;
 260:Middlewares/Third_Party/FreeRTOS/Source/CMSIS_RTOS/cmsis_os.c ****     } 
 261:Middlewares/Third_Party/FreeRTOS/Source/CMSIS_RTOS/cmsis_os.c ****   }
 262:Middlewares/Third_Party/FreeRTOS/Source/CMSIS_RTOS/cmsis_os.c **** #elif( configSUPPORT_STATIC_ALLOCATION == 1 )
 263:Middlewares/Third_Party/FreeRTOS/Source/CMSIS_RTOS/cmsis_os.c **** 
 264:Middlewares/Third_Party/FreeRTOS/Source/CMSIS_RTOS/cmsis_os.c ****     handle = xTaskCreateStatic((TaskFunction_t)thread_def->pthread,(const portCHAR *)thread_def->na
 265:Middlewares/Third_Party/FreeRTOS/Source/CMSIS_RTOS/cmsis_os.c ****               thread_def->stacksize, argument, makeFreeRtosPriority(thread_def->tpriority),
 266:Middlewares/Third_Party/FreeRTOS/Source/CMSIS_RTOS/cmsis_os.c ****               thread_def->buffer, thread_def->controlblock);
 267:Middlewares/Third_Party/FreeRTOS/Source/CMSIS_RTOS/cmsis_os.c **** #else
 268:Middlewares/Third_Party/FreeRTOS/Source/CMSIS_RTOS/cmsis_os.c ****   if (xTaskCreate((TaskFunction_t)thread_def->pthread,(const portCHAR *)thread_def->name,
 281              		.loc 1 268 3 view .LVU53
 282              		.loc 1 268 45 is_stmt 0 view .LVU54
 283 0006 4668     		ldr	r6, [r0, #4]
 284              		.loc 1 268 83 view .LVU55
 285 0008 0768     		ldr	r7, [r0]
 269:Middlewares/Third_Party/FreeRTOS/Source/CMSIS_RTOS/cmsis_os.c ****                    thread_def->stacksize, argument, makeFreeRtosPriority(thread_def->tpriority),
 286              		.loc 1 269 30 view .LVU56
 287 000a 0469     		ldr	r4, [r0, #16]
 268:Middlewares/Third_Party/FreeRTOS/Source/CMSIS_RTOS/cmsis_os.c ****                    thread_def->stacksize, argument, makeFreeRtosPriority(thread_def->tpriority),
 288              		.loc 1 268 7 view .LVU57
 289 000c 0823     		movs	r3, #8
 290 000e C05E     		ldrsh	r0, [r0, r3]
 291              	.LVL16:
 268:Middlewares/Third_Party/FreeRTOS/Source/CMSIS_RTOS/cmsis_os.c ****                    thread_def->stacksize, argument, makeFreeRtosPriority(thread_def->tpriority),
 292              		.loc 1 268 7 view .LVU58
 293 0010 FFF7FEFF 		bl	makeFreeRtosPriority
 294              	.LVL17:
 268:Middlewares/Third_Party/FreeRTOS/Source/CMSIS_RTOS/cmsis_os.c ****                    thread_def->stacksize, argument, makeFreeRtosPriority(thread_def->tpriority),
 295              		.loc 1 268 7 view .LVU59
 296 0014 A2B2     		uxth	r2, r4
 297 0016 03AB     		add	r3, sp, #12
 298 0018 0193     		str	r3, [sp, #4]
 299 001a 0090     		str	r0, [sp]
 300 001c 2B00     		movs	r3, r5
 301 001e 3900     		movs	r1, r7
 302 0020 3000     		movs	r0, r6
 303 0022 FFF7FEFF 		bl	xTaskCreate
 304              	.LVL18:
 268:Middlewares/Third_Party/FreeRTOS/Source/CMSIS_RTOS/cmsis_os.c ****                    thread_def->stacksize, argument, makeFreeRtosPriority(thread_def->tpriority),
 305              		.loc 1 268 6 view .LVU60
 306 0026 0128     		cmp	r0, #1
ARM GAS  /tmp/ccAhcryT.s 			page 13


 307 0028 02D1     		bne	.L18
 270:Middlewares/Third_Party/FreeRTOS/Source/CMSIS_RTOS/cmsis_os.c ****                    &handle) != pdPASS)  {
 271:Middlewares/Third_Party/FreeRTOS/Source/CMSIS_RTOS/cmsis_os.c ****     return NULL;
 272:Middlewares/Third_Party/FreeRTOS/Source/CMSIS_RTOS/cmsis_os.c ****   }     
 273:Middlewares/Third_Party/FreeRTOS/Source/CMSIS_RTOS/cmsis_os.c **** #endif
 274:Middlewares/Third_Party/FreeRTOS/Source/CMSIS_RTOS/cmsis_os.c ****   
 275:Middlewares/Third_Party/FreeRTOS/Source/CMSIS_RTOS/cmsis_os.c ****   return handle;
 308              		.loc 1 275 3 is_stmt 1 view .LVU61
 309              		.loc 1 275 10 is_stmt 0 view .LVU62
 310 002a 0398     		ldr	r0, [sp, #12]
 311              	.L16:
 276:Middlewares/Third_Party/FreeRTOS/Source/CMSIS_RTOS/cmsis_os.c **** }
 312              		.loc 1 276 1 view .LVU63
 313 002c 05B0     		add	sp, sp, #20
 314              		@ sp needed
 315              	.LVL19:
 316              		.loc 1 276 1 view .LVU64
 317 002e F0BD     		pop	{r4, r5, r6, r7, pc}
 318              	.LVL20:
 319              	.L18:
 271:Middlewares/Third_Party/FreeRTOS/Source/CMSIS_RTOS/cmsis_os.c ****   }     
 320              		.loc 1 271 12 view .LVU65
 321 0030 0020     		movs	r0, #0
 322 0032 FBE7     		b	.L16
 323              		.cfi_endproc
 324              	.LFE31:
 326              		.section	.text.osThreadGetId,"ax",%progbits
 327              		.align	1
 328              		.global	osThreadGetId
 329              		.syntax unified
 330              		.code	16
 331              		.thumb_func
 332              		.fpu softvfp
 334              	osThreadGetId:
 335              	.LFB32:
 277:Middlewares/Third_Party/FreeRTOS/Source/CMSIS_RTOS/cmsis_os.c **** 
 278:Middlewares/Third_Party/FreeRTOS/Source/CMSIS_RTOS/cmsis_os.c **** /**
 279:Middlewares/Third_Party/FreeRTOS/Source/CMSIS_RTOS/cmsis_os.c **** * @brief  Return the thread ID of the current running thread.
 280:Middlewares/Third_Party/FreeRTOS/Source/CMSIS_RTOS/cmsis_os.c **** * @retval thread ID for reference by other functions or NULL in case of error.
 281:Middlewares/Third_Party/FreeRTOS/Source/CMSIS_RTOS/cmsis_os.c **** * @note   MUST REMAIN UNCHANGED: \b osThreadGetId shall be consistent in every CMSIS-RTOS.
 282:Middlewares/Third_Party/FreeRTOS/Source/CMSIS_RTOS/cmsis_os.c **** */
 283:Middlewares/Third_Party/FreeRTOS/Source/CMSIS_RTOS/cmsis_os.c **** osThreadId osThreadGetId (void)
 284:Middlewares/Third_Party/FreeRTOS/Source/CMSIS_RTOS/cmsis_os.c **** {
 336              		.loc 1 284 1 is_stmt 1 view -0
 337              		.cfi_startproc
 338              		@ args = 0, pretend = 0, frame = 0
 339              		@ frame_needed = 0, uses_anonymous_args = 0
 340 0000 10B5     		push	{r4, lr}
 341              	.LCFI5:
 342              		.cfi_def_cfa_offset 8
 343              		.cfi_offset 4, -8
 344              		.cfi_offset 14, -4
 285:Middlewares/Third_Party/FreeRTOS/Source/CMSIS_RTOS/cmsis_os.c **** #if ( ( INCLUDE_xTaskGetCurrentTaskHandle == 1 ) || ( configUSE_MUTEXES == 1 ) )
 286:Middlewares/Third_Party/FreeRTOS/Source/CMSIS_RTOS/cmsis_os.c ****   return xTaskGetCurrentTaskHandle();
 345              		.loc 1 286 3 view .LVU67
 346              		.loc 1 286 10 is_stmt 0 view .LVU68
 347 0002 FFF7FEFF 		bl	xTaskGetCurrentTaskHandle
ARM GAS  /tmp/ccAhcryT.s 			page 14


 348              	.LVL21:
 287:Middlewares/Third_Party/FreeRTOS/Source/CMSIS_RTOS/cmsis_os.c **** #else
 288:Middlewares/Third_Party/FreeRTOS/Source/CMSIS_RTOS/cmsis_os.c **** 	return NULL;
 289:Middlewares/Third_Party/FreeRTOS/Source/CMSIS_RTOS/cmsis_os.c **** #endif
 290:Middlewares/Third_Party/FreeRTOS/Source/CMSIS_RTOS/cmsis_os.c **** }
 349              		.loc 1 290 1 view .LVU69
 350              		@ sp needed
 351 0006 10BD     		pop	{r4, pc}
 352              		.cfi_endproc
 353              	.LFE32:
 355              		.section	.text.osThreadTerminate,"ax",%progbits
 356              		.align	1
 357              		.global	osThreadTerminate
 358              		.syntax unified
 359              		.code	16
 360              		.thumb_func
 361              		.fpu softvfp
 363              	osThreadTerminate:
 364              	.LVL22:
 365              	.LFB33:
 291:Middlewares/Third_Party/FreeRTOS/Source/CMSIS_RTOS/cmsis_os.c **** 
 292:Middlewares/Third_Party/FreeRTOS/Source/CMSIS_RTOS/cmsis_os.c **** /**
 293:Middlewares/Third_Party/FreeRTOS/Source/CMSIS_RTOS/cmsis_os.c **** * @brief  Terminate execution of a thread and remove it from Active Threads.
 294:Middlewares/Third_Party/FreeRTOS/Source/CMSIS_RTOS/cmsis_os.c **** * @param   thread_id   thread ID obtained by \ref osThreadCreate or \ref osThreadGetId.
 295:Middlewares/Third_Party/FreeRTOS/Source/CMSIS_RTOS/cmsis_os.c **** * @retval  status code that indicates the execution status of the function.
 296:Middlewares/Third_Party/FreeRTOS/Source/CMSIS_RTOS/cmsis_os.c **** * @note   MUST REMAIN UNCHANGED: \b osThreadTerminate shall be consistent in every CMSIS-RTOS.
 297:Middlewares/Third_Party/FreeRTOS/Source/CMSIS_RTOS/cmsis_os.c **** */
 298:Middlewares/Third_Party/FreeRTOS/Source/CMSIS_RTOS/cmsis_os.c **** osStatus osThreadTerminate (osThreadId thread_id)
 299:Middlewares/Third_Party/FreeRTOS/Source/CMSIS_RTOS/cmsis_os.c **** {
 366              		.loc 1 299 1 is_stmt 1 view -0
 367              		.cfi_startproc
 368              		@ args = 0, pretend = 0, frame = 0
 369              		@ frame_needed = 0, uses_anonymous_args = 0
 370              		.loc 1 299 1 is_stmt 0 view .LVU71
 371 0000 10B5     		push	{r4, lr}
 372              	.LCFI6:
 373              		.cfi_def_cfa_offset 8
 374              		.cfi_offset 4, -8
 375              		.cfi_offset 14, -4
 300:Middlewares/Third_Party/FreeRTOS/Source/CMSIS_RTOS/cmsis_os.c **** #if (INCLUDE_vTaskDelete == 1)
 301:Middlewares/Third_Party/FreeRTOS/Source/CMSIS_RTOS/cmsis_os.c ****   vTaskDelete(thread_id);
 376              		.loc 1 301 3 is_stmt 1 view .LVU72
 377 0002 FFF7FEFF 		bl	vTaskDelete
 378              	.LVL23:
 302:Middlewares/Third_Party/FreeRTOS/Source/CMSIS_RTOS/cmsis_os.c ****   return osOK;
 379              		.loc 1 302 3 view .LVU73
 303:Middlewares/Third_Party/FreeRTOS/Source/CMSIS_RTOS/cmsis_os.c **** #else
 304:Middlewares/Third_Party/FreeRTOS/Source/CMSIS_RTOS/cmsis_os.c ****   return osErrorOS;
 305:Middlewares/Third_Party/FreeRTOS/Source/CMSIS_RTOS/cmsis_os.c **** #endif
 306:Middlewares/Third_Party/FreeRTOS/Source/CMSIS_RTOS/cmsis_os.c **** }
 380              		.loc 1 306 1 is_stmt 0 view .LVU74
 381 0006 0020     		movs	r0, #0
 382              		@ sp needed
 383 0008 10BD     		pop	{r4, pc}
 384              		.cfi_endproc
 385              	.LFE33:
 387              		.section	.text.osThreadYield,"ax",%progbits
ARM GAS  /tmp/ccAhcryT.s 			page 15


 388              		.align	1
 389              		.global	osThreadYield
 390              		.syntax unified
 391              		.code	16
 392              		.thumb_func
 393              		.fpu softvfp
 395              	osThreadYield:
 396              	.LFB34:
 307:Middlewares/Third_Party/FreeRTOS/Source/CMSIS_RTOS/cmsis_os.c **** 
 308:Middlewares/Third_Party/FreeRTOS/Source/CMSIS_RTOS/cmsis_os.c **** /**
 309:Middlewares/Third_Party/FreeRTOS/Source/CMSIS_RTOS/cmsis_os.c **** * @brief  Pass control to next thread that is in state \b READY.
 310:Middlewares/Third_Party/FreeRTOS/Source/CMSIS_RTOS/cmsis_os.c **** * @retval status code that indicates the execution status of the function.
 311:Middlewares/Third_Party/FreeRTOS/Source/CMSIS_RTOS/cmsis_os.c **** * @note   MUST REMAIN UNCHANGED: \b osThreadYield shall be consistent in every CMSIS-RTOS.
 312:Middlewares/Third_Party/FreeRTOS/Source/CMSIS_RTOS/cmsis_os.c **** */
 313:Middlewares/Third_Party/FreeRTOS/Source/CMSIS_RTOS/cmsis_os.c **** osStatus osThreadYield (void)
 314:Middlewares/Third_Party/FreeRTOS/Source/CMSIS_RTOS/cmsis_os.c **** {
 397              		.loc 1 314 1 is_stmt 1 view -0
 398              		.cfi_startproc
 399              		@ args = 0, pretend = 0, frame = 0
 400              		@ frame_needed = 0, uses_anonymous_args = 0
 401 0000 10B5     		push	{r4, lr}
 402              	.LCFI7:
 403              		.cfi_def_cfa_offset 8
 404              		.cfi_offset 4, -8
 405              		.cfi_offset 14, -4
 315:Middlewares/Third_Party/FreeRTOS/Source/CMSIS_RTOS/cmsis_os.c ****   taskYIELD();
 406              		.loc 1 315 3 view .LVU76
 407 0002 FFF7FEFF 		bl	vPortYield
 408              	.LVL24:
 316:Middlewares/Third_Party/FreeRTOS/Source/CMSIS_RTOS/cmsis_os.c ****   
 317:Middlewares/Third_Party/FreeRTOS/Source/CMSIS_RTOS/cmsis_os.c ****   return osOK;
 409              		.loc 1 317 3 view .LVU77
 318:Middlewares/Third_Party/FreeRTOS/Source/CMSIS_RTOS/cmsis_os.c **** }
 410              		.loc 1 318 1 is_stmt 0 view .LVU78
 411 0006 0020     		movs	r0, #0
 412              		@ sp needed
 413 0008 10BD     		pop	{r4, pc}
 414              		.cfi_endproc
 415              	.LFE34:
 417              		.section	.text.osThreadSetPriority,"ax",%progbits
 418              		.align	1
 419              		.global	osThreadSetPriority
 420              		.syntax unified
 421              		.code	16
 422              		.thumb_func
 423              		.fpu softvfp
 425              	osThreadSetPriority:
 426              	.LVL25:
 427              	.LFB35:
 319:Middlewares/Third_Party/FreeRTOS/Source/CMSIS_RTOS/cmsis_os.c **** 
 320:Middlewares/Third_Party/FreeRTOS/Source/CMSIS_RTOS/cmsis_os.c **** /**
 321:Middlewares/Third_Party/FreeRTOS/Source/CMSIS_RTOS/cmsis_os.c **** * @brief   Change priority of an active thread.
 322:Middlewares/Third_Party/FreeRTOS/Source/CMSIS_RTOS/cmsis_os.c **** * @param   thread_id     thread ID obtained by \ref osThreadCreate or \ref osThreadGetId.
 323:Middlewares/Third_Party/FreeRTOS/Source/CMSIS_RTOS/cmsis_os.c **** * @param   priority      new priority value for the thread function.
 324:Middlewares/Third_Party/FreeRTOS/Source/CMSIS_RTOS/cmsis_os.c **** * @retval  status code that indicates the execution status of the function.
 325:Middlewares/Third_Party/FreeRTOS/Source/CMSIS_RTOS/cmsis_os.c **** * @note   MUST REMAIN UNCHANGED: \b osThreadSetPriority shall be consistent in every CMSIS-RTOS.
 326:Middlewares/Third_Party/FreeRTOS/Source/CMSIS_RTOS/cmsis_os.c **** */
ARM GAS  /tmp/ccAhcryT.s 			page 16


 327:Middlewares/Third_Party/FreeRTOS/Source/CMSIS_RTOS/cmsis_os.c **** osStatus osThreadSetPriority (osThreadId thread_id, osPriority priority)
 328:Middlewares/Third_Party/FreeRTOS/Source/CMSIS_RTOS/cmsis_os.c **** {
 428              		.loc 1 328 1 is_stmt 1 view -0
 429              		.cfi_startproc
 430              		@ args = 0, pretend = 0, frame = 0
 431              		@ frame_needed = 0, uses_anonymous_args = 0
 432              		.loc 1 328 1 is_stmt 0 view .LVU80
 433 0000 10B5     		push	{r4, lr}
 434              	.LCFI8:
 435              		.cfi_def_cfa_offset 8
 436              		.cfi_offset 4, -8
 437              		.cfi_offset 14, -4
 438 0002 0400     		movs	r4, r0
 329:Middlewares/Third_Party/FreeRTOS/Source/CMSIS_RTOS/cmsis_os.c **** #if (INCLUDE_vTaskPrioritySet == 1)
 330:Middlewares/Third_Party/FreeRTOS/Source/CMSIS_RTOS/cmsis_os.c ****   vTaskPrioritySet(thread_id, makeFreeRtosPriority(priority));
 439              		.loc 1 330 3 is_stmt 1 view .LVU81
 440 0004 0800     		movs	r0, r1
 441              	.LVL26:
 442              		.loc 1 330 3 is_stmt 0 view .LVU82
 443 0006 FFF7FEFF 		bl	makeFreeRtosPriority
 444              	.LVL27:
 445              		.loc 1 330 3 view .LVU83
 446 000a 0100     		movs	r1, r0
 447 000c 2000     		movs	r0, r4
 448 000e FFF7FEFF 		bl	vTaskPrioritySet
 449              	.LVL28:
 331:Middlewares/Third_Party/FreeRTOS/Source/CMSIS_RTOS/cmsis_os.c ****   return osOK;
 450              		.loc 1 331 3 is_stmt 1 view .LVU84
 332:Middlewares/Third_Party/FreeRTOS/Source/CMSIS_RTOS/cmsis_os.c **** #else
 333:Middlewares/Third_Party/FreeRTOS/Source/CMSIS_RTOS/cmsis_os.c ****   return osErrorOS;
 334:Middlewares/Third_Party/FreeRTOS/Source/CMSIS_RTOS/cmsis_os.c **** #endif
 335:Middlewares/Third_Party/FreeRTOS/Source/CMSIS_RTOS/cmsis_os.c **** }
 451              		.loc 1 335 1 is_stmt 0 view .LVU85
 452 0012 0020     		movs	r0, #0
 453              		@ sp needed
 454              	.LVL29:
 455              		.loc 1 335 1 view .LVU86
 456 0014 10BD     		pop	{r4, pc}
 457              		.cfi_endproc
 458              	.LFE35:
 460              		.section	.text.osThreadGetPriority,"ax",%progbits
 461              		.align	1
 462              		.global	osThreadGetPriority
 463              		.syntax unified
 464              		.code	16
 465              		.thumb_func
 466              		.fpu softvfp
 468              	osThreadGetPriority:
 469              	.LVL30:
 470              	.LFB36:
 336:Middlewares/Third_Party/FreeRTOS/Source/CMSIS_RTOS/cmsis_os.c **** 
 337:Middlewares/Third_Party/FreeRTOS/Source/CMSIS_RTOS/cmsis_os.c **** /**
 338:Middlewares/Third_Party/FreeRTOS/Source/CMSIS_RTOS/cmsis_os.c **** * @brief   Get current priority of an active thread.
 339:Middlewares/Third_Party/FreeRTOS/Source/CMSIS_RTOS/cmsis_os.c **** * @param   thread_id     thread ID obtained by \ref osThreadCreate or \ref osThreadGetId.
 340:Middlewares/Third_Party/FreeRTOS/Source/CMSIS_RTOS/cmsis_os.c **** * @retval  current priority value of the thread function.
 341:Middlewares/Third_Party/FreeRTOS/Source/CMSIS_RTOS/cmsis_os.c **** * @note   MUST REMAIN UNCHANGED: \b osThreadGetPriority shall be consistent in every CMSIS-RTOS.
 342:Middlewares/Third_Party/FreeRTOS/Source/CMSIS_RTOS/cmsis_os.c **** */
ARM GAS  /tmp/ccAhcryT.s 			page 17


 343:Middlewares/Third_Party/FreeRTOS/Source/CMSIS_RTOS/cmsis_os.c **** osPriority osThreadGetPriority (osThreadId thread_id)
 344:Middlewares/Third_Party/FreeRTOS/Source/CMSIS_RTOS/cmsis_os.c **** {
 471              		.loc 1 344 1 is_stmt 1 view -0
 472              		.cfi_startproc
 473              		@ args = 0, pretend = 0, frame = 0
 474              		@ frame_needed = 0, uses_anonymous_args = 0
 475              		.loc 1 344 1 is_stmt 0 view .LVU88
 476 0000 10B5     		push	{r4, lr}
 477              	.LCFI9:
 478              		.cfi_def_cfa_offset 8
 479              		.cfi_offset 4, -8
 480              		.cfi_offset 14, -4
 481 0002 0400     		movs	r4, r0
 345:Middlewares/Third_Party/FreeRTOS/Source/CMSIS_RTOS/cmsis_os.c **** #if (INCLUDE_uxTaskPriorityGet == 1)
 346:Middlewares/Third_Party/FreeRTOS/Source/CMSIS_RTOS/cmsis_os.c ****   if (inHandlerMode())
 482              		.loc 1 346 3 is_stmt 1 view .LVU89
 483              		.loc 1 346 7 is_stmt 0 view .LVU90
 484 0004 FFF7FEFF 		bl	inHandlerMode
 485              	.LVL31:
 486              		.loc 1 346 6 view .LVU91
 487 0008 0028     		cmp	r0, #0
 488 000a 05D0     		beq	.L24
 347:Middlewares/Third_Party/FreeRTOS/Source/CMSIS_RTOS/cmsis_os.c ****   {
 348:Middlewares/Third_Party/FreeRTOS/Source/CMSIS_RTOS/cmsis_os.c ****     return makeCmsisPriority(uxTaskPriorityGetFromISR(thread_id));  
 489              		.loc 1 348 5 is_stmt 1 view .LVU92
 490              		.loc 1 348 12 is_stmt 0 view .LVU93
 491 000c 2000     		movs	r0, r4
 492 000e FFF7FEFF 		bl	uxTaskPriorityGetFromISR
 493              	.LVL32:
 494 0012 FFF7FEFF 		bl	makeCmsisPriority
 495              	.LVL33:
 496              	.L25:
 349:Middlewares/Third_Party/FreeRTOS/Source/CMSIS_RTOS/cmsis_os.c ****   }
 350:Middlewares/Third_Party/FreeRTOS/Source/CMSIS_RTOS/cmsis_os.c ****   else
 351:Middlewares/Third_Party/FreeRTOS/Source/CMSIS_RTOS/cmsis_os.c ****   {  
 352:Middlewares/Third_Party/FreeRTOS/Source/CMSIS_RTOS/cmsis_os.c ****     return makeCmsisPriority(uxTaskPriorityGet(thread_id));
 353:Middlewares/Third_Party/FreeRTOS/Source/CMSIS_RTOS/cmsis_os.c ****   }
 354:Middlewares/Third_Party/FreeRTOS/Source/CMSIS_RTOS/cmsis_os.c **** #else
 355:Middlewares/Third_Party/FreeRTOS/Source/CMSIS_RTOS/cmsis_os.c ****   return osPriorityError;
 356:Middlewares/Third_Party/FreeRTOS/Source/CMSIS_RTOS/cmsis_os.c **** #endif
 357:Middlewares/Third_Party/FreeRTOS/Source/CMSIS_RTOS/cmsis_os.c **** }
 497              		.loc 1 357 1 view .LVU94
 498              		@ sp needed
 499              	.LVL34:
 500              		.loc 1 357 1 view .LVU95
 501 0016 10BD     		pop	{r4, pc}
 502              	.LVL35:
 503              	.L24:
 352:Middlewares/Third_Party/FreeRTOS/Source/CMSIS_RTOS/cmsis_os.c ****   }
 504              		.loc 1 352 5 is_stmt 1 view .LVU96
 352:Middlewares/Third_Party/FreeRTOS/Source/CMSIS_RTOS/cmsis_os.c ****   }
 505              		.loc 1 352 12 is_stmt 0 view .LVU97
 506 0018 2000     		movs	r0, r4
 507 001a FFF7FEFF 		bl	uxTaskPriorityGet
 508              	.LVL36:
 509 001e FFF7FEFF 		bl	makeCmsisPriority
 510              	.LVL37:
ARM GAS  /tmp/ccAhcryT.s 			page 18


 511 0022 F8E7     		b	.L25
 512              		.cfi_endproc
 513              	.LFE36:
 515              		.section	.text.osDelay,"ax",%progbits
 516              		.align	1
 517              		.global	osDelay
 518              		.syntax unified
 519              		.code	16
 520              		.thumb_func
 521              		.fpu softvfp
 523              	osDelay:
 524              	.LVL38:
 525              	.LFB37:
 358:Middlewares/Third_Party/FreeRTOS/Source/CMSIS_RTOS/cmsis_os.c **** 
 359:Middlewares/Third_Party/FreeRTOS/Source/CMSIS_RTOS/cmsis_os.c **** /*********************** Generic Wait Functions *******************************/
 360:Middlewares/Third_Party/FreeRTOS/Source/CMSIS_RTOS/cmsis_os.c **** /**
 361:Middlewares/Third_Party/FreeRTOS/Source/CMSIS_RTOS/cmsis_os.c **** * @brief   Wait for Timeout (Time Delay)
 362:Middlewares/Third_Party/FreeRTOS/Source/CMSIS_RTOS/cmsis_os.c **** * @param   millisec      time delay value
 363:Middlewares/Third_Party/FreeRTOS/Source/CMSIS_RTOS/cmsis_os.c **** * @retval  status code that indicates the execution status of the function.
 364:Middlewares/Third_Party/FreeRTOS/Source/CMSIS_RTOS/cmsis_os.c **** */
 365:Middlewares/Third_Party/FreeRTOS/Source/CMSIS_RTOS/cmsis_os.c **** osStatus osDelay (uint32_t millisec)
 366:Middlewares/Third_Party/FreeRTOS/Source/CMSIS_RTOS/cmsis_os.c **** {
 526              		.loc 1 366 1 is_stmt 1 view -0
 527              		.cfi_startproc
 528              		@ args = 0, pretend = 0, frame = 0
 529              		@ frame_needed = 0, uses_anonymous_args = 0
 530              		.loc 1 366 1 is_stmt 0 view .LVU99
 531 0000 10B5     		push	{r4, lr}
 532              	.LCFI10:
 533              		.cfi_def_cfa_offset 8
 534              		.cfi_offset 4, -8
 535              		.cfi_offset 14, -4
 367:Middlewares/Third_Party/FreeRTOS/Source/CMSIS_RTOS/cmsis_os.c **** #if INCLUDE_vTaskDelay
 368:Middlewares/Third_Party/FreeRTOS/Source/CMSIS_RTOS/cmsis_os.c ****   TickType_t ticks = millisec / portTICK_PERIOD_MS;
 536              		.loc 1 368 3 is_stmt 1 view .LVU100
 537              	.LVL39:
 369:Middlewares/Third_Party/FreeRTOS/Source/CMSIS_RTOS/cmsis_os.c ****   
 370:Middlewares/Third_Party/FreeRTOS/Source/CMSIS_RTOS/cmsis_os.c ****   vTaskDelay(ticks ? ticks : 1);          /* Minimum delay = 1 tick */
 538              		.loc 1 370 3 view .LVU101
 539 0002 0028     		cmp	r0, #0
 540 0004 00D1     		bne	.L27
 541 0006 0130     		adds	r0, r0, #1
 542              	.LVL40:
 543              	.L27:
 544              		.loc 1 370 3 is_stmt 0 discriminator 4 view .LVU102
 545 0008 FFF7FEFF 		bl	vTaskDelay
 546              	.LVL41:
 371:Middlewares/Third_Party/FreeRTOS/Source/CMSIS_RTOS/cmsis_os.c ****   
 372:Middlewares/Third_Party/FreeRTOS/Source/CMSIS_RTOS/cmsis_os.c ****   return osOK;
 547              		.loc 1 372 3 is_stmt 1 discriminator 4 view .LVU103
 373:Middlewares/Third_Party/FreeRTOS/Source/CMSIS_RTOS/cmsis_os.c **** #else
 374:Middlewares/Third_Party/FreeRTOS/Source/CMSIS_RTOS/cmsis_os.c ****   (void) millisec;
 375:Middlewares/Third_Party/FreeRTOS/Source/CMSIS_RTOS/cmsis_os.c ****   
 376:Middlewares/Third_Party/FreeRTOS/Source/CMSIS_RTOS/cmsis_os.c ****   return osErrorResource;
 377:Middlewares/Third_Party/FreeRTOS/Source/CMSIS_RTOS/cmsis_os.c **** #endif
 378:Middlewares/Third_Party/FreeRTOS/Source/CMSIS_RTOS/cmsis_os.c **** }
 548              		.loc 1 378 1 is_stmt 0 discriminator 4 view .LVU104
ARM GAS  /tmp/ccAhcryT.s 			page 19


 549 000c 0020     		movs	r0, #0
 550              		@ sp needed
 551 000e 10BD     		pop	{r4, pc}
 552              		.cfi_endproc
 553              	.LFE37:
 555              		.section	.text.osTimerCreate,"ax",%progbits
 556              		.align	1
 557              		.global	osTimerCreate
 558              		.syntax unified
 559              		.code	16
 560              		.thumb_func
 561              		.fpu softvfp
 563              	osTimerCreate:
 564              	.LVL42:
 565              	.LFB38:
 379:Middlewares/Third_Party/FreeRTOS/Source/CMSIS_RTOS/cmsis_os.c **** 
 380:Middlewares/Third_Party/FreeRTOS/Source/CMSIS_RTOS/cmsis_os.c **** #if (defined (osFeature_Wait)  &&  (osFeature_Wait != 0)) /* Generic Wait available */
 381:Middlewares/Third_Party/FreeRTOS/Source/CMSIS_RTOS/cmsis_os.c **** /**
 382:Middlewares/Third_Party/FreeRTOS/Source/CMSIS_RTOS/cmsis_os.c **** * @brief  Wait for Signal, Message, Mail, or Timeout
 383:Middlewares/Third_Party/FreeRTOS/Source/CMSIS_RTOS/cmsis_os.c **** * @param   millisec  timeout value or 0 in case of no time-out
 384:Middlewares/Third_Party/FreeRTOS/Source/CMSIS_RTOS/cmsis_os.c **** * @retval  event that contains signal, message, or mail information or error code.
 385:Middlewares/Third_Party/FreeRTOS/Source/CMSIS_RTOS/cmsis_os.c **** * @note   MUST REMAIN UNCHANGED: \b osWait shall be consistent in every CMSIS-RTOS.
 386:Middlewares/Third_Party/FreeRTOS/Source/CMSIS_RTOS/cmsis_os.c **** */
 387:Middlewares/Third_Party/FreeRTOS/Source/CMSIS_RTOS/cmsis_os.c **** osEvent osWait (uint32_t millisec);
 388:Middlewares/Third_Party/FreeRTOS/Source/CMSIS_RTOS/cmsis_os.c **** 
 389:Middlewares/Third_Party/FreeRTOS/Source/CMSIS_RTOS/cmsis_os.c **** #endif  /* Generic Wait available */
 390:Middlewares/Third_Party/FreeRTOS/Source/CMSIS_RTOS/cmsis_os.c **** 
 391:Middlewares/Third_Party/FreeRTOS/Source/CMSIS_RTOS/cmsis_os.c **** /***********************  Timer Management Functions ***************************/
 392:Middlewares/Third_Party/FreeRTOS/Source/CMSIS_RTOS/cmsis_os.c **** /**
 393:Middlewares/Third_Party/FreeRTOS/Source/CMSIS_RTOS/cmsis_os.c **** * @brief  Create a timer.
 394:Middlewares/Third_Party/FreeRTOS/Source/CMSIS_RTOS/cmsis_os.c **** * @param  timer_def     timer object referenced with \ref osTimer.
 395:Middlewares/Third_Party/FreeRTOS/Source/CMSIS_RTOS/cmsis_os.c **** * @param  type          osTimerOnce for one-shot or osTimerPeriodic for periodic behavior.
 396:Middlewares/Third_Party/FreeRTOS/Source/CMSIS_RTOS/cmsis_os.c **** * @param  argument      argument to the timer call back function.
 397:Middlewares/Third_Party/FreeRTOS/Source/CMSIS_RTOS/cmsis_os.c **** * @retval  timer ID for reference by other functions or NULL in case of error.
 398:Middlewares/Third_Party/FreeRTOS/Source/CMSIS_RTOS/cmsis_os.c **** * @note   MUST REMAIN UNCHANGED: \b osTimerCreate shall be consistent in every CMSIS-RTOS.
 399:Middlewares/Third_Party/FreeRTOS/Source/CMSIS_RTOS/cmsis_os.c **** */
 400:Middlewares/Third_Party/FreeRTOS/Source/CMSIS_RTOS/cmsis_os.c **** osTimerId osTimerCreate (const osTimerDef_t *timer_def, os_timer_type type, void *argument)
 401:Middlewares/Third_Party/FreeRTOS/Source/CMSIS_RTOS/cmsis_os.c **** {
 566              		.loc 1 401 1 is_stmt 1 view -0
 567              		.cfi_startproc
 568              		@ args = 0, pretend = 0, frame = 0
 569              		@ frame_needed = 0, uses_anonymous_args = 0
 570              		@ link register save eliminated.
 402:Middlewares/Third_Party/FreeRTOS/Source/CMSIS_RTOS/cmsis_os.c **** #if (configUSE_TIMERS == 1)
 403:Middlewares/Third_Party/FreeRTOS/Source/CMSIS_RTOS/cmsis_os.c **** 
 404:Middlewares/Third_Party/FreeRTOS/Source/CMSIS_RTOS/cmsis_os.c **** #if( ( configSUPPORT_STATIC_ALLOCATION == 1 ) && ( configSUPPORT_DYNAMIC_ALLOCATION == 1 ) ) 
 405:Middlewares/Third_Party/FreeRTOS/Source/CMSIS_RTOS/cmsis_os.c ****   if(timer_def->controlblock != NULL) {
 406:Middlewares/Third_Party/FreeRTOS/Source/CMSIS_RTOS/cmsis_os.c ****     return xTimerCreateStatic((const char *)"",
 407:Middlewares/Third_Party/FreeRTOS/Source/CMSIS_RTOS/cmsis_os.c ****                       1, // period should be filled when starting the Timer using osTimerStart
 408:Middlewares/Third_Party/FreeRTOS/Source/CMSIS_RTOS/cmsis_os.c ****                       (type == osTimerPeriodic) ? pdTRUE : pdFALSE,
 409:Middlewares/Third_Party/FreeRTOS/Source/CMSIS_RTOS/cmsis_os.c ****                       (void *) argument,
 410:Middlewares/Third_Party/FreeRTOS/Source/CMSIS_RTOS/cmsis_os.c ****                       (TaskFunction_t)timer_def->ptimer,
 411:Middlewares/Third_Party/FreeRTOS/Source/CMSIS_RTOS/cmsis_os.c ****                       (StaticTimer_t *)timer_def->controlblock);
 412:Middlewares/Third_Party/FreeRTOS/Source/CMSIS_RTOS/cmsis_os.c ****   }
 413:Middlewares/Third_Party/FreeRTOS/Source/CMSIS_RTOS/cmsis_os.c ****   else {
 414:Middlewares/Third_Party/FreeRTOS/Source/CMSIS_RTOS/cmsis_os.c ****     return xTimerCreate((const char *)"",
 415:Middlewares/Third_Party/FreeRTOS/Source/CMSIS_RTOS/cmsis_os.c ****                       1, // period should be filled when starting the Timer using osTimerStart
ARM GAS  /tmp/ccAhcryT.s 			page 20


 416:Middlewares/Third_Party/FreeRTOS/Source/CMSIS_RTOS/cmsis_os.c ****                       (type == osTimerPeriodic) ? pdTRUE : pdFALSE,
 417:Middlewares/Third_Party/FreeRTOS/Source/CMSIS_RTOS/cmsis_os.c ****                       (void *) argument,
 418:Middlewares/Third_Party/FreeRTOS/Source/CMSIS_RTOS/cmsis_os.c ****                       (TaskFunction_t)timer_def->ptimer);
 419:Middlewares/Third_Party/FreeRTOS/Source/CMSIS_RTOS/cmsis_os.c ****  }
 420:Middlewares/Third_Party/FreeRTOS/Source/CMSIS_RTOS/cmsis_os.c **** #elif( configSUPPORT_STATIC_ALLOCATION == 1 )
 421:Middlewares/Third_Party/FreeRTOS/Source/CMSIS_RTOS/cmsis_os.c ****   return xTimerCreateStatic((const char *)"",
 422:Middlewares/Third_Party/FreeRTOS/Source/CMSIS_RTOS/cmsis_os.c ****                       1, // period should be filled when starting the Timer using osTimerStart
 423:Middlewares/Third_Party/FreeRTOS/Source/CMSIS_RTOS/cmsis_os.c ****                       (type == osTimerPeriodic) ? pdTRUE : pdFALSE,
 424:Middlewares/Third_Party/FreeRTOS/Source/CMSIS_RTOS/cmsis_os.c ****                       (void *) argument,
 425:Middlewares/Third_Party/FreeRTOS/Source/CMSIS_RTOS/cmsis_os.c ****                       (TaskFunction_t)timer_def->ptimer,
 426:Middlewares/Third_Party/FreeRTOS/Source/CMSIS_RTOS/cmsis_os.c ****                       (StaticTimer_t *)timer_def->controlblock);  
 427:Middlewares/Third_Party/FreeRTOS/Source/CMSIS_RTOS/cmsis_os.c **** #else
 428:Middlewares/Third_Party/FreeRTOS/Source/CMSIS_RTOS/cmsis_os.c ****   return xTimerCreate((const char *)"",
 429:Middlewares/Third_Party/FreeRTOS/Source/CMSIS_RTOS/cmsis_os.c ****                       1, // period should be filled when starting the Timer using osTimerStart
 430:Middlewares/Third_Party/FreeRTOS/Source/CMSIS_RTOS/cmsis_os.c ****                       (type == osTimerPeriodic) ? pdTRUE : pdFALSE,
 431:Middlewares/Third_Party/FreeRTOS/Source/CMSIS_RTOS/cmsis_os.c ****                       (void *) argument,
 432:Middlewares/Third_Party/FreeRTOS/Source/CMSIS_RTOS/cmsis_os.c ****                       (TaskFunction_t)timer_def->ptimer);
 433:Middlewares/Third_Party/FreeRTOS/Source/CMSIS_RTOS/cmsis_os.c **** #endif
 434:Middlewares/Third_Party/FreeRTOS/Source/CMSIS_RTOS/cmsis_os.c **** 
 435:Middlewares/Third_Party/FreeRTOS/Source/CMSIS_RTOS/cmsis_os.c **** #else 
 436:Middlewares/Third_Party/FreeRTOS/Source/CMSIS_RTOS/cmsis_os.c **** 	return NULL;
 571              		.loc 1 436 2 view .LVU106
 437:Middlewares/Third_Party/FreeRTOS/Source/CMSIS_RTOS/cmsis_os.c **** #endif
 438:Middlewares/Third_Party/FreeRTOS/Source/CMSIS_RTOS/cmsis_os.c **** }
 572              		.loc 1 438 1 is_stmt 0 view .LVU107
 573 0000 0020     		movs	r0, #0
 574              	.LVL43:
 575              		.loc 1 438 1 view .LVU108
 576              		@ sp needed
 577 0002 7047     		bx	lr
 578              		.cfi_endproc
 579              	.LFE38:
 581              		.section	.text.osTimerStart,"ax",%progbits
 582              		.align	1
 583              		.global	osTimerStart
 584              		.syntax unified
 585              		.code	16
 586              		.thumb_func
 587              		.fpu softvfp
 589              	osTimerStart:
 590              	.LVL44:
 591              	.LFB39:
 439:Middlewares/Third_Party/FreeRTOS/Source/CMSIS_RTOS/cmsis_os.c **** 
 440:Middlewares/Third_Party/FreeRTOS/Source/CMSIS_RTOS/cmsis_os.c **** /**
 441:Middlewares/Third_Party/FreeRTOS/Source/CMSIS_RTOS/cmsis_os.c **** * @brief  Start or restart a timer.
 442:Middlewares/Third_Party/FreeRTOS/Source/CMSIS_RTOS/cmsis_os.c **** * @param  timer_id      timer ID obtained by \ref osTimerCreate.
 443:Middlewares/Third_Party/FreeRTOS/Source/CMSIS_RTOS/cmsis_os.c **** * @param  millisec      time delay value of the timer.
 444:Middlewares/Third_Party/FreeRTOS/Source/CMSIS_RTOS/cmsis_os.c **** * @retval  status code that indicates the execution status of the function
 445:Middlewares/Third_Party/FreeRTOS/Source/CMSIS_RTOS/cmsis_os.c **** * @note   MUST REMAIN UNCHANGED: \b osTimerStart shall be consistent in every CMSIS-RTOS.
 446:Middlewares/Third_Party/FreeRTOS/Source/CMSIS_RTOS/cmsis_os.c **** */
 447:Middlewares/Third_Party/FreeRTOS/Source/CMSIS_RTOS/cmsis_os.c **** osStatus osTimerStart (osTimerId timer_id, uint32_t millisec)
 448:Middlewares/Third_Party/FreeRTOS/Source/CMSIS_RTOS/cmsis_os.c **** {
 592              		.loc 1 448 1 is_stmt 1 view -0
 593              		.cfi_startproc
 594              		@ args = 0, pretend = 0, frame = 0
 595              		@ frame_needed = 0, uses_anonymous_args = 0
 596              		@ link register save eliminated.
ARM GAS  /tmp/ccAhcryT.s 			page 21


 449:Middlewares/Third_Party/FreeRTOS/Source/CMSIS_RTOS/cmsis_os.c ****   osStatus result = osOK;
 597              		.loc 1 449 3 view .LVU110
 450:Middlewares/Third_Party/FreeRTOS/Source/CMSIS_RTOS/cmsis_os.c **** #if (configUSE_TIMERS == 1)  
 451:Middlewares/Third_Party/FreeRTOS/Source/CMSIS_RTOS/cmsis_os.c ****   portBASE_TYPE taskWoken = pdFALSE;
 452:Middlewares/Third_Party/FreeRTOS/Source/CMSIS_RTOS/cmsis_os.c ****   TickType_t ticks = millisec / portTICK_PERIOD_MS;
 453:Middlewares/Third_Party/FreeRTOS/Source/CMSIS_RTOS/cmsis_os.c **** 
 454:Middlewares/Third_Party/FreeRTOS/Source/CMSIS_RTOS/cmsis_os.c ****   if (ticks == 0)
 455:Middlewares/Third_Party/FreeRTOS/Source/CMSIS_RTOS/cmsis_os.c ****     ticks = 1;
 456:Middlewares/Third_Party/FreeRTOS/Source/CMSIS_RTOS/cmsis_os.c ****     
 457:Middlewares/Third_Party/FreeRTOS/Source/CMSIS_RTOS/cmsis_os.c ****   if (inHandlerMode()) 
 458:Middlewares/Third_Party/FreeRTOS/Source/CMSIS_RTOS/cmsis_os.c ****   {
 459:Middlewares/Third_Party/FreeRTOS/Source/CMSIS_RTOS/cmsis_os.c ****     if (xTimerChangePeriodFromISR(timer_id, ticks, &taskWoken) != pdPASS)
 460:Middlewares/Third_Party/FreeRTOS/Source/CMSIS_RTOS/cmsis_os.c ****     {
 461:Middlewares/Third_Party/FreeRTOS/Source/CMSIS_RTOS/cmsis_os.c ****       result = osErrorOS;
 462:Middlewares/Third_Party/FreeRTOS/Source/CMSIS_RTOS/cmsis_os.c ****     }
 463:Middlewares/Third_Party/FreeRTOS/Source/CMSIS_RTOS/cmsis_os.c ****     else
 464:Middlewares/Third_Party/FreeRTOS/Source/CMSIS_RTOS/cmsis_os.c ****     {
 465:Middlewares/Third_Party/FreeRTOS/Source/CMSIS_RTOS/cmsis_os.c ****       portEND_SWITCHING_ISR(taskWoken);     
 466:Middlewares/Third_Party/FreeRTOS/Source/CMSIS_RTOS/cmsis_os.c ****     }
 467:Middlewares/Third_Party/FreeRTOS/Source/CMSIS_RTOS/cmsis_os.c ****   }
 468:Middlewares/Third_Party/FreeRTOS/Source/CMSIS_RTOS/cmsis_os.c ****   else 
 469:Middlewares/Third_Party/FreeRTOS/Source/CMSIS_RTOS/cmsis_os.c ****   {
 470:Middlewares/Third_Party/FreeRTOS/Source/CMSIS_RTOS/cmsis_os.c ****     if (xTimerChangePeriod(timer_id, ticks, 0) != pdPASS)
 471:Middlewares/Third_Party/FreeRTOS/Source/CMSIS_RTOS/cmsis_os.c ****       result = osErrorOS;
 472:Middlewares/Third_Party/FreeRTOS/Source/CMSIS_RTOS/cmsis_os.c ****   }
 473:Middlewares/Third_Party/FreeRTOS/Source/CMSIS_RTOS/cmsis_os.c **** 
 474:Middlewares/Third_Party/FreeRTOS/Source/CMSIS_RTOS/cmsis_os.c **** #else 
 475:Middlewares/Third_Party/FreeRTOS/Source/CMSIS_RTOS/cmsis_os.c ****   result = osErrorOS;
 598              		.loc 1 475 3 view .LVU111
 476:Middlewares/Third_Party/FreeRTOS/Source/CMSIS_RTOS/cmsis_os.c **** #endif
 477:Middlewares/Third_Party/FreeRTOS/Source/CMSIS_RTOS/cmsis_os.c ****   return result;
 599              		.loc 1 477 3 view .LVU112
 478:Middlewares/Third_Party/FreeRTOS/Source/CMSIS_RTOS/cmsis_os.c **** }
 600              		.loc 1 478 1 is_stmt 0 view .LVU113
 601 0000 FF20     		movs	r0, #255
 602              	.LVL45:
 603              		.loc 1 478 1 view .LVU114
 604              		@ sp needed
 605 0002 7047     		bx	lr
 606              		.cfi_endproc
 607              	.LFE39:
 609              		.section	.text.osTimerStop,"ax",%progbits
 610              		.align	1
 611              		.global	osTimerStop
 612              		.syntax unified
 613              		.code	16
 614              		.thumb_func
 615              		.fpu softvfp
 617              	osTimerStop:
 618              	.LVL46:
 619              	.LFB40:
 479:Middlewares/Third_Party/FreeRTOS/Source/CMSIS_RTOS/cmsis_os.c **** 
 480:Middlewares/Third_Party/FreeRTOS/Source/CMSIS_RTOS/cmsis_os.c **** /**
 481:Middlewares/Third_Party/FreeRTOS/Source/CMSIS_RTOS/cmsis_os.c **** * @brief  Stop a timer.
 482:Middlewares/Third_Party/FreeRTOS/Source/CMSIS_RTOS/cmsis_os.c **** * @param  timer_id      timer ID obtained by \ref osTimerCreate
 483:Middlewares/Third_Party/FreeRTOS/Source/CMSIS_RTOS/cmsis_os.c **** * @retval  status code that indicates the execution status of the function.
 484:Middlewares/Third_Party/FreeRTOS/Source/CMSIS_RTOS/cmsis_os.c **** * @note   MUST REMAIN UNCHANGED: \b osTimerStop shall be consistent in every CMSIS-RTOS.
ARM GAS  /tmp/ccAhcryT.s 			page 22


 485:Middlewares/Third_Party/FreeRTOS/Source/CMSIS_RTOS/cmsis_os.c **** */
 486:Middlewares/Third_Party/FreeRTOS/Source/CMSIS_RTOS/cmsis_os.c **** osStatus osTimerStop (osTimerId timer_id)
 487:Middlewares/Third_Party/FreeRTOS/Source/CMSIS_RTOS/cmsis_os.c **** {
 620              		.loc 1 487 1 is_stmt 1 view -0
 621              		.cfi_startproc
 622              		@ args = 0, pretend = 0, frame = 0
 623              		@ frame_needed = 0, uses_anonymous_args = 0
 624              		@ link register save eliminated.
 488:Middlewares/Third_Party/FreeRTOS/Source/CMSIS_RTOS/cmsis_os.c ****   osStatus result = osOK;
 625              		.loc 1 488 3 view .LVU116
 489:Middlewares/Third_Party/FreeRTOS/Source/CMSIS_RTOS/cmsis_os.c **** #if (configUSE_TIMERS == 1)  
 490:Middlewares/Third_Party/FreeRTOS/Source/CMSIS_RTOS/cmsis_os.c ****   portBASE_TYPE taskWoken = pdFALSE;
 491:Middlewares/Third_Party/FreeRTOS/Source/CMSIS_RTOS/cmsis_os.c **** 
 492:Middlewares/Third_Party/FreeRTOS/Source/CMSIS_RTOS/cmsis_os.c ****   if (inHandlerMode()) {
 493:Middlewares/Third_Party/FreeRTOS/Source/CMSIS_RTOS/cmsis_os.c ****     if (xTimerStopFromISR(timer_id, &taskWoken) != pdPASS) {
 494:Middlewares/Third_Party/FreeRTOS/Source/CMSIS_RTOS/cmsis_os.c ****       return osErrorOS;
 495:Middlewares/Third_Party/FreeRTOS/Source/CMSIS_RTOS/cmsis_os.c ****     }
 496:Middlewares/Third_Party/FreeRTOS/Source/CMSIS_RTOS/cmsis_os.c ****     portEND_SWITCHING_ISR(taskWoken);
 497:Middlewares/Third_Party/FreeRTOS/Source/CMSIS_RTOS/cmsis_os.c ****   }
 498:Middlewares/Third_Party/FreeRTOS/Source/CMSIS_RTOS/cmsis_os.c ****   else {
 499:Middlewares/Third_Party/FreeRTOS/Source/CMSIS_RTOS/cmsis_os.c ****     if (xTimerStop(timer_id, 0) != pdPASS) {
 500:Middlewares/Third_Party/FreeRTOS/Source/CMSIS_RTOS/cmsis_os.c ****       result = osErrorOS;
 501:Middlewares/Third_Party/FreeRTOS/Source/CMSIS_RTOS/cmsis_os.c ****     }
 502:Middlewares/Third_Party/FreeRTOS/Source/CMSIS_RTOS/cmsis_os.c ****   }
 503:Middlewares/Third_Party/FreeRTOS/Source/CMSIS_RTOS/cmsis_os.c **** #else 
 504:Middlewares/Third_Party/FreeRTOS/Source/CMSIS_RTOS/cmsis_os.c ****   result = osErrorOS;
 626              		.loc 1 504 3 view .LVU117
 505:Middlewares/Third_Party/FreeRTOS/Source/CMSIS_RTOS/cmsis_os.c **** #endif 
 506:Middlewares/Third_Party/FreeRTOS/Source/CMSIS_RTOS/cmsis_os.c ****   return result;
 627              		.loc 1 506 3 view .LVU118
 507:Middlewares/Third_Party/FreeRTOS/Source/CMSIS_RTOS/cmsis_os.c **** }
 628              		.loc 1 507 1 is_stmt 0 view .LVU119
 629 0000 FF20     		movs	r0, #255
 630              	.LVL47:
 631              		.loc 1 507 1 view .LVU120
 632              		@ sp needed
 633 0002 7047     		bx	lr
 634              		.cfi_endproc
 635              	.LFE40:
 637              		.section	.text.osTimerDelete,"ax",%progbits
 638              		.align	1
 639              		.global	osTimerDelete
 640              		.syntax unified
 641              		.code	16
 642              		.thumb_func
 643              		.fpu softvfp
 645              	osTimerDelete:
 646              	.LVL48:
 647              	.LFB41:
 508:Middlewares/Third_Party/FreeRTOS/Source/CMSIS_RTOS/cmsis_os.c **** 
 509:Middlewares/Third_Party/FreeRTOS/Source/CMSIS_RTOS/cmsis_os.c **** /**
 510:Middlewares/Third_Party/FreeRTOS/Source/CMSIS_RTOS/cmsis_os.c **** * @brief  Delete a timer.
 511:Middlewares/Third_Party/FreeRTOS/Source/CMSIS_RTOS/cmsis_os.c **** * @param  timer_id      timer ID obtained by \ref osTimerCreate
 512:Middlewares/Third_Party/FreeRTOS/Source/CMSIS_RTOS/cmsis_os.c **** * @retval  status code that indicates the execution status of the function.
 513:Middlewares/Third_Party/FreeRTOS/Source/CMSIS_RTOS/cmsis_os.c **** * @note   MUST REMAIN UNCHANGED: \b osTimerDelete shall be consistent in every CMSIS-RTOS.
 514:Middlewares/Third_Party/FreeRTOS/Source/CMSIS_RTOS/cmsis_os.c **** */
 515:Middlewares/Third_Party/FreeRTOS/Source/CMSIS_RTOS/cmsis_os.c **** osStatus osTimerDelete (osTimerId timer_id)
ARM GAS  /tmp/ccAhcryT.s 			page 23


 516:Middlewares/Third_Party/FreeRTOS/Source/CMSIS_RTOS/cmsis_os.c **** {
 648              		.loc 1 516 1 is_stmt 1 view -0
 649              		.cfi_startproc
 650              		@ args = 0, pretend = 0, frame = 0
 651              		@ frame_needed = 0, uses_anonymous_args = 0
 652              		@ link register save eliminated.
 517:Middlewares/Third_Party/FreeRTOS/Source/CMSIS_RTOS/cmsis_os.c **** osStatus result = osOK;
 653              		.loc 1 517 1 view .LVU122
 518:Middlewares/Third_Party/FreeRTOS/Source/CMSIS_RTOS/cmsis_os.c **** 
 519:Middlewares/Third_Party/FreeRTOS/Source/CMSIS_RTOS/cmsis_os.c **** #if (configUSE_TIMERS == 1)
 520:Middlewares/Third_Party/FreeRTOS/Source/CMSIS_RTOS/cmsis_os.c **** 
 521:Middlewares/Third_Party/FreeRTOS/Source/CMSIS_RTOS/cmsis_os.c ****    if (inHandlerMode()) {
 522:Middlewares/Third_Party/FreeRTOS/Source/CMSIS_RTOS/cmsis_os.c ****      return osErrorISR;
 523:Middlewares/Third_Party/FreeRTOS/Source/CMSIS_RTOS/cmsis_os.c ****   }
 524:Middlewares/Third_Party/FreeRTOS/Source/CMSIS_RTOS/cmsis_os.c ****   else { 
 525:Middlewares/Third_Party/FreeRTOS/Source/CMSIS_RTOS/cmsis_os.c ****     if ((xTimerDelete(timer_id, osWaitForever )) != pdPASS) {
 526:Middlewares/Third_Party/FreeRTOS/Source/CMSIS_RTOS/cmsis_os.c ****       result = osErrorOS;
 527:Middlewares/Third_Party/FreeRTOS/Source/CMSIS_RTOS/cmsis_os.c ****     }
 528:Middlewares/Third_Party/FreeRTOS/Source/CMSIS_RTOS/cmsis_os.c ****   } 
 529:Middlewares/Third_Party/FreeRTOS/Source/CMSIS_RTOS/cmsis_os.c ****     
 530:Middlewares/Third_Party/FreeRTOS/Source/CMSIS_RTOS/cmsis_os.c **** #else 
 531:Middlewares/Third_Party/FreeRTOS/Source/CMSIS_RTOS/cmsis_os.c ****   result = osErrorOS;
 654              		.loc 1 531 3 view .LVU123
 532:Middlewares/Third_Party/FreeRTOS/Source/CMSIS_RTOS/cmsis_os.c **** #endif 
 533:Middlewares/Third_Party/FreeRTOS/Source/CMSIS_RTOS/cmsis_os.c ****  
 534:Middlewares/Third_Party/FreeRTOS/Source/CMSIS_RTOS/cmsis_os.c ****   return result;
 655              		.loc 1 534 3 view .LVU124
 535:Middlewares/Third_Party/FreeRTOS/Source/CMSIS_RTOS/cmsis_os.c **** }
 656              		.loc 1 535 1 is_stmt 0 view .LVU125
 657 0000 FF20     		movs	r0, #255
 658              	.LVL49:
 659              		.loc 1 535 1 view .LVU126
 660              		@ sp needed
 661 0002 7047     		bx	lr
 662              		.cfi_endproc
 663              	.LFE41:
 665              		.section	.text.osSignalSet,"ax",%progbits
 666              		.align	1
 667              		.global	osSignalSet
 668              		.syntax unified
 669              		.code	16
 670              		.thumb_func
 671              		.fpu softvfp
 673              	osSignalSet:
 674              	.LVL50:
 675              	.LFB42:
 536:Middlewares/Third_Party/FreeRTOS/Source/CMSIS_RTOS/cmsis_os.c **** 
 537:Middlewares/Third_Party/FreeRTOS/Source/CMSIS_RTOS/cmsis_os.c **** /***************************  Signal Management ********************************/
 538:Middlewares/Third_Party/FreeRTOS/Source/CMSIS_RTOS/cmsis_os.c **** /**
 539:Middlewares/Third_Party/FreeRTOS/Source/CMSIS_RTOS/cmsis_os.c **** * @brief  Set the specified Signal Flags of an active thread.
 540:Middlewares/Third_Party/FreeRTOS/Source/CMSIS_RTOS/cmsis_os.c **** * @param  thread_id     thread ID obtained by \ref osThreadCreate or \ref osThreadGetId.
 541:Middlewares/Third_Party/FreeRTOS/Source/CMSIS_RTOS/cmsis_os.c **** * @param  signals       specifies the signal flags of the thread that should be set.
 542:Middlewares/Third_Party/FreeRTOS/Source/CMSIS_RTOS/cmsis_os.c **** * @retval previous signal flags of the specified thread or 0x80000000 in case of incorrect paramete
 543:Middlewares/Third_Party/FreeRTOS/Source/CMSIS_RTOS/cmsis_os.c **** * @note   MUST REMAIN UNCHANGED: \b osSignalSet shall be consistent in every CMSIS-RTOS.
 544:Middlewares/Third_Party/FreeRTOS/Source/CMSIS_RTOS/cmsis_os.c **** */
 545:Middlewares/Third_Party/FreeRTOS/Source/CMSIS_RTOS/cmsis_os.c **** int32_t osSignalSet (osThreadId thread_id, int32_t signal)
 546:Middlewares/Third_Party/FreeRTOS/Source/CMSIS_RTOS/cmsis_os.c **** {
ARM GAS  /tmp/ccAhcryT.s 			page 24


 676              		.loc 1 546 1 is_stmt 1 view -0
 677              		.cfi_startproc
 678              		@ args = 0, pretend = 0, frame = 8
 679              		@ frame_needed = 0, uses_anonymous_args = 0
 680              		.loc 1 546 1 is_stmt 0 view .LVU128
 681 0000 30B5     		push	{r4, r5, lr}
 682              	.LCFI11:
 683              		.cfi_def_cfa_offset 12
 684              		.cfi_offset 4, -12
 685              		.cfi_offset 5, -8
 686              		.cfi_offset 14, -4
 687 0002 85B0     		sub	sp, sp, #20
 688              	.LCFI12:
 689              		.cfi_def_cfa_offset 32
 690 0004 0400     		movs	r4, r0
 691 0006 0D00     		movs	r5, r1
 547:Middlewares/Third_Party/FreeRTOS/Source/CMSIS_RTOS/cmsis_os.c **** #if( configUSE_TASK_NOTIFICATIONS == 1 )	
 548:Middlewares/Third_Party/FreeRTOS/Source/CMSIS_RTOS/cmsis_os.c ****   BaseType_t xHigherPriorityTaskWoken = pdFALSE;
 692              		.loc 1 548 3 is_stmt 1 view .LVU129
 693              		.loc 1 548 14 is_stmt 0 view .LVU130
 694 0008 0023     		movs	r3, #0
 695 000a 0393     		str	r3, [sp, #12]
 549:Middlewares/Third_Party/FreeRTOS/Source/CMSIS_RTOS/cmsis_os.c ****   uint32_t ulPreviousNotificationValue = 0;
 696              		.loc 1 549 3 is_stmt 1 view .LVU131
 697              		.loc 1 549 12 is_stmt 0 view .LVU132
 698 000c 0293     		str	r3, [sp, #8]
 550:Middlewares/Third_Party/FreeRTOS/Source/CMSIS_RTOS/cmsis_os.c ****   
 551:Middlewares/Third_Party/FreeRTOS/Source/CMSIS_RTOS/cmsis_os.c ****   if (inHandlerMode())
 699              		.loc 1 551 3 is_stmt 1 view .LVU133
 700              		.loc 1 551 7 is_stmt 0 view .LVU134
 701 000e FFF7FEFF 		bl	inHandlerMode
 702              	.LVL51:
 703              		.loc 1 551 6 view .LVU135
 704 0012 0028     		cmp	r0, #0
 705 0014 11D0     		beq	.L34
 552:Middlewares/Third_Party/FreeRTOS/Source/CMSIS_RTOS/cmsis_os.c ****   {
 553:Middlewares/Third_Party/FreeRTOS/Source/CMSIS_RTOS/cmsis_os.c ****     if(xTaskGenericNotifyFromISR( thread_id , (uint32_t)signal, eSetBits, &ulPreviousNotificationVa
 706              		.loc 1 553 5 is_stmt 1 view .LVU136
 707              		.loc 1 553 8 is_stmt 0 view .LVU137
 708 0016 03AB     		add	r3, sp, #12
 709 0018 0093     		str	r3, [sp]
 710 001a 02AB     		add	r3, sp, #8
 711 001c 0122     		movs	r2, #1
 712 001e 2900     		movs	r1, r5
 713 0020 2000     		movs	r0, r4
 714 0022 FFF7FEFF 		bl	xTaskGenericNotifyFromISR
 715              	.LVL52:
 716              		.loc 1 553 7 view .LVU138
 717 0026 0128     		cmp	r0, #1
 718 0028 12D1     		bne	.L37
 554:Middlewares/Third_Party/FreeRTOS/Source/CMSIS_RTOS/cmsis_os.c ****       return 0x80000000;
 555:Middlewares/Third_Party/FreeRTOS/Source/CMSIS_RTOS/cmsis_os.c ****     
 556:Middlewares/Third_Party/FreeRTOS/Source/CMSIS_RTOS/cmsis_os.c ****     portYIELD_FROM_ISR( xHigherPriorityTaskWoken );
 719              		.loc 1 556 5 is_stmt 1 view .LVU139
 720 002a 039B     		ldr	r3, [sp, #12]
 721 002c 002B     		cmp	r3, #0
 722 002e 0CD0     		beq	.L36
ARM GAS  /tmp/ccAhcryT.s 			page 25


 723              		.loc 1 556 5 discriminator 1 view .LVU140
 724 0030 0A4B     		ldr	r3, .L39
 725 0032 8022     		movs	r2, #128
 726 0034 5205     		lsls	r2, r2, #21
 727 0036 1A60     		str	r2, [r3]
 728 0038 07E0     		b	.L36
 729              	.L34:
 557:Middlewares/Third_Party/FreeRTOS/Source/CMSIS_RTOS/cmsis_os.c ****   }  
 558:Middlewares/Third_Party/FreeRTOS/Source/CMSIS_RTOS/cmsis_os.c ****   else if(xTaskGenericNotify( thread_id , (uint32_t)signal, eSetBits, &ulPreviousNotificationValue)
 730              		.loc 1 558 8 view .LVU141
 731              		.loc 1 558 11 is_stmt 0 view .LVU142
 732 003a 02AB     		add	r3, sp, #8
 733 003c 0122     		movs	r2, #1
 734 003e 2900     		movs	r1, r5
 735 0040 2000     		movs	r0, r4
 736 0042 FFF7FEFF 		bl	xTaskGenericNotify
 737              	.LVL53:
 738              		.loc 1 558 10 view .LVU143
 739 0046 0128     		cmp	r0, #1
 740 0048 05D1     		bne	.L38
 741              	.L36:
 559:Middlewares/Third_Party/FreeRTOS/Source/CMSIS_RTOS/cmsis_os.c ****     return 0x80000000;
 560:Middlewares/Third_Party/FreeRTOS/Source/CMSIS_RTOS/cmsis_os.c ****   
 561:Middlewares/Third_Party/FreeRTOS/Source/CMSIS_RTOS/cmsis_os.c ****   return ulPreviousNotificationValue;
 742              		.loc 1 561 3 is_stmt 1 view .LVU144
 743              		.loc 1 561 10 is_stmt 0 view .LVU145
 744 004a 0298     		ldr	r0, [sp, #8]
 745              	.L33:
 562:Middlewares/Third_Party/FreeRTOS/Source/CMSIS_RTOS/cmsis_os.c **** #else
 563:Middlewares/Third_Party/FreeRTOS/Source/CMSIS_RTOS/cmsis_os.c ****   (void) thread_id;
 564:Middlewares/Third_Party/FreeRTOS/Source/CMSIS_RTOS/cmsis_os.c ****   (void) signal;
 565:Middlewares/Third_Party/FreeRTOS/Source/CMSIS_RTOS/cmsis_os.c **** 
 566:Middlewares/Third_Party/FreeRTOS/Source/CMSIS_RTOS/cmsis_os.c ****   return 0x80000000; /* Task Notification not supported */ 	
 567:Middlewares/Third_Party/FreeRTOS/Source/CMSIS_RTOS/cmsis_os.c **** #endif
 568:Middlewares/Third_Party/FreeRTOS/Source/CMSIS_RTOS/cmsis_os.c **** }
 746              		.loc 1 568 1 view .LVU146
 747 004c 05B0     		add	sp, sp, #20
 748              		@ sp needed
 749              	.LVL54:
 750              	.LVL55:
 751              		.loc 1 568 1 view .LVU147
 752 004e 30BD     		pop	{r4, r5, pc}
 753              	.LVL56:
 754              	.L37:
 554:Middlewares/Third_Party/FreeRTOS/Source/CMSIS_RTOS/cmsis_os.c ****     
 755              		.loc 1 554 14 view .LVU148
 756 0050 8020     		movs	r0, #128
 757 0052 0006     		lsls	r0, r0, #24
 758 0054 FAE7     		b	.L33
 759              	.L38:
 559:Middlewares/Third_Party/FreeRTOS/Source/CMSIS_RTOS/cmsis_os.c ****     return 0x80000000;
 760              		.loc 1 559 12 view .LVU149
 761 0056 8020     		movs	r0, #128
 762 0058 0006     		lsls	r0, r0, #24
 763 005a F7E7     		b	.L33
 764              	.L40:
 765              		.align	2
ARM GAS  /tmp/ccAhcryT.s 			page 26


 766              	.L39:
 767 005c 04ED00E0 		.word	-536810236
 768              		.cfi_endproc
 769              	.LFE42:
 771              		.section	.text.osSignalWait,"ax",%progbits
 772              		.align	1
 773              		.global	osSignalWait
 774              		.syntax unified
 775              		.code	16
 776              		.thumb_func
 777              		.fpu softvfp
 779              	osSignalWait:
 780              	.LVL57:
 781              	.LFB43:
 569:Middlewares/Third_Party/FreeRTOS/Source/CMSIS_RTOS/cmsis_os.c **** 
 570:Middlewares/Third_Party/FreeRTOS/Source/CMSIS_RTOS/cmsis_os.c **** /**
 571:Middlewares/Third_Party/FreeRTOS/Source/CMSIS_RTOS/cmsis_os.c **** * @brief  Clear the specified Signal Flags of an active thread.
 572:Middlewares/Third_Party/FreeRTOS/Source/CMSIS_RTOS/cmsis_os.c **** * @param  thread_id  thread ID obtained by \ref osThreadCreate or \ref osThreadGetId.
 573:Middlewares/Third_Party/FreeRTOS/Source/CMSIS_RTOS/cmsis_os.c **** * @param  signals    specifies the signal flags of the thread that shall be cleared.
 574:Middlewares/Third_Party/FreeRTOS/Source/CMSIS_RTOS/cmsis_os.c **** * @retval  previous signal flags of the specified thread or 0x80000000 in case of incorrect paramet
 575:Middlewares/Third_Party/FreeRTOS/Source/CMSIS_RTOS/cmsis_os.c **** * @note   MUST REMAIN UNCHANGED: \b osSignalClear shall be consistent in every CMSIS-RTOS.
 576:Middlewares/Third_Party/FreeRTOS/Source/CMSIS_RTOS/cmsis_os.c **** */
 577:Middlewares/Third_Party/FreeRTOS/Source/CMSIS_RTOS/cmsis_os.c **** int32_t osSignalClear (osThreadId thread_id, int32_t signal);
 578:Middlewares/Third_Party/FreeRTOS/Source/CMSIS_RTOS/cmsis_os.c **** 
 579:Middlewares/Third_Party/FreeRTOS/Source/CMSIS_RTOS/cmsis_os.c **** /**
 580:Middlewares/Third_Party/FreeRTOS/Source/CMSIS_RTOS/cmsis_os.c **** * @brief  Wait for one or more Signal Flags to become signaled for the current \b RUNNING thread.
 581:Middlewares/Third_Party/FreeRTOS/Source/CMSIS_RTOS/cmsis_os.c **** * @param  signals   wait until all specified signal flags set or 0 for any single signal flag.
 582:Middlewares/Third_Party/FreeRTOS/Source/CMSIS_RTOS/cmsis_os.c **** * @param  millisec  timeout value or 0 in case of no time-out.
 583:Middlewares/Third_Party/FreeRTOS/Source/CMSIS_RTOS/cmsis_os.c **** * @retval  event flag information or error code.
 584:Middlewares/Third_Party/FreeRTOS/Source/CMSIS_RTOS/cmsis_os.c **** * @note   MUST REMAIN UNCHANGED: \b osSignalWait shall be consistent in every CMSIS-RTOS.
 585:Middlewares/Third_Party/FreeRTOS/Source/CMSIS_RTOS/cmsis_os.c **** */
 586:Middlewares/Third_Party/FreeRTOS/Source/CMSIS_RTOS/cmsis_os.c **** osEvent osSignalWait (int32_t signals, uint32_t millisec)
 587:Middlewares/Third_Party/FreeRTOS/Source/CMSIS_RTOS/cmsis_os.c **** {
 782              		.loc 1 587 1 is_stmt 1 view -0
 783              		.cfi_startproc
 784              		@ args = 0, pretend = 0, frame = 16
 785              		@ frame_needed = 0, uses_anonymous_args = 0
 786              		.loc 1 587 1 is_stmt 0 view .LVU151
 787 0000 70B5     		push	{r4, r5, r6, lr}
 788              	.LCFI13:
 789              		.cfi_def_cfa_offset 16
 790              		.cfi_offset 4, -16
 791              		.cfi_offset 5, -12
 792              		.cfi_offset 6, -8
 793              		.cfi_offset 14, -4
 794 0002 84B0     		sub	sp, sp, #16
 795              	.LCFI14:
 796              		.cfi_def_cfa_offset 32
 797 0004 0400     		movs	r4, r0
 798 0006 0E00     		movs	r6, r1
 799 0008 1500     		movs	r5, r2
 588:Middlewares/Third_Party/FreeRTOS/Source/CMSIS_RTOS/cmsis_os.c ****   osEvent ret;
 800              		.loc 1 588 3 is_stmt 1 view .LVU152
 589:Middlewares/Third_Party/FreeRTOS/Source/CMSIS_RTOS/cmsis_os.c **** 
 590:Middlewares/Third_Party/FreeRTOS/Source/CMSIS_RTOS/cmsis_os.c **** #if( configUSE_TASK_NOTIFICATIONS == 1 )
 591:Middlewares/Third_Party/FreeRTOS/Source/CMSIS_RTOS/cmsis_os.c **** 	
 592:Middlewares/Third_Party/FreeRTOS/Source/CMSIS_RTOS/cmsis_os.c ****   TickType_t ticks;
ARM GAS  /tmp/ccAhcryT.s 			page 27


 801              		.loc 1 592 3 view .LVU153
 593:Middlewares/Third_Party/FreeRTOS/Source/CMSIS_RTOS/cmsis_os.c **** 
 594:Middlewares/Third_Party/FreeRTOS/Source/CMSIS_RTOS/cmsis_os.c ****   ret.value.signals = 0;  
 802              		.loc 1 594 3 view .LVU154
 803              		.loc 1 594 21 is_stmt 0 view .LVU155
 804 000a 0023     		movs	r3, #0
 805 000c 0293     		str	r3, [sp, #8]
 595:Middlewares/Third_Party/FreeRTOS/Source/CMSIS_RTOS/cmsis_os.c ****   ticks = 0;
 806              		.loc 1 595 3 is_stmt 1 view .LVU156
 807              	.LVL58:
 596:Middlewares/Third_Party/FreeRTOS/Source/CMSIS_RTOS/cmsis_os.c ****   if (millisec == osWaitForever) {
 808              		.loc 1 596 3 view .LVU157
 809              		.loc 1 596 6 is_stmt 0 view .LVU158
 810 000e 531C     		adds	r3, r2, #1
 811 0010 0CD0     		beq	.L49
 812              	.L42:
 813              	.LVL59:
 597:Middlewares/Third_Party/FreeRTOS/Source/CMSIS_RTOS/cmsis_os.c ****     ticks = portMAX_DELAY;
 598:Middlewares/Third_Party/FreeRTOS/Source/CMSIS_RTOS/cmsis_os.c ****   }
 599:Middlewares/Third_Party/FreeRTOS/Source/CMSIS_RTOS/cmsis_os.c ****   else if (millisec != 0) {
 600:Middlewares/Third_Party/FreeRTOS/Source/CMSIS_RTOS/cmsis_os.c ****     ticks = millisec / portTICK_PERIOD_MS;
 601:Middlewares/Third_Party/FreeRTOS/Source/CMSIS_RTOS/cmsis_os.c ****     if (ticks == 0) {
 602:Middlewares/Third_Party/FreeRTOS/Source/CMSIS_RTOS/cmsis_os.c ****       ticks = 1;
 603:Middlewares/Third_Party/FreeRTOS/Source/CMSIS_RTOS/cmsis_os.c ****     }
 604:Middlewares/Third_Party/FreeRTOS/Source/CMSIS_RTOS/cmsis_os.c ****   }  
 605:Middlewares/Third_Party/FreeRTOS/Source/CMSIS_RTOS/cmsis_os.c ****   
 606:Middlewares/Third_Party/FreeRTOS/Source/CMSIS_RTOS/cmsis_os.c ****   if (inHandlerMode())
 814              		.loc 1 606 3 is_stmt 1 view .LVU159
 815              		.loc 1 606 7 is_stmt 0 view .LVU160
 816 0012 FFF7FEFF 		bl	inHandlerMode
 817              	.LVL60:
 818              		.loc 1 606 6 view .LVU161
 819 0016 0028     		cmp	r0, #0
 820 0018 0BD0     		beq	.L43
 607:Middlewares/Third_Party/FreeRTOS/Source/CMSIS_RTOS/cmsis_os.c ****   {
 608:Middlewares/Third_Party/FreeRTOS/Source/CMSIS_RTOS/cmsis_os.c ****     ret.status = osErrorISR;  /*Not allowed in ISR*/
 821              		.loc 1 608 5 is_stmt 1 view .LVU162
 822              		.loc 1 608 16 is_stmt 0 view .LVU163
 823 001a 8223     		movs	r3, #130
 824 001c 0193     		str	r3, [sp, #4]
 825              	.L44:
 609:Middlewares/Third_Party/FreeRTOS/Source/CMSIS_RTOS/cmsis_os.c ****   }
 610:Middlewares/Third_Party/FreeRTOS/Source/CMSIS_RTOS/cmsis_os.c ****   else
 611:Middlewares/Third_Party/FreeRTOS/Source/CMSIS_RTOS/cmsis_os.c ****   {
 612:Middlewares/Third_Party/FreeRTOS/Source/CMSIS_RTOS/cmsis_os.c ****     if(xTaskNotifyWait( 0,(uint32_t) signals, (uint32_t *)&ret.value.signals, ticks) != pdTRUE)
 613:Middlewares/Third_Party/FreeRTOS/Source/CMSIS_RTOS/cmsis_os.c ****     {
 614:Middlewares/Third_Party/FreeRTOS/Source/CMSIS_RTOS/cmsis_os.c ****       if(ticks == 0)  ret.status = osOK;
 615:Middlewares/Third_Party/FreeRTOS/Source/CMSIS_RTOS/cmsis_os.c ****       else  ret.status = osEventTimeout;
 616:Middlewares/Third_Party/FreeRTOS/Source/CMSIS_RTOS/cmsis_os.c ****     }
 617:Middlewares/Third_Party/FreeRTOS/Source/CMSIS_RTOS/cmsis_os.c ****     else if(ret.value.signals < 0)
 618:Middlewares/Third_Party/FreeRTOS/Source/CMSIS_RTOS/cmsis_os.c ****     {
 619:Middlewares/Third_Party/FreeRTOS/Source/CMSIS_RTOS/cmsis_os.c ****       ret.status =  osErrorValue;     
 620:Middlewares/Third_Party/FreeRTOS/Source/CMSIS_RTOS/cmsis_os.c ****     }
 621:Middlewares/Third_Party/FreeRTOS/Source/CMSIS_RTOS/cmsis_os.c ****     else  ret.status =  osEventSignal;
 622:Middlewares/Third_Party/FreeRTOS/Source/CMSIS_RTOS/cmsis_os.c ****   }
 623:Middlewares/Third_Party/FreeRTOS/Source/CMSIS_RTOS/cmsis_os.c **** #else
 624:Middlewares/Third_Party/FreeRTOS/Source/CMSIS_RTOS/cmsis_os.c ****   (void) signals;
ARM GAS  /tmp/ccAhcryT.s 			page 28


 625:Middlewares/Third_Party/FreeRTOS/Source/CMSIS_RTOS/cmsis_os.c ****   (void) millisec;
 626:Middlewares/Third_Party/FreeRTOS/Source/CMSIS_RTOS/cmsis_os.c **** 	
 627:Middlewares/Third_Party/FreeRTOS/Source/CMSIS_RTOS/cmsis_os.c ****   ret.status =  osErrorOS;	/* Task Notification not supported */
 628:Middlewares/Third_Party/FreeRTOS/Source/CMSIS_RTOS/cmsis_os.c **** #endif
 629:Middlewares/Third_Party/FreeRTOS/Source/CMSIS_RTOS/cmsis_os.c ****   
 630:Middlewares/Third_Party/FreeRTOS/Source/CMSIS_RTOS/cmsis_os.c ****   return ret;
 826              		.loc 1 630 3 is_stmt 1 view .LVU164
 827              		.loc 1 630 10 is_stmt 0 view .LVU165
 828 001e 01AB     		add	r3, sp, #4
 829 0020 2200     		movs	r2, r4
 830 0022 23CB     		ldmia	r3!, {r0, r1, r5}
 831 0024 23C2     		stmia	r2!, {r0, r1, r5}
 832              	.LVL61:
 631:Middlewares/Third_Party/FreeRTOS/Source/CMSIS_RTOS/cmsis_os.c **** }
 833              		.loc 1 631 1 view .LVU166
 834 0026 2000     		movs	r0, r4
 835 0028 04B0     		add	sp, sp, #16
 836              		@ sp needed
 837              	.LVL62:
 838              	.LVL63:
 839              		.loc 1 631 1 view .LVU167
 840 002a 70BD     		pop	{r4, r5, r6, pc}
 841              	.LVL64:
 842              	.L49:
 597:Middlewares/Third_Party/FreeRTOS/Source/CMSIS_RTOS/cmsis_os.c ****   }
 843              		.loc 1 597 11 view .LVU168
 844 002c 0125     		movs	r5, #1
 845 002e 6D42     		rsbs	r5, r5, #0
 846 0030 EFE7     		b	.L42
 847              	.LVL65:
 848              	.L43:
 612:Middlewares/Third_Party/FreeRTOS/Source/CMSIS_RTOS/cmsis_os.c ****     {
 849              		.loc 1 612 5 is_stmt 1 view .LVU169
 612:Middlewares/Third_Party/FreeRTOS/Source/CMSIS_RTOS/cmsis_os.c ****     {
 850              		.loc 1 612 8 is_stmt 0 view .LVU170
 851 0032 2B00     		movs	r3, r5
 852 0034 02AA     		add	r2, sp, #8
 853 0036 3100     		movs	r1, r6
 854 0038 0020     		movs	r0, #0
 855 003a FFF7FEFF 		bl	xTaskNotifyWait
 856              	.LVL66:
 612:Middlewares/Third_Party/FreeRTOS/Source/CMSIS_RTOS/cmsis_os.c ****     {
 857              		.loc 1 612 7 view .LVU171
 858 003e 0128     		cmp	r0, #1
 859 0040 07D0     		beq	.L45
 614:Middlewares/Third_Party/FreeRTOS/Source/CMSIS_RTOS/cmsis_os.c ****       else  ret.status = osEventTimeout;
 860              		.loc 1 614 7 is_stmt 1 view .LVU172
 614:Middlewares/Third_Party/FreeRTOS/Source/CMSIS_RTOS/cmsis_os.c ****       else  ret.status = osEventTimeout;
 861              		.loc 1 614 9 is_stmt 0 view .LVU173
 862 0042 002D     		cmp	r5, #0
 863 0044 02D1     		bne	.L46
 614:Middlewares/Third_Party/FreeRTOS/Source/CMSIS_RTOS/cmsis_os.c ****       else  ret.status = osEventTimeout;
 864              		.loc 1 614 23 is_stmt 1 discriminator 1 view .LVU174
 614:Middlewares/Third_Party/FreeRTOS/Source/CMSIS_RTOS/cmsis_os.c ****       else  ret.status = osEventTimeout;
 865              		.loc 1 614 34 is_stmt 0 discriminator 1 view .LVU175
 866 0046 0023     		movs	r3, #0
 867 0048 0193     		str	r3, [sp, #4]
ARM GAS  /tmp/ccAhcryT.s 			page 29


 868 004a E8E7     		b	.L44
 869              	.L46:
 615:Middlewares/Third_Party/FreeRTOS/Source/CMSIS_RTOS/cmsis_os.c ****     }
 870              		.loc 1 615 13 is_stmt 1 view .LVU176
 615:Middlewares/Third_Party/FreeRTOS/Source/CMSIS_RTOS/cmsis_os.c ****     }
 871              		.loc 1 615 24 is_stmt 0 view .LVU177
 872 004c 4023     		movs	r3, #64
 873 004e 0193     		str	r3, [sp, #4]
 874 0050 E5E7     		b	.L44
 875              	.L45:
 617:Middlewares/Third_Party/FreeRTOS/Source/CMSIS_RTOS/cmsis_os.c ****     {
 876              		.loc 1 617 10 is_stmt 1 view .LVU178
 617:Middlewares/Third_Party/FreeRTOS/Source/CMSIS_RTOS/cmsis_os.c ****     {
 877              		.loc 1 617 12 is_stmt 0 view .LVU179
 878 0052 029B     		ldr	r3, [sp, #8]
 879 0054 002B     		cmp	r3, #0
 880 0056 02DB     		blt	.L50
 621:Middlewares/Third_Party/FreeRTOS/Source/CMSIS_RTOS/cmsis_os.c ****   }
 881              		.loc 1 621 11 is_stmt 1 view .LVU180
 621:Middlewares/Third_Party/FreeRTOS/Source/CMSIS_RTOS/cmsis_os.c ****   }
 882              		.loc 1 621 22 is_stmt 0 view .LVU181
 883 0058 0823     		movs	r3, #8
 884 005a 0193     		str	r3, [sp, #4]
 885 005c DFE7     		b	.L44
 886              	.L50:
 619:Middlewares/Third_Party/FreeRTOS/Source/CMSIS_RTOS/cmsis_os.c ****     }
 887              		.loc 1 619 7 is_stmt 1 view .LVU182
 619:Middlewares/Third_Party/FreeRTOS/Source/CMSIS_RTOS/cmsis_os.c ****     }
 888              		.loc 1 619 18 is_stmt 0 view .LVU183
 889 005e 8623     		movs	r3, #134
 890 0060 0193     		str	r3, [sp, #4]
 891 0062 DCE7     		b	.L44
 892              		.cfi_endproc
 893              	.LFE43:
 895              		.section	.text.osMutexCreate,"ax",%progbits
 896              		.align	1
 897              		.global	osMutexCreate
 898              		.syntax unified
 899              		.code	16
 900              		.thumb_func
 901              		.fpu softvfp
 903              	osMutexCreate:
 904              	.LVL67:
 905              	.LFB44:
 632:Middlewares/Third_Party/FreeRTOS/Source/CMSIS_RTOS/cmsis_os.c **** 
 633:Middlewares/Third_Party/FreeRTOS/Source/CMSIS_RTOS/cmsis_os.c **** /****************************  Mutex Management ********************************/
 634:Middlewares/Third_Party/FreeRTOS/Source/CMSIS_RTOS/cmsis_os.c **** /**
 635:Middlewares/Third_Party/FreeRTOS/Source/CMSIS_RTOS/cmsis_os.c **** * @brief  Create and Initialize a Mutex object
 636:Middlewares/Third_Party/FreeRTOS/Source/CMSIS_RTOS/cmsis_os.c **** * @param  mutex_def     mutex definition referenced with \ref osMutex.
 637:Middlewares/Third_Party/FreeRTOS/Source/CMSIS_RTOS/cmsis_os.c **** * @retval  mutex ID for reference by other functions or NULL in case of error.
 638:Middlewares/Third_Party/FreeRTOS/Source/CMSIS_RTOS/cmsis_os.c **** * @note   MUST REMAIN UNCHANGED: \b osMutexCreate shall be consistent in every CMSIS-RTOS.
 639:Middlewares/Third_Party/FreeRTOS/Source/CMSIS_RTOS/cmsis_os.c **** */
 640:Middlewares/Third_Party/FreeRTOS/Source/CMSIS_RTOS/cmsis_os.c **** osMutexId osMutexCreate (const osMutexDef_t *mutex_def)
 641:Middlewares/Third_Party/FreeRTOS/Source/CMSIS_RTOS/cmsis_os.c **** {
 906              		.loc 1 641 1 is_stmt 1 view -0
 907              		.cfi_startproc
 908              		@ args = 0, pretend = 0, frame = 0
ARM GAS  /tmp/ccAhcryT.s 			page 30


 909              		@ frame_needed = 0, uses_anonymous_args = 0
 910              		.loc 1 641 1 is_stmt 0 view .LVU185
 911 0000 10B5     		push	{r4, lr}
 912              	.LCFI15:
 913              		.cfi_def_cfa_offset 8
 914              		.cfi_offset 4, -8
 915              		.cfi_offset 14, -4
 642:Middlewares/Third_Party/FreeRTOS/Source/CMSIS_RTOS/cmsis_os.c **** #if ( configUSE_MUTEXES == 1)
 643:Middlewares/Third_Party/FreeRTOS/Source/CMSIS_RTOS/cmsis_os.c **** 
 644:Middlewares/Third_Party/FreeRTOS/Source/CMSIS_RTOS/cmsis_os.c **** #if( configSUPPORT_STATIC_ALLOCATION == 1 ) && ( configSUPPORT_DYNAMIC_ALLOCATION == 1 )
 645:Middlewares/Third_Party/FreeRTOS/Source/CMSIS_RTOS/cmsis_os.c **** 
 646:Middlewares/Third_Party/FreeRTOS/Source/CMSIS_RTOS/cmsis_os.c ****   if (mutex_def->controlblock != NULL) {
 647:Middlewares/Third_Party/FreeRTOS/Source/CMSIS_RTOS/cmsis_os.c ****     return xSemaphoreCreateMutexStatic( mutex_def->controlblock );
 648:Middlewares/Third_Party/FreeRTOS/Source/CMSIS_RTOS/cmsis_os.c ****      }
 649:Middlewares/Third_Party/FreeRTOS/Source/CMSIS_RTOS/cmsis_os.c ****   else {
 650:Middlewares/Third_Party/FreeRTOS/Source/CMSIS_RTOS/cmsis_os.c ****     return xSemaphoreCreateMutex(); 
 651:Middlewares/Third_Party/FreeRTOS/Source/CMSIS_RTOS/cmsis_os.c ****   }
 652:Middlewares/Third_Party/FreeRTOS/Source/CMSIS_RTOS/cmsis_os.c **** #elif ( configSUPPORT_STATIC_ALLOCATION == 1 )
 653:Middlewares/Third_Party/FreeRTOS/Source/CMSIS_RTOS/cmsis_os.c ****   return xSemaphoreCreateMutexStatic( mutex_def->controlblock );
 654:Middlewares/Third_Party/FreeRTOS/Source/CMSIS_RTOS/cmsis_os.c **** #else  
 655:Middlewares/Third_Party/FreeRTOS/Source/CMSIS_RTOS/cmsis_os.c ****     return xSemaphoreCreateMutex(); 
 916              		.loc 1 655 5 is_stmt 1 view .LVU186
 917              		.loc 1 655 12 is_stmt 0 view .LVU187
 918 0002 0120     		movs	r0, #1
 919              	.LVL68:
 920              		.loc 1 655 12 view .LVU188
 921 0004 FFF7FEFF 		bl	xQueueCreateMutex
 922              	.LVL69:
 656:Middlewares/Third_Party/FreeRTOS/Source/CMSIS_RTOS/cmsis_os.c **** #endif
 657:Middlewares/Third_Party/FreeRTOS/Source/CMSIS_RTOS/cmsis_os.c **** #else
 658:Middlewares/Third_Party/FreeRTOS/Source/CMSIS_RTOS/cmsis_os.c ****   return NULL;
 659:Middlewares/Third_Party/FreeRTOS/Source/CMSIS_RTOS/cmsis_os.c **** #endif
 660:Middlewares/Third_Party/FreeRTOS/Source/CMSIS_RTOS/cmsis_os.c **** }
 923              		.loc 1 660 1 view .LVU189
 924              		@ sp needed
 925 0008 10BD     		pop	{r4, pc}
 926              		.cfi_endproc
 927              	.LFE44:
 929              		.section	.text.osMutexWait,"ax",%progbits
 930              		.align	1
 931              		.global	osMutexWait
 932              		.syntax unified
 933              		.code	16
 934              		.thumb_func
 935              		.fpu softvfp
 937              	osMutexWait:
 938              	.LVL70:
 939              	.LFB45:
 661:Middlewares/Third_Party/FreeRTOS/Source/CMSIS_RTOS/cmsis_os.c **** 
 662:Middlewares/Third_Party/FreeRTOS/Source/CMSIS_RTOS/cmsis_os.c **** /**
 663:Middlewares/Third_Party/FreeRTOS/Source/CMSIS_RTOS/cmsis_os.c **** * @brief Wait until a Mutex becomes available
 664:Middlewares/Third_Party/FreeRTOS/Source/CMSIS_RTOS/cmsis_os.c **** * @param mutex_id      mutex ID obtained by \ref osMutexCreate.
 665:Middlewares/Third_Party/FreeRTOS/Source/CMSIS_RTOS/cmsis_os.c **** * @param millisec      timeout value or 0 in case of no time-out.
 666:Middlewares/Third_Party/FreeRTOS/Source/CMSIS_RTOS/cmsis_os.c **** * @retval  status code that indicates the execution status of the function.
 667:Middlewares/Third_Party/FreeRTOS/Source/CMSIS_RTOS/cmsis_os.c **** * @note   MUST REMAIN UNCHANGED: \b osMutexWait shall be consistent in every CMSIS-RTOS.
 668:Middlewares/Third_Party/FreeRTOS/Source/CMSIS_RTOS/cmsis_os.c **** */
 669:Middlewares/Third_Party/FreeRTOS/Source/CMSIS_RTOS/cmsis_os.c **** osStatus osMutexWait (osMutexId mutex_id, uint32_t millisec)
ARM GAS  /tmp/ccAhcryT.s 			page 31


 670:Middlewares/Third_Party/FreeRTOS/Source/CMSIS_RTOS/cmsis_os.c **** {
 940              		.loc 1 670 1 is_stmt 1 view -0
 941              		.cfi_startproc
 942              		@ args = 0, pretend = 0, frame = 8
 943              		@ frame_needed = 0, uses_anonymous_args = 0
 944              		.loc 1 670 1 is_stmt 0 view .LVU191
 945 0000 30B5     		push	{r4, r5, lr}
 946              	.LCFI16:
 947              		.cfi_def_cfa_offset 12
 948              		.cfi_offset 4, -12
 949              		.cfi_offset 5, -8
 950              		.cfi_offset 14, -4
 951 0002 83B0     		sub	sp, sp, #12
 952              	.LCFI17:
 953              		.cfi_def_cfa_offset 24
 954 0004 0500     		movs	r5, r0
 955 0006 0C00     		movs	r4, r1
 671:Middlewares/Third_Party/FreeRTOS/Source/CMSIS_RTOS/cmsis_os.c ****   TickType_t ticks;
 956              		.loc 1 671 3 is_stmt 1 view .LVU192
 672:Middlewares/Third_Party/FreeRTOS/Source/CMSIS_RTOS/cmsis_os.c ****   portBASE_TYPE taskWoken = pdFALSE;  
 957              		.loc 1 672 3 view .LVU193
 958              		.loc 1 672 17 is_stmt 0 view .LVU194
 959 0008 0023     		movs	r3, #0
 960 000a 0193     		str	r3, [sp, #4]
 673:Middlewares/Third_Party/FreeRTOS/Source/CMSIS_RTOS/cmsis_os.c ****   
 674:Middlewares/Third_Party/FreeRTOS/Source/CMSIS_RTOS/cmsis_os.c ****   
 675:Middlewares/Third_Party/FreeRTOS/Source/CMSIS_RTOS/cmsis_os.c ****   if (mutex_id == NULL) {
 961              		.loc 1 675 3 is_stmt 1 view .LVU195
 962              		.loc 1 675 6 is_stmt 0 view .LVU196
 963 000c 0028     		cmp	r0, #0
 964 000e 23D0     		beq	.L56
 676:Middlewares/Third_Party/FreeRTOS/Source/CMSIS_RTOS/cmsis_os.c ****     return osErrorParameter;
 677:Middlewares/Third_Party/FreeRTOS/Source/CMSIS_RTOS/cmsis_os.c ****   }
 678:Middlewares/Third_Party/FreeRTOS/Source/CMSIS_RTOS/cmsis_os.c ****   
 679:Middlewares/Third_Party/FreeRTOS/Source/CMSIS_RTOS/cmsis_os.c ****   ticks = 0;
 965              		.loc 1 679 3 is_stmt 1 view .LVU197
 966              	.LVL71:
 680:Middlewares/Third_Party/FreeRTOS/Source/CMSIS_RTOS/cmsis_os.c ****   if (millisec == osWaitForever) {
 967              		.loc 1 680 3 view .LVU198
 968              		.loc 1 680 6 is_stmt 0 view .LVU199
 969 0010 4B1C     		adds	r3, r1, #1
 970 0012 13D0     		beq	.L61
 971              	.L54:
 972              	.LVL72:
 681:Middlewares/Third_Party/FreeRTOS/Source/CMSIS_RTOS/cmsis_os.c ****     ticks = portMAX_DELAY;
 682:Middlewares/Third_Party/FreeRTOS/Source/CMSIS_RTOS/cmsis_os.c ****   }
 683:Middlewares/Third_Party/FreeRTOS/Source/CMSIS_RTOS/cmsis_os.c ****   else if (millisec != 0) {
 684:Middlewares/Third_Party/FreeRTOS/Source/CMSIS_RTOS/cmsis_os.c ****     ticks = millisec / portTICK_PERIOD_MS;
 685:Middlewares/Third_Party/FreeRTOS/Source/CMSIS_RTOS/cmsis_os.c ****     if (ticks == 0) {
 686:Middlewares/Third_Party/FreeRTOS/Source/CMSIS_RTOS/cmsis_os.c ****       ticks = 1;
 687:Middlewares/Third_Party/FreeRTOS/Source/CMSIS_RTOS/cmsis_os.c ****     }
 688:Middlewares/Third_Party/FreeRTOS/Source/CMSIS_RTOS/cmsis_os.c ****   }
 689:Middlewares/Third_Party/FreeRTOS/Source/CMSIS_RTOS/cmsis_os.c ****   
 690:Middlewares/Third_Party/FreeRTOS/Source/CMSIS_RTOS/cmsis_os.c ****   if (inHandlerMode()) {
 973              		.loc 1 690 3 is_stmt 1 view .LVU200
 974              		.loc 1 690 7 is_stmt 0 view .LVU201
 975 0014 FFF7FEFF 		bl	inHandlerMode
ARM GAS  /tmp/ccAhcryT.s 			page 32


 976              	.LVL73:
 977              		.loc 1 690 6 view .LVU202
 978 0018 0028     		cmp	r0, #0
 979 001a 12D0     		beq	.L55
 691:Middlewares/Third_Party/FreeRTOS/Source/CMSIS_RTOS/cmsis_os.c ****     if (xSemaphoreTakeFromISR(mutex_id, &taskWoken) != pdTRUE) {
 980              		.loc 1 691 5 is_stmt 1 view .LVU203
 981              		.loc 1 691 9 is_stmt 0 view .LVU204
 982 001c 01AA     		add	r2, sp, #4
 983 001e 0021     		movs	r1, #0
 984 0020 2800     		movs	r0, r5
 985 0022 FFF7FEFF 		bl	xQueueReceiveFromISR
 986              	.LVL74:
 987              		.loc 1 691 8 view .LVU205
 988 0026 0128     		cmp	r0, #1
 989 0028 18D1     		bne	.L58
 692:Middlewares/Third_Party/FreeRTOS/Source/CMSIS_RTOS/cmsis_os.c ****       return osErrorOS;
 693:Middlewares/Third_Party/FreeRTOS/Source/CMSIS_RTOS/cmsis_os.c ****     }
 694:Middlewares/Third_Party/FreeRTOS/Source/CMSIS_RTOS/cmsis_os.c **** 	portEND_SWITCHING_ISR(taskWoken);
 990              		.loc 1 694 2 is_stmt 1 view .LVU206
 991 002a 019B     		ldr	r3, [sp, #4]
 992 002c 002B     		cmp	r3, #0
 993 002e 17D0     		beq	.L59
 994              		.loc 1 694 2 discriminator 1 view .LVU207
 995 0030 0D4B     		ldr	r3, .L62
 996 0032 8022     		movs	r2, #128
 997 0034 5205     		lsls	r2, r2, #21
 998 0036 1A60     		str	r2, [r3]
 695:Middlewares/Third_Party/FreeRTOS/Source/CMSIS_RTOS/cmsis_os.c ****   } 
 696:Middlewares/Third_Party/FreeRTOS/Source/CMSIS_RTOS/cmsis_os.c ****   else if (xSemaphoreTake(mutex_id, ticks) != pdTRUE) {
 697:Middlewares/Third_Party/FreeRTOS/Source/CMSIS_RTOS/cmsis_os.c ****     return osErrorOS;
 698:Middlewares/Third_Party/FreeRTOS/Source/CMSIS_RTOS/cmsis_os.c ****   }
 699:Middlewares/Third_Party/FreeRTOS/Source/CMSIS_RTOS/cmsis_os.c ****   
 700:Middlewares/Third_Party/FreeRTOS/Source/CMSIS_RTOS/cmsis_os.c ****   return osOK;
 999              		.loc 1 700 10 is_stmt 0 discriminator 1 view .LVU208
 1000 0038 0020     		movs	r0, #0
 1001 003a 0BE0     		b	.L52
 1002              	.LVL75:
 1003              	.L61:
 681:Middlewares/Third_Party/FreeRTOS/Source/CMSIS_RTOS/cmsis_os.c ****   }
 1004              		.loc 1 681 11 view .LVU209
 1005 003c 0124     		movs	r4, #1
 1006 003e 6442     		rsbs	r4, r4, #0
 1007 0040 E8E7     		b	.L54
 1008              	.LVL76:
 1009              	.L55:
 696:Middlewares/Third_Party/FreeRTOS/Source/CMSIS_RTOS/cmsis_os.c ****     return osErrorOS;
 1010              		.loc 1 696 8 is_stmt 1 view .LVU210
 696:Middlewares/Third_Party/FreeRTOS/Source/CMSIS_RTOS/cmsis_os.c ****     return osErrorOS;
 1011              		.loc 1 696 12 is_stmt 0 view .LVU211
 1012 0042 0023     		movs	r3, #0
 1013 0044 2200     		movs	r2, r4
 1014 0046 0021     		movs	r1, #0
 1015 0048 2800     		movs	r0, r5
 1016 004a FFF7FEFF 		bl	xQueueGenericReceive
 1017              	.LVL77:
 696:Middlewares/Third_Party/FreeRTOS/Source/CMSIS_RTOS/cmsis_os.c ****     return osErrorOS;
 1018              		.loc 1 696 11 view .LVU212
ARM GAS  /tmp/ccAhcryT.s 			page 33


 1019 004e 0128     		cmp	r0, #1
 1020 0050 08D1     		bne	.L60
 1021              		.loc 1 700 10 view .LVU213
 1022 0052 0020     		movs	r0, #0
 1023              	.LVL78:
 1024              	.L52:
 701:Middlewares/Third_Party/FreeRTOS/Source/CMSIS_RTOS/cmsis_os.c **** }
 1025              		.loc 1 701 1 view .LVU214
 1026 0054 03B0     		add	sp, sp, #12
 1027              		@ sp needed
 1028              	.LVL79:
 1029              		.loc 1 701 1 view .LVU215
 1030 0056 30BD     		pop	{r4, r5, pc}
 1031              	.LVL80:
 1032              	.L56:
 676:Middlewares/Third_Party/FreeRTOS/Source/CMSIS_RTOS/cmsis_os.c ****   }
 1033              		.loc 1 676 12 view .LVU216
 1034 0058 8020     		movs	r0, #128
 1035              	.LVL81:
 676:Middlewares/Third_Party/FreeRTOS/Source/CMSIS_RTOS/cmsis_os.c ****   }
 1036              		.loc 1 676 12 view .LVU217
 1037 005a FBE7     		b	.L52
 1038              	.LVL82:
 1039              	.L58:
 692:Middlewares/Third_Party/FreeRTOS/Source/CMSIS_RTOS/cmsis_os.c ****     }
 1040              		.loc 1 692 14 view .LVU218
 1041 005c FF20     		movs	r0, #255
 1042 005e F9E7     		b	.L52
 1043              	.L59:
 700:Middlewares/Third_Party/FreeRTOS/Source/CMSIS_RTOS/cmsis_os.c **** }
 1044              		.loc 1 700 10 view .LVU219
 1045 0060 0020     		movs	r0, #0
 1046 0062 F7E7     		b	.L52
 1047              	.L60:
 697:Middlewares/Third_Party/FreeRTOS/Source/CMSIS_RTOS/cmsis_os.c ****   }
 1048              		.loc 1 697 12 view .LVU220
 1049 0064 FF20     		movs	r0, #255
 1050 0066 F5E7     		b	.L52
 1051              	.L63:
 1052              		.align	2
 1053              	.L62:
 1054 0068 04ED00E0 		.word	-536810236
 1055              		.cfi_endproc
 1056              	.LFE45:
 1058              		.section	.text.osMutexRelease,"ax",%progbits
 1059              		.align	1
 1060              		.global	osMutexRelease
 1061              		.syntax unified
 1062              		.code	16
 1063              		.thumb_func
 1064              		.fpu softvfp
 1066              	osMutexRelease:
 1067              	.LVL83:
 1068              	.LFB46:
 702:Middlewares/Third_Party/FreeRTOS/Source/CMSIS_RTOS/cmsis_os.c **** 
 703:Middlewares/Third_Party/FreeRTOS/Source/CMSIS_RTOS/cmsis_os.c **** /**
 704:Middlewares/Third_Party/FreeRTOS/Source/CMSIS_RTOS/cmsis_os.c **** * @brief Release a Mutex that was obtained by \ref osMutexWait
ARM GAS  /tmp/ccAhcryT.s 			page 34


 705:Middlewares/Third_Party/FreeRTOS/Source/CMSIS_RTOS/cmsis_os.c **** * @param mutex_id      mutex ID obtained by \ref osMutexCreate.
 706:Middlewares/Third_Party/FreeRTOS/Source/CMSIS_RTOS/cmsis_os.c **** * @retval  status code that indicates the execution status of the function.
 707:Middlewares/Third_Party/FreeRTOS/Source/CMSIS_RTOS/cmsis_os.c **** * @note   MUST REMAIN UNCHANGED: \b osMutexRelease shall be consistent in every CMSIS-RTOS.
 708:Middlewares/Third_Party/FreeRTOS/Source/CMSIS_RTOS/cmsis_os.c **** */
 709:Middlewares/Third_Party/FreeRTOS/Source/CMSIS_RTOS/cmsis_os.c **** osStatus osMutexRelease (osMutexId mutex_id)
 710:Middlewares/Third_Party/FreeRTOS/Source/CMSIS_RTOS/cmsis_os.c **** {
 1069              		.loc 1 710 1 is_stmt 1 view -0
 1070              		.cfi_startproc
 1071              		@ args = 0, pretend = 0, frame = 8
 1072              		@ frame_needed = 0, uses_anonymous_args = 0
 1073              		.loc 1 710 1 is_stmt 0 view .LVU222
 1074 0000 10B5     		push	{r4, lr}
 1075              	.LCFI18:
 1076              		.cfi_def_cfa_offset 8
 1077              		.cfi_offset 4, -8
 1078              		.cfi_offset 14, -4
 1079 0002 82B0     		sub	sp, sp, #8
 1080              	.LCFI19:
 1081              		.cfi_def_cfa_offset 16
 1082 0004 0400     		movs	r4, r0
 711:Middlewares/Third_Party/FreeRTOS/Source/CMSIS_RTOS/cmsis_os.c ****   osStatus result = osOK;
 1083              		.loc 1 711 3 is_stmt 1 view .LVU223
 1084              	.LVL84:
 712:Middlewares/Third_Party/FreeRTOS/Source/CMSIS_RTOS/cmsis_os.c ****   portBASE_TYPE taskWoken = pdFALSE;
 1085              		.loc 1 712 3 view .LVU224
 1086              		.loc 1 712 17 is_stmt 0 view .LVU225
 1087 0006 0023     		movs	r3, #0
 1088 0008 0193     		str	r3, [sp, #4]
 713:Middlewares/Third_Party/FreeRTOS/Source/CMSIS_RTOS/cmsis_os.c ****   
 714:Middlewares/Third_Party/FreeRTOS/Source/CMSIS_RTOS/cmsis_os.c ****   if (inHandlerMode()) {
 1089              		.loc 1 714 3 is_stmt 1 view .LVU226
 1090              		.loc 1 714 7 is_stmt 0 view .LVU227
 1091 000a FFF7FEFF 		bl	inHandlerMode
 1092              	.LVL85:
 1093              		.loc 1 714 6 view .LVU228
 1094 000e 0028     		cmp	r0, #0
 1095 0010 0ED0     		beq	.L65
 715:Middlewares/Third_Party/FreeRTOS/Source/CMSIS_RTOS/cmsis_os.c ****     if (xSemaphoreGiveFromISR(mutex_id, &taskWoken) != pdTRUE) {
 1096              		.loc 1 715 5 is_stmt 1 view .LVU229
 1097              		.loc 1 715 9 is_stmt 0 view .LVU230
 1098 0012 01A9     		add	r1, sp, #4
 1099 0014 2000     		movs	r0, r4
 1100 0016 FFF7FEFF 		bl	xQueueGiveFromISR
 1101              	.LVL86:
 1102              		.loc 1 715 8 view .LVU231
 1103 001a 0128     		cmp	r0, #1
 1104 001c 15D1     		bne	.L67
 716:Middlewares/Third_Party/FreeRTOS/Source/CMSIS_RTOS/cmsis_os.c ****       return osErrorOS;
 717:Middlewares/Third_Party/FreeRTOS/Source/CMSIS_RTOS/cmsis_os.c ****     }
 718:Middlewares/Third_Party/FreeRTOS/Source/CMSIS_RTOS/cmsis_os.c ****     portEND_SWITCHING_ISR(taskWoken);
 1105              		.loc 1 718 5 is_stmt 1 view .LVU232
 1106 001e 019B     		ldr	r3, [sp, #4]
 1107 0020 002B     		cmp	r3, #0
 1108 0022 14D0     		beq	.L68
 1109              		.loc 1 718 5 discriminator 1 view .LVU233
 1110 0024 0B4B     		ldr	r3, .L71
 1111 0026 8022     		movs	r2, #128
ARM GAS  /tmp/ccAhcryT.s 			page 35


 1112 0028 5205     		lsls	r2, r2, #21
 1113 002a 1A60     		str	r2, [r3]
 711:Middlewares/Third_Party/FreeRTOS/Source/CMSIS_RTOS/cmsis_os.c ****   portBASE_TYPE taskWoken = pdFALSE;
 1114              		.loc 1 711 12 is_stmt 0 discriminator 1 view .LVU234
 1115 002c 0020     		movs	r0, #0
 1116 002e 08E0     		b	.L64
 1117              	.L65:
 719:Middlewares/Third_Party/FreeRTOS/Source/CMSIS_RTOS/cmsis_os.c ****   }
 720:Middlewares/Third_Party/FreeRTOS/Source/CMSIS_RTOS/cmsis_os.c ****   else if (xSemaphoreGive(mutex_id) != pdTRUE) 
 1118              		.loc 1 720 8 is_stmt 1 view .LVU235
 1119              		.loc 1 720 12 is_stmt 0 view .LVU236
 1120 0030 0023     		movs	r3, #0
 1121 0032 0022     		movs	r2, #0
 1122 0034 0021     		movs	r1, #0
 1123 0036 2000     		movs	r0, r4
 1124 0038 FFF7FEFF 		bl	xQueueGenericSend
 1125              	.LVL87:
 1126              		.loc 1 720 11 view .LVU237
 1127 003c 0128     		cmp	r0, #1
 1128 003e 02D0     		beq	.L70
 721:Middlewares/Third_Party/FreeRTOS/Source/CMSIS_RTOS/cmsis_os.c ****   {
 722:Middlewares/Third_Party/FreeRTOS/Source/CMSIS_RTOS/cmsis_os.c ****     result = osErrorOS;
 1129              		.loc 1 722 12 view .LVU238
 1130 0040 FF20     		movs	r0, #255
 1131              	.L64:
 723:Middlewares/Third_Party/FreeRTOS/Source/CMSIS_RTOS/cmsis_os.c ****   }
 724:Middlewares/Third_Party/FreeRTOS/Source/CMSIS_RTOS/cmsis_os.c ****   return result;
 725:Middlewares/Third_Party/FreeRTOS/Source/CMSIS_RTOS/cmsis_os.c **** }
 1132              		.loc 1 725 1 view .LVU239
 1133 0042 02B0     		add	sp, sp, #8
 1134              		@ sp needed
 1135              	.LVL88:
 1136              		.loc 1 725 1 view .LVU240
 1137 0044 10BD     		pop	{r4, pc}
 1138              	.LVL89:
 1139              	.L70:
 711:Middlewares/Third_Party/FreeRTOS/Source/CMSIS_RTOS/cmsis_os.c ****   portBASE_TYPE taskWoken = pdFALSE;
 1140              		.loc 1 711 12 view .LVU241
 1141 0046 0020     		movs	r0, #0
 1142 0048 FBE7     		b	.L64
 1143              	.L67:
 716:Middlewares/Third_Party/FreeRTOS/Source/CMSIS_RTOS/cmsis_os.c ****     }
 1144              		.loc 1 716 14 view .LVU242
 1145 004a FF20     		movs	r0, #255
 1146 004c F9E7     		b	.L64
 1147              	.L68:
 711:Middlewares/Third_Party/FreeRTOS/Source/CMSIS_RTOS/cmsis_os.c ****   portBASE_TYPE taskWoken = pdFALSE;
 1148              		.loc 1 711 12 view .LVU243
 1149 004e 0020     		movs	r0, #0
 1150 0050 F7E7     		b	.L64
 1151              	.L72:
 1152 0052 C046     		.align	2
 1153              	.L71:
 1154 0054 04ED00E0 		.word	-536810236
 1155              		.cfi_endproc
 1156              	.LFE46:
 1158              		.section	.text.osMutexDelete,"ax",%progbits
ARM GAS  /tmp/ccAhcryT.s 			page 36


 1159              		.align	1
 1160              		.global	osMutexDelete
 1161              		.syntax unified
 1162              		.code	16
 1163              		.thumb_func
 1164              		.fpu softvfp
 1166              	osMutexDelete:
 1167              	.LVL90:
 1168              	.LFB47:
 726:Middlewares/Third_Party/FreeRTOS/Source/CMSIS_RTOS/cmsis_os.c **** 
 727:Middlewares/Third_Party/FreeRTOS/Source/CMSIS_RTOS/cmsis_os.c **** /**
 728:Middlewares/Third_Party/FreeRTOS/Source/CMSIS_RTOS/cmsis_os.c **** * @brief Delete a Mutex
 729:Middlewares/Third_Party/FreeRTOS/Source/CMSIS_RTOS/cmsis_os.c **** * @param mutex_id  mutex ID obtained by \ref osMutexCreate.
 730:Middlewares/Third_Party/FreeRTOS/Source/CMSIS_RTOS/cmsis_os.c **** * @retval  status code that indicates the execution status of the function.
 731:Middlewares/Third_Party/FreeRTOS/Source/CMSIS_RTOS/cmsis_os.c **** * @note   MUST REMAIN UNCHANGED: \b osMutexDelete shall be consistent in every CMSIS-RTOS.
 732:Middlewares/Third_Party/FreeRTOS/Source/CMSIS_RTOS/cmsis_os.c **** */
 733:Middlewares/Third_Party/FreeRTOS/Source/CMSIS_RTOS/cmsis_os.c **** osStatus osMutexDelete (osMutexId mutex_id)
 734:Middlewares/Third_Party/FreeRTOS/Source/CMSIS_RTOS/cmsis_os.c **** {
 1169              		.loc 1 734 1 is_stmt 1 view -0
 1170              		.cfi_startproc
 1171              		@ args = 0, pretend = 0, frame = 0
 1172              		@ frame_needed = 0, uses_anonymous_args = 0
 1173              		.loc 1 734 1 is_stmt 0 view .LVU245
 1174 0000 10B5     		push	{r4, lr}
 1175              	.LCFI20:
 1176              		.cfi_def_cfa_offset 8
 1177              		.cfi_offset 4, -8
 1178              		.cfi_offset 14, -4
 1179 0002 0400     		movs	r4, r0
 735:Middlewares/Third_Party/FreeRTOS/Source/CMSIS_RTOS/cmsis_os.c ****   if (inHandlerMode()) {
 1180              		.loc 1 735 3 is_stmt 1 view .LVU246
 1181              		.loc 1 735 7 is_stmt 0 view .LVU247
 1182 0004 FFF7FEFF 		bl	inHandlerMode
 1183              	.LVL91:
 1184              		.loc 1 735 6 view .LVU248
 1185 0008 0028     		cmp	r0, #0
 1186 000a 04D1     		bne	.L75
 736:Middlewares/Third_Party/FreeRTOS/Source/CMSIS_RTOS/cmsis_os.c ****     return osErrorISR;
 737:Middlewares/Third_Party/FreeRTOS/Source/CMSIS_RTOS/cmsis_os.c ****   }
 738:Middlewares/Third_Party/FreeRTOS/Source/CMSIS_RTOS/cmsis_os.c **** 
 739:Middlewares/Third_Party/FreeRTOS/Source/CMSIS_RTOS/cmsis_os.c ****   vQueueDelete(mutex_id);
 1187              		.loc 1 739 3 is_stmt 1 view .LVU249
 1188 000c 2000     		movs	r0, r4
 1189 000e FFF7FEFF 		bl	vQueueDelete
 1190              	.LVL92:
 740:Middlewares/Third_Party/FreeRTOS/Source/CMSIS_RTOS/cmsis_os.c **** 
 741:Middlewares/Third_Party/FreeRTOS/Source/CMSIS_RTOS/cmsis_os.c ****   return osOK;
 1191              		.loc 1 741 3 view .LVU250
 1192              		.loc 1 741 10 is_stmt 0 view .LVU251
 1193 0012 0020     		movs	r0, #0
 1194              	.L73:
 742:Middlewares/Third_Party/FreeRTOS/Source/CMSIS_RTOS/cmsis_os.c **** }
 1195              		.loc 1 742 1 view .LVU252
 1196              		@ sp needed
 1197              	.LVL93:
 1198              		.loc 1 742 1 view .LVU253
 1199 0014 10BD     		pop	{r4, pc}
ARM GAS  /tmp/ccAhcryT.s 			page 37


 1200              	.LVL94:
 1201              	.L75:
 736:Middlewares/Third_Party/FreeRTOS/Source/CMSIS_RTOS/cmsis_os.c ****     return osErrorISR;
 1202              		.loc 1 736 12 view .LVU254
 1203 0016 8220     		movs	r0, #130
 1204 0018 FCE7     		b	.L73
 1205              		.cfi_endproc
 1206              	.LFE47:
 1208              		.section	.text.osSemaphoreCreate,"ax",%progbits
 1209              		.align	1
 1210              		.global	osSemaphoreCreate
 1211              		.syntax unified
 1212              		.code	16
 1213              		.thumb_func
 1214              		.fpu softvfp
 1216              	osSemaphoreCreate:
 1217              	.LVL95:
 1218              	.LFB48:
 743:Middlewares/Third_Party/FreeRTOS/Source/CMSIS_RTOS/cmsis_os.c **** 
 744:Middlewares/Third_Party/FreeRTOS/Source/CMSIS_RTOS/cmsis_os.c **** /********************  Semaphore Management Functions **************************/
 745:Middlewares/Third_Party/FreeRTOS/Source/CMSIS_RTOS/cmsis_os.c **** 
 746:Middlewares/Third_Party/FreeRTOS/Source/CMSIS_RTOS/cmsis_os.c **** #if (defined (osFeature_Semaphore)  &&  (osFeature_Semaphore != 0))
 747:Middlewares/Third_Party/FreeRTOS/Source/CMSIS_RTOS/cmsis_os.c **** 
 748:Middlewares/Third_Party/FreeRTOS/Source/CMSIS_RTOS/cmsis_os.c **** /**
 749:Middlewares/Third_Party/FreeRTOS/Source/CMSIS_RTOS/cmsis_os.c **** * @brief Create and Initialize a Semaphore object used for managing resources
 750:Middlewares/Third_Party/FreeRTOS/Source/CMSIS_RTOS/cmsis_os.c **** * @param semaphore_def semaphore definition referenced with \ref osSemaphore.
 751:Middlewares/Third_Party/FreeRTOS/Source/CMSIS_RTOS/cmsis_os.c **** * @param count         number of available resources.
 752:Middlewares/Third_Party/FreeRTOS/Source/CMSIS_RTOS/cmsis_os.c **** * @retval  semaphore ID for reference by other functions or NULL in case of error.
 753:Middlewares/Third_Party/FreeRTOS/Source/CMSIS_RTOS/cmsis_os.c **** * @note   MUST REMAIN UNCHANGED: \b osSemaphoreCreate shall be consistent in every CMSIS-RTOS.
 754:Middlewares/Third_Party/FreeRTOS/Source/CMSIS_RTOS/cmsis_os.c **** */
 755:Middlewares/Third_Party/FreeRTOS/Source/CMSIS_RTOS/cmsis_os.c **** osSemaphoreId osSemaphoreCreate (const osSemaphoreDef_t *semaphore_def, int32_t count)
 756:Middlewares/Third_Party/FreeRTOS/Source/CMSIS_RTOS/cmsis_os.c **** { 
 1219              		.loc 1 756 1 is_stmt 1 view -0
 1220              		.cfi_startproc
 1221              		@ args = 0, pretend = 0, frame = 0
 1222              		@ frame_needed = 0, uses_anonymous_args = 0
 1223              		.loc 1 756 1 is_stmt 0 view .LVU256
 1224 0000 10B5     		push	{r4, lr}
 1225              	.LCFI21:
 1226              		.cfi_def_cfa_offset 8
 1227              		.cfi_offset 4, -8
 1228              		.cfi_offset 14, -4
 757:Middlewares/Third_Party/FreeRTOS/Source/CMSIS_RTOS/cmsis_os.c **** #if( configSUPPORT_STATIC_ALLOCATION == 1 ) && ( configSUPPORT_DYNAMIC_ALLOCATION == 1 )
 758:Middlewares/Third_Party/FreeRTOS/Source/CMSIS_RTOS/cmsis_os.c **** 
 759:Middlewares/Third_Party/FreeRTOS/Source/CMSIS_RTOS/cmsis_os.c ****   osSemaphoreId sema;
 760:Middlewares/Third_Party/FreeRTOS/Source/CMSIS_RTOS/cmsis_os.c ****   
 761:Middlewares/Third_Party/FreeRTOS/Source/CMSIS_RTOS/cmsis_os.c ****   if (semaphore_def->controlblock != NULL){
 762:Middlewares/Third_Party/FreeRTOS/Source/CMSIS_RTOS/cmsis_os.c ****     if (count == 1) {
 763:Middlewares/Third_Party/FreeRTOS/Source/CMSIS_RTOS/cmsis_os.c ****       return xSemaphoreCreateBinaryStatic( semaphore_def->controlblock );
 764:Middlewares/Third_Party/FreeRTOS/Source/CMSIS_RTOS/cmsis_os.c ****     }
 765:Middlewares/Third_Party/FreeRTOS/Source/CMSIS_RTOS/cmsis_os.c ****     else {
 766:Middlewares/Third_Party/FreeRTOS/Source/CMSIS_RTOS/cmsis_os.c **** #if (configUSE_COUNTING_SEMAPHORES == 1 )
 767:Middlewares/Third_Party/FreeRTOS/Source/CMSIS_RTOS/cmsis_os.c ****       return xSemaphoreCreateCountingStatic( count, count, semaphore_def->controlblock );
 768:Middlewares/Third_Party/FreeRTOS/Source/CMSIS_RTOS/cmsis_os.c **** #else
 769:Middlewares/Third_Party/FreeRTOS/Source/CMSIS_RTOS/cmsis_os.c ****       return NULL;
 770:Middlewares/Third_Party/FreeRTOS/Source/CMSIS_RTOS/cmsis_os.c **** #endif
 771:Middlewares/Third_Party/FreeRTOS/Source/CMSIS_RTOS/cmsis_os.c ****     }
ARM GAS  /tmp/ccAhcryT.s 			page 38


 772:Middlewares/Third_Party/FreeRTOS/Source/CMSIS_RTOS/cmsis_os.c ****   }
 773:Middlewares/Third_Party/FreeRTOS/Source/CMSIS_RTOS/cmsis_os.c ****   else {
 774:Middlewares/Third_Party/FreeRTOS/Source/CMSIS_RTOS/cmsis_os.c ****     if (count == 1) {
 775:Middlewares/Third_Party/FreeRTOS/Source/CMSIS_RTOS/cmsis_os.c ****       vSemaphoreCreateBinary(sema);
 776:Middlewares/Third_Party/FreeRTOS/Source/CMSIS_RTOS/cmsis_os.c ****       return sema;
 777:Middlewares/Third_Party/FreeRTOS/Source/CMSIS_RTOS/cmsis_os.c ****     }
 778:Middlewares/Third_Party/FreeRTOS/Source/CMSIS_RTOS/cmsis_os.c ****     else {
 779:Middlewares/Third_Party/FreeRTOS/Source/CMSIS_RTOS/cmsis_os.c **** #if (configUSE_COUNTING_SEMAPHORES == 1 )	
 780:Middlewares/Third_Party/FreeRTOS/Source/CMSIS_RTOS/cmsis_os.c ****       return xSemaphoreCreateCounting(count, count);
 781:Middlewares/Third_Party/FreeRTOS/Source/CMSIS_RTOS/cmsis_os.c **** #else
 782:Middlewares/Third_Party/FreeRTOS/Source/CMSIS_RTOS/cmsis_os.c ****       return NULL;
 783:Middlewares/Third_Party/FreeRTOS/Source/CMSIS_RTOS/cmsis_os.c **** #endif    
 784:Middlewares/Third_Party/FreeRTOS/Source/CMSIS_RTOS/cmsis_os.c ****     }
 785:Middlewares/Third_Party/FreeRTOS/Source/CMSIS_RTOS/cmsis_os.c ****   }
 786:Middlewares/Third_Party/FreeRTOS/Source/CMSIS_RTOS/cmsis_os.c **** #elif ( configSUPPORT_STATIC_ALLOCATION == 1 ) // configSUPPORT_DYNAMIC_ALLOCATION == 0
 787:Middlewares/Third_Party/FreeRTOS/Source/CMSIS_RTOS/cmsis_os.c ****   if(count == 1) {
 788:Middlewares/Third_Party/FreeRTOS/Source/CMSIS_RTOS/cmsis_os.c ****     return xSemaphoreCreateBinaryStatic( semaphore_def->controlblock );
 789:Middlewares/Third_Party/FreeRTOS/Source/CMSIS_RTOS/cmsis_os.c ****   }
 790:Middlewares/Third_Party/FreeRTOS/Source/CMSIS_RTOS/cmsis_os.c ****   else
 791:Middlewares/Third_Party/FreeRTOS/Source/CMSIS_RTOS/cmsis_os.c ****   {
 792:Middlewares/Third_Party/FreeRTOS/Source/CMSIS_RTOS/cmsis_os.c **** #if (configUSE_COUNTING_SEMAPHORES == 1 )
 793:Middlewares/Third_Party/FreeRTOS/Source/CMSIS_RTOS/cmsis_os.c ****       return xSemaphoreCreateCountingStatic( count, count, semaphore_def->controlblock );
 794:Middlewares/Third_Party/FreeRTOS/Source/CMSIS_RTOS/cmsis_os.c **** #else
 795:Middlewares/Third_Party/FreeRTOS/Source/CMSIS_RTOS/cmsis_os.c ****       return NULL;
 796:Middlewares/Third_Party/FreeRTOS/Source/CMSIS_RTOS/cmsis_os.c **** #endif    
 797:Middlewares/Third_Party/FreeRTOS/Source/CMSIS_RTOS/cmsis_os.c ****   }
 798:Middlewares/Third_Party/FreeRTOS/Source/CMSIS_RTOS/cmsis_os.c **** #else  // configSUPPORT_STATIC_ALLOCATION == 0  && configSUPPORT_DYNAMIC_ALLOCATION == 1
 799:Middlewares/Third_Party/FreeRTOS/Source/CMSIS_RTOS/cmsis_os.c ****   osSemaphoreId sema;
 1229              		.loc 1 799 3 is_stmt 1 view .LVU257
 800:Middlewares/Third_Party/FreeRTOS/Source/CMSIS_RTOS/cmsis_os.c ****  
 801:Middlewares/Third_Party/FreeRTOS/Source/CMSIS_RTOS/cmsis_os.c ****   if (count == 1) {
 1230              		.loc 1 801 3 view .LVU258
 1231              		.loc 1 801 6 is_stmt 0 view .LVU259
 1232 0002 0129     		cmp	r1, #1
 1233 0004 02D0     		beq	.L80
 802:Middlewares/Third_Party/FreeRTOS/Source/CMSIS_RTOS/cmsis_os.c ****     vSemaphoreCreateBinary(sema);
 803:Middlewares/Third_Party/FreeRTOS/Source/CMSIS_RTOS/cmsis_os.c ****     return sema;
 804:Middlewares/Third_Party/FreeRTOS/Source/CMSIS_RTOS/cmsis_os.c ****   }
 805:Middlewares/Third_Party/FreeRTOS/Source/CMSIS_RTOS/cmsis_os.c ****   else {
 806:Middlewares/Third_Party/FreeRTOS/Source/CMSIS_RTOS/cmsis_os.c **** #if (configUSE_COUNTING_SEMAPHORES == 1 )	
 807:Middlewares/Third_Party/FreeRTOS/Source/CMSIS_RTOS/cmsis_os.c ****     return xSemaphoreCreateCounting(count, count);
 808:Middlewares/Third_Party/FreeRTOS/Source/CMSIS_RTOS/cmsis_os.c **** #else
 809:Middlewares/Third_Party/FreeRTOS/Source/CMSIS_RTOS/cmsis_os.c ****     return NULL;
 1234              		.loc 1 809 12 view .LVU260
 1235 0006 0024     		movs	r4, #0
 1236              	.LVL96:
 1237              	.L76:
 810:Middlewares/Third_Party/FreeRTOS/Source/CMSIS_RTOS/cmsis_os.c **** #endif
 811:Middlewares/Third_Party/FreeRTOS/Source/CMSIS_RTOS/cmsis_os.c ****   }
 812:Middlewares/Third_Party/FreeRTOS/Source/CMSIS_RTOS/cmsis_os.c **** #endif
 813:Middlewares/Third_Party/FreeRTOS/Source/CMSIS_RTOS/cmsis_os.c **** }
 1238              		.loc 1 813 1 view .LVU261
 1239 0008 2000     		movs	r0, r4
 1240              		@ sp needed
 1241 000a 10BD     		pop	{r4, pc}
 1242              	.LVL97:
 1243              	.L80:
ARM GAS  /tmp/ccAhcryT.s 			page 39


 802:Middlewares/Third_Party/FreeRTOS/Source/CMSIS_RTOS/cmsis_os.c ****     vSemaphoreCreateBinary(sema);
 1244              		.loc 1 802 5 is_stmt 1 view .LVU262
 1245 000c 0322     		movs	r2, #3
 1246 000e 0021     		movs	r1, #0
 1247              	.LVL98:
 802:Middlewares/Third_Party/FreeRTOS/Source/CMSIS_RTOS/cmsis_os.c ****     vSemaphoreCreateBinary(sema);
 1248              		.loc 1 802 5 is_stmt 0 view .LVU263
 1249 0010 0120     		movs	r0, #1
 1250              	.LVL99:
 802:Middlewares/Third_Party/FreeRTOS/Source/CMSIS_RTOS/cmsis_os.c ****     vSemaphoreCreateBinary(sema);
 1251              		.loc 1 802 5 view .LVU264
 1252 0012 FFF7FEFF 		bl	xQueueGenericCreate
 1253              	.LVL100:
 1254 0016 041E     		subs	r4, r0, #0
 1255              	.LVL101:
 802:Middlewares/Third_Party/FreeRTOS/Source/CMSIS_RTOS/cmsis_os.c ****     vSemaphoreCreateBinary(sema);
 1256              		.loc 1 802 5 is_stmt 1 view .LVU265
 1257 0018 F6D0     		beq	.L76
 802:Middlewares/Third_Party/FreeRTOS/Source/CMSIS_RTOS/cmsis_os.c ****     vSemaphoreCreateBinary(sema);
 1258              		.loc 1 802 5 discriminator 1 view .LVU266
 1259 001a 0023     		movs	r3, #0
 1260 001c 0022     		movs	r2, #0
 1261 001e 0021     		movs	r1, #0
 1262 0020 FFF7FEFF 		bl	xQueueGenericSend
 1263              	.LVL102:
 802:Middlewares/Third_Party/FreeRTOS/Source/CMSIS_RTOS/cmsis_os.c ****     vSemaphoreCreateBinary(sema);
 1264              		.loc 1 802 33 discriminator 1 view .LVU267
 803:Middlewares/Third_Party/FreeRTOS/Source/CMSIS_RTOS/cmsis_os.c ****   }
 1265              		.loc 1 803 5 discriminator 1 view .LVU268
 803:Middlewares/Third_Party/FreeRTOS/Source/CMSIS_RTOS/cmsis_os.c ****   }
 1266              		.loc 1 803 12 is_stmt 0 discriminator 1 view .LVU269
 1267 0024 F0E7     		b	.L76
 1268              		.cfi_endproc
 1269              	.LFE48:
 1271              		.section	.text.osSemaphoreWait,"ax",%progbits
 1272              		.align	1
 1273              		.global	osSemaphoreWait
 1274              		.syntax unified
 1275              		.code	16
 1276              		.thumb_func
 1277              		.fpu softvfp
 1279              	osSemaphoreWait:
 1280              	.LVL103:
 1281              	.LFB49:
 814:Middlewares/Third_Party/FreeRTOS/Source/CMSIS_RTOS/cmsis_os.c **** 
 815:Middlewares/Third_Party/FreeRTOS/Source/CMSIS_RTOS/cmsis_os.c **** /**
 816:Middlewares/Third_Party/FreeRTOS/Source/CMSIS_RTOS/cmsis_os.c **** * @brief Wait until a Semaphore token becomes available
 817:Middlewares/Third_Party/FreeRTOS/Source/CMSIS_RTOS/cmsis_os.c **** * @param  semaphore_id  semaphore object referenced with \ref osSemaphore.
 818:Middlewares/Third_Party/FreeRTOS/Source/CMSIS_RTOS/cmsis_os.c **** * @param  millisec      timeout value or 0 in case of no time-out.
 819:Middlewares/Third_Party/FreeRTOS/Source/CMSIS_RTOS/cmsis_os.c **** * @retval  number of available tokens, or -1 in case of incorrect parameters.
 820:Middlewares/Third_Party/FreeRTOS/Source/CMSIS_RTOS/cmsis_os.c **** * @note   MUST REMAIN UNCHANGED: \b osSemaphoreWait shall be consistent in every CMSIS-RTOS.
 821:Middlewares/Third_Party/FreeRTOS/Source/CMSIS_RTOS/cmsis_os.c **** */
 822:Middlewares/Third_Party/FreeRTOS/Source/CMSIS_RTOS/cmsis_os.c **** int32_t osSemaphoreWait (osSemaphoreId semaphore_id, uint32_t millisec)
 823:Middlewares/Third_Party/FreeRTOS/Source/CMSIS_RTOS/cmsis_os.c **** {
 1282              		.loc 1 823 1 is_stmt 1 view -0
 1283              		.cfi_startproc
 1284              		@ args = 0, pretend = 0, frame = 8
ARM GAS  /tmp/ccAhcryT.s 			page 40


 1285              		@ frame_needed = 0, uses_anonymous_args = 0
 1286              		.loc 1 823 1 is_stmt 0 view .LVU271
 1287 0000 30B5     		push	{r4, r5, lr}
 1288              	.LCFI22:
 1289              		.cfi_def_cfa_offset 12
 1290              		.cfi_offset 4, -12
 1291              		.cfi_offset 5, -8
 1292              		.cfi_offset 14, -4
 1293 0002 83B0     		sub	sp, sp, #12
 1294              	.LCFI23:
 1295              		.cfi_def_cfa_offset 24
 1296 0004 0500     		movs	r5, r0
 1297 0006 0C00     		movs	r4, r1
 824:Middlewares/Third_Party/FreeRTOS/Source/CMSIS_RTOS/cmsis_os.c ****   TickType_t ticks;
 1298              		.loc 1 824 3 is_stmt 1 view .LVU272
 825:Middlewares/Third_Party/FreeRTOS/Source/CMSIS_RTOS/cmsis_os.c ****   portBASE_TYPE taskWoken = pdFALSE;  
 1299              		.loc 1 825 3 view .LVU273
 1300              		.loc 1 825 17 is_stmt 0 view .LVU274
 1301 0008 0023     		movs	r3, #0
 1302 000a 0193     		str	r3, [sp, #4]
 826:Middlewares/Third_Party/FreeRTOS/Source/CMSIS_RTOS/cmsis_os.c ****   
 827:Middlewares/Third_Party/FreeRTOS/Source/CMSIS_RTOS/cmsis_os.c ****   
 828:Middlewares/Third_Party/FreeRTOS/Source/CMSIS_RTOS/cmsis_os.c ****   if (semaphore_id == NULL) {
 1303              		.loc 1 828 3 is_stmt 1 view .LVU275
 1304              		.loc 1 828 6 is_stmt 0 view .LVU276
 1305 000c 0028     		cmp	r0, #0
 1306 000e 23D0     		beq	.L85
 829:Middlewares/Third_Party/FreeRTOS/Source/CMSIS_RTOS/cmsis_os.c ****     return osErrorParameter;
 830:Middlewares/Third_Party/FreeRTOS/Source/CMSIS_RTOS/cmsis_os.c ****   }
 831:Middlewares/Third_Party/FreeRTOS/Source/CMSIS_RTOS/cmsis_os.c ****   
 832:Middlewares/Third_Party/FreeRTOS/Source/CMSIS_RTOS/cmsis_os.c ****   ticks = 0;
 1307              		.loc 1 832 3 is_stmt 1 view .LVU277
 1308              	.LVL104:
 833:Middlewares/Third_Party/FreeRTOS/Source/CMSIS_RTOS/cmsis_os.c ****   if (millisec == osWaitForever) {
 1309              		.loc 1 833 3 view .LVU278
 1310              		.loc 1 833 6 is_stmt 0 view .LVU279
 1311 0010 4B1C     		adds	r3, r1, #1
 1312 0012 13D0     		beq	.L90
 1313              	.L83:
 1314              	.LVL105:
 834:Middlewares/Third_Party/FreeRTOS/Source/CMSIS_RTOS/cmsis_os.c ****     ticks = portMAX_DELAY;
 835:Middlewares/Third_Party/FreeRTOS/Source/CMSIS_RTOS/cmsis_os.c ****   }
 836:Middlewares/Third_Party/FreeRTOS/Source/CMSIS_RTOS/cmsis_os.c ****   else if (millisec != 0) {
 837:Middlewares/Third_Party/FreeRTOS/Source/CMSIS_RTOS/cmsis_os.c ****     ticks = millisec / portTICK_PERIOD_MS;
 838:Middlewares/Third_Party/FreeRTOS/Source/CMSIS_RTOS/cmsis_os.c ****     if (ticks == 0) {
 839:Middlewares/Third_Party/FreeRTOS/Source/CMSIS_RTOS/cmsis_os.c ****       ticks = 1;
 840:Middlewares/Third_Party/FreeRTOS/Source/CMSIS_RTOS/cmsis_os.c ****     }
 841:Middlewares/Third_Party/FreeRTOS/Source/CMSIS_RTOS/cmsis_os.c ****   }
 842:Middlewares/Third_Party/FreeRTOS/Source/CMSIS_RTOS/cmsis_os.c ****   
 843:Middlewares/Third_Party/FreeRTOS/Source/CMSIS_RTOS/cmsis_os.c ****   if (inHandlerMode()) {
 1315              		.loc 1 843 3 is_stmt 1 view .LVU280
 1316              		.loc 1 843 7 is_stmt 0 view .LVU281
 1317 0014 FFF7FEFF 		bl	inHandlerMode
 1318              	.LVL106:
 1319              		.loc 1 843 6 view .LVU282
 1320 0018 0028     		cmp	r0, #0
 1321 001a 12D0     		beq	.L84
ARM GAS  /tmp/ccAhcryT.s 			page 41


 844:Middlewares/Third_Party/FreeRTOS/Source/CMSIS_RTOS/cmsis_os.c ****     if (xSemaphoreTakeFromISR(semaphore_id, &taskWoken) != pdTRUE) {
 1322              		.loc 1 844 5 is_stmt 1 view .LVU283
 1323              		.loc 1 844 9 is_stmt 0 view .LVU284
 1324 001c 01AA     		add	r2, sp, #4
 1325 001e 0021     		movs	r1, #0
 1326 0020 2800     		movs	r0, r5
 1327 0022 FFF7FEFF 		bl	xQueueReceiveFromISR
 1328              	.LVL107:
 1329              		.loc 1 844 8 view .LVU285
 1330 0026 0128     		cmp	r0, #1
 1331 0028 18D1     		bne	.L87
 845:Middlewares/Third_Party/FreeRTOS/Source/CMSIS_RTOS/cmsis_os.c ****       return osErrorOS;
 846:Middlewares/Third_Party/FreeRTOS/Source/CMSIS_RTOS/cmsis_os.c ****     }
 847:Middlewares/Third_Party/FreeRTOS/Source/CMSIS_RTOS/cmsis_os.c **** 	portEND_SWITCHING_ISR(taskWoken);
 1332              		.loc 1 847 2 is_stmt 1 view .LVU286
 1333 002a 019B     		ldr	r3, [sp, #4]
 1334 002c 002B     		cmp	r3, #0
 1335 002e 17D0     		beq	.L88
 1336              		.loc 1 847 2 discriminator 1 view .LVU287
 1337 0030 0D4B     		ldr	r3, .L91
 1338 0032 8022     		movs	r2, #128
 1339 0034 5205     		lsls	r2, r2, #21
 1340 0036 1A60     		str	r2, [r3]
 848:Middlewares/Third_Party/FreeRTOS/Source/CMSIS_RTOS/cmsis_os.c ****   }  
 849:Middlewares/Third_Party/FreeRTOS/Source/CMSIS_RTOS/cmsis_os.c ****   else if (xSemaphoreTake(semaphore_id, ticks) != pdTRUE) {
 850:Middlewares/Third_Party/FreeRTOS/Source/CMSIS_RTOS/cmsis_os.c ****     return osErrorOS;
 851:Middlewares/Third_Party/FreeRTOS/Source/CMSIS_RTOS/cmsis_os.c ****   }
 852:Middlewares/Third_Party/FreeRTOS/Source/CMSIS_RTOS/cmsis_os.c ****   
 853:Middlewares/Third_Party/FreeRTOS/Source/CMSIS_RTOS/cmsis_os.c ****   return osOK;
 1341              		.loc 1 853 10 is_stmt 0 discriminator 1 view .LVU288
 1342 0038 0020     		movs	r0, #0
 1343 003a 0BE0     		b	.L81
 1344              	.LVL108:
 1345              	.L90:
 834:Middlewares/Third_Party/FreeRTOS/Source/CMSIS_RTOS/cmsis_os.c ****   }
 1346              		.loc 1 834 11 view .LVU289
 1347 003c 0124     		movs	r4, #1
 1348 003e 6442     		rsbs	r4, r4, #0
 1349 0040 E8E7     		b	.L83
 1350              	.LVL109:
 1351              	.L84:
 849:Middlewares/Third_Party/FreeRTOS/Source/CMSIS_RTOS/cmsis_os.c ****     return osErrorOS;
 1352              		.loc 1 849 8 is_stmt 1 view .LVU290
 849:Middlewares/Third_Party/FreeRTOS/Source/CMSIS_RTOS/cmsis_os.c ****     return osErrorOS;
 1353              		.loc 1 849 12 is_stmt 0 view .LVU291
 1354 0042 0023     		movs	r3, #0
 1355 0044 2200     		movs	r2, r4
 1356 0046 0021     		movs	r1, #0
 1357 0048 2800     		movs	r0, r5
 1358 004a FFF7FEFF 		bl	xQueueGenericReceive
 1359              	.LVL110:
 849:Middlewares/Third_Party/FreeRTOS/Source/CMSIS_RTOS/cmsis_os.c ****     return osErrorOS;
 1360              		.loc 1 849 11 view .LVU292
 1361 004e 0128     		cmp	r0, #1
 1362 0050 08D1     		bne	.L89
 1363              		.loc 1 853 10 view .LVU293
 1364 0052 0020     		movs	r0, #0
ARM GAS  /tmp/ccAhcryT.s 			page 42


 1365              	.LVL111:
 1366              	.L81:
 854:Middlewares/Third_Party/FreeRTOS/Source/CMSIS_RTOS/cmsis_os.c **** }
 1367              		.loc 1 854 1 view .LVU294
 1368 0054 03B0     		add	sp, sp, #12
 1369              		@ sp needed
 1370              	.LVL112:
 1371              		.loc 1 854 1 view .LVU295
 1372 0056 30BD     		pop	{r4, r5, pc}
 1373              	.LVL113:
 1374              	.L85:
 829:Middlewares/Third_Party/FreeRTOS/Source/CMSIS_RTOS/cmsis_os.c ****   }
 1375              		.loc 1 829 12 view .LVU296
 1376 0058 8020     		movs	r0, #128
 1377              	.LVL114:
 829:Middlewares/Third_Party/FreeRTOS/Source/CMSIS_RTOS/cmsis_os.c ****   }
 1378              		.loc 1 829 12 view .LVU297
 1379 005a FBE7     		b	.L81
 1380              	.LVL115:
 1381              	.L87:
 845:Middlewares/Third_Party/FreeRTOS/Source/CMSIS_RTOS/cmsis_os.c ****     }
 1382              		.loc 1 845 14 view .LVU298
 1383 005c FF20     		movs	r0, #255
 1384 005e F9E7     		b	.L81
 1385              	.L88:
 853:Middlewares/Third_Party/FreeRTOS/Source/CMSIS_RTOS/cmsis_os.c **** }
 1386              		.loc 1 853 10 view .LVU299
 1387 0060 0020     		movs	r0, #0
 1388 0062 F7E7     		b	.L81
 1389              	.L89:
 850:Middlewares/Third_Party/FreeRTOS/Source/CMSIS_RTOS/cmsis_os.c ****   }
 1390              		.loc 1 850 12 view .LVU300
 1391 0064 FF20     		movs	r0, #255
 1392 0066 F5E7     		b	.L81
 1393              	.L92:
 1394              		.align	2
 1395              	.L91:
 1396 0068 04ED00E0 		.word	-536810236
 1397              		.cfi_endproc
 1398              	.LFE49:
 1400              		.section	.text.osSemaphoreRelease,"ax",%progbits
 1401              		.align	1
 1402              		.global	osSemaphoreRelease
 1403              		.syntax unified
 1404              		.code	16
 1405              		.thumb_func
 1406              		.fpu softvfp
 1408              	osSemaphoreRelease:
 1409              	.LVL116:
 1410              	.LFB50:
 855:Middlewares/Third_Party/FreeRTOS/Source/CMSIS_RTOS/cmsis_os.c **** 
 856:Middlewares/Third_Party/FreeRTOS/Source/CMSIS_RTOS/cmsis_os.c **** /**
 857:Middlewares/Third_Party/FreeRTOS/Source/CMSIS_RTOS/cmsis_os.c **** * @brief Release a Semaphore token
 858:Middlewares/Third_Party/FreeRTOS/Source/CMSIS_RTOS/cmsis_os.c **** * @param  semaphore_id  semaphore object referenced with \ref osSemaphore.
 859:Middlewares/Third_Party/FreeRTOS/Source/CMSIS_RTOS/cmsis_os.c **** * @retval  status code that indicates the execution status of the function.
 860:Middlewares/Third_Party/FreeRTOS/Source/CMSIS_RTOS/cmsis_os.c **** * @note   MUST REMAIN UNCHANGED: \b osSemaphoreRelease shall be consistent in every CMSIS-RTOS.
 861:Middlewares/Third_Party/FreeRTOS/Source/CMSIS_RTOS/cmsis_os.c **** */
ARM GAS  /tmp/ccAhcryT.s 			page 43


 862:Middlewares/Third_Party/FreeRTOS/Source/CMSIS_RTOS/cmsis_os.c **** osStatus osSemaphoreRelease (osSemaphoreId semaphore_id)
 863:Middlewares/Third_Party/FreeRTOS/Source/CMSIS_RTOS/cmsis_os.c **** {
 1411              		.loc 1 863 1 is_stmt 1 view -0
 1412              		.cfi_startproc
 1413              		@ args = 0, pretend = 0, frame = 8
 1414              		@ frame_needed = 0, uses_anonymous_args = 0
 1415              		.loc 1 863 1 is_stmt 0 view .LVU302
 1416 0000 10B5     		push	{r4, lr}
 1417              	.LCFI24:
 1418              		.cfi_def_cfa_offset 8
 1419              		.cfi_offset 4, -8
 1420              		.cfi_offset 14, -4
 1421 0002 82B0     		sub	sp, sp, #8
 1422              	.LCFI25:
 1423              		.cfi_def_cfa_offset 16
 1424 0004 0400     		movs	r4, r0
 864:Middlewares/Third_Party/FreeRTOS/Source/CMSIS_RTOS/cmsis_os.c ****   osStatus result = osOK;
 1425              		.loc 1 864 3 is_stmt 1 view .LVU303
 1426              	.LVL117:
 865:Middlewares/Third_Party/FreeRTOS/Source/CMSIS_RTOS/cmsis_os.c ****   portBASE_TYPE taskWoken = pdFALSE;
 1427              		.loc 1 865 3 view .LVU304
 1428              		.loc 1 865 17 is_stmt 0 view .LVU305
 1429 0006 0023     		movs	r3, #0
 1430 0008 0193     		str	r3, [sp, #4]
 866:Middlewares/Third_Party/FreeRTOS/Source/CMSIS_RTOS/cmsis_os.c ****   
 867:Middlewares/Third_Party/FreeRTOS/Source/CMSIS_RTOS/cmsis_os.c ****   
 868:Middlewares/Third_Party/FreeRTOS/Source/CMSIS_RTOS/cmsis_os.c ****   if (inHandlerMode()) {
 1431              		.loc 1 868 3 is_stmt 1 view .LVU306
 1432              		.loc 1 868 7 is_stmt 0 view .LVU307
 1433 000a FFF7FEFF 		bl	inHandlerMode
 1434              	.LVL118:
 1435              		.loc 1 868 6 view .LVU308
 1436 000e 0028     		cmp	r0, #0
 1437 0010 0ED0     		beq	.L94
 869:Middlewares/Third_Party/FreeRTOS/Source/CMSIS_RTOS/cmsis_os.c ****     if (xSemaphoreGiveFromISR(semaphore_id, &taskWoken) != pdTRUE) {
 1438              		.loc 1 869 5 is_stmt 1 view .LVU309
 1439              		.loc 1 869 9 is_stmt 0 view .LVU310
 1440 0012 01A9     		add	r1, sp, #4
 1441 0014 2000     		movs	r0, r4
 1442 0016 FFF7FEFF 		bl	xQueueGiveFromISR
 1443              	.LVL119:
 1444              		.loc 1 869 8 view .LVU311
 1445 001a 0128     		cmp	r0, #1
 1446 001c 15D1     		bne	.L96
 870:Middlewares/Third_Party/FreeRTOS/Source/CMSIS_RTOS/cmsis_os.c ****       return osErrorOS;
 871:Middlewares/Third_Party/FreeRTOS/Source/CMSIS_RTOS/cmsis_os.c ****     }
 872:Middlewares/Third_Party/FreeRTOS/Source/CMSIS_RTOS/cmsis_os.c ****     portEND_SWITCHING_ISR(taskWoken);
 1447              		.loc 1 872 5 is_stmt 1 view .LVU312
 1448 001e 019B     		ldr	r3, [sp, #4]
 1449 0020 002B     		cmp	r3, #0
 1450 0022 14D0     		beq	.L97
 1451              		.loc 1 872 5 discriminator 1 view .LVU313
 1452 0024 0B4B     		ldr	r3, .L100
 1453 0026 8022     		movs	r2, #128
 1454 0028 5205     		lsls	r2, r2, #21
 1455 002a 1A60     		str	r2, [r3]
 864:Middlewares/Third_Party/FreeRTOS/Source/CMSIS_RTOS/cmsis_os.c ****   portBASE_TYPE taskWoken = pdFALSE;
ARM GAS  /tmp/ccAhcryT.s 			page 44


 1456              		.loc 1 864 12 is_stmt 0 discriminator 1 view .LVU314
 1457 002c 0020     		movs	r0, #0
 1458 002e 08E0     		b	.L93
 1459              	.L94:
 873:Middlewares/Third_Party/FreeRTOS/Source/CMSIS_RTOS/cmsis_os.c ****   }
 874:Middlewares/Third_Party/FreeRTOS/Source/CMSIS_RTOS/cmsis_os.c ****   else {
 875:Middlewares/Third_Party/FreeRTOS/Source/CMSIS_RTOS/cmsis_os.c ****     if (xSemaphoreGive(semaphore_id) != pdTRUE) {
 1460              		.loc 1 875 5 is_stmt 1 view .LVU315
 1461              		.loc 1 875 9 is_stmt 0 view .LVU316
 1462 0030 0023     		movs	r3, #0
 1463 0032 0022     		movs	r2, #0
 1464 0034 0021     		movs	r1, #0
 1465 0036 2000     		movs	r0, r4
 1466 0038 FFF7FEFF 		bl	xQueueGenericSend
 1467              	.LVL120:
 1468              		.loc 1 875 8 view .LVU317
 1469 003c 0128     		cmp	r0, #1
 1470 003e 02D0     		beq	.L99
 876:Middlewares/Third_Party/FreeRTOS/Source/CMSIS_RTOS/cmsis_os.c ****       result = osErrorOS;
 1471              		.loc 1 876 14 view .LVU318
 1472 0040 FF20     		movs	r0, #255
 1473              	.L93:
 877:Middlewares/Third_Party/FreeRTOS/Source/CMSIS_RTOS/cmsis_os.c ****     }
 878:Middlewares/Third_Party/FreeRTOS/Source/CMSIS_RTOS/cmsis_os.c ****   }
 879:Middlewares/Third_Party/FreeRTOS/Source/CMSIS_RTOS/cmsis_os.c ****   
 880:Middlewares/Third_Party/FreeRTOS/Source/CMSIS_RTOS/cmsis_os.c ****   return result;
 881:Middlewares/Third_Party/FreeRTOS/Source/CMSIS_RTOS/cmsis_os.c **** }
 1474              		.loc 1 881 1 view .LVU319
 1475 0042 02B0     		add	sp, sp, #8
 1476              		@ sp needed
 1477              	.LVL121:
 1478              		.loc 1 881 1 view .LVU320
 1479 0044 10BD     		pop	{r4, pc}
 1480              	.LVL122:
 1481              	.L99:
 864:Middlewares/Third_Party/FreeRTOS/Source/CMSIS_RTOS/cmsis_os.c ****   portBASE_TYPE taskWoken = pdFALSE;
 1482              		.loc 1 864 12 view .LVU321
 1483 0046 0020     		movs	r0, #0
 1484 0048 FBE7     		b	.L93
 1485              	.L96:
 870:Middlewares/Third_Party/FreeRTOS/Source/CMSIS_RTOS/cmsis_os.c ****     }
 1486              		.loc 1 870 14 view .LVU322
 1487 004a FF20     		movs	r0, #255
 1488 004c F9E7     		b	.L93
 1489              	.L97:
 864:Middlewares/Third_Party/FreeRTOS/Source/CMSIS_RTOS/cmsis_os.c ****   portBASE_TYPE taskWoken = pdFALSE;
 1490              		.loc 1 864 12 view .LVU323
 1491 004e 0020     		movs	r0, #0
 1492 0050 F7E7     		b	.L93
 1493              	.L101:
 1494 0052 C046     		.align	2
 1495              	.L100:
 1496 0054 04ED00E0 		.word	-536810236
 1497              		.cfi_endproc
 1498              	.LFE50:
 1500              		.section	.text.osSemaphoreDelete,"ax",%progbits
 1501              		.align	1
ARM GAS  /tmp/ccAhcryT.s 			page 45


 1502              		.global	osSemaphoreDelete
 1503              		.syntax unified
 1504              		.code	16
 1505              		.thumb_func
 1506              		.fpu softvfp
 1508              	osSemaphoreDelete:
 1509              	.LVL123:
 1510              	.LFB51:
 882:Middlewares/Third_Party/FreeRTOS/Source/CMSIS_RTOS/cmsis_os.c **** 
 883:Middlewares/Third_Party/FreeRTOS/Source/CMSIS_RTOS/cmsis_os.c **** /**
 884:Middlewares/Third_Party/FreeRTOS/Source/CMSIS_RTOS/cmsis_os.c **** * @brief Delete a Semaphore
 885:Middlewares/Third_Party/FreeRTOS/Source/CMSIS_RTOS/cmsis_os.c **** * @param  semaphore_id  semaphore object referenced with \ref osSemaphore.
 886:Middlewares/Third_Party/FreeRTOS/Source/CMSIS_RTOS/cmsis_os.c **** * @retval  status code that indicates the execution status of the function.
 887:Middlewares/Third_Party/FreeRTOS/Source/CMSIS_RTOS/cmsis_os.c **** * @note   MUST REMAIN UNCHANGED: \b osSemaphoreDelete shall be consistent in every CMSIS-RTOS.
 888:Middlewares/Third_Party/FreeRTOS/Source/CMSIS_RTOS/cmsis_os.c **** */
 889:Middlewares/Third_Party/FreeRTOS/Source/CMSIS_RTOS/cmsis_os.c **** osStatus osSemaphoreDelete (osSemaphoreId semaphore_id)
 890:Middlewares/Third_Party/FreeRTOS/Source/CMSIS_RTOS/cmsis_os.c **** {
 1511              		.loc 1 890 1 is_stmt 1 view -0
 1512              		.cfi_startproc
 1513              		@ args = 0, pretend = 0, frame = 0
 1514              		@ frame_needed = 0, uses_anonymous_args = 0
 1515              		.loc 1 890 1 is_stmt 0 view .LVU325
 1516 0000 10B5     		push	{r4, lr}
 1517              	.LCFI26:
 1518              		.cfi_def_cfa_offset 8
 1519              		.cfi_offset 4, -8
 1520              		.cfi_offset 14, -4
 1521 0002 0400     		movs	r4, r0
 891:Middlewares/Third_Party/FreeRTOS/Source/CMSIS_RTOS/cmsis_os.c ****   if (inHandlerMode()) {
 1522              		.loc 1 891 3 is_stmt 1 view .LVU326
 1523              		.loc 1 891 7 is_stmt 0 view .LVU327
 1524 0004 FFF7FEFF 		bl	inHandlerMode
 1525              	.LVL124:
 1526              		.loc 1 891 6 view .LVU328
 1527 0008 0028     		cmp	r0, #0
 1528 000a 04D1     		bne	.L104
 892:Middlewares/Third_Party/FreeRTOS/Source/CMSIS_RTOS/cmsis_os.c ****     return osErrorISR;
 893:Middlewares/Third_Party/FreeRTOS/Source/CMSIS_RTOS/cmsis_os.c ****   }
 894:Middlewares/Third_Party/FreeRTOS/Source/CMSIS_RTOS/cmsis_os.c **** 
 895:Middlewares/Third_Party/FreeRTOS/Source/CMSIS_RTOS/cmsis_os.c ****   vSemaphoreDelete(semaphore_id);
 1529              		.loc 1 895 3 is_stmt 1 view .LVU329
 1530 000c 2000     		movs	r0, r4
 1531 000e FFF7FEFF 		bl	vQueueDelete
 1532              	.LVL125:
 896:Middlewares/Third_Party/FreeRTOS/Source/CMSIS_RTOS/cmsis_os.c **** 
 897:Middlewares/Third_Party/FreeRTOS/Source/CMSIS_RTOS/cmsis_os.c ****   return osOK; 
 1533              		.loc 1 897 3 view .LVU330
 1534              		.loc 1 897 10 is_stmt 0 view .LVU331
 1535 0012 0020     		movs	r0, #0
 1536              	.L102:
 898:Middlewares/Third_Party/FreeRTOS/Source/CMSIS_RTOS/cmsis_os.c **** }
 1537              		.loc 1 898 1 view .LVU332
 1538              		@ sp needed
 1539              	.LVL126:
 1540              		.loc 1 898 1 view .LVU333
 1541 0014 10BD     		pop	{r4, pc}
 1542              	.LVL127:
ARM GAS  /tmp/ccAhcryT.s 			page 46


 1543              	.L104:
 892:Middlewares/Third_Party/FreeRTOS/Source/CMSIS_RTOS/cmsis_os.c ****     return osErrorISR;
 1544              		.loc 1 892 12 view .LVU334
 1545 0016 8220     		movs	r0, #130
 1546 0018 FCE7     		b	.L102
 1547              		.cfi_endproc
 1548              	.LFE51:
 1550              		.section	.text.osPoolCreate,"ax",%progbits
 1551              		.align	1
 1552              		.global	osPoolCreate
 1553              		.syntax unified
 1554              		.code	16
 1555              		.thumb_func
 1556              		.fpu softvfp
 1558              	osPoolCreate:
 1559              	.LVL128:
 1560              	.LFB52:
 899:Middlewares/Third_Party/FreeRTOS/Source/CMSIS_RTOS/cmsis_os.c **** 
 900:Middlewares/Third_Party/FreeRTOS/Source/CMSIS_RTOS/cmsis_os.c **** #endif    /* Use Semaphores */
 901:Middlewares/Third_Party/FreeRTOS/Source/CMSIS_RTOS/cmsis_os.c **** 
 902:Middlewares/Third_Party/FreeRTOS/Source/CMSIS_RTOS/cmsis_os.c **** /*******************   Memory Pool Management Functions  ***********************/
 903:Middlewares/Third_Party/FreeRTOS/Source/CMSIS_RTOS/cmsis_os.c **** 
 904:Middlewares/Third_Party/FreeRTOS/Source/CMSIS_RTOS/cmsis_os.c **** #if (defined (osFeature_Pool)  &&  (osFeature_Pool != 0)) 
 905:Middlewares/Third_Party/FreeRTOS/Source/CMSIS_RTOS/cmsis_os.c **** 
 906:Middlewares/Third_Party/FreeRTOS/Source/CMSIS_RTOS/cmsis_os.c **** //TODO
 907:Middlewares/Third_Party/FreeRTOS/Source/CMSIS_RTOS/cmsis_os.c **** //This is a primitive and inefficient wrapper around the existing FreeRTOS memory management.
 908:Middlewares/Third_Party/FreeRTOS/Source/CMSIS_RTOS/cmsis_os.c **** //A better implementation will have to modify heap_x.c!
 909:Middlewares/Third_Party/FreeRTOS/Source/CMSIS_RTOS/cmsis_os.c **** 
 910:Middlewares/Third_Party/FreeRTOS/Source/CMSIS_RTOS/cmsis_os.c **** 
 911:Middlewares/Third_Party/FreeRTOS/Source/CMSIS_RTOS/cmsis_os.c **** typedef struct os_pool_cb {
 912:Middlewares/Third_Party/FreeRTOS/Source/CMSIS_RTOS/cmsis_os.c ****   void *pool;
 913:Middlewares/Third_Party/FreeRTOS/Source/CMSIS_RTOS/cmsis_os.c ****   uint8_t *markers;
 914:Middlewares/Third_Party/FreeRTOS/Source/CMSIS_RTOS/cmsis_os.c ****   uint32_t pool_sz;
 915:Middlewares/Third_Party/FreeRTOS/Source/CMSIS_RTOS/cmsis_os.c ****   uint32_t item_sz;
 916:Middlewares/Third_Party/FreeRTOS/Source/CMSIS_RTOS/cmsis_os.c ****   uint32_t currentIndex;
 917:Middlewares/Third_Party/FreeRTOS/Source/CMSIS_RTOS/cmsis_os.c **** } os_pool_cb_t;
 918:Middlewares/Third_Party/FreeRTOS/Source/CMSIS_RTOS/cmsis_os.c **** 
 919:Middlewares/Third_Party/FreeRTOS/Source/CMSIS_RTOS/cmsis_os.c **** 
 920:Middlewares/Third_Party/FreeRTOS/Source/CMSIS_RTOS/cmsis_os.c **** /**
 921:Middlewares/Third_Party/FreeRTOS/Source/CMSIS_RTOS/cmsis_os.c **** * @brief Create and Initialize a memory pool
 922:Middlewares/Third_Party/FreeRTOS/Source/CMSIS_RTOS/cmsis_os.c **** * @param  pool_def      memory pool definition referenced with \ref osPool.
 923:Middlewares/Third_Party/FreeRTOS/Source/CMSIS_RTOS/cmsis_os.c **** * @retval  memory pool ID for reference by other functions or NULL in case of error.
 924:Middlewares/Third_Party/FreeRTOS/Source/CMSIS_RTOS/cmsis_os.c **** * @note   MUST REMAIN UNCHANGED: \b osPoolCreate shall be consistent in every CMSIS-RTOS.
 925:Middlewares/Third_Party/FreeRTOS/Source/CMSIS_RTOS/cmsis_os.c **** */
 926:Middlewares/Third_Party/FreeRTOS/Source/CMSIS_RTOS/cmsis_os.c **** osPoolId osPoolCreate (const osPoolDef_t *pool_def)
 927:Middlewares/Third_Party/FreeRTOS/Source/CMSIS_RTOS/cmsis_os.c **** {
 1561              		.loc 1 927 1 is_stmt 1 view -0
 1562              		.cfi_startproc
 1563              		@ args = 0, pretend = 0, frame = 0
 1564              		@ frame_needed = 0, uses_anonymous_args = 0
 1565              		.loc 1 927 1 is_stmt 0 view .LVU336
 1566 0000 70B5     		push	{r4, r5, r6, lr}
 1567              	.LCFI27:
 1568              		.cfi_def_cfa_offset 16
 1569              		.cfi_offset 4, -16
 1570              		.cfi_offset 5, -12
 1571              		.cfi_offset 6, -8
ARM GAS  /tmp/ccAhcryT.s 			page 47


 1572              		.cfi_offset 14, -4
 1573 0002 0500     		movs	r5, r0
 928:Middlewares/Third_Party/FreeRTOS/Source/CMSIS_RTOS/cmsis_os.c **** #if (configSUPPORT_DYNAMIC_ALLOCATION == 1)
 929:Middlewares/Third_Party/FreeRTOS/Source/CMSIS_RTOS/cmsis_os.c ****   osPoolId thePool;
 1574              		.loc 1 929 3 is_stmt 1 view .LVU337
 930:Middlewares/Third_Party/FreeRTOS/Source/CMSIS_RTOS/cmsis_os.c ****   int itemSize = 4 * ((pool_def->item_sz + 3) / 4);
 1575              		.loc 1 930 3 view .LVU338
 1576              		.loc 1 930 42 is_stmt 0 view .LVU339
 1577 0004 4368     		ldr	r3, [r0, #4]
 1578 0006 DE1C     		adds	r6, r3, #3
 1579              		.loc 1 930 7 view .LVU340
 1580 0008 0323     		movs	r3, #3
 1581 000a 9E43     		bics	r6, r3
 1582              	.LVL129:
 931:Middlewares/Third_Party/FreeRTOS/Source/CMSIS_RTOS/cmsis_os.c ****   uint32_t i;
 1583              		.loc 1 931 3 is_stmt 1 view .LVU341
 932:Middlewares/Third_Party/FreeRTOS/Source/CMSIS_RTOS/cmsis_os.c ****   
 933:Middlewares/Third_Party/FreeRTOS/Source/CMSIS_RTOS/cmsis_os.c ****   /* First have to allocate memory for the pool control block. */
 934:Middlewares/Third_Party/FreeRTOS/Source/CMSIS_RTOS/cmsis_os.c ****  thePool = pvPortMalloc(sizeof(os_pool_cb_t));
 1584              		.loc 1 934 2 view .LVU342
 1585              		.loc 1 934 12 is_stmt 0 view .LVU343
 1586 000c 1420     		movs	r0, #20
 1587              	.LVL130:
 1588              		.loc 1 934 12 view .LVU344
 1589 000e FFF7FEFF 		bl	pvPortMalloc
 1590              	.LVL131:
 1591 0012 041E     		subs	r4, r0, #0
 1592              	.LVL132:
 935:Middlewares/Third_Party/FreeRTOS/Source/CMSIS_RTOS/cmsis_os.c **** 
 936:Middlewares/Third_Party/FreeRTOS/Source/CMSIS_RTOS/cmsis_os.c ****   
 937:Middlewares/Third_Party/FreeRTOS/Source/CMSIS_RTOS/cmsis_os.c ****   if (thePool) {
 1593              		.loc 1 937 3 is_stmt 1 view .LVU345
 1594              		.loc 1 937 6 is_stmt 0 view .LVU346
 1595 0014 27D0     		beq	.L105
 938:Middlewares/Third_Party/FreeRTOS/Source/CMSIS_RTOS/cmsis_os.c ****     thePool->pool_sz = pool_def->pool_sz;
 1596              		.loc 1 938 5 is_stmt 1 view .LVU347
 1597              		.loc 1 938 22 is_stmt 0 view .LVU348
 1598 0016 2B68     		ldr	r3, [r5]
 1599 0018 8360     		str	r3, [r0, #8]
 939:Middlewares/Third_Party/FreeRTOS/Source/CMSIS_RTOS/cmsis_os.c ****     thePool->item_sz = itemSize;
 1600              		.loc 1 939 5 is_stmt 1 view .LVU349
 1601              		.loc 1 939 22 is_stmt 0 view .LVU350
 1602 001a C660     		str	r6, [r0, #12]
 940:Middlewares/Third_Party/FreeRTOS/Source/CMSIS_RTOS/cmsis_os.c ****     thePool->currentIndex = 0;
 1603              		.loc 1 940 5 is_stmt 1 view .LVU351
 1604              		.loc 1 940 27 is_stmt 0 view .LVU352
 1605 001c 0023     		movs	r3, #0
 1606 001e 0361     		str	r3, [r0, #16]
 941:Middlewares/Third_Party/FreeRTOS/Source/CMSIS_RTOS/cmsis_os.c ****     
 942:Middlewares/Third_Party/FreeRTOS/Source/CMSIS_RTOS/cmsis_os.c ****     /* Memory for markers */
 943:Middlewares/Third_Party/FreeRTOS/Source/CMSIS_RTOS/cmsis_os.c ****     thePool->markers = pvPortMalloc(pool_def->pool_sz);
 1607              		.loc 1 943 5 is_stmt 1 view .LVU353
 1608              		.loc 1 943 24 is_stmt 0 view .LVU354
 1609 0020 2868     		ldr	r0, [r5]
 1610              	.LVL133:
 1611              		.loc 1 943 24 view .LVU355
 1612 0022 FFF7FEFF 		bl	pvPortMalloc
ARM GAS  /tmp/ccAhcryT.s 			page 48


 1613              	.LVL134:
 1614              		.loc 1 943 22 view .LVU356
 1615 0026 6060     		str	r0, [r4, #4]
 944:Middlewares/Third_Party/FreeRTOS/Source/CMSIS_RTOS/cmsis_os.c ****    
 945:Middlewares/Third_Party/FreeRTOS/Source/CMSIS_RTOS/cmsis_os.c ****     if (thePool->markers) {
 1616              		.loc 1 945 5 is_stmt 1 view .LVU357
 1617              		.loc 1 945 8 is_stmt 0 view .LVU358
 1618 0028 0028     		cmp	r0, #0
 1619 002a 18D0     		beq	.L107
 946:Middlewares/Third_Party/FreeRTOS/Source/CMSIS_RTOS/cmsis_os.c ****       /* Now allocate the pool itself. */
 947:Middlewares/Third_Party/FreeRTOS/Source/CMSIS_RTOS/cmsis_os.c ****      thePool->pool = pvPortMalloc(pool_def->pool_sz * itemSize);
 1620              		.loc 1 947 6 is_stmt 1 view .LVU359
 1621              		.loc 1 947 53 is_stmt 0 view .LVU360
 1622 002c 2868     		ldr	r0, [r5]
 1623 002e 7043     		muls	r0, r6
 1624              		.loc 1 947 22 view .LVU361
 1625 0030 FFF7FEFF 		bl	pvPortMalloc
 1626              	.LVL135:
 1627              		.loc 1 947 20 view .LVU362
 1628 0034 2060     		str	r0, [r4]
 948:Middlewares/Third_Party/FreeRTOS/Source/CMSIS_RTOS/cmsis_os.c ****       
 949:Middlewares/Third_Party/FreeRTOS/Source/CMSIS_RTOS/cmsis_os.c ****       if (thePool->pool) {
 1629              		.loc 1 949 7 is_stmt 1 view .LVU363
 1630              		.loc 1 949 10 is_stmt 0 view .LVU364
 1631 0036 0028     		cmp	r0, #0
 1632 0038 09D0     		beq	.L113
 950:Middlewares/Third_Party/FreeRTOS/Source/CMSIS_RTOS/cmsis_os.c ****         for (i = 0; i < pool_def->pool_sz; i++) {
 1633              		.loc 1 950 16 view .LVU365
 1634 003a 0023     		movs	r3, #0
 1635              	.L108:
 1636              	.LVL136:
 1637              		.loc 1 950 9 discriminator 1 view .LVU366
 1638 003c 2A68     		ldr	r2, [r5]
 1639 003e 9A42     		cmp	r2, r3
 1640 0040 11D9     		bls	.L105
 951:Middlewares/Third_Party/FreeRTOS/Source/CMSIS_RTOS/cmsis_os.c ****           thePool->markers[i] = 0;
 1641              		.loc 1 951 11 is_stmt 1 discriminator 3 view .LVU367
 1642              		.loc 1 951 27 is_stmt 0 discriminator 3 view .LVU368
 1643 0042 6268     		ldr	r2, [r4, #4]
 1644 0044 D218     		adds	r2, r2, r3
 1645              		.loc 1 951 31 discriminator 3 view .LVU369
 1646 0046 0021     		movs	r1, #0
 1647 0048 1170     		strb	r1, [r2]
 950:Middlewares/Third_Party/FreeRTOS/Source/CMSIS_RTOS/cmsis_os.c ****         for (i = 0; i < pool_def->pool_sz; i++) {
 1648              		.loc 1 950 45 discriminator 3 view .LVU370
 1649 004a 0133     		adds	r3, r3, #1
 1650              	.LVL137:
 950:Middlewares/Third_Party/FreeRTOS/Source/CMSIS_RTOS/cmsis_os.c ****         for (i = 0; i < pool_def->pool_sz; i++) {
 1651              		.loc 1 950 45 discriminator 3 view .LVU371
 1652 004c F6E7     		b	.L108
 1653              	.LVL138:
 1654              	.L113:
 952:Middlewares/Third_Party/FreeRTOS/Source/CMSIS_RTOS/cmsis_os.c ****         }
 953:Middlewares/Third_Party/FreeRTOS/Source/CMSIS_RTOS/cmsis_os.c ****       }
 954:Middlewares/Third_Party/FreeRTOS/Source/CMSIS_RTOS/cmsis_os.c ****       else {
 955:Middlewares/Third_Party/FreeRTOS/Source/CMSIS_RTOS/cmsis_os.c ****         vPortFree(thePool->markers);
 1655              		.loc 1 955 9 is_stmt 1 view .LVU372
ARM GAS  /tmp/ccAhcryT.s 			page 49


 1656 004e 6068     		ldr	r0, [r4, #4]
 1657 0050 FFF7FEFF 		bl	vPortFree
 1658              	.LVL139:
 956:Middlewares/Third_Party/FreeRTOS/Source/CMSIS_RTOS/cmsis_os.c ****         vPortFree(thePool);
 1659              		.loc 1 956 9 view .LVU373
 1660 0054 2000     		movs	r0, r4
 1661 0056 FFF7FEFF 		bl	vPortFree
 1662              	.LVL140:
 957:Middlewares/Third_Party/FreeRTOS/Source/CMSIS_RTOS/cmsis_os.c ****         thePool = NULL;
 1663              		.loc 1 957 9 view .LVU374
 1664              		.loc 1 957 17 is_stmt 0 view .LVU375
 1665 005a 0024     		movs	r4, #0
 1666 005c 03E0     		b	.L105
 1667              	.LVL141:
 1668              	.L107:
 958:Middlewares/Third_Party/FreeRTOS/Source/CMSIS_RTOS/cmsis_os.c ****       }
 959:Middlewares/Third_Party/FreeRTOS/Source/CMSIS_RTOS/cmsis_os.c ****     }
 960:Middlewares/Third_Party/FreeRTOS/Source/CMSIS_RTOS/cmsis_os.c ****     else {
 961:Middlewares/Third_Party/FreeRTOS/Source/CMSIS_RTOS/cmsis_os.c ****       vPortFree(thePool);
 1669              		.loc 1 961 7 is_stmt 1 view .LVU376
 1670 005e 2000     		movs	r0, r4
 1671 0060 FFF7FEFF 		bl	vPortFree
 1672              	.LVL142:
 962:Middlewares/Third_Party/FreeRTOS/Source/CMSIS_RTOS/cmsis_os.c ****       thePool = NULL;
 1673              		.loc 1 962 7 view .LVU377
 1674              		.loc 1 962 15 is_stmt 0 view .LVU378
 1675 0064 0024     		movs	r4, #0
 963:Middlewares/Third_Party/FreeRTOS/Source/CMSIS_RTOS/cmsis_os.c ****     }
 964:Middlewares/Third_Party/FreeRTOS/Source/CMSIS_RTOS/cmsis_os.c ****   }
 965:Middlewares/Third_Party/FreeRTOS/Source/CMSIS_RTOS/cmsis_os.c **** 
 966:Middlewares/Third_Party/FreeRTOS/Source/CMSIS_RTOS/cmsis_os.c ****   return thePool;
 1676              		.loc 1 966 3 is_stmt 1 view .LVU379
 1677              	.LVL143:
 1678              	.L105:
 967:Middlewares/Third_Party/FreeRTOS/Source/CMSIS_RTOS/cmsis_os.c ****  
 968:Middlewares/Third_Party/FreeRTOS/Source/CMSIS_RTOS/cmsis_os.c **** #else
 969:Middlewares/Third_Party/FreeRTOS/Source/CMSIS_RTOS/cmsis_os.c ****   return NULL;
 970:Middlewares/Third_Party/FreeRTOS/Source/CMSIS_RTOS/cmsis_os.c **** #endif
 971:Middlewares/Third_Party/FreeRTOS/Source/CMSIS_RTOS/cmsis_os.c **** }
 1679              		.loc 1 971 1 is_stmt 0 view .LVU380
 1680 0066 2000     		movs	r0, r4
 1681              		@ sp needed
 1682              	.LVL144:
 1683              	.LVL145:
 1684              		.loc 1 971 1 view .LVU381
 1685 0068 70BD     		pop	{r4, r5, r6, pc}
 1686              		.cfi_endproc
 1687              	.LFE52:
 1689              		.section	.text.osPoolAlloc,"ax",%progbits
 1690              		.align	1
 1691              		.global	osPoolAlloc
 1692              		.syntax unified
 1693              		.code	16
 1694              		.thumb_func
 1695              		.fpu softvfp
 1697              	osPoolAlloc:
 1698              	.LVL146:
ARM GAS  /tmp/ccAhcryT.s 			page 50


 1699              	.LFB53:
 972:Middlewares/Third_Party/FreeRTOS/Source/CMSIS_RTOS/cmsis_os.c **** 
 973:Middlewares/Third_Party/FreeRTOS/Source/CMSIS_RTOS/cmsis_os.c **** /**
 974:Middlewares/Third_Party/FreeRTOS/Source/CMSIS_RTOS/cmsis_os.c **** * @brief Allocate a memory block from a memory pool
 975:Middlewares/Third_Party/FreeRTOS/Source/CMSIS_RTOS/cmsis_os.c **** * @param pool_id       memory pool ID obtain referenced with \ref osPoolCreate.
 976:Middlewares/Third_Party/FreeRTOS/Source/CMSIS_RTOS/cmsis_os.c **** * @retval  address of the allocated memory block or NULL in case of no memory available.
 977:Middlewares/Third_Party/FreeRTOS/Source/CMSIS_RTOS/cmsis_os.c **** * @note   MUST REMAIN UNCHANGED: \b osPoolAlloc shall be consistent in every CMSIS-RTOS.
 978:Middlewares/Third_Party/FreeRTOS/Source/CMSIS_RTOS/cmsis_os.c **** */
 979:Middlewares/Third_Party/FreeRTOS/Source/CMSIS_RTOS/cmsis_os.c **** void *osPoolAlloc (osPoolId pool_id)
 980:Middlewares/Third_Party/FreeRTOS/Source/CMSIS_RTOS/cmsis_os.c **** {
 1700              		.loc 1 980 1 is_stmt 1 view -0
 1701              		.cfi_startproc
 1702              		@ args = 0, pretend = 0, frame = 0
 1703              		@ frame_needed = 0, uses_anonymous_args = 0
 1704              		.loc 1 980 1 is_stmt 0 view .LVU383
 1705 0000 70B5     		push	{r4, r5, r6, lr}
 1706              	.LCFI28:
 1707              		.cfi_def_cfa_offset 16
 1708              		.cfi_offset 4, -16
 1709              		.cfi_offset 5, -12
 1710              		.cfi_offset 6, -8
 1711              		.cfi_offset 14, -4
 1712 0002 0500     		movs	r5, r0
 981:Middlewares/Third_Party/FreeRTOS/Source/CMSIS_RTOS/cmsis_os.c ****   int dummy = 0;
 1713              		.loc 1 981 3 is_stmt 1 view .LVU384
 1714              	.LVL147:
 982:Middlewares/Third_Party/FreeRTOS/Source/CMSIS_RTOS/cmsis_os.c ****   void *p = NULL;
 1715              		.loc 1 982 3 view .LVU385
 983:Middlewares/Third_Party/FreeRTOS/Source/CMSIS_RTOS/cmsis_os.c ****   uint32_t i;
 1716              		.loc 1 983 3 view .LVU386
 984:Middlewares/Third_Party/FreeRTOS/Source/CMSIS_RTOS/cmsis_os.c ****   uint32_t index;
 1717              		.loc 1 984 3 view .LVU387
 985:Middlewares/Third_Party/FreeRTOS/Source/CMSIS_RTOS/cmsis_os.c ****   
 986:Middlewares/Third_Party/FreeRTOS/Source/CMSIS_RTOS/cmsis_os.c ****   if (inHandlerMode()) {
 1718              		.loc 1 986 3 view .LVU388
 1719              		.loc 1 986 7 is_stmt 0 view .LVU389
 1720 0004 FFF7FEFF 		bl	inHandlerMode
 1721              	.LVL148:
 1722              		.loc 1 986 7 view .LVU390
 1723 0008 041E     		subs	r4, r0, #0
 1724              		.loc 1 986 6 view .LVU391
 1725 000a 04D0     		beq	.L115
 987:Middlewares/Third_Party/FreeRTOS/Source/CMSIS_RTOS/cmsis_os.c ****     dummy = portSET_INTERRUPT_MASK_FROM_ISR();
 1726              		.loc 1 987 5 is_stmt 1 view .LVU392
 1727              		.loc 1 987 13 is_stmt 0 view .LVU393
 1728 000c FFF7FEFF 		bl	ulSetInterruptMaskFromISR
 1729              	.LVL149:
 1730 0010 0400     		movs	r4, r0
 1731              	.LVL150:
 1732              	.L116:
 988:Middlewares/Third_Party/FreeRTOS/Source/CMSIS_RTOS/cmsis_os.c ****   }
 989:Middlewares/Third_Party/FreeRTOS/Source/CMSIS_RTOS/cmsis_os.c ****   else {
 990:Middlewares/Third_Party/FreeRTOS/Source/CMSIS_RTOS/cmsis_os.c ****     vPortEnterCritical();
 991:Middlewares/Third_Party/FreeRTOS/Source/CMSIS_RTOS/cmsis_os.c ****   }
 992:Middlewares/Third_Party/FreeRTOS/Source/CMSIS_RTOS/cmsis_os.c ****   
 993:Middlewares/Third_Party/FreeRTOS/Source/CMSIS_RTOS/cmsis_os.c ****   for (i = 0; i < pool_id->pool_sz; i++) {
 1733              		.loc 1 993 3 is_stmt 1 view .LVU394
ARM GAS  /tmp/ccAhcryT.s 			page 51


 1734              		.loc 1 993 10 is_stmt 0 view .LVU395
 1735 0012 0022     		movs	r2, #0
 1736              		.loc 1 993 3 view .LVU396
 1737 0014 08E0     		b	.L117
 1738              	.LVL151:
 1739              	.L115:
 990:Middlewares/Third_Party/FreeRTOS/Source/CMSIS_RTOS/cmsis_os.c ****   }
 1740              		.loc 1 990 5 is_stmt 1 view .LVU397
 1741 0016 FFF7FEFF 		bl	vPortEnterCritical
 1742              	.LVL152:
 1743 001a FAE7     		b	.L116
 1744              	.LVL153:
 1745              	.L118:
 994:Middlewares/Third_Party/FreeRTOS/Source/CMSIS_RTOS/cmsis_os.c ****     index = pool_id->currentIndex + i;
 995:Middlewares/Third_Party/FreeRTOS/Source/CMSIS_RTOS/cmsis_os.c ****     if (index >= pool_id->pool_sz) {
 996:Middlewares/Third_Party/FreeRTOS/Source/CMSIS_RTOS/cmsis_os.c ****       index = 0;
 997:Middlewares/Third_Party/FreeRTOS/Source/CMSIS_RTOS/cmsis_os.c ****     }
 998:Middlewares/Third_Party/FreeRTOS/Source/CMSIS_RTOS/cmsis_os.c ****     
 999:Middlewares/Third_Party/FreeRTOS/Source/CMSIS_RTOS/cmsis_os.c ****     if (pool_id->markers[index] == 0) {
 1746              		.loc 1 999 5 view .LVU398
 1747              		.loc 1 999 25 is_stmt 0 view .LVU399
 1748 001c 6968     		ldr	r1, [r5, #4]
 1749 001e C918     		adds	r1, r1, r3
 1750 0020 0878     		ldrb	r0, [r1]
 1751              		.loc 1 999 8 view .LVU400
 1752 0022 0028     		cmp	r0, #0
 1753 0024 09D0     		beq	.L125
 993:Middlewares/Third_Party/FreeRTOS/Source/CMSIS_RTOS/cmsis_os.c ****     index = pool_id->currentIndex + i;
 1754              		.loc 1 993 38 discriminator 2 view .LVU401
 1755 0026 0132     		adds	r2, r2, #1
 1756              	.LVL154:
 1757              	.L117:
 993:Middlewares/Third_Party/FreeRTOS/Source/CMSIS_RTOS/cmsis_os.c ****     index = pool_id->currentIndex + i;
 1758              		.loc 1 993 26 discriminator 1 view .LVU402
 1759 0028 A968     		ldr	r1, [r5, #8]
 993:Middlewares/Third_Party/FreeRTOS/Source/CMSIS_RTOS/cmsis_os.c ****     index = pool_id->currentIndex + i;
 1760              		.loc 1 993 3 discriminator 1 view .LVU403
 1761 002a 9142     		cmp	r1, r2
 1762 002c 0ED9     		bls	.L126
 994:Middlewares/Third_Party/FreeRTOS/Source/CMSIS_RTOS/cmsis_os.c ****     index = pool_id->currentIndex + i;
 1763              		.loc 1 994 5 is_stmt 1 view .LVU404
 994:Middlewares/Third_Party/FreeRTOS/Source/CMSIS_RTOS/cmsis_os.c ****     index = pool_id->currentIndex + i;
 1764              		.loc 1 994 11 is_stmt 0 view .LVU405
 1765 002e 2B69     		ldr	r3, [r5, #16]
 1766 0030 9B18     		adds	r3, r3, r2
 1767              	.LVL155:
 995:Middlewares/Third_Party/FreeRTOS/Source/CMSIS_RTOS/cmsis_os.c ****       index = 0;
 1768              		.loc 1 995 5 is_stmt 1 view .LVU406
 995:Middlewares/Third_Party/FreeRTOS/Source/CMSIS_RTOS/cmsis_os.c ****       index = 0;
 1769              		.loc 1 995 8 is_stmt 0 view .LVU407
 1770 0032 9942     		cmp	r1, r3
 1771 0034 F2D8     		bhi	.L118
 996:Middlewares/Third_Party/FreeRTOS/Source/CMSIS_RTOS/cmsis_os.c ****     }
 1772              		.loc 1 996 13 view .LVU408
 1773 0036 0023     		movs	r3, #0
 1774              	.LVL156:
 996:Middlewares/Third_Party/FreeRTOS/Source/CMSIS_RTOS/cmsis_os.c ****     }
ARM GAS  /tmp/ccAhcryT.s 			page 52


 1775              		.loc 1 996 13 view .LVU409
 1776 0038 F0E7     		b	.L118
 1777              	.LVL157:
 1778              	.L125:
1000:Middlewares/Third_Party/FreeRTOS/Source/CMSIS_RTOS/cmsis_os.c ****       pool_id->markers[index] = 1;
 1779              		.loc 1 1000 7 is_stmt 1 view .LVU410
 1780              		.loc 1 1000 31 is_stmt 0 view .LVU411
 1781 003a 0122     		movs	r2, #1
 1782              	.LVL158:
 1783              		.loc 1 1000 31 view .LVU412
 1784 003c 0A70     		strb	r2, [r1]
1001:Middlewares/Third_Party/FreeRTOS/Source/CMSIS_RTOS/cmsis_os.c ****       p = (void *)((uint32_t)(pool_id->pool) + (index * pool_id->item_sz));
 1785              		.loc 1 1001 7 is_stmt 1 view .LVU413
 1786              		.loc 1 1001 55 is_stmt 0 view .LVU414
 1787 003e EE68     		ldr	r6, [r5, #12]
 1788 0040 5E43     		muls	r6, r3
 1789              		.loc 1 1001 46 view .LVU415
 1790 0042 2A68     		ldr	r2, [r5]
 1791 0044 9446     		mov	ip, r2
 1792 0046 6644     		add	r6, r6, ip
 1793              	.LVL159:
1002:Middlewares/Third_Party/FreeRTOS/Source/CMSIS_RTOS/cmsis_os.c ****       pool_id->currentIndex = index;
 1794              		.loc 1 1002 7 is_stmt 1 view .LVU416
 1795              		.loc 1 1002 29 is_stmt 0 view .LVU417
 1796 0048 2B61     		str	r3, [r5, #16]
1003:Middlewares/Third_Party/FreeRTOS/Source/CMSIS_RTOS/cmsis_os.c ****       break;
 1797              		.loc 1 1003 7 is_stmt 1 view .LVU418
 1798 004a 00E0     		b	.L120
 1799              	.LVL160:
 1800              	.L126:
 982:Middlewares/Third_Party/FreeRTOS/Source/CMSIS_RTOS/cmsis_os.c ****   uint32_t i;
 1801              		.loc 1 982 9 is_stmt 0 view .LVU419
 1802 004c 0026     		movs	r6, #0
 1803              	.LVL161:
 1804              	.L120:
1004:Middlewares/Third_Party/FreeRTOS/Source/CMSIS_RTOS/cmsis_os.c ****     }
1005:Middlewares/Third_Party/FreeRTOS/Source/CMSIS_RTOS/cmsis_os.c ****   }
1006:Middlewares/Third_Party/FreeRTOS/Source/CMSIS_RTOS/cmsis_os.c ****   
1007:Middlewares/Third_Party/FreeRTOS/Source/CMSIS_RTOS/cmsis_os.c ****   if (inHandlerMode()) {
 1805              		.loc 1 1007 3 is_stmt 1 view .LVU420
 1806              		.loc 1 1007 7 is_stmt 0 view .LVU421
 1807 004e FFF7FEFF 		bl	inHandlerMode
 1808              	.LVL162:
 1809              		.loc 1 1007 6 view .LVU422
 1810 0052 0028     		cmp	r0, #0
 1811 0054 04D0     		beq	.L122
1008:Middlewares/Third_Party/FreeRTOS/Source/CMSIS_RTOS/cmsis_os.c ****     portCLEAR_INTERRUPT_MASK_FROM_ISR(dummy);
 1812              		.loc 1 1008 5 is_stmt 1 view .LVU423
 1813 0056 2000     		movs	r0, r4
 1814 0058 FFF7FEFF 		bl	vClearInterruptMaskFromISR
 1815              	.LVL163:
 1816              	.L114:
1009:Middlewares/Third_Party/FreeRTOS/Source/CMSIS_RTOS/cmsis_os.c ****   }
1010:Middlewares/Third_Party/FreeRTOS/Source/CMSIS_RTOS/cmsis_os.c ****   else {
1011:Middlewares/Third_Party/FreeRTOS/Source/CMSIS_RTOS/cmsis_os.c ****     vPortExitCritical();
1012:Middlewares/Third_Party/FreeRTOS/Source/CMSIS_RTOS/cmsis_os.c ****   }
1013:Middlewares/Third_Party/FreeRTOS/Source/CMSIS_RTOS/cmsis_os.c ****   
ARM GAS  /tmp/ccAhcryT.s 			page 53


1014:Middlewares/Third_Party/FreeRTOS/Source/CMSIS_RTOS/cmsis_os.c ****   return p;
1015:Middlewares/Third_Party/FreeRTOS/Source/CMSIS_RTOS/cmsis_os.c **** }
 1817              		.loc 1 1015 1 is_stmt 0 view .LVU424
 1818 005c 3000     		movs	r0, r6
 1819              		@ sp needed
 1820              	.LVL164:
 1821              	.LVL165:
 1822              	.LVL166:
 1823              		.loc 1 1015 1 view .LVU425
 1824 005e 70BD     		pop	{r4, r5, r6, pc}
 1825              	.LVL167:
 1826              	.L122:
1011:Middlewares/Third_Party/FreeRTOS/Source/CMSIS_RTOS/cmsis_os.c ****   }
 1827              		.loc 1 1011 5 is_stmt 1 view .LVU426
 1828 0060 FFF7FEFF 		bl	vPortExitCritical
 1829              	.LVL168:
1014:Middlewares/Third_Party/FreeRTOS/Source/CMSIS_RTOS/cmsis_os.c **** }
 1830              		.loc 1 1014 3 view .LVU427
1014:Middlewares/Third_Party/FreeRTOS/Source/CMSIS_RTOS/cmsis_os.c **** }
 1831              		.loc 1 1014 10 is_stmt 0 view .LVU428
 1832 0064 FAE7     		b	.L114
 1833              		.cfi_endproc
 1834              	.LFE53:
 1836              		.section	.text.osPoolCAlloc,"ax",%progbits
 1837              		.align	1
 1838              		.global	osPoolCAlloc
 1839              		.syntax unified
 1840              		.code	16
 1841              		.thumb_func
 1842              		.fpu softvfp
 1844              	osPoolCAlloc:
 1845              	.LVL169:
 1846              	.LFB54:
1016:Middlewares/Third_Party/FreeRTOS/Source/CMSIS_RTOS/cmsis_os.c **** 
1017:Middlewares/Third_Party/FreeRTOS/Source/CMSIS_RTOS/cmsis_os.c **** /**
1018:Middlewares/Third_Party/FreeRTOS/Source/CMSIS_RTOS/cmsis_os.c **** * @brief Allocate a memory block from a memory pool and set memory block to zero
1019:Middlewares/Third_Party/FreeRTOS/Source/CMSIS_RTOS/cmsis_os.c **** * @param  pool_id       memory pool ID obtain referenced with \ref osPoolCreate.
1020:Middlewares/Third_Party/FreeRTOS/Source/CMSIS_RTOS/cmsis_os.c **** * @retval  address of the allocated memory block or NULL in case of no memory available.
1021:Middlewares/Third_Party/FreeRTOS/Source/CMSIS_RTOS/cmsis_os.c **** * @note   MUST REMAIN UNCHANGED: \b osPoolCAlloc shall be consistent in every CMSIS-RTOS.
1022:Middlewares/Third_Party/FreeRTOS/Source/CMSIS_RTOS/cmsis_os.c **** */
1023:Middlewares/Third_Party/FreeRTOS/Source/CMSIS_RTOS/cmsis_os.c **** void *osPoolCAlloc (osPoolId pool_id)
1024:Middlewares/Third_Party/FreeRTOS/Source/CMSIS_RTOS/cmsis_os.c **** {
 1847              		.loc 1 1024 1 is_stmt 1 view -0
 1848              		.cfi_startproc
 1849              		@ args = 0, pretend = 0, frame = 0
 1850              		@ frame_needed = 0, uses_anonymous_args = 0
 1851              		.loc 1 1024 1 is_stmt 0 view .LVU430
 1852 0000 10B5     		push	{r4, lr}
 1853              	.LCFI29:
 1854              		.cfi_def_cfa_offset 8
 1855              		.cfi_offset 4, -8
 1856              		.cfi_offset 14, -4
1025:Middlewares/Third_Party/FreeRTOS/Source/CMSIS_RTOS/cmsis_os.c ****   void *p = osPoolAlloc(pool_id);
 1857              		.loc 1 1025 3 is_stmt 1 view .LVU431
 1858              		.loc 1 1025 13 is_stmt 0 view .LVU432
 1859 0002 FFF7FEFF 		bl	osPoolAlloc
 1860              	.LVL170:
ARM GAS  /tmp/ccAhcryT.s 			page 54


 1861              		.loc 1 1025 13 view .LVU433
 1862 0006 041E     		subs	r4, r0, #0
 1863              	.LVL171:
1026:Middlewares/Third_Party/FreeRTOS/Source/CMSIS_RTOS/cmsis_os.c ****   
1027:Middlewares/Third_Party/FreeRTOS/Source/CMSIS_RTOS/cmsis_os.c ****   if (p != NULL)
 1864              		.loc 1 1027 3 is_stmt 1 view .LVU434
 1865              		.loc 1 1027 6 is_stmt 0 view .LVU435
 1866 0008 03D0     		beq	.L127
1028:Middlewares/Third_Party/FreeRTOS/Source/CMSIS_RTOS/cmsis_os.c ****   {
1029:Middlewares/Third_Party/FreeRTOS/Source/CMSIS_RTOS/cmsis_os.c ****     memset(p, 0, sizeof(pool_id->pool_sz));
 1867              		.loc 1 1029 5 is_stmt 1 view .LVU436
 1868 000a 0422     		movs	r2, #4
 1869 000c 0021     		movs	r1, #0
 1870 000e FFF7FEFF 		bl	memset
 1871              	.LVL172:
1030:Middlewares/Third_Party/FreeRTOS/Source/CMSIS_RTOS/cmsis_os.c ****   }
1031:Middlewares/Third_Party/FreeRTOS/Source/CMSIS_RTOS/cmsis_os.c ****   
1032:Middlewares/Third_Party/FreeRTOS/Source/CMSIS_RTOS/cmsis_os.c ****   return p;
 1872              		.loc 1 1032 3 view .LVU437
 1873              	.L127:
1033:Middlewares/Third_Party/FreeRTOS/Source/CMSIS_RTOS/cmsis_os.c **** }
 1874              		.loc 1 1033 1 is_stmt 0 view .LVU438
 1875 0012 2000     		movs	r0, r4
 1876              		@ sp needed
 1877              	.LVL173:
 1878              		.loc 1 1033 1 view .LVU439
 1879 0014 10BD     		pop	{r4, pc}
 1880              		.cfi_endproc
 1881              	.LFE54:
 1883              		.global	__aeabi_uidivmod
 1884              		.global	__aeabi_uidiv
 1885              		.section	.text.osPoolFree,"ax",%progbits
 1886              		.align	1
 1887              		.global	osPoolFree
 1888              		.syntax unified
 1889              		.code	16
 1890              		.thumb_func
 1891              		.fpu softvfp
 1893              	osPoolFree:
 1894              	.LVL174:
 1895              	.LFB55:
1034:Middlewares/Third_Party/FreeRTOS/Source/CMSIS_RTOS/cmsis_os.c **** 
1035:Middlewares/Third_Party/FreeRTOS/Source/CMSIS_RTOS/cmsis_os.c **** /**
1036:Middlewares/Third_Party/FreeRTOS/Source/CMSIS_RTOS/cmsis_os.c **** * @brief Return an allocated memory block back to a specific memory pool
1037:Middlewares/Third_Party/FreeRTOS/Source/CMSIS_RTOS/cmsis_os.c **** * @param  pool_id       memory pool ID obtain referenced with \ref osPoolCreate.
1038:Middlewares/Third_Party/FreeRTOS/Source/CMSIS_RTOS/cmsis_os.c **** * @param  block         address of the allocated memory block that is returned to the memory pool.
1039:Middlewares/Third_Party/FreeRTOS/Source/CMSIS_RTOS/cmsis_os.c **** * @retval  status code that indicates the execution status of the function.
1040:Middlewares/Third_Party/FreeRTOS/Source/CMSIS_RTOS/cmsis_os.c **** * @note   MUST REMAIN UNCHANGED: \b osPoolFree shall be consistent in every CMSIS-RTOS.
1041:Middlewares/Third_Party/FreeRTOS/Source/CMSIS_RTOS/cmsis_os.c **** */
1042:Middlewares/Third_Party/FreeRTOS/Source/CMSIS_RTOS/cmsis_os.c **** osStatus osPoolFree (osPoolId pool_id, void *block)
1043:Middlewares/Third_Party/FreeRTOS/Source/CMSIS_RTOS/cmsis_os.c **** {
 1896              		.loc 1 1043 1 is_stmt 1 view -0
 1897              		.cfi_startproc
 1898              		@ args = 0, pretend = 0, frame = 0
 1899              		@ frame_needed = 0, uses_anonymous_args = 0
 1900              		.loc 1 1043 1 is_stmt 0 view .LVU441
 1901 0000 70B5     		push	{r4, r5, r6, lr}
ARM GAS  /tmp/ccAhcryT.s 			page 55


 1902              	.LCFI30:
 1903              		.cfi_def_cfa_offset 16
 1904              		.cfi_offset 4, -16
 1905              		.cfi_offset 5, -12
 1906              		.cfi_offset 6, -8
 1907              		.cfi_offset 14, -4
 1908 0002 051E     		subs	r5, r0, #0
1044:Middlewares/Third_Party/FreeRTOS/Source/CMSIS_RTOS/cmsis_os.c ****   uint32_t index;
 1909              		.loc 1 1044 3 is_stmt 1 view .LVU442
1045:Middlewares/Third_Party/FreeRTOS/Source/CMSIS_RTOS/cmsis_os.c ****   
1046:Middlewares/Third_Party/FreeRTOS/Source/CMSIS_RTOS/cmsis_os.c ****   if (pool_id == NULL) {
 1910              		.loc 1 1046 3 view .LVU443
 1911              		.loc 1 1046 6 is_stmt 0 view .LVU444
 1912 0004 19D0     		beq	.L131
1047:Middlewares/Third_Party/FreeRTOS/Source/CMSIS_RTOS/cmsis_os.c ****     return osErrorParameter;
1048:Middlewares/Third_Party/FreeRTOS/Source/CMSIS_RTOS/cmsis_os.c ****   }
1049:Middlewares/Third_Party/FreeRTOS/Source/CMSIS_RTOS/cmsis_os.c ****   
1050:Middlewares/Third_Party/FreeRTOS/Source/CMSIS_RTOS/cmsis_os.c ****   if (block == NULL) {
 1913              		.loc 1 1050 3 is_stmt 1 view .LVU445
 1914              		.loc 1 1050 6 is_stmt 0 view .LVU446
 1915 0006 0029     		cmp	r1, #0
 1916 0008 19D0     		beq	.L132
1051:Middlewares/Third_Party/FreeRTOS/Source/CMSIS_RTOS/cmsis_os.c ****     return osErrorParameter;
1052:Middlewares/Third_Party/FreeRTOS/Source/CMSIS_RTOS/cmsis_os.c ****   }
1053:Middlewares/Third_Party/FreeRTOS/Source/CMSIS_RTOS/cmsis_os.c ****   
1054:Middlewares/Third_Party/FreeRTOS/Source/CMSIS_RTOS/cmsis_os.c ****   if (block < pool_id->pool) {
 1917              		.loc 1 1054 3 is_stmt 1 view .LVU447
 1918              		.loc 1 1054 22 is_stmt 0 view .LVU448
 1919 000a 0468     		ldr	r4, [r0]
 1920              		.loc 1 1054 6 view .LVU449
 1921 000c 8C42     		cmp	r4, r1
 1922 000e 18D8     		bhi	.L133
1055:Middlewares/Third_Party/FreeRTOS/Source/CMSIS_RTOS/cmsis_os.c ****     return osErrorParameter;
1056:Middlewares/Third_Party/FreeRTOS/Source/CMSIS_RTOS/cmsis_os.c ****   }
1057:Middlewares/Third_Party/FreeRTOS/Source/CMSIS_RTOS/cmsis_os.c ****   
1058:Middlewares/Third_Party/FreeRTOS/Source/CMSIS_RTOS/cmsis_os.c ****   index = (uint32_t)block - (uint32_t)(pool_id->pool);
 1923              		.loc 1 1058 3 is_stmt 1 view .LVU450
 1924              		.loc 1 1058 9 is_stmt 0 view .LVU451
 1925 0010 0C1B     		subs	r4, r1, r4
 1926              	.LVL175:
1059:Middlewares/Third_Party/FreeRTOS/Source/CMSIS_RTOS/cmsis_os.c ****   if (index % pool_id->item_sz) {
 1927              		.loc 1 1059 3 is_stmt 1 view .LVU452
 1928              		.loc 1 1059 22 is_stmt 0 view .LVU453
 1929 0012 C668     		ldr	r6, [r0, #12]
 1930              		.loc 1 1059 13 view .LVU454
 1931 0014 3100     		movs	r1, r6
 1932              	.LVL176:
 1933              		.loc 1 1059 13 view .LVU455
 1934 0016 2000     		movs	r0, r4
 1935              	.LVL177:
 1936              		.loc 1 1059 13 view .LVU456
 1937 0018 FFF7FEFF 		bl	__aeabi_uidivmod
 1938              	.LVL178:
 1939              		.loc 1 1059 6 view .LVU457
 1940 001c 0029     		cmp	r1, #0
 1941 001e 12D1     		bne	.L134
1060:Middlewares/Third_Party/FreeRTOS/Source/CMSIS_RTOS/cmsis_os.c ****     return osErrorParameter;
ARM GAS  /tmp/ccAhcryT.s 			page 56


1061:Middlewares/Third_Party/FreeRTOS/Source/CMSIS_RTOS/cmsis_os.c ****   }
1062:Middlewares/Third_Party/FreeRTOS/Source/CMSIS_RTOS/cmsis_os.c ****   index = index / pool_id->item_sz;
 1942              		.loc 1 1062 3 is_stmt 1 view .LVU458
 1943              		.loc 1 1062 9 is_stmt 0 view .LVU459
 1944 0020 3100     		movs	r1, r6
 1945 0022 2000     		movs	r0, r4
 1946 0024 FFF7FEFF 		bl	__aeabi_uidiv
 1947              	.LVL179:
1063:Middlewares/Third_Party/FreeRTOS/Source/CMSIS_RTOS/cmsis_os.c ****   if (index >= pool_id->pool_sz) {
 1948              		.loc 1 1063 3 is_stmt 1 view .LVU460
 1949              		.loc 1 1063 6 is_stmt 0 view .LVU461
 1950 0028 AB68     		ldr	r3, [r5, #8]
 1951 002a 8342     		cmp	r3, r0
 1952 002c 0DD9     		bls	.L135
1064:Middlewares/Third_Party/FreeRTOS/Source/CMSIS_RTOS/cmsis_os.c ****     return osErrorParameter;
1065:Middlewares/Third_Party/FreeRTOS/Source/CMSIS_RTOS/cmsis_os.c ****   }
1066:Middlewares/Third_Party/FreeRTOS/Source/CMSIS_RTOS/cmsis_os.c ****   
1067:Middlewares/Third_Party/FreeRTOS/Source/CMSIS_RTOS/cmsis_os.c ****   pool_id->markers[index] = 0;
 1953              		.loc 1 1067 3 is_stmt 1 view .LVU462
 1954              		.loc 1 1067 10 is_stmt 0 view .LVU463
 1955 002e 6B68     		ldr	r3, [r5, #4]
 1956              		.loc 1 1067 19 view .LVU464
 1957 0030 1B18     		adds	r3, r3, r0
 1958              		.loc 1 1067 27 view .LVU465
 1959 0032 0022     		movs	r2, #0
 1960 0034 1A70     		strb	r2, [r3]
1068:Middlewares/Third_Party/FreeRTOS/Source/CMSIS_RTOS/cmsis_os.c ****   
1069:Middlewares/Third_Party/FreeRTOS/Source/CMSIS_RTOS/cmsis_os.c ****   return osOK;
 1961              		.loc 1 1069 3 is_stmt 1 view .LVU466
 1962              		.loc 1 1069 10 is_stmt 0 view .LVU467
 1963 0036 0020     		movs	r0, #0
 1964              	.LVL180:
 1965              	.L129:
1070:Middlewares/Third_Party/FreeRTOS/Source/CMSIS_RTOS/cmsis_os.c **** }
 1966              		.loc 1 1070 1 view .LVU468
 1967              		@ sp needed
 1968              	.LVL181:
 1969              		.loc 1 1070 1 view .LVU469
 1970 0038 70BD     		pop	{r4, r5, r6, pc}
 1971              	.LVL182:
 1972              	.L131:
1047:Middlewares/Third_Party/FreeRTOS/Source/CMSIS_RTOS/cmsis_os.c ****   }
 1973              		.loc 1 1047 12 view .LVU470
 1974 003a 8020     		movs	r0, #128
 1975              	.LVL183:
1047:Middlewares/Third_Party/FreeRTOS/Source/CMSIS_RTOS/cmsis_os.c ****   }
 1976              		.loc 1 1047 12 view .LVU471
 1977 003c FCE7     		b	.L129
 1978              	.LVL184:
 1979              	.L132:
1051:Middlewares/Third_Party/FreeRTOS/Source/CMSIS_RTOS/cmsis_os.c ****   }
 1980              		.loc 1 1051 12 view .LVU472
 1981 003e 8020     		movs	r0, #128
 1982              	.LVL185:
1051:Middlewares/Third_Party/FreeRTOS/Source/CMSIS_RTOS/cmsis_os.c ****   }
 1983              		.loc 1 1051 12 view .LVU473
 1984 0040 FAE7     		b	.L129
ARM GAS  /tmp/ccAhcryT.s 			page 57


 1985              	.LVL186:
 1986              	.L133:
1055:Middlewares/Third_Party/FreeRTOS/Source/CMSIS_RTOS/cmsis_os.c ****   }
 1987              		.loc 1 1055 12 view .LVU474
 1988 0042 8020     		movs	r0, #128
 1989              	.LVL187:
1055:Middlewares/Third_Party/FreeRTOS/Source/CMSIS_RTOS/cmsis_os.c ****   }
 1990              		.loc 1 1055 12 view .LVU475
 1991 0044 F8E7     		b	.L129
 1992              	.LVL188:
 1993              	.L134:
1060:Middlewares/Third_Party/FreeRTOS/Source/CMSIS_RTOS/cmsis_os.c ****   }
 1994              		.loc 1 1060 12 view .LVU476
 1995 0046 8020     		movs	r0, #128
 1996 0048 F6E7     		b	.L129
 1997              	.LVL189:
 1998              	.L135:
1064:Middlewares/Third_Party/FreeRTOS/Source/CMSIS_RTOS/cmsis_os.c ****   }
 1999              		.loc 1 1064 12 view .LVU477
 2000 004a 8020     		movs	r0, #128
 2001              	.LVL190:
1064:Middlewares/Third_Party/FreeRTOS/Source/CMSIS_RTOS/cmsis_os.c ****   }
 2002              		.loc 1 1064 12 view .LVU478
 2003 004c F4E7     		b	.L129
 2004              		.cfi_endproc
 2005              	.LFE55:
 2007              		.section	.text.osMessageCreate,"ax",%progbits
 2008              		.align	1
 2009              		.global	osMessageCreate
 2010              		.syntax unified
 2011              		.code	16
 2012              		.thumb_func
 2013              		.fpu softvfp
 2015              	osMessageCreate:
 2016              	.LVL191:
 2017              	.LFB56:
1071:Middlewares/Third_Party/FreeRTOS/Source/CMSIS_RTOS/cmsis_os.c **** 
1072:Middlewares/Third_Party/FreeRTOS/Source/CMSIS_RTOS/cmsis_os.c **** 
1073:Middlewares/Third_Party/FreeRTOS/Source/CMSIS_RTOS/cmsis_os.c **** #endif   /* Use Memory Pool Management */
1074:Middlewares/Third_Party/FreeRTOS/Source/CMSIS_RTOS/cmsis_os.c **** 
1075:Middlewares/Third_Party/FreeRTOS/Source/CMSIS_RTOS/cmsis_os.c **** /*******************   Message Queue Management Functions  *********************/
1076:Middlewares/Third_Party/FreeRTOS/Source/CMSIS_RTOS/cmsis_os.c **** 
1077:Middlewares/Third_Party/FreeRTOS/Source/CMSIS_RTOS/cmsis_os.c **** #if (defined (osFeature_MessageQ)  &&  (osFeature_MessageQ != 0)) /* Use Message Queues */
1078:Middlewares/Third_Party/FreeRTOS/Source/CMSIS_RTOS/cmsis_os.c **** 
1079:Middlewares/Third_Party/FreeRTOS/Source/CMSIS_RTOS/cmsis_os.c **** /**
1080:Middlewares/Third_Party/FreeRTOS/Source/CMSIS_RTOS/cmsis_os.c **** * @brief Create and Initialize a Message Queue
1081:Middlewares/Third_Party/FreeRTOS/Source/CMSIS_RTOS/cmsis_os.c **** * @param queue_def     queue definition referenced with \ref osMessageQ.
1082:Middlewares/Third_Party/FreeRTOS/Source/CMSIS_RTOS/cmsis_os.c **** * @param  thread_id     thread ID (obtained by \ref osThreadCreate or \ref osThreadGetId) or NULL.
1083:Middlewares/Third_Party/FreeRTOS/Source/CMSIS_RTOS/cmsis_os.c **** * @retval  message queue ID for reference by other functions or NULL in case of error.
1084:Middlewares/Third_Party/FreeRTOS/Source/CMSIS_RTOS/cmsis_os.c **** * @note   MUST REMAIN UNCHANGED: \b osMessageCreate shall be consistent in every CMSIS-RTOS.
1085:Middlewares/Third_Party/FreeRTOS/Source/CMSIS_RTOS/cmsis_os.c **** */
1086:Middlewares/Third_Party/FreeRTOS/Source/CMSIS_RTOS/cmsis_os.c **** osMessageQId osMessageCreate (const osMessageQDef_t *queue_def, osThreadId thread_id)
1087:Middlewares/Third_Party/FreeRTOS/Source/CMSIS_RTOS/cmsis_os.c **** {
 2018              		.loc 1 1087 1 is_stmt 1 view -0
 2019              		.cfi_startproc
 2020              		@ args = 0, pretend = 0, frame = 0
 2021              		@ frame_needed = 0, uses_anonymous_args = 0
ARM GAS  /tmp/ccAhcryT.s 			page 58


 2022              		.loc 1 1087 1 is_stmt 0 view .LVU480
 2023 0000 10B5     		push	{r4, lr}
 2024              	.LCFI31:
 2025              		.cfi_def_cfa_offset 8
 2026              		.cfi_offset 4, -8
 2027              		.cfi_offset 14, -4
1088:Middlewares/Third_Party/FreeRTOS/Source/CMSIS_RTOS/cmsis_os.c ****   (void) thread_id;
 2028              		.loc 1 1088 3 is_stmt 1 view .LVU481
1089:Middlewares/Third_Party/FreeRTOS/Source/CMSIS_RTOS/cmsis_os.c ****   
1090:Middlewares/Third_Party/FreeRTOS/Source/CMSIS_RTOS/cmsis_os.c **** #if( configSUPPORT_STATIC_ALLOCATION == 1 ) && ( configSUPPORT_DYNAMIC_ALLOCATION == 1 )
1091:Middlewares/Third_Party/FreeRTOS/Source/CMSIS_RTOS/cmsis_os.c **** 
1092:Middlewares/Third_Party/FreeRTOS/Source/CMSIS_RTOS/cmsis_os.c ****   if ((queue_def->buffer != NULL) && (queue_def->controlblock != NULL)) {
1093:Middlewares/Third_Party/FreeRTOS/Source/CMSIS_RTOS/cmsis_os.c ****     return xQueueCreateStatic(queue_def->queue_sz, queue_def->item_sz, queue_def->buffer, queue_def
1094:Middlewares/Third_Party/FreeRTOS/Source/CMSIS_RTOS/cmsis_os.c ****   }
1095:Middlewares/Third_Party/FreeRTOS/Source/CMSIS_RTOS/cmsis_os.c ****   else {
1096:Middlewares/Third_Party/FreeRTOS/Source/CMSIS_RTOS/cmsis_os.c ****     return xQueueCreate(queue_def->queue_sz, queue_def->item_sz);
1097:Middlewares/Third_Party/FreeRTOS/Source/CMSIS_RTOS/cmsis_os.c ****   }
1098:Middlewares/Third_Party/FreeRTOS/Source/CMSIS_RTOS/cmsis_os.c **** #elif ( configSUPPORT_STATIC_ALLOCATION == 1 )
1099:Middlewares/Third_Party/FreeRTOS/Source/CMSIS_RTOS/cmsis_os.c ****   return xQueueCreateStatic(queue_def->queue_sz, queue_def->item_sz, queue_def->buffer, queue_def->
1100:Middlewares/Third_Party/FreeRTOS/Source/CMSIS_RTOS/cmsis_os.c **** #else  
1101:Middlewares/Third_Party/FreeRTOS/Source/CMSIS_RTOS/cmsis_os.c ****   return xQueueCreate(queue_def->queue_sz, queue_def->item_sz);
 2029              		.loc 1 1101 3 view .LVU482
 2030              		.loc 1 1101 10 is_stmt 0 view .LVU483
 2031 0002 4168     		ldr	r1, [r0, #4]
 2032              	.LVL192:
 2033              		.loc 1 1101 10 view .LVU484
 2034 0004 0068     		ldr	r0, [r0]
 2035              	.LVL193:
 2036              		.loc 1 1101 10 view .LVU485
 2037 0006 0022     		movs	r2, #0
 2038 0008 FFF7FEFF 		bl	xQueueGenericCreate
 2039              	.LVL194:
1102:Middlewares/Third_Party/FreeRTOS/Source/CMSIS_RTOS/cmsis_os.c **** #endif
1103:Middlewares/Third_Party/FreeRTOS/Source/CMSIS_RTOS/cmsis_os.c **** }
 2040              		.loc 1 1103 1 view .LVU486
 2041              		@ sp needed
 2042 000c 10BD     		pop	{r4, pc}
 2043              		.cfi_endproc
 2044              	.LFE56:
 2046              		.section	.text.osMessagePut,"ax",%progbits
 2047              		.align	1
 2048              		.global	osMessagePut
 2049              		.syntax unified
 2050              		.code	16
 2051              		.thumb_func
 2052              		.fpu softvfp
 2054              	osMessagePut:
 2055              	.LVL195:
 2056              	.LFB57:
1104:Middlewares/Third_Party/FreeRTOS/Source/CMSIS_RTOS/cmsis_os.c **** 
1105:Middlewares/Third_Party/FreeRTOS/Source/CMSIS_RTOS/cmsis_os.c **** /**
1106:Middlewares/Third_Party/FreeRTOS/Source/CMSIS_RTOS/cmsis_os.c **** * @brief Put a Message to a Queue.
1107:Middlewares/Third_Party/FreeRTOS/Source/CMSIS_RTOS/cmsis_os.c **** * @param  queue_id  message queue ID obtained with \ref osMessageCreate.
1108:Middlewares/Third_Party/FreeRTOS/Source/CMSIS_RTOS/cmsis_os.c **** * @param  info      message information.
1109:Middlewares/Third_Party/FreeRTOS/Source/CMSIS_RTOS/cmsis_os.c **** * @param  millisec  timeout value or 0 in case of no time-out.
1110:Middlewares/Third_Party/FreeRTOS/Source/CMSIS_RTOS/cmsis_os.c **** * @retval status code that indicates the execution status of the function.
1111:Middlewares/Third_Party/FreeRTOS/Source/CMSIS_RTOS/cmsis_os.c **** * @note   MUST REMAIN UNCHANGED: \b osMessagePut shall be consistent in every CMSIS-RTOS.
ARM GAS  /tmp/ccAhcryT.s 			page 59


1112:Middlewares/Third_Party/FreeRTOS/Source/CMSIS_RTOS/cmsis_os.c **** */
1113:Middlewares/Third_Party/FreeRTOS/Source/CMSIS_RTOS/cmsis_os.c **** osStatus osMessagePut (osMessageQId queue_id, uint32_t info, uint32_t millisec)
1114:Middlewares/Third_Party/FreeRTOS/Source/CMSIS_RTOS/cmsis_os.c **** {
 2057              		.loc 1 1114 1 is_stmt 1 view -0
 2058              		.cfi_startproc
 2059              		@ args = 0, pretend = 0, frame = 16
 2060              		@ frame_needed = 0, uses_anonymous_args = 0
 2061              		.loc 1 1114 1 is_stmt 0 view .LVU488
 2062 0000 30B5     		push	{r4, r5, lr}
 2063              	.LCFI32:
 2064              		.cfi_def_cfa_offset 12
 2065              		.cfi_offset 4, -12
 2066              		.cfi_offset 5, -8
 2067              		.cfi_offset 14, -4
 2068 0002 85B0     		sub	sp, sp, #20
 2069              	.LCFI33:
 2070              		.cfi_def_cfa_offset 32
 2071 0004 0500     		movs	r5, r0
 2072 0006 0191     		str	r1, [sp, #4]
 2073 0008 1400     		movs	r4, r2
1115:Middlewares/Third_Party/FreeRTOS/Source/CMSIS_RTOS/cmsis_os.c ****   portBASE_TYPE taskWoken = pdFALSE;
 2074              		.loc 1 1115 3 is_stmt 1 view .LVU489
 2075              		.loc 1 1115 17 is_stmt 0 view .LVU490
 2076 000a 0023     		movs	r3, #0
 2077 000c 0393     		str	r3, [sp, #12]
1116:Middlewares/Third_Party/FreeRTOS/Source/CMSIS_RTOS/cmsis_os.c ****   TickType_t ticks;
 2078              		.loc 1 1116 3 is_stmt 1 view .LVU491
1117:Middlewares/Third_Party/FreeRTOS/Source/CMSIS_RTOS/cmsis_os.c ****   
1118:Middlewares/Third_Party/FreeRTOS/Source/CMSIS_RTOS/cmsis_os.c ****   ticks = millisec / portTICK_PERIOD_MS;
 2079              		.loc 1 1118 3 view .LVU492
 2080              	.LVL196:
1119:Middlewares/Third_Party/FreeRTOS/Source/CMSIS_RTOS/cmsis_os.c ****   if (ticks == 0) {
 2081              		.loc 1 1119 3 view .LVU493
 2082              		.loc 1 1119 6 is_stmt 0 view .LVU494
 2083 000e 002A     		cmp	r2, #0
 2084 0010 00D1     		bne	.L138
1120:Middlewares/Third_Party/FreeRTOS/Source/CMSIS_RTOS/cmsis_os.c ****     ticks = 1;
 2085              		.loc 1 1120 11 view .LVU495
 2086 0012 0134     		adds	r4, r4, #1
 2087              	.L138:
 2088              	.LVL197:
1121:Middlewares/Third_Party/FreeRTOS/Source/CMSIS_RTOS/cmsis_os.c ****   }
1122:Middlewares/Third_Party/FreeRTOS/Source/CMSIS_RTOS/cmsis_os.c ****   
1123:Middlewares/Third_Party/FreeRTOS/Source/CMSIS_RTOS/cmsis_os.c ****   if (inHandlerMode()) {
 2089              		.loc 1 1123 3 is_stmt 1 view .LVU496
 2090              		.loc 1 1123 7 is_stmt 0 view .LVU497
 2091 0014 FFF7FEFF 		bl	inHandlerMode
 2092              	.LVL198:
 2093              		.loc 1 1123 6 view .LVU498
 2094 0018 0028     		cmp	r0, #0
 2095 001a 10D0     		beq	.L139
1124:Middlewares/Third_Party/FreeRTOS/Source/CMSIS_RTOS/cmsis_os.c ****     if (xQueueSendFromISR(queue_id, &info, &taskWoken) != pdTRUE) {
 2096              		.loc 1 1124 5 is_stmt 1 view .LVU499
 2097              		.loc 1 1124 9 is_stmt 0 view .LVU500
 2098 001c 0023     		movs	r3, #0
 2099 001e 03AA     		add	r2, sp, #12
 2100 0020 01A9     		add	r1, sp, #4
ARM GAS  /tmp/ccAhcryT.s 			page 60


 2101 0022 2800     		movs	r0, r5
 2102 0024 FFF7FEFF 		bl	xQueueGenericSendFromISR
 2103              	.LVL199:
 2104              		.loc 1 1124 8 view .LVU501
 2105 0028 0128     		cmp	r0, #1
 2106 002a 13D1     		bne	.L142
1125:Middlewares/Third_Party/FreeRTOS/Source/CMSIS_RTOS/cmsis_os.c ****       return osErrorOS;
1126:Middlewares/Third_Party/FreeRTOS/Source/CMSIS_RTOS/cmsis_os.c ****     }
1127:Middlewares/Third_Party/FreeRTOS/Source/CMSIS_RTOS/cmsis_os.c ****     portEND_SWITCHING_ISR(taskWoken);
 2107              		.loc 1 1127 5 is_stmt 1 view .LVU502
 2108 002c 039B     		ldr	r3, [sp, #12]
 2109 002e 002B     		cmp	r3, #0
 2110 0030 12D0     		beq	.L143
 2111              		.loc 1 1127 5 discriminator 1 view .LVU503
 2112 0032 0B4B     		ldr	r3, .L145
 2113 0034 8022     		movs	r2, #128
 2114 0036 5205     		lsls	r2, r2, #21
 2115 0038 1A60     		str	r2, [r3]
1128:Middlewares/Third_Party/FreeRTOS/Source/CMSIS_RTOS/cmsis_os.c ****   }
1129:Middlewares/Third_Party/FreeRTOS/Source/CMSIS_RTOS/cmsis_os.c ****   else {
1130:Middlewares/Third_Party/FreeRTOS/Source/CMSIS_RTOS/cmsis_os.c ****     if (xQueueSend(queue_id, &info, ticks) != pdTRUE) {
1131:Middlewares/Third_Party/FreeRTOS/Source/CMSIS_RTOS/cmsis_os.c ****       return osErrorOS;
1132:Middlewares/Third_Party/FreeRTOS/Source/CMSIS_RTOS/cmsis_os.c ****     }
1133:Middlewares/Third_Party/FreeRTOS/Source/CMSIS_RTOS/cmsis_os.c ****   }
1134:Middlewares/Third_Party/FreeRTOS/Source/CMSIS_RTOS/cmsis_os.c ****   
1135:Middlewares/Third_Party/FreeRTOS/Source/CMSIS_RTOS/cmsis_os.c ****   return osOK;
 2116              		.loc 1 1135 10 is_stmt 0 discriminator 1 view .LVU504
 2117 003a 0020     		movs	r0, #0
 2118 003c 08E0     		b	.L137
 2119              	.L139:
1130:Middlewares/Third_Party/FreeRTOS/Source/CMSIS_RTOS/cmsis_os.c ****       return osErrorOS;
 2120              		.loc 1 1130 5 is_stmt 1 view .LVU505
1130:Middlewares/Third_Party/FreeRTOS/Source/CMSIS_RTOS/cmsis_os.c ****       return osErrorOS;
 2121              		.loc 1 1130 9 is_stmt 0 view .LVU506
 2122 003e 0023     		movs	r3, #0
 2123 0040 2200     		movs	r2, r4
 2124 0042 01A9     		add	r1, sp, #4
 2125 0044 2800     		movs	r0, r5
 2126 0046 FFF7FEFF 		bl	xQueueGenericSend
 2127              	.LVL200:
1130:Middlewares/Third_Party/FreeRTOS/Source/CMSIS_RTOS/cmsis_os.c ****       return osErrorOS;
 2128              		.loc 1 1130 8 view .LVU507
 2129 004a 0128     		cmp	r0, #1
 2130 004c 06D1     		bne	.L144
 2131              		.loc 1 1135 10 view .LVU508
 2132 004e 0020     		movs	r0, #0
 2133              	.L137:
1136:Middlewares/Third_Party/FreeRTOS/Source/CMSIS_RTOS/cmsis_os.c **** }
 2134              		.loc 1 1136 1 view .LVU509
 2135 0050 05B0     		add	sp, sp, #20
 2136              		@ sp needed
 2137              	.LVL201:
 2138              	.LVL202:
 2139              		.loc 1 1136 1 view .LVU510
 2140 0052 30BD     		pop	{r4, r5, pc}
 2141              	.LVL203:
 2142              	.L142:
ARM GAS  /tmp/ccAhcryT.s 			page 61


1125:Middlewares/Third_Party/FreeRTOS/Source/CMSIS_RTOS/cmsis_os.c ****     }
 2143              		.loc 1 1125 14 view .LVU511
 2144 0054 FF20     		movs	r0, #255
 2145 0056 FBE7     		b	.L137
 2146              	.L143:
1135:Middlewares/Third_Party/FreeRTOS/Source/CMSIS_RTOS/cmsis_os.c **** }
 2147              		.loc 1 1135 10 view .LVU512
 2148 0058 0020     		movs	r0, #0
 2149 005a F9E7     		b	.L137
 2150              	.L144:
1131:Middlewares/Third_Party/FreeRTOS/Source/CMSIS_RTOS/cmsis_os.c ****     }
 2151              		.loc 1 1131 14 view .LVU513
 2152 005c FF20     		movs	r0, #255
 2153 005e F7E7     		b	.L137
 2154              	.L146:
 2155              		.align	2
 2156              	.L145:
 2157 0060 04ED00E0 		.word	-536810236
 2158              		.cfi_endproc
 2159              	.LFE57:
 2161              		.section	.text.osMessageGet,"ax",%progbits
 2162              		.align	1
 2163              		.global	osMessageGet
 2164              		.syntax unified
 2165              		.code	16
 2166              		.thumb_func
 2167              		.fpu softvfp
 2169              	osMessageGet:
 2170              	.LVL204:
 2171              	.LFB58:
1137:Middlewares/Third_Party/FreeRTOS/Source/CMSIS_RTOS/cmsis_os.c **** 
1138:Middlewares/Third_Party/FreeRTOS/Source/CMSIS_RTOS/cmsis_os.c **** /**
1139:Middlewares/Third_Party/FreeRTOS/Source/CMSIS_RTOS/cmsis_os.c **** * @brief Get a Message or Wait for a Message from a Queue.
1140:Middlewares/Third_Party/FreeRTOS/Source/CMSIS_RTOS/cmsis_os.c **** * @param  queue_id  message queue ID obtained with \ref osMessageCreate.
1141:Middlewares/Third_Party/FreeRTOS/Source/CMSIS_RTOS/cmsis_os.c **** * @param  millisec  timeout value or 0 in case of no time-out.
1142:Middlewares/Third_Party/FreeRTOS/Source/CMSIS_RTOS/cmsis_os.c **** * @retval event information that includes status code.
1143:Middlewares/Third_Party/FreeRTOS/Source/CMSIS_RTOS/cmsis_os.c **** * @note   MUST REMAIN UNCHANGED: \b osMessageGet shall be consistent in every CMSIS-RTOS.
1144:Middlewares/Third_Party/FreeRTOS/Source/CMSIS_RTOS/cmsis_os.c **** */
1145:Middlewares/Third_Party/FreeRTOS/Source/CMSIS_RTOS/cmsis_os.c **** osEvent osMessageGet (osMessageQId queue_id, uint32_t millisec)
1146:Middlewares/Third_Party/FreeRTOS/Source/CMSIS_RTOS/cmsis_os.c **** {
 2172              		.loc 1 1146 1 is_stmt 1 view -0
 2173              		.cfi_startproc
 2174              		@ args = 0, pretend = 0, frame = 16
 2175              		@ frame_needed = 0, uses_anonymous_args = 0
 2176              		.loc 1 1146 1 is_stmt 0 view .LVU515
 2177 0000 70B5     		push	{r4, r5, r6, lr}
 2178              	.LCFI34:
 2179              		.cfi_def_cfa_offset 16
 2180              		.cfi_offset 4, -16
 2181              		.cfi_offset 5, -12
 2182              		.cfi_offset 6, -8
 2183              		.cfi_offset 14, -4
 2184 0002 84B0     		sub	sp, sp, #16
 2185              	.LCFI35:
 2186              		.cfi_def_cfa_offset 32
 2187 0004 0400     		movs	r4, r0
 2188 0006 0D00     		movs	r5, r1
ARM GAS  /tmp/ccAhcryT.s 			page 62


 2189 0008 1600     		movs	r6, r2
1147:Middlewares/Third_Party/FreeRTOS/Source/CMSIS_RTOS/cmsis_os.c ****   portBASE_TYPE taskWoken;
 2190              		.loc 1 1147 3 is_stmt 1 view .LVU516
1148:Middlewares/Third_Party/FreeRTOS/Source/CMSIS_RTOS/cmsis_os.c ****   TickType_t ticks;
 2191              		.loc 1 1148 3 view .LVU517
1149:Middlewares/Third_Party/FreeRTOS/Source/CMSIS_RTOS/cmsis_os.c ****   osEvent event;
 2192              		.loc 1 1149 3 view .LVU518
1150:Middlewares/Third_Party/FreeRTOS/Source/CMSIS_RTOS/cmsis_os.c ****   
1151:Middlewares/Third_Party/FreeRTOS/Source/CMSIS_RTOS/cmsis_os.c ****   event.def.message_id = queue_id;
 2193              		.loc 1 1151 3 view .LVU519
 2194              		.loc 1 1151 24 is_stmt 0 view .LVU520
 2195 000a 0291     		str	r1, [sp, #8]
1152:Middlewares/Third_Party/FreeRTOS/Source/CMSIS_RTOS/cmsis_os.c ****   event.value.v = 0;
 2196              		.loc 1 1152 3 is_stmt 1 view .LVU521
 2197              		.loc 1 1152 17 is_stmt 0 view .LVU522
 2198 000c 0023     		movs	r3, #0
 2199 000e 0193     		str	r3, [sp, #4]
1153:Middlewares/Third_Party/FreeRTOS/Source/CMSIS_RTOS/cmsis_os.c ****   
1154:Middlewares/Third_Party/FreeRTOS/Source/CMSIS_RTOS/cmsis_os.c ****   if (queue_id == NULL) {
 2200              		.loc 1 1154 3 is_stmt 1 view .LVU523
 2201              		.loc 1 1154 6 is_stmt 0 view .LVU524
 2202 0010 0029     		cmp	r1, #0
 2203 0012 18D0     		beq	.L159
1155:Middlewares/Third_Party/FreeRTOS/Source/CMSIS_RTOS/cmsis_os.c ****     event.status = osErrorParameter;
1156:Middlewares/Third_Party/FreeRTOS/Source/CMSIS_RTOS/cmsis_os.c ****     return event;
1157:Middlewares/Third_Party/FreeRTOS/Source/CMSIS_RTOS/cmsis_os.c ****   }
1158:Middlewares/Third_Party/FreeRTOS/Source/CMSIS_RTOS/cmsis_os.c ****   
1159:Middlewares/Third_Party/FreeRTOS/Source/CMSIS_RTOS/cmsis_os.c ****   taskWoken = pdFALSE;
 2204              		.loc 1 1159 3 is_stmt 1 view .LVU525
 2205              		.loc 1 1159 13 is_stmt 0 view .LVU526
 2206 0014 0023     		movs	r3, #0
 2207 0016 0393     		str	r3, [sp, #12]
1160:Middlewares/Third_Party/FreeRTOS/Source/CMSIS_RTOS/cmsis_os.c ****   
1161:Middlewares/Third_Party/FreeRTOS/Source/CMSIS_RTOS/cmsis_os.c ****   ticks = 0;
 2208              		.loc 1 1161 3 is_stmt 1 view .LVU527
 2209              	.LVL205:
1162:Middlewares/Third_Party/FreeRTOS/Source/CMSIS_RTOS/cmsis_os.c ****   if (millisec == osWaitForever) {
 2210              		.loc 1 1162 3 view .LVU528
 2211              		.loc 1 1162 6 is_stmt 0 view .LVU529
 2212 0018 531C     		adds	r3, r2, #1
 2213 001a 1BD0     		beq	.L160
 2214              	.L150:
 2215              	.LVL206:
1163:Middlewares/Third_Party/FreeRTOS/Source/CMSIS_RTOS/cmsis_os.c ****     ticks = portMAX_DELAY;
1164:Middlewares/Third_Party/FreeRTOS/Source/CMSIS_RTOS/cmsis_os.c ****   }
1165:Middlewares/Third_Party/FreeRTOS/Source/CMSIS_RTOS/cmsis_os.c ****   else if (millisec != 0) {
1166:Middlewares/Third_Party/FreeRTOS/Source/CMSIS_RTOS/cmsis_os.c ****     ticks = millisec / portTICK_PERIOD_MS;
1167:Middlewares/Third_Party/FreeRTOS/Source/CMSIS_RTOS/cmsis_os.c ****     if (ticks == 0) {
1168:Middlewares/Third_Party/FreeRTOS/Source/CMSIS_RTOS/cmsis_os.c ****       ticks = 1;
1169:Middlewares/Third_Party/FreeRTOS/Source/CMSIS_RTOS/cmsis_os.c ****     }
1170:Middlewares/Third_Party/FreeRTOS/Source/CMSIS_RTOS/cmsis_os.c ****   }
1171:Middlewares/Third_Party/FreeRTOS/Source/CMSIS_RTOS/cmsis_os.c ****   
1172:Middlewares/Third_Party/FreeRTOS/Source/CMSIS_RTOS/cmsis_os.c ****   if (inHandlerMode()) {
 2216              		.loc 1 1172 3 is_stmt 1 view .LVU530
 2217              		.loc 1 1172 7 is_stmt 0 view .LVU531
 2218 001c FFF7FEFF 		bl	inHandlerMode
 2219              	.LVL207:
ARM GAS  /tmp/ccAhcryT.s 			page 63


 2220              		.loc 1 1172 6 view .LVU532
 2221 0020 0028     		cmp	r0, #0
 2222 0022 1DD0     		beq	.L151
1173:Middlewares/Third_Party/FreeRTOS/Source/CMSIS_RTOS/cmsis_os.c ****     if (xQueueReceiveFromISR(queue_id, &event.value.v, &taskWoken) == pdTRUE) {
 2223              		.loc 1 1173 5 is_stmt 1 view .LVU533
 2224              		.loc 1 1173 9 is_stmt 0 view .LVU534
 2225 0024 03AA     		add	r2, sp, #12
 2226 0026 01A9     		add	r1, sp, #4
 2227 0028 2800     		movs	r0, r5
 2228 002a FFF7FEFF 		bl	xQueueReceiveFromISR
 2229              	.LVL208:
 2230              		.loc 1 1173 8 view .LVU535
 2231 002e 0128     		cmp	r0, #1
 2232 0030 13D0     		beq	.L161
1174:Middlewares/Third_Party/FreeRTOS/Source/CMSIS_RTOS/cmsis_os.c ****       /* We have mail */
1175:Middlewares/Third_Party/FreeRTOS/Source/CMSIS_RTOS/cmsis_os.c ****       event.status = osEventMessage;
1176:Middlewares/Third_Party/FreeRTOS/Source/CMSIS_RTOS/cmsis_os.c ****     }
1177:Middlewares/Third_Party/FreeRTOS/Source/CMSIS_RTOS/cmsis_os.c ****     else {
1178:Middlewares/Third_Party/FreeRTOS/Source/CMSIS_RTOS/cmsis_os.c ****       event.status = osOK;
 2233              		.loc 1 1178 7 is_stmt 1 view .LVU536
 2234              		.loc 1 1178 20 is_stmt 0 view .LVU537
 2235 0032 0023     		movs	r3, #0
 2236 0034 0093     		str	r3, [sp]
 2237              	.L153:
1179:Middlewares/Third_Party/FreeRTOS/Source/CMSIS_RTOS/cmsis_os.c ****     }
1180:Middlewares/Third_Party/FreeRTOS/Source/CMSIS_RTOS/cmsis_os.c ****     portEND_SWITCHING_ISR(taskWoken);
 2238              		.loc 1 1180 5 is_stmt 1 view .LVU538
 2239 0036 039B     		ldr	r3, [sp, #12]
 2240 0038 002B     		cmp	r3, #0
 2241 003a 1DD0     		beq	.L154
 2242              		.loc 1 1180 5 discriminator 1 view .LVU539
 2243 003c 144B     		ldr	r3, .L163
 2244 003e 8022     		movs	r2, #128
 2245 0040 5205     		lsls	r2, r2, #21
 2246 0042 1A60     		str	r2, [r3]
 2247 0044 18E0     		b	.L154
 2248              	.LVL209:
 2249              	.L159:
1155:Middlewares/Third_Party/FreeRTOS/Source/CMSIS_RTOS/cmsis_os.c ****     return event;
 2250              		.loc 1 1155 5 view .LVU540
1155:Middlewares/Third_Party/FreeRTOS/Source/CMSIS_RTOS/cmsis_os.c ****     return event;
 2251              		.loc 1 1155 18 is_stmt 0 view .LVU541
 2252 0046 6B46     		mov	r3, sp
 2253 0048 8022     		movs	r2, #128
 2254              	.LVL210:
1155:Middlewares/Third_Party/FreeRTOS/Source/CMSIS_RTOS/cmsis_os.c ****     return event;
 2255              		.loc 1 1155 18 view .LVU542
 2256 004a 0092     		str	r2, [sp]
1156:Middlewares/Third_Party/FreeRTOS/Source/CMSIS_RTOS/cmsis_os.c ****   }
 2257              		.loc 1 1156 5 is_stmt 1 view .LVU543
1156:Middlewares/Third_Party/FreeRTOS/Source/CMSIS_RTOS/cmsis_os.c ****   }
 2258              		.loc 1 1156 12 is_stmt 0 view .LVU544
 2259 004c 0200     		movs	r2, r0
 2260 004e 23CB     		ldmia	r3!, {r0, r1, r5}
 2261 0050 23C2     		stmia	r2!, {r0, r1, r5}
 2262              	.LVL211:
1156:Middlewares/Third_Party/FreeRTOS/Source/CMSIS_RTOS/cmsis_os.c ****   }
ARM GAS  /tmp/ccAhcryT.s 			page 64


 2263              		.loc 1 1156 12 view .LVU545
 2264 0052 15E0     		b	.L147
 2265              	.LVL212:
 2266              	.L160:
1163:Middlewares/Third_Party/FreeRTOS/Source/CMSIS_RTOS/cmsis_os.c ****   }
 2267              		.loc 1 1163 11 view .LVU546
 2268 0054 0126     		movs	r6, #1
 2269 0056 7642     		rsbs	r6, r6, #0
 2270 0058 E0E7     		b	.L150
 2271              	.LVL213:
 2272              	.L161:
1175:Middlewares/Third_Party/FreeRTOS/Source/CMSIS_RTOS/cmsis_os.c ****     }
 2273              		.loc 1 1175 7 is_stmt 1 view .LVU547
1175:Middlewares/Third_Party/FreeRTOS/Source/CMSIS_RTOS/cmsis_os.c ****     }
 2274              		.loc 1 1175 20 is_stmt 0 view .LVU548
 2275 005a 1023     		movs	r3, #16
 2276 005c 0093     		str	r3, [sp]
 2277 005e EAE7     		b	.L153
 2278              	.L151:
1181:Middlewares/Third_Party/FreeRTOS/Source/CMSIS_RTOS/cmsis_os.c ****   }
1182:Middlewares/Third_Party/FreeRTOS/Source/CMSIS_RTOS/cmsis_os.c ****   else {
1183:Middlewares/Third_Party/FreeRTOS/Source/CMSIS_RTOS/cmsis_os.c ****     if (xQueueReceive(queue_id, &event.value.v, ticks) == pdTRUE) {
 2279              		.loc 1 1183 5 is_stmt 1 view .LVU549
 2280              		.loc 1 1183 9 is_stmt 0 view .LVU550
 2281 0060 0023     		movs	r3, #0
 2282 0062 3200     		movs	r2, r6
 2283 0064 01A9     		add	r1, sp, #4
 2284 0066 2800     		movs	r0, r5
 2285 0068 FFF7FEFF 		bl	xQueueGenericReceive
 2286              	.LVL214:
 2287              		.loc 1 1183 8 view .LVU551
 2288 006c 0128     		cmp	r0, #1
 2289 006e 0AD0     		beq	.L162
1184:Middlewares/Third_Party/FreeRTOS/Source/CMSIS_RTOS/cmsis_os.c ****       /* We have mail */
1185:Middlewares/Third_Party/FreeRTOS/Source/CMSIS_RTOS/cmsis_os.c ****       event.status = osEventMessage;
1186:Middlewares/Third_Party/FreeRTOS/Source/CMSIS_RTOS/cmsis_os.c ****     }
1187:Middlewares/Third_Party/FreeRTOS/Source/CMSIS_RTOS/cmsis_os.c ****     else {
1188:Middlewares/Third_Party/FreeRTOS/Source/CMSIS_RTOS/cmsis_os.c ****       event.status = (ticks == 0) ? osOK : osEventTimeout;
 2290              		.loc 1 1188 7 is_stmt 1 view .LVU552
 2291              		.loc 1 1188 42 is_stmt 0 view .LVU553
 2292 0070 002E     		cmp	r6, #0
 2293 0072 0BD1     		bne	.L158
 2294 0074 0023     		movs	r3, #0
 2295              	.L156:
 2296              		.loc 1 1188 20 discriminator 4 view .LVU554
 2297 0076 0093     		str	r3, [sp]
 2298              	.L154:
1189:Middlewares/Third_Party/FreeRTOS/Source/CMSIS_RTOS/cmsis_os.c ****     }
1190:Middlewares/Third_Party/FreeRTOS/Source/CMSIS_RTOS/cmsis_os.c ****   }
1191:Middlewares/Third_Party/FreeRTOS/Source/CMSIS_RTOS/cmsis_os.c ****   
1192:Middlewares/Third_Party/FreeRTOS/Source/CMSIS_RTOS/cmsis_os.c ****   return event;
 2299              		.loc 1 1192 3 is_stmt 1 view .LVU555
 2300              		.loc 1 1192 10 is_stmt 0 view .LVU556
 2301 0078 6B46     		mov	r3, sp
 2302 007a 2200     		movs	r2, r4
 2303 007c 23CB     		ldmia	r3!, {r0, r1, r5}
 2304 007e 23C2     		stmia	r2!, {r0, r1, r5}
ARM GAS  /tmp/ccAhcryT.s 			page 65


 2305              	.LVL215:
 2306              	.L147:
1193:Middlewares/Third_Party/FreeRTOS/Source/CMSIS_RTOS/cmsis_os.c **** }
 2307              		.loc 1 1193 1 view .LVU557
 2308 0080 2000     		movs	r0, r4
 2309 0082 04B0     		add	sp, sp, #16
 2310              		@ sp needed
 2311              	.LVL216:
 2312              		.loc 1 1193 1 view .LVU558
 2313 0084 70BD     		pop	{r4, r5, r6, pc}
 2314              	.LVL217:
 2315              	.L162:
1185:Middlewares/Third_Party/FreeRTOS/Source/CMSIS_RTOS/cmsis_os.c ****     }
 2316              		.loc 1 1185 7 is_stmt 1 view .LVU559
1185:Middlewares/Third_Party/FreeRTOS/Source/CMSIS_RTOS/cmsis_os.c ****     }
 2317              		.loc 1 1185 20 is_stmt 0 view .LVU560
 2318 0086 1023     		movs	r3, #16
 2319 0088 0093     		str	r3, [sp]
 2320 008a F5E7     		b	.L154
 2321              	.L158:
1188:Middlewares/Third_Party/FreeRTOS/Source/CMSIS_RTOS/cmsis_os.c ****     }
 2322              		.loc 1 1188 42 view .LVU561
 2323 008c 4023     		movs	r3, #64
 2324 008e F2E7     		b	.L156
 2325              	.L164:
 2326              		.align	2
 2327              	.L163:
 2328 0090 04ED00E0 		.word	-536810236
 2329              		.cfi_endproc
 2330              	.LFE58:
 2332              		.section	.text.osMailCreate,"ax",%progbits
 2333              		.align	1
 2334              		.global	osMailCreate
 2335              		.syntax unified
 2336              		.code	16
 2337              		.thumb_func
 2338              		.fpu softvfp
 2340              	osMailCreate:
 2341              	.LVL218:
 2342              	.LFB59:
1194:Middlewares/Third_Party/FreeRTOS/Source/CMSIS_RTOS/cmsis_os.c **** 
1195:Middlewares/Third_Party/FreeRTOS/Source/CMSIS_RTOS/cmsis_os.c **** #endif     /* Use Message Queues */
1196:Middlewares/Third_Party/FreeRTOS/Source/CMSIS_RTOS/cmsis_os.c **** 
1197:Middlewares/Third_Party/FreeRTOS/Source/CMSIS_RTOS/cmsis_os.c **** /********************   Mail Queue Management Functions  ***********************/
1198:Middlewares/Third_Party/FreeRTOS/Source/CMSIS_RTOS/cmsis_os.c **** #if (defined (osFeature_MailQ)  &&  (osFeature_MailQ != 0))  /* Use Mail Queues */
1199:Middlewares/Third_Party/FreeRTOS/Source/CMSIS_RTOS/cmsis_os.c **** 
1200:Middlewares/Third_Party/FreeRTOS/Source/CMSIS_RTOS/cmsis_os.c **** 
1201:Middlewares/Third_Party/FreeRTOS/Source/CMSIS_RTOS/cmsis_os.c **** typedef struct os_mailQ_cb {
1202:Middlewares/Third_Party/FreeRTOS/Source/CMSIS_RTOS/cmsis_os.c ****   const osMailQDef_t *queue_def;
1203:Middlewares/Third_Party/FreeRTOS/Source/CMSIS_RTOS/cmsis_os.c ****   QueueHandle_t handle;
1204:Middlewares/Third_Party/FreeRTOS/Source/CMSIS_RTOS/cmsis_os.c ****   osPoolId pool;
1205:Middlewares/Third_Party/FreeRTOS/Source/CMSIS_RTOS/cmsis_os.c **** } os_mailQ_cb_t;
1206:Middlewares/Third_Party/FreeRTOS/Source/CMSIS_RTOS/cmsis_os.c **** 
1207:Middlewares/Third_Party/FreeRTOS/Source/CMSIS_RTOS/cmsis_os.c **** /**
1208:Middlewares/Third_Party/FreeRTOS/Source/CMSIS_RTOS/cmsis_os.c **** * @brief Create and Initialize mail queue
1209:Middlewares/Third_Party/FreeRTOS/Source/CMSIS_RTOS/cmsis_os.c **** * @param  queue_def     reference to the mail queue definition obtain with \ref osMailQ
1210:Middlewares/Third_Party/FreeRTOS/Source/CMSIS_RTOS/cmsis_os.c **** * @param   thread_id     thread ID (obtained by \ref osThreadCreate or \ref osThreadGetId) or NULL.
ARM GAS  /tmp/ccAhcryT.s 			page 66


1211:Middlewares/Third_Party/FreeRTOS/Source/CMSIS_RTOS/cmsis_os.c **** * @retval mail queue ID for reference by other functions or NULL in case of error.
1212:Middlewares/Third_Party/FreeRTOS/Source/CMSIS_RTOS/cmsis_os.c **** * @note   MUST REMAIN UNCHANGED: \b osMailCreate shall be consistent in every CMSIS-RTOS.
1213:Middlewares/Third_Party/FreeRTOS/Source/CMSIS_RTOS/cmsis_os.c **** */
1214:Middlewares/Third_Party/FreeRTOS/Source/CMSIS_RTOS/cmsis_os.c **** osMailQId osMailCreate (const osMailQDef_t *queue_def, osThreadId thread_id)
1215:Middlewares/Third_Party/FreeRTOS/Source/CMSIS_RTOS/cmsis_os.c **** {
 2343              		.loc 1 1215 1 is_stmt 1 view -0
 2344              		.cfi_startproc
 2345              		@ args = 0, pretend = 0, frame = 16
 2346              		@ frame_needed = 0, uses_anonymous_args = 0
 2347              		.loc 1 1215 1 is_stmt 0 view .LVU563
 2348 0000 30B5     		push	{r4, r5, lr}
 2349              	.LCFI36:
 2350              		.cfi_def_cfa_offset 12
 2351              		.cfi_offset 4, -12
 2352              		.cfi_offset 5, -8
 2353              		.cfi_offset 14, -4
 2354 0002 85B0     		sub	sp, sp, #20
 2355              	.LCFI37:
 2356              		.cfi_def_cfa_offset 32
 2357 0004 0400     		movs	r4, r0
1216:Middlewares/Third_Party/FreeRTOS/Source/CMSIS_RTOS/cmsis_os.c **** #if (configSUPPORT_DYNAMIC_ALLOCATION == 1)
1217:Middlewares/Third_Party/FreeRTOS/Source/CMSIS_RTOS/cmsis_os.c ****   (void) thread_id;
 2358              		.loc 1 1217 3 is_stmt 1 view .LVU564
1218:Middlewares/Third_Party/FreeRTOS/Source/CMSIS_RTOS/cmsis_os.c ****   
1219:Middlewares/Third_Party/FreeRTOS/Source/CMSIS_RTOS/cmsis_os.c ****   osPoolDef_t pool_def = {queue_def->queue_sz, queue_def->item_sz, NULL};
 2359              		.loc 1 1219 3 view .LVU565
 2360              		.loc 1 1219 15 is_stmt 0 view .LVU566
 2361 0006 0368     		ldr	r3, [r0]
 2362 0008 0193     		str	r3, [sp, #4]
 2363 000a 4368     		ldr	r3, [r0, #4]
 2364 000c 0293     		str	r3, [sp, #8]
 2365 000e 0023     		movs	r3, #0
 2366 0010 0393     		str	r3, [sp, #12]
1220:Middlewares/Third_Party/FreeRTOS/Source/CMSIS_RTOS/cmsis_os.c ****   
1221:Middlewares/Third_Party/FreeRTOS/Source/CMSIS_RTOS/cmsis_os.c ****   /* Create a mail queue control block */
1222:Middlewares/Third_Party/FreeRTOS/Source/CMSIS_RTOS/cmsis_os.c **** 
1223:Middlewares/Third_Party/FreeRTOS/Source/CMSIS_RTOS/cmsis_os.c ****   *(queue_def->cb) = pvPortMalloc(sizeof(struct os_mailQ_cb));
 2367              		.loc 1 1223 3 is_stmt 1 view .LVU567
 2368              		.loc 1 1223 14 is_stmt 0 view .LVU568
 2369 0012 8568     		ldr	r5, [r0, #8]
 2370              		.loc 1 1223 22 view .LVU569
 2371 0014 0C20     		movs	r0, #12
 2372              	.LVL219:
 2373              		.loc 1 1223 22 view .LVU570
 2374 0016 FFF7FEFF 		bl	pvPortMalloc
 2375              	.LVL220:
 2376              		.loc 1 1223 20 view .LVU571
 2377 001a 2860     		str	r0, [r5]
1224:Middlewares/Third_Party/FreeRTOS/Source/CMSIS_RTOS/cmsis_os.c **** 
1225:Middlewares/Third_Party/FreeRTOS/Source/CMSIS_RTOS/cmsis_os.c ****   if (*(queue_def->cb) == NULL) {
 2378              		.loc 1 1225 3 is_stmt 1 view .LVU572
 2379              		.loc 1 1225 18 is_stmt 0 view .LVU573
 2380 001c A368     		ldr	r3, [r4, #8]
 2381              		.loc 1 1225 7 view .LVU574
 2382 001e 1B68     		ldr	r3, [r3]
 2383              		.loc 1 1225 6 view .LVU575
 2384 0020 002B     		cmp	r3, #0
ARM GAS  /tmp/ccAhcryT.s 			page 67


 2385 0022 21D0     		beq	.L168
1226:Middlewares/Third_Party/FreeRTOS/Source/CMSIS_RTOS/cmsis_os.c ****     return NULL;
1227:Middlewares/Third_Party/FreeRTOS/Source/CMSIS_RTOS/cmsis_os.c ****   }
1228:Middlewares/Third_Party/FreeRTOS/Source/CMSIS_RTOS/cmsis_os.c ****   (*(queue_def->cb))->queue_def = queue_def;
 2386              		.loc 1 1228 3 is_stmt 1 view .LVU576
 2387              		.loc 1 1228 33 is_stmt 0 view .LVU577
 2388 0024 1C60     		str	r4, [r3]
1229:Middlewares/Third_Party/FreeRTOS/Source/CMSIS_RTOS/cmsis_os.c ****   
1230:Middlewares/Third_Party/FreeRTOS/Source/CMSIS_RTOS/cmsis_os.c ****   /* Create a queue in FreeRTOS */
1231:Middlewares/Third_Party/FreeRTOS/Source/CMSIS_RTOS/cmsis_os.c ****   (*(queue_def->cb))->handle = xQueueCreate(queue_def->queue_sz, sizeof(void *));
 2389              		.loc 1 1231 3 is_stmt 1 view .LVU578
 2390              		.loc 1 1231 15 is_stmt 0 view .LVU579
 2391 0026 A368     		ldr	r3, [r4, #8]
 2392              		.loc 1 1231 4 view .LVU580
 2393 0028 1D68     		ldr	r5, [r3]
 2394              		.loc 1 1231 32 view .LVU581
 2395 002a 0022     		movs	r2, #0
 2396 002c 0421     		movs	r1, #4
 2397 002e 2068     		ldr	r0, [r4]
 2398 0030 FFF7FEFF 		bl	xQueueGenericCreate
 2399              	.LVL221:
 2400              		.loc 1 1231 30 view .LVU582
 2401 0034 6860     		str	r0, [r5, #4]
1232:Middlewares/Third_Party/FreeRTOS/Source/CMSIS_RTOS/cmsis_os.c **** 
1233:Middlewares/Third_Party/FreeRTOS/Source/CMSIS_RTOS/cmsis_os.c **** 
1234:Middlewares/Third_Party/FreeRTOS/Source/CMSIS_RTOS/cmsis_os.c ****   if ((*(queue_def->cb))->handle == NULL) {
 2402              		.loc 1 1234 3 is_stmt 1 view .LVU583
 2403              		.loc 1 1234 19 is_stmt 0 view .LVU584
 2404 0036 A368     		ldr	r3, [r4, #8]
 2405              		.loc 1 1234 8 view .LVU585
 2406 0038 1D68     		ldr	r5, [r3]
 2407              		.loc 1 1234 6 view .LVU586
 2408 003a 6B68     		ldr	r3, [r5, #4]
 2409 003c 002B     		cmp	r3, #0
 2410 003e 0AD0     		beq	.L169
1235:Middlewares/Third_Party/FreeRTOS/Source/CMSIS_RTOS/cmsis_os.c ****     vPortFree(*(queue_def->cb));
1236:Middlewares/Third_Party/FreeRTOS/Source/CMSIS_RTOS/cmsis_os.c ****     return NULL;
1237:Middlewares/Third_Party/FreeRTOS/Source/CMSIS_RTOS/cmsis_os.c ****   }
1238:Middlewares/Third_Party/FreeRTOS/Source/CMSIS_RTOS/cmsis_os.c ****   
1239:Middlewares/Third_Party/FreeRTOS/Source/CMSIS_RTOS/cmsis_os.c ****   /* Create a mail pool */
1240:Middlewares/Third_Party/FreeRTOS/Source/CMSIS_RTOS/cmsis_os.c ****   (*(queue_def->cb))->pool = osPoolCreate(&pool_def);
 2411              		.loc 1 1240 3 is_stmt 1 view .LVU587
 2412              		.loc 1 1240 30 is_stmt 0 view .LVU588
 2413 0040 01A8     		add	r0, sp, #4
 2414 0042 FFF7FEFF 		bl	osPoolCreate
 2415              	.LVL222:
 2416              		.loc 1 1240 28 view .LVU589
 2417 0046 A860     		str	r0, [r5, #8]
1241:Middlewares/Third_Party/FreeRTOS/Source/CMSIS_RTOS/cmsis_os.c ****   if ((*(queue_def->cb))->pool == NULL) {
 2418              		.loc 1 1241 3 is_stmt 1 view .LVU590
 2419              		.loc 1 1241 19 is_stmt 0 view .LVU591
 2420 0048 A368     		ldr	r3, [r4, #8]
 2421              		.loc 1 1241 8 view .LVU592
 2422 004a 1868     		ldr	r0, [r3]
 2423              		.loc 1 1241 6 view .LVU593
 2424 004c 8368     		ldr	r3, [r0, #8]
 2425 004e 002B     		cmp	r3, #0
ARM GAS  /tmp/ccAhcryT.s 			page 68


 2426 0050 06D0     		beq	.L170
 2427              	.L165:
1242:Middlewares/Third_Party/FreeRTOS/Source/CMSIS_RTOS/cmsis_os.c ****     //TODO: Delete queue. How to do it in FreeRTOS?
1243:Middlewares/Third_Party/FreeRTOS/Source/CMSIS_RTOS/cmsis_os.c ****     vPortFree(*(queue_def->cb));
1244:Middlewares/Third_Party/FreeRTOS/Source/CMSIS_RTOS/cmsis_os.c ****     return NULL;
1245:Middlewares/Third_Party/FreeRTOS/Source/CMSIS_RTOS/cmsis_os.c ****   }
1246:Middlewares/Third_Party/FreeRTOS/Source/CMSIS_RTOS/cmsis_os.c ****   
1247:Middlewares/Third_Party/FreeRTOS/Source/CMSIS_RTOS/cmsis_os.c ****   return *(queue_def->cb);
1248:Middlewares/Third_Party/FreeRTOS/Source/CMSIS_RTOS/cmsis_os.c **** #else
1249:Middlewares/Third_Party/FreeRTOS/Source/CMSIS_RTOS/cmsis_os.c ****   return NULL;
1250:Middlewares/Third_Party/FreeRTOS/Source/CMSIS_RTOS/cmsis_os.c **** #endif
1251:Middlewares/Third_Party/FreeRTOS/Source/CMSIS_RTOS/cmsis_os.c **** }
 2428              		.loc 1 1251 1 view .LVU594
 2429 0052 05B0     		add	sp, sp, #20
 2430              		@ sp needed
 2431              	.LVL223:
 2432              		.loc 1 1251 1 view .LVU595
 2433 0054 30BD     		pop	{r4, r5, pc}
 2434              	.LVL224:
 2435              	.L169:
1235:Middlewares/Third_Party/FreeRTOS/Source/CMSIS_RTOS/cmsis_os.c ****     return NULL;
 2436              		.loc 1 1235 5 is_stmt 1 view .LVU596
 2437 0056 2800     		movs	r0, r5
 2438 0058 FFF7FEFF 		bl	vPortFree
 2439              	.LVL225:
1236:Middlewares/Third_Party/FreeRTOS/Source/CMSIS_RTOS/cmsis_os.c ****   }
 2440              		.loc 1 1236 5 view .LVU597
1236:Middlewares/Third_Party/FreeRTOS/Source/CMSIS_RTOS/cmsis_os.c ****   }
 2441              		.loc 1 1236 12 is_stmt 0 view .LVU598
 2442 005c 0020     		movs	r0, #0
 2443 005e F8E7     		b	.L165
 2444              	.L170:
1243:Middlewares/Third_Party/FreeRTOS/Source/CMSIS_RTOS/cmsis_os.c ****     return NULL;
 2445              		.loc 1 1243 5 is_stmt 1 view .LVU599
 2446 0060 FFF7FEFF 		bl	vPortFree
 2447              	.LVL226:
1244:Middlewares/Third_Party/FreeRTOS/Source/CMSIS_RTOS/cmsis_os.c ****   }
 2448              		.loc 1 1244 5 view .LVU600
1244:Middlewares/Third_Party/FreeRTOS/Source/CMSIS_RTOS/cmsis_os.c ****   }
 2449              		.loc 1 1244 12 is_stmt 0 view .LVU601
 2450 0064 0020     		movs	r0, #0
 2451 0066 F4E7     		b	.L165
 2452              	.L168:
1226:Middlewares/Third_Party/FreeRTOS/Source/CMSIS_RTOS/cmsis_os.c ****   }
 2453              		.loc 1 1226 12 view .LVU602
 2454 0068 0020     		movs	r0, #0
 2455 006a F2E7     		b	.L165
 2456              		.cfi_endproc
 2457              	.LFE59:
 2459              		.section	.text.osMailAlloc,"ax",%progbits
 2460              		.align	1
 2461              		.global	osMailAlloc
 2462              		.syntax unified
 2463              		.code	16
 2464              		.thumb_func
 2465              		.fpu softvfp
 2467              	osMailAlloc:
ARM GAS  /tmp/ccAhcryT.s 			page 69


 2468              	.LVL227:
 2469              	.LFB60:
1252:Middlewares/Third_Party/FreeRTOS/Source/CMSIS_RTOS/cmsis_os.c **** 
1253:Middlewares/Third_Party/FreeRTOS/Source/CMSIS_RTOS/cmsis_os.c **** /**
1254:Middlewares/Third_Party/FreeRTOS/Source/CMSIS_RTOS/cmsis_os.c **** * @brief Allocate a memory block from a mail
1255:Middlewares/Third_Party/FreeRTOS/Source/CMSIS_RTOS/cmsis_os.c **** * @param  queue_id      mail queue ID obtained with \ref osMailCreate.
1256:Middlewares/Third_Party/FreeRTOS/Source/CMSIS_RTOS/cmsis_os.c **** * @param  millisec      timeout value or 0 in case of no time-out.
1257:Middlewares/Third_Party/FreeRTOS/Source/CMSIS_RTOS/cmsis_os.c **** * @retval pointer to memory block that can be filled with mail or NULL in case error.
1258:Middlewares/Third_Party/FreeRTOS/Source/CMSIS_RTOS/cmsis_os.c **** * @note   MUST REMAIN UNCHANGED: \b osMailAlloc shall be consistent in every CMSIS-RTOS.
1259:Middlewares/Third_Party/FreeRTOS/Source/CMSIS_RTOS/cmsis_os.c **** */
1260:Middlewares/Third_Party/FreeRTOS/Source/CMSIS_RTOS/cmsis_os.c **** void *osMailAlloc (osMailQId queue_id, uint32_t millisec)
1261:Middlewares/Third_Party/FreeRTOS/Source/CMSIS_RTOS/cmsis_os.c **** {
 2470              		.loc 1 1261 1 is_stmt 1 view -0
 2471              		.cfi_startproc
 2472              		@ args = 0, pretend = 0, frame = 0
 2473              		@ frame_needed = 0, uses_anonymous_args = 0
 2474              		.loc 1 1261 1 is_stmt 0 view .LVU604
 2475 0000 10B5     		push	{r4, lr}
 2476              	.LCFI38:
 2477              		.cfi_def_cfa_offset 8
 2478              		.cfi_offset 4, -8
 2479              		.cfi_offset 14, -4
1262:Middlewares/Third_Party/FreeRTOS/Source/CMSIS_RTOS/cmsis_os.c ****   (void) millisec;
 2480              		.loc 1 1262 3 is_stmt 1 view .LVU605
1263:Middlewares/Third_Party/FreeRTOS/Source/CMSIS_RTOS/cmsis_os.c ****   void *p;
 2481              		.loc 1 1263 3 view .LVU606
1264:Middlewares/Third_Party/FreeRTOS/Source/CMSIS_RTOS/cmsis_os.c ****   
1265:Middlewares/Third_Party/FreeRTOS/Source/CMSIS_RTOS/cmsis_os.c ****   
1266:Middlewares/Third_Party/FreeRTOS/Source/CMSIS_RTOS/cmsis_os.c ****   if (queue_id == NULL) {
 2482              		.loc 1 1266 3 view .LVU607
 2483              		.loc 1 1266 6 is_stmt 0 view .LVU608
 2484 0002 0028     		cmp	r0, #0
 2485 0004 03D0     		beq	.L173
1267:Middlewares/Third_Party/FreeRTOS/Source/CMSIS_RTOS/cmsis_os.c ****     return NULL;
1268:Middlewares/Third_Party/FreeRTOS/Source/CMSIS_RTOS/cmsis_os.c ****   }
1269:Middlewares/Third_Party/FreeRTOS/Source/CMSIS_RTOS/cmsis_os.c ****   
1270:Middlewares/Third_Party/FreeRTOS/Source/CMSIS_RTOS/cmsis_os.c ****   p = osPoolAlloc(queue_id->pool);
 2486              		.loc 1 1270 3 is_stmt 1 view .LVU609
 2487              		.loc 1 1270 7 is_stmt 0 view .LVU610
 2488 0006 8068     		ldr	r0, [r0, #8]
 2489              	.LVL228:
 2490              		.loc 1 1270 7 view .LVU611
 2491 0008 FFF7FEFF 		bl	osPoolAlloc
 2492              	.LVL229:
1271:Middlewares/Third_Party/FreeRTOS/Source/CMSIS_RTOS/cmsis_os.c ****   
1272:Middlewares/Third_Party/FreeRTOS/Source/CMSIS_RTOS/cmsis_os.c ****   return p;
 2493              		.loc 1 1272 3 is_stmt 1 view .LVU612
 2494              	.L171:
1273:Middlewares/Third_Party/FreeRTOS/Source/CMSIS_RTOS/cmsis_os.c **** }
 2495              		.loc 1 1273 1 is_stmt 0 view .LVU613
 2496              		@ sp needed
 2497 000c 10BD     		pop	{r4, pc}
 2498              	.LVL230:
 2499              	.L173:
1267:Middlewares/Third_Party/FreeRTOS/Source/CMSIS_RTOS/cmsis_os.c ****     return NULL;
 2500              		.loc 1 1267 12 view .LVU614
 2501 000e 0020     		movs	r0, #0
ARM GAS  /tmp/ccAhcryT.s 			page 70


 2502              	.LVL231:
1267:Middlewares/Third_Party/FreeRTOS/Source/CMSIS_RTOS/cmsis_os.c ****     return NULL;
 2503              		.loc 1 1267 12 view .LVU615
 2504 0010 FCE7     		b	.L171
 2505              		.cfi_endproc
 2506              	.LFE60:
 2508              		.section	.text.osMailCAlloc,"ax",%progbits
 2509              		.align	1
 2510              		.global	osMailCAlloc
 2511              		.syntax unified
 2512              		.code	16
 2513              		.thumb_func
 2514              		.fpu softvfp
 2516              	osMailCAlloc:
 2517              	.LVL232:
 2518              	.LFB61:
1274:Middlewares/Third_Party/FreeRTOS/Source/CMSIS_RTOS/cmsis_os.c **** 
1275:Middlewares/Third_Party/FreeRTOS/Source/CMSIS_RTOS/cmsis_os.c **** /**
1276:Middlewares/Third_Party/FreeRTOS/Source/CMSIS_RTOS/cmsis_os.c **** * @brief Allocate a memory block from a mail and set memory block to zero
1277:Middlewares/Third_Party/FreeRTOS/Source/CMSIS_RTOS/cmsis_os.c **** * @param  queue_id      mail queue ID obtained with \ref osMailCreate.
1278:Middlewares/Third_Party/FreeRTOS/Source/CMSIS_RTOS/cmsis_os.c **** * @param  millisec      timeout value or 0 in case of no time-out.
1279:Middlewares/Third_Party/FreeRTOS/Source/CMSIS_RTOS/cmsis_os.c **** * @retval pointer to memory block that can be filled with mail or NULL in case error.
1280:Middlewares/Third_Party/FreeRTOS/Source/CMSIS_RTOS/cmsis_os.c **** * @note   MUST REMAIN UNCHANGED: \b osMailCAlloc shall be consistent in every CMSIS-RTOS.
1281:Middlewares/Third_Party/FreeRTOS/Source/CMSIS_RTOS/cmsis_os.c **** */
1282:Middlewares/Third_Party/FreeRTOS/Source/CMSIS_RTOS/cmsis_os.c **** void *osMailCAlloc (osMailQId queue_id, uint32_t millisec)
1283:Middlewares/Third_Party/FreeRTOS/Source/CMSIS_RTOS/cmsis_os.c **** {
 2519              		.loc 1 1283 1 is_stmt 1 view -0
 2520              		.cfi_startproc
 2521              		@ args = 0, pretend = 0, frame = 0
 2522              		@ frame_needed = 0, uses_anonymous_args = 0
 2523              		.loc 1 1283 1 is_stmt 0 view .LVU617
 2524 0000 10B5     		push	{r4, lr}
 2525              	.LCFI39:
 2526              		.cfi_def_cfa_offset 8
 2527              		.cfi_offset 4, -8
 2528              		.cfi_offset 14, -4
 2529 0002 0400     		movs	r4, r0
1284:Middlewares/Third_Party/FreeRTOS/Source/CMSIS_RTOS/cmsis_os.c ****   uint32_t i;
 2530              		.loc 1 1284 3 is_stmt 1 view .LVU618
1285:Middlewares/Third_Party/FreeRTOS/Source/CMSIS_RTOS/cmsis_os.c ****   void *p = osMailAlloc(queue_id, millisec);
 2531              		.loc 1 1285 3 view .LVU619
 2532              		.loc 1 1285 13 is_stmt 0 view .LVU620
 2533 0004 FFF7FEFF 		bl	osMailAlloc
 2534              	.LVL233:
1286:Middlewares/Third_Party/FreeRTOS/Source/CMSIS_RTOS/cmsis_os.c ****   
1287:Middlewares/Third_Party/FreeRTOS/Source/CMSIS_RTOS/cmsis_os.c ****   if (p) {
 2535              		.loc 1 1287 3 is_stmt 1 view .LVU621
 2536              		.loc 1 1287 6 is_stmt 0 view .LVU622
 2537 0008 0028     		cmp	r0, #0
 2538 000a 09D0     		beq	.L174
1288:Middlewares/Third_Party/FreeRTOS/Source/CMSIS_RTOS/cmsis_os.c ****     for (i = 0; i < queue_id->queue_def->item_sz; i++) {
 2539              		.loc 1 1288 12 view .LVU623
 2540 000c 0023     		movs	r3, #0
 2541              	.L175:
 2542              	.LVL234:
 2543              		.loc 1 1288 29 discriminator 1 view .LVU624
 2544 000e 2268     		ldr	r2, [r4]
ARM GAS  /tmp/ccAhcryT.s 			page 71


 2545              		.loc 1 1288 40 discriminator 1 view .LVU625
 2546 0010 5268     		ldr	r2, [r2, #4]
 2547              		.loc 1 1288 5 discriminator 1 view .LVU626
 2548 0012 9A42     		cmp	r2, r3
 2549 0014 04D9     		bls	.L174
1289:Middlewares/Third_Party/FreeRTOS/Source/CMSIS_RTOS/cmsis_os.c ****       ((uint8_t *)p)[i] = 0;
 2550              		.loc 1 1289 7 is_stmt 1 discriminator 3 view .LVU627
 2551              		.loc 1 1289 21 is_stmt 0 discriminator 3 view .LVU628
 2552 0016 C218     		adds	r2, r0, r3
 2553              		.loc 1 1289 25 discriminator 3 view .LVU629
 2554 0018 0021     		movs	r1, #0
 2555 001a 1170     		strb	r1, [r2]
1288:Middlewares/Third_Party/FreeRTOS/Source/CMSIS_RTOS/cmsis_os.c ****     for (i = 0; i < queue_id->queue_def->item_sz; i++) {
 2556              		.loc 1 1288 52 discriminator 3 view .LVU630
 2557 001c 0133     		adds	r3, r3, #1
 2558              	.LVL235:
1288:Middlewares/Third_Party/FreeRTOS/Source/CMSIS_RTOS/cmsis_os.c ****     for (i = 0; i < queue_id->queue_def->item_sz; i++) {
 2559              		.loc 1 1288 52 discriminator 3 view .LVU631
 2560 001e F6E7     		b	.L175
 2561              	.LVL236:
 2562              	.L174:
1290:Middlewares/Third_Party/FreeRTOS/Source/CMSIS_RTOS/cmsis_os.c ****     }
1291:Middlewares/Third_Party/FreeRTOS/Source/CMSIS_RTOS/cmsis_os.c ****   }
1292:Middlewares/Third_Party/FreeRTOS/Source/CMSIS_RTOS/cmsis_os.c ****   
1293:Middlewares/Third_Party/FreeRTOS/Source/CMSIS_RTOS/cmsis_os.c ****   return p;
1294:Middlewares/Third_Party/FreeRTOS/Source/CMSIS_RTOS/cmsis_os.c **** }
 2563              		.loc 1 1294 1 view .LVU632
 2564              		@ sp needed
 2565              	.LVL237:
 2566              		.loc 1 1294 1 view .LVU633
 2567 0020 10BD     		pop	{r4, pc}
 2568              		.cfi_endproc
 2569              	.LFE61:
 2571              		.section	.text.osMailPut,"ax",%progbits
 2572              		.align	1
 2573              		.global	osMailPut
 2574              		.syntax unified
 2575              		.code	16
 2576              		.thumb_func
 2577              		.fpu softvfp
 2579              	osMailPut:
 2580              	.LVL238:
 2581              	.LFB62:
1295:Middlewares/Third_Party/FreeRTOS/Source/CMSIS_RTOS/cmsis_os.c **** 
1296:Middlewares/Third_Party/FreeRTOS/Source/CMSIS_RTOS/cmsis_os.c **** /**
1297:Middlewares/Third_Party/FreeRTOS/Source/CMSIS_RTOS/cmsis_os.c **** * @brief Put a mail to a queue
1298:Middlewares/Third_Party/FreeRTOS/Source/CMSIS_RTOS/cmsis_os.c **** * @param  queue_id      mail queue ID obtained with \ref osMailCreate.
1299:Middlewares/Third_Party/FreeRTOS/Source/CMSIS_RTOS/cmsis_os.c **** * @param  mail          memory block previously allocated with \ref osMailAlloc or \ref osMailCAllo
1300:Middlewares/Third_Party/FreeRTOS/Source/CMSIS_RTOS/cmsis_os.c **** * @retval status code that indicates the execution status of the function.
1301:Middlewares/Third_Party/FreeRTOS/Source/CMSIS_RTOS/cmsis_os.c **** * @note   MUST REMAIN UNCHANGED: \b osMailPut shall be consistent in every CMSIS-RTOS.
1302:Middlewares/Third_Party/FreeRTOS/Source/CMSIS_RTOS/cmsis_os.c **** */
1303:Middlewares/Third_Party/FreeRTOS/Source/CMSIS_RTOS/cmsis_os.c **** osStatus osMailPut (osMailQId queue_id, void *mail)
1304:Middlewares/Third_Party/FreeRTOS/Source/CMSIS_RTOS/cmsis_os.c **** {
 2582              		.loc 1 1304 1 is_stmt 1 view -0
 2583              		.cfi_startproc
 2584              		@ args = 0, pretend = 0, frame = 16
 2585              		@ frame_needed = 0, uses_anonymous_args = 0
ARM GAS  /tmp/ccAhcryT.s 			page 72


 2586              		.loc 1 1304 1 is_stmt 0 view .LVU635
 2587 0000 10B5     		push	{r4, lr}
 2588              	.LCFI40:
 2589              		.cfi_def_cfa_offset 8
 2590              		.cfi_offset 4, -8
 2591              		.cfi_offset 14, -4
 2592 0002 84B0     		sub	sp, sp, #16
 2593              	.LCFI41:
 2594              		.cfi_def_cfa_offset 24
 2595 0004 041E     		subs	r4, r0, #0
 2596 0006 0191     		str	r1, [sp, #4]
1305:Middlewares/Third_Party/FreeRTOS/Source/CMSIS_RTOS/cmsis_os.c ****   portBASE_TYPE taskWoken;
 2597              		.loc 1 1305 3 is_stmt 1 view .LVU636
1306:Middlewares/Third_Party/FreeRTOS/Source/CMSIS_RTOS/cmsis_os.c ****   
1307:Middlewares/Third_Party/FreeRTOS/Source/CMSIS_RTOS/cmsis_os.c ****   
1308:Middlewares/Third_Party/FreeRTOS/Source/CMSIS_RTOS/cmsis_os.c ****   if (queue_id == NULL) {
 2598              		.loc 1 1308 3 view .LVU637
 2599              		.loc 1 1308 6 is_stmt 0 view .LVU638
 2600 0008 21D0     		beq	.L182
1309:Middlewares/Third_Party/FreeRTOS/Source/CMSIS_RTOS/cmsis_os.c ****     return osErrorParameter;
1310:Middlewares/Third_Party/FreeRTOS/Source/CMSIS_RTOS/cmsis_os.c ****   }
1311:Middlewares/Third_Party/FreeRTOS/Source/CMSIS_RTOS/cmsis_os.c ****   
1312:Middlewares/Third_Party/FreeRTOS/Source/CMSIS_RTOS/cmsis_os.c ****   taskWoken = pdFALSE;
 2601              		.loc 1 1312 3 is_stmt 1 view .LVU639
 2602              		.loc 1 1312 13 is_stmt 0 view .LVU640
 2603 000a 0023     		movs	r3, #0
 2604 000c 0393     		str	r3, [sp, #12]
1313:Middlewares/Third_Party/FreeRTOS/Source/CMSIS_RTOS/cmsis_os.c ****   
1314:Middlewares/Third_Party/FreeRTOS/Source/CMSIS_RTOS/cmsis_os.c ****   if (inHandlerMode()) {
 2605              		.loc 1 1314 3 is_stmt 1 view .LVU641
 2606              		.loc 1 1314 7 is_stmt 0 view .LVU642
 2607 000e FFF7FEFF 		bl	inHandlerMode
 2608              	.LVL239:
 2609              		.loc 1 1314 6 view .LVU643
 2610 0012 0028     		cmp	r0, #0
 2611 0014 10D0     		beq	.L181
1315:Middlewares/Third_Party/FreeRTOS/Source/CMSIS_RTOS/cmsis_os.c ****     if (xQueueSendFromISR(queue_id->handle, &mail, &taskWoken) != pdTRUE) {
 2612              		.loc 1 1315 5 is_stmt 1 view .LVU644
 2613              		.loc 1 1315 9 is_stmt 0 view .LVU645
 2614 0016 6068     		ldr	r0, [r4, #4]
 2615 0018 0023     		movs	r3, #0
 2616 001a 03AA     		add	r2, sp, #12
 2617 001c 01A9     		add	r1, sp, #4
 2618 001e FFF7FEFF 		bl	xQueueGenericSendFromISR
 2619              	.LVL240:
 2620              		.loc 1 1315 8 view .LVU646
 2621 0022 0128     		cmp	r0, #1
 2622 0024 15D1     		bne	.L183
1316:Middlewares/Third_Party/FreeRTOS/Source/CMSIS_RTOS/cmsis_os.c ****       return osErrorOS;
1317:Middlewares/Third_Party/FreeRTOS/Source/CMSIS_RTOS/cmsis_os.c ****     }
1318:Middlewares/Third_Party/FreeRTOS/Source/CMSIS_RTOS/cmsis_os.c ****     portEND_SWITCHING_ISR(taskWoken);
 2623              		.loc 1 1318 5 is_stmt 1 view .LVU647
 2624 0026 039B     		ldr	r3, [sp, #12]
 2625 0028 002B     		cmp	r3, #0
 2626 002a 14D0     		beq	.L184
 2627              		.loc 1 1318 5 discriminator 1 view .LVU648
 2628 002c 0C4B     		ldr	r3, .L186
ARM GAS  /tmp/ccAhcryT.s 			page 73


 2629 002e 8022     		movs	r2, #128
 2630 0030 5205     		lsls	r2, r2, #21
 2631 0032 1A60     		str	r2, [r3]
1319:Middlewares/Third_Party/FreeRTOS/Source/CMSIS_RTOS/cmsis_os.c ****   }
1320:Middlewares/Third_Party/FreeRTOS/Source/CMSIS_RTOS/cmsis_os.c ****   else {
1321:Middlewares/Third_Party/FreeRTOS/Source/CMSIS_RTOS/cmsis_os.c ****     if (xQueueSend(queue_id->handle, &mail, 0) != pdTRUE) { 
1322:Middlewares/Third_Party/FreeRTOS/Source/CMSIS_RTOS/cmsis_os.c ****       return osErrorOS;
1323:Middlewares/Third_Party/FreeRTOS/Source/CMSIS_RTOS/cmsis_os.c ****     }
1324:Middlewares/Third_Party/FreeRTOS/Source/CMSIS_RTOS/cmsis_os.c ****   }
1325:Middlewares/Third_Party/FreeRTOS/Source/CMSIS_RTOS/cmsis_os.c ****   
1326:Middlewares/Third_Party/FreeRTOS/Source/CMSIS_RTOS/cmsis_os.c ****   return osOK;
 2632              		.loc 1 1326 10 is_stmt 0 discriminator 1 view .LVU649
 2633 0034 0020     		movs	r0, #0
 2634 0036 08E0     		b	.L179
 2635              	.L181:
1321:Middlewares/Third_Party/FreeRTOS/Source/CMSIS_RTOS/cmsis_os.c ****       return osErrorOS;
 2636              		.loc 1 1321 5 is_stmt 1 view .LVU650
1321:Middlewares/Third_Party/FreeRTOS/Source/CMSIS_RTOS/cmsis_os.c ****       return osErrorOS;
 2637              		.loc 1 1321 9 is_stmt 0 view .LVU651
 2638 0038 6068     		ldr	r0, [r4, #4]
 2639 003a 0023     		movs	r3, #0
 2640 003c 0022     		movs	r2, #0
 2641 003e 01A9     		add	r1, sp, #4
 2642 0040 FFF7FEFF 		bl	xQueueGenericSend
 2643              	.LVL241:
1321:Middlewares/Third_Party/FreeRTOS/Source/CMSIS_RTOS/cmsis_os.c ****       return osErrorOS;
 2644              		.loc 1 1321 8 view .LVU652
 2645 0044 0128     		cmp	r0, #1
 2646 0046 08D1     		bne	.L185
 2647              		.loc 1 1326 10 view .LVU653
 2648 0048 0020     		movs	r0, #0
 2649              	.L179:
1327:Middlewares/Third_Party/FreeRTOS/Source/CMSIS_RTOS/cmsis_os.c **** }
 2650              		.loc 1 1327 1 view .LVU654
 2651 004a 04B0     		add	sp, sp, #16
 2652              		@ sp needed
 2653              	.LVL242:
 2654              		.loc 1 1327 1 view .LVU655
 2655 004c 10BD     		pop	{r4, pc}
 2656              	.LVL243:
 2657              	.L182:
1309:Middlewares/Third_Party/FreeRTOS/Source/CMSIS_RTOS/cmsis_os.c ****   }
 2658              		.loc 1 1309 12 view .LVU656
 2659 004e 8020     		movs	r0, #128
 2660              	.LVL244:
1309:Middlewares/Third_Party/FreeRTOS/Source/CMSIS_RTOS/cmsis_os.c ****   }
 2661              		.loc 1 1309 12 view .LVU657
 2662 0050 FBE7     		b	.L179
 2663              	.LVL245:
 2664              	.L183:
1316:Middlewares/Third_Party/FreeRTOS/Source/CMSIS_RTOS/cmsis_os.c ****     }
 2665              		.loc 1 1316 14 view .LVU658
 2666 0052 FF20     		movs	r0, #255
 2667 0054 F9E7     		b	.L179
 2668              	.L184:
1326:Middlewares/Third_Party/FreeRTOS/Source/CMSIS_RTOS/cmsis_os.c **** }
 2669              		.loc 1 1326 10 view .LVU659
ARM GAS  /tmp/ccAhcryT.s 			page 74


 2670 0056 0020     		movs	r0, #0
 2671 0058 F7E7     		b	.L179
 2672              	.L185:
1322:Middlewares/Third_Party/FreeRTOS/Source/CMSIS_RTOS/cmsis_os.c ****     }
 2673              		.loc 1 1322 14 view .LVU660
 2674 005a FF20     		movs	r0, #255
 2675 005c F5E7     		b	.L179
 2676              	.L187:
 2677 005e C046     		.align	2
 2678              	.L186:
 2679 0060 04ED00E0 		.word	-536810236
 2680              		.cfi_endproc
 2681              	.LFE62:
 2683              		.section	.text.osMailGet,"ax",%progbits
 2684              		.align	1
 2685              		.global	osMailGet
 2686              		.syntax unified
 2687              		.code	16
 2688              		.thumb_func
 2689              		.fpu softvfp
 2691              	osMailGet:
 2692              	.LVL246:
 2693              	.LFB63:
1328:Middlewares/Third_Party/FreeRTOS/Source/CMSIS_RTOS/cmsis_os.c **** 
1329:Middlewares/Third_Party/FreeRTOS/Source/CMSIS_RTOS/cmsis_os.c **** /**
1330:Middlewares/Third_Party/FreeRTOS/Source/CMSIS_RTOS/cmsis_os.c **** * @brief Get a mail from a queue
1331:Middlewares/Third_Party/FreeRTOS/Source/CMSIS_RTOS/cmsis_os.c **** * @param  queue_id   mail queue ID obtained with \ref osMailCreate.
1332:Middlewares/Third_Party/FreeRTOS/Source/CMSIS_RTOS/cmsis_os.c **** * @param millisec    timeout value or 0 in case of no time-out
1333:Middlewares/Third_Party/FreeRTOS/Source/CMSIS_RTOS/cmsis_os.c **** * @retval event that contains mail information or error code.
1334:Middlewares/Third_Party/FreeRTOS/Source/CMSIS_RTOS/cmsis_os.c **** * @note   MUST REMAIN UNCHANGED: \b osMailGet shall be consistent in every CMSIS-RTOS.
1335:Middlewares/Third_Party/FreeRTOS/Source/CMSIS_RTOS/cmsis_os.c **** */
1336:Middlewares/Third_Party/FreeRTOS/Source/CMSIS_RTOS/cmsis_os.c **** osEvent osMailGet (osMailQId queue_id, uint32_t millisec)
1337:Middlewares/Third_Party/FreeRTOS/Source/CMSIS_RTOS/cmsis_os.c **** {
 2694              		.loc 1 1337 1 is_stmt 1 view -0
 2695              		.cfi_startproc
 2696              		@ args = 0, pretend = 0, frame = 16
 2697              		@ frame_needed = 0, uses_anonymous_args = 0
 2698              		.loc 1 1337 1 is_stmt 0 view .LVU662
 2699 0000 70B5     		push	{r4, r5, r6, lr}
 2700              	.LCFI42:
 2701              		.cfi_def_cfa_offset 16
 2702              		.cfi_offset 4, -16
 2703              		.cfi_offset 5, -12
 2704              		.cfi_offset 6, -8
 2705              		.cfi_offset 14, -4
 2706 0002 84B0     		sub	sp, sp, #16
 2707              	.LCFI43:
 2708              		.cfi_def_cfa_offset 32
 2709 0004 0400     		movs	r4, r0
 2710 0006 0D00     		movs	r5, r1
 2711 0008 1600     		movs	r6, r2
1338:Middlewares/Third_Party/FreeRTOS/Source/CMSIS_RTOS/cmsis_os.c ****   portBASE_TYPE taskWoken;
 2712              		.loc 1 1338 3 is_stmt 1 view .LVU663
1339:Middlewares/Third_Party/FreeRTOS/Source/CMSIS_RTOS/cmsis_os.c ****   TickType_t ticks;
 2713              		.loc 1 1339 3 view .LVU664
1340:Middlewares/Third_Party/FreeRTOS/Source/CMSIS_RTOS/cmsis_os.c ****   osEvent event;
 2714              		.loc 1 1340 3 view .LVU665
ARM GAS  /tmp/ccAhcryT.s 			page 75


1341:Middlewares/Third_Party/FreeRTOS/Source/CMSIS_RTOS/cmsis_os.c ****   
1342:Middlewares/Third_Party/FreeRTOS/Source/CMSIS_RTOS/cmsis_os.c ****   event.def.mail_id = queue_id;
 2715              		.loc 1 1342 3 view .LVU666
 2716              		.loc 1 1342 21 is_stmt 0 view .LVU667
 2717 000a 0291     		str	r1, [sp, #8]
1343:Middlewares/Third_Party/FreeRTOS/Source/CMSIS_RTOS/cmsis_os.c ****   
1344:Middlewares/Third_Party/FreeRTOS/Source/CMSIS_RTOS/cmsis_os.c ****   if (queue_id == NULL) {
 2718              		.loc 1 1344 3 is_stmt 1 view .LVU668
 2719              		.loc 1 1344 6 is_stmt 0 view .LVU669
 2720 000c 0029     		cmp	r1, #0
 2721 000e 18D0     		beq	.L200
1345:Middlewares/Third_Party/FreeRTOS/Source/CMSIS_RTOS/cmsis_os.c ****     event.status = osErrorParameter;
1346:Middlewares/Third_Party/FreeRTOS/Source/CMSIS_RTOS/cmsis_os.c ****     return event;
1347:Middlewares/Third_Party/FreeRTOS/Source/CMSIS_RTOS/cmsis_os.c ****   }
1348:Middlewares/Third_Party/FreeRTOS/Source/CMSIS_RTOS/cmsis_os.c ****   
1349:Middlewares/Third_Party/FreeRTOS/Source/CMSIS_RTOS/cmsis_os.c ****   taskWoken = pdFALSE;
 2722              		.loc 1 1349 3 is_stmt 1 view .LVU670
 2723              		.loc 1 1349 13 is_stmt 0 view .LVU671
 2724 0010 0023     		movs	r3, #0
 2725 0012 0393     		str	r3, [sp, #12]
1350:Middlewares/Third_Party/FreeRTOS/Source/CMSIS_RTOS/cmsis_os.c ****   
1351:Middlewares/Third_Party/FreeRTOS/Source/CMSIS_RTOS/cmsis_os.c ****   ticks = 0;
 2726              		.loc 1 1351 3 is_stmt 1 view .LVU672
 2727              	.LVL247:
1352:Middlewares/Third_Party/FreeRTOS/Source/CMSIS_RTOS/cmsis_os.c ****   if (millisec == osWaitForever) {
 2728              		.loc 1 1352 3 view .LVU673
 2729              		.loc 1 1352 6 is_stmt 0 view .LVU674
 2730 0014 531C     		adds	r3, r2, #1
 2731 0016 1BD0     		beq	.L201
 2732              	.L191:
 2733              	.LVL248:
1353:Middlewares/Third_Party/FreeRTOS/Source/CMSIS_RTOS/cmsis_os.c ****     ticks = portMAX_DELAY;
1354:Middlewares/Third_Party/FreeRTOS/Source/CMSIS_RTOS/cmsis_os.c ****   }
1355:Middlewares/Third_Party/FreeRTOS/Source/CMSIS_RTOS/cmsis_os.c ****   else if (millisec != 0) {
1356:Middlewares/Third_Party/FreeRTOS/Source/CMSIS_RTOS/cmsis_os.c ****     ticks = millisec / portTICK_PERIOD_MS;
1357:Middlewares/Third_Party/FreeRTOS/Source/CMSIS_RTOS/cmsis_os.c ****     if (ticks == 0) {
1358:Middlewares/Third_Party/FreeRTOS/Source/CMSIS_RTOS/cmsis_os.c ****       ticks = 1;
1359:Middlewares/Third_Party/FreeRTOS/Source/CMSIS_RTOS/cmsis_os.c ****     }
1360:Middlewares/Third_Party/FreeRTOS/Source/CMSIS_RTOS/cmsis_os.c ****   }
1361:Middlewares/Third_Party/FreeRTOS/Source/CMSIS_RTOS/cmsis_os.c ****   
1362:Middlewares/Third_Party/FreeRTOS/Source/CMSIS_RTOS/cmsis_os.c ****   if (inHandlerMode()) {
 2734              		.loc 1 1362 3 is_stmt 1 view .LVU675
 2735              		.loc 1 1362 7 is_stmt 0 view .LVU676
 2736 0018 FFF7FEFF 		bl	inHandlerMode
 2737              	.LVL249:
 2738              		.loc 1 1362 6 view .LVU677
 2739 001c 0028     		cmp	r0, #0
 2740 001e 1DD0     		beq	.L192
1363:Middlewares/Third_Party/FreeRTOS/Source/CMSIS_RTOS/cmsis_os.c ****     if (xQueueReceiveFromISR(queue_id->handle, &event.value.p, &taskWoken) == pdTRUE) {
 2741              		.loc 1 1363 5 is_stmt 1 view .LVU678
 2742              		.loc 1 1363 9 is_stmt 0 view .LVU679
 2743 0020 6868     		ldr	r0, [r5, #4]
 2744 0022 03AA     		add	r2, sp, #12
 2745 0024 01A9     		add	r1, sp, #4
 2746 0026 FFF7FEFF 		bl	xQueueReceiveFromISR
 2747              	.LVL250:
 2748              		.loc 1 1363 8 view .LVU680
ARM GAS  /tmp/ccAhcryT.s 			page 76


 2749 002a 0128     		cmp	r0, #1
 2750 002c 13D0     		beq	.L202
1364:Middlewares/Third_Party/FreeRTOS/Source/CMSIS_RTOS/cmsis_os.c ****       /* We have mail */
1365:Middlewares/Third_Party/FreeRTOS/Source/CMSIS_RTOS/cmsis_os.c ****       event.status = osEventMail;
1366:Middlewares/Third_Party/FreeRTOS/Source/CMSIS_RTOS/cmsis_os.c ****     }
1367:Middlewares/Third_Party/FreeRTOS/Source/CMSIS_RTOS/cmsis_os.c ****     else {
1368:Middlewares/Third_Party/FreeRTOS/Source/CMSIS_RTOS/cmsis_os.c ****       event.status = osOK;
 2751              		.loc 1 1368 7 is_stmt 1 view .LVU681
 2752              		.loc 1 1368 20 is_stmt 0 view .LVU682
 2753 002e 0023     		movs	r3, #0
 2754 0030 0093     		str	r3, [sp]
 2755              	.L194:
1369:Middlewares/Third_Party/FreeRTOS/Source/CMSIS_RTOS/cmsis_os.c ****     }
1370:Middlewares/Third_Party/FreeRTOS/Source/CMSIS_RTOS/cmsis_os.c ****     portEND_SWITCHING_ISR(taskWoken);
 2756              		.loc 1 1370 5 is_stmt 1 view .LVU683
 2757 0032 039B     		ldr	r3, [sp, #12]
 2758 0034 002B     		cmp	r3, #0
 2759 0036 1DD0     		beq	.L195
 2760              		.loc 1 1370 5 discriminator 1 view .LVU684
 2761 0038 144B     		ldr	r3, .L204
 2762 003a 8022     		movs	r2, #128
 2763 003c 5205     		lsls	r2, r2, #21
 2764 003e 1A60     		str	r2, [r3]
 2765 0040 18E0     		b	.L195
 2766              	.LVL251:
 2767              	.L200:
1345:Middlewares/Third_Party/FreeRTOS/Source/CMSIS_RTOS/cmsis_os.c ****     return event;
 2768              		.loc 1 1345 5 view .LVU685
1345:Middlewares/Third_Party/FreeRTOS/Source/CMSIS_RTOS/cmsis_os.c ****     return event;
 2769              		.loc 1 1345 18 is_stmt 0 view .LVU686
 2770 0042 6B46     		mov	r3, sp
 2771 0044 8022     		movs	r2, #128
 2772              	.LVL252:
1345:Middlewares/Third_Party/FreeRTOS/Source/CMSIS_RTOS/cmsis_os.c ****     return event;
 2773              		.loc 1 1345 18 view .LVU687
 2774 0046 0092     		str	r2, [sp]
1346:Middlewares/Third_Party/FreeRTOS/Source/CMSIS_RTOS/cmsis_os.c ****   }
 2775              		.loc 1 1346 5 is_stmt 1 view .LVU688
1346:Middlewares/Third_Party/FreeRTOS/Source/CMSIS_RTOS/cmsis_os.c ****   }
 2776              		.loc 1 1346 12 is_stmt 0 view .LVU689
 2777 0048 0200     		movs	r2, r0
 2778 004a 23CB     		ldmia	r3!, {r0, r1, r5}
 2779 004c 23C2     		stmia	r2!, {r0, r1, r5}
 2780              	.LVL253:
1346:Middlewares/Third_Party/FreeRTOS/Source/CMSIS_RTOS/cmsis_os.c ****   }
 2781              		.loc 1 1346 12 view .LVU690
 2782 004e 15E0     		b	.L188
 2783              	.LVL254:
 2784              	.L201:
1353:Middlewares/Third_Party/FreeRTOS/Source/CMSIS_RTOS/cmsis_os.c ****   }
 2785              		.loc 1 1353 11 view .LVU691
 2786 0050 0126     		movs	r6, #1
 2787 0052 7642     		rsbs	r6, r6, #0
 2788 0054 E0E7     		b	.L191
 2789              	.LVL255:
 2790              	.L202:
1365:Middlewares/Third_Party/FreeRTOS/Source/CMSIS_RTOS/cmsis_os.c ****     }
ARM GAS  /tmp/ccAhcryT.s 			page 77


 2791              		.loc 1 1365 7 is_stmt 1 view .LVU692
1365:Middlewares/Third_Party/FreeRTOS/Source/CMSIS_RTOS/cmsis_os.c ****     }
 2792              		.loc 1 1365 20 is_stmt 0 view .LVU693
 2793 0056 2023     		movs	r3, #32
 2794 0058 0093     		str	r3, [sp]
 2795 005a EAE7     		b	.L194
 2796              	.L192:
1371:Middlewares/Third_Party/FreeRTOS/Source/CMSIS_RTOS/cmsis_os.c ****   }
1372:Middlewares/Third_Party/FreeRTOS/Source/CMSIS_RTOS/cmsis_os.c ****   else {
1373:Middlewares/Third_Party/FreeRTOS/Source/CMSIS_RTOS/cmsis_os.c ****     if (xQueueReceive(queue_id->handle, &event.value.p, ticks) == pdTRUE) {
 2797              		.loc 1 1373 5 is_stmt 1 view .LVU694
 2798              		.loc 1 1373 9 is_stmt 0 view .LVU695
 2799 005c 6868     		ldr	r0, [r5, #4]
 2800 005e 0023     		movs	r3, #0
 2801 0060 3200     		movs	r2, r6
 2802 0062 01A9     		add	r1, sp, #4
 2803 0064 FFF7FEFF 		bl	xQueueGenericReceive
 2804              	.LVL256:
 2805              		.loc 1 1373 8 view .LVU696
 2806 0068 0128     		cmp	r0, #1
 2807 006a 0AD0     		beq	.L203
1374:Middlewares/Third_Party/FreeRTOS/Source/CMSIS_RTOS/cmsis_os.c ****       /* We have mail */
1375:Middlewares/Third_Party/FreeRTOS/Source/CMSIS_RTOS/cmsis_os.c ****       event.status = osEventMail;
1376:Middlewares/Third_Party/FreeRTOS/Source/CMSIS_RTOS/cmsis_os.c ****     }
1377:Middlewares/Third_Party/FreeRTOS/Source/CMSIS_RTOS/cmsis_os.c ****     else {
1378:Middlewares/Third_Party/FreeRTOS/Source/CMSIS_RTOS/cmsis_os.c ****       event.status = (ticks == 0) ? osOK : osEventTimeout;
 2808              		.loc 1 1378 7 is_stmt 1 view .LVU697
 2809              		.loc 1 1378 42 is_stmt 0 view .LVU698
 2810 006c 002E     		cmp	r6, #0
 2811 006e 0BD1     		bne	.L199
 2812 0070 0023     		movs	r3, #0
 2813              	.L197:
 2814              		.loc 1 1378 20 discriminator 4 view .LVU699
 2815 0072 0093     		str	r3, [sp]
 2816              	.L195:
1379:Middlewares/Third_Party/FreeRTOS/Source/CMSIS_RTOS/cmsis_os.c ****     }
1380:Middlewares/Third_Party/FreeRTOS/Source/CMSIS_RTOS/cmsis_os.c ****   }
1381:Middlewares/Third_Party/FreeRTOS/Source/CMSIS_RTOS/cmsis_os.c ****   
1382:Middlewares/Third_Party/FreeRTOS/Source/CMSIS_RTOS/cmsis_os.c ****   return event;
 2817              		.loc 1 1382 3 is_stmt 1 view .LVU700
 2818              		.loc 1 1382 10 is_stmt 0 view .LVU701
 2819 0074 6B46     		mov	r3, sp
 2820 0076 2200     		movs	r2, r4
 2821 0078 23CB     		ldmia	r3!, {r0, r1, r5}
 2822 007a 23C2     		stmia	r2!, {r0, r1, r5}
 2823              	.LVL257:
 2824              	.L188:
1383:Middlewares/Third_Party/FreeRTOS/Source/CMSIS_RTOS/cmsis_os.c **** }
 2825              		.loc 1 1383 1 view .LVU702
 2826 007c 2000     		movs	r0, r4
 2827 007e 04B0     		add	sp, sp, #16
 2828              		@ sp needed
 2829              	.LVL258:
 2830              		.loc 1 1383 1 view .LVU703
 2831 0080 70BD     		pop	{r4, r5, r6, pc}
 2832              	.LVL259:
 2833              	.L203:
ARM GAS  /tmp/ccAhcryT.s 			page 78


1375:Middlewares/Third_Party/FreeRTOS/Source/CMSIS_RTOS/cmsis_os.c ****     }
 2834              		.loc 1 1375 7 is_stmt 1 view .LVU704
1375:Middlewares/Third_Party/FreeRTOS/Source/CMSIS_RTOS/cmsis_os.c ****     }
 2835              		.loc 1 1375 20 is_stmt 0 view .LVU705
 2836 0082 2023     		movs	r3, #32
 2837 0084 0093     		str	r3, [sp]
 2838 0086 F5E7     		b	.L195
 2839              	.L199:
1378:Middlewares/Third_Party/FreeRTOS/Source/CMSIS_RTOS/cmsis_os.c ****     }
 2840              		.loc 1 1378 42 view .LVU706
 2841 0088 4023     		movs	r3, #64
 2842 008a F2E7     		b	.L197
 2843              	.L205:
 2844              		.align	2
 2845              	.L204:
 2846 008c 04ED00E0 		.word	-536810236
 2847              		.cfi_endproc
 2848              	.LFE63:
 2850              		.section	.text.osMailFree,"ax",%progbits
 2851              		.align	1
 2852              		.global	osMailFree
 2853              		.syntax unified
 2854              		.code	16
 2855              		.thumb_func
 2856              		.fpu softvfp
 2858              	osMailFree:
 2859              	.LVL260:
 2860              	.LFB64:
1384:Middlewares/Third_Party/FreeRTOS/Source/CMSIS_RTOS/cmsis_os.c **** 
1385:Middlewares/Third_Party/FreeRTOS/Source/CMSIS_RTOS/cmsis_os.c **** /**
1386:Middlewares/Third_Party/FreeRTOS/Source/CMSIS_RTOS/cmsis_os.c **** * @brief Free a memory block from a mail
1387:Middlewares/Third_Party/FreeRTOS/Source/CMSIS_RTOS/cmsis_os.c **** * @param  queue_id mail queue ID obtained with \ref osMailCreate.
1388:Middlewares/Third_Party/FreeRTOS/Source/CMSIS_RTOS/cmsis_os.c **** * @param  mail     pointer to the memory block that was obtained with \ref osMailGet.
1389:Middlewares/Third_Party/FreeRTOS/Source/CMSIS_RTOS/cmsis_os.c **** * @retval status code that indicates the execution status of the function.
1390:Middlewares/Third_Party/FreeRTOS/Source/CMSIS_RTOS/cmsis_os.c **** * @note   MUST REMAIN UNCHANGED: \b osMailFree shall be consistent in every CMSIS-RTOS.
1391:Middlewares/Third_Party/FreeRTOS/Source/CMSIS_RTOS/cmsis_os.c **** */
1392:Middlewares/Third_Party/FreeRTOS/Source/CMSIS_RTOS/cmsis_os.c **** osStatus osMailFree (osMailQId queue_id, void *mail)
1393:Middlewares/Third_Party/FreeRTOS/Source/CMSIS_RTOS/cmsis_os.c **** {
 2861              		.loc 1 1393 1 is_stmt 1 view -0
 2862              		.cfi_startproc
 2863              		@ args = 0, pretend = 0, frame = 0
 2864              		@ frame_needed = 0, uses_anonymous_args = 0
 2865              		.loc 1 1393 1 is_stmt 0 view .LVU708
 2866 0000 10B5     		push	{r4, lr}
 2867              	.LCFI44:
 2868              		.cfi_def_cfa_offset 8
 2869              		.cfi_offset 4, -8
 2870              		.cfi_offset 14, -4
1394:Middlewares/Third_Party/FreeRTOS/Source/CMSIS_RTOS/cmsis_os.c ****   if (queue_id == NULL) {
 2871              		.loc 1 1394 3 is_stmt 1 view .LVU709
 2872              		.loc 1 1394 6 is_stmt 0 view .LVU710
 2873 0002 0028     		cmp	r0, #0
 2874 0004 03D0     		beq	.L208
1395:Middlewares/Third_Party/FreeRTOS/Source/CMSIS_RTOS/cmsis_os.c ****     return osErrorParameter;
1396:Middlewares/Third_Party/FreeRTOS/Source/CMSIS_RTOS/cmsis_os.c ****   }
1397:Middlewares/Third_Party/FreeRTOS/Source/CMSIS_RTOS/cmsis_os.c ****   
1398:Middlewares/Third_Party/FreeRTOS/Source/CMSIS_RTOS/cmsis_os.c ****   return osPoolFree(queue_id->pool, mail);
ARM GAS  /tmp/ccAhcryT.s 			page 79


 2875              		.loc 1 1398 3 is_stmt 1 view .LVU711
 2876              		.loc 1 1398 10 is_stmt 0 view .LVU712
 2877 0006 8068     		ldr	r0, [r0, #8]
 2878              	.LVL261:
 2879              		.loc 1 1398 10 view .LVU713
 2880 0008 FFF7FEFF 		bl	osPoolFree
 2881              	.LVL262:
 2882              	.L206:
1399:Middlewares/Third_Party/FreeRTOS/Source/CMSIS_RTOS/cmsis_os.c **** }
 2883              		.loc 1 1399 1 view .LVU714
 2884              		@ sp needed
 2885 000c 10BD     		pop	{r4, pc}
 2886              	.LVL263:
 2887              	.L208:
1395:Middlewares/Third_Party/FreeRTOS/Source/CMSIS_RTOS/cmsis_os.c ****     return osErrorParameter;
 2888              		.loc 1 1395 12 view .LVU715
 2889 000e 8020     		movs	r0, #128
 2890              	.LVL264:
1395:Middlewares/Third_Party/FreeRTOS/Source/CMSIS_RTOS/cmsis_os.c ****     return osErrorParameter;
 2891              		.loc 1 1395 12 view .LVU716
 2892 0010 FCE7     		b	.L206
 2893              		.cfi_endproc
 2894              	.LFE64:
 2896              		.section	.text.osSystickHandler,"ax",%progbits
 2897              		.align	1
 2898              		.global	osSystickHandler
 2899              		.syntax unified
 2900              		.code	16
 2901              		.thumb_func
 2902              		.fpu softvfp
 2904              	osSystickHandler:
 2905              	.LFB65:
1400:Middlewares/Third_Party/FreeRTOS/Source/CMSIS_RTOS/cmsis_os.c **** #endif  /* Use Mail Queues */
1401:Middlewares/Third_Party/FreeRTOS/Source/CMSIS_RTOS/cmsis_os.c **** 
1402:Middlewares/Third_Party/FreeRTOS/Source/CMSIS_RTOS/cmsis_os.c **** /*************************** Additional specific APIs to Free RTOS ************/
1403:Middlewares/Third_Party/FreeRTOS/Source/CMSIS_RTOS/cmsis_os.c **** /**
1404:Middlewares/Third_Party/FreeRTOS/Source/CMSIS_RTOS/cmsis_os.c **** * @brief  Handles the tick increment
1405:Middlewares/Third_Party/FreeRTOS/Source/CMSIS_RTOS/cmsis_os.c **** * @param  none.
1406:Middlewares/Third_Party/FreeRTOS/Source/CMSIS_RTOS/cmsis_os.c **** * @retval none.
1407:Middlewares/Third_Party/FreeRTOS/Source/CMSIS_RTOS/cmsis_os.c **** */
1408:Middlewares/Third_Party/FreeRTOS/Source/CMSIS_RTOS/cmsis_os.c **** void osSystickHandler(void)
1409:Middlewares/Third_Party/FreeRTOS/Source/CMSIS_RTOS/cmsis_os.c **** {
 2906              		.loc 1 1409 1 is_stmt 1 view -0
 2907              		.cfi_startproc
 2908              		@ args = 0, pretend = 0, frame = 0
 2909              		@ frame_needed = 0, uses_anonymous_args = 0
 2910 0000 10B5     		push	{r4, lr}
 2911              	.LCFI45:
 2912              		.cfi_def_cfa_offset 8
 2913              		.cfi_offset 4, -8
 2914              		.cfi_offset 14, -4
1410:Middlewares/Third_Party/FreeRTOS/Source/CMSIS_RTOS/cmsis_os.c **** 
1411:Middlewares/Third_Party/FreeRTOS/Source/CMSIS_RTOS/cmsis_os.c **** #if (INCLUDE_xTaskGetSchedulerState  == 1 )
1412:Middlewares/Third_Party/FreeRTOS/Source/CMSIS_RTOS/cmsis_os.c ****   if (xTaskGetSchedulerState() != taskSCHEDULER_NOT_STARTED)
 2915              		.loc 1 1412 3 view .LVU718
 2916              		.loc 1 1412 7 is_stmt 0 view .LVU719
 2917 0002 FFF7FEFF 		bl	xTaskGetSchedulerState
ARM GAS  /tmp/ccAhcryT.s 			page 80


 2918              	.LVL265:
 2919              		.loc 1 1412 6 view .LVU720
 2920 0006 0128     		cmp	r0, #1
 2921 0008 00D1     		bne	.L211
 2922              	.L209:
1413:Middlewares/Third_Party/FreeRTOS/Source/CMSIS_RTOS/cmsis_os.c ****   {
1414:Middlewares/Third_Party/FreeRTOS/Source/CMSIS_RTOS/cmsis_os.c **** #endif  /* INCLUDE_xTaskGetSchedulerState */  
1415:Middlewares/Third_Party/FreeRTOS/Source/CMSIS_RTOS/cmsis_os.c ****     xPortSysTickHandler();
1416:Middlewares/Third_Party/FreeRTOS/Source/CMSIS_RTOS/cmsis_os.c **** #if (INCLUDE_xTaskGetSchedulerState  == 1 )
1417:Middlewares/Third_Party/FreeRTOS/Source/CMSIS_RTOS/cmsis_os.c ****   }
1418:Middlewares/Third_Party/FreeRTOS/Source/CMSIS_RTOS/cmsis_os.c **** #endif  /* INCLUDE_xTaskGetSchedulerState */  
1419:Middlewares/Third_Party/FreeRTOS/Source/CMSIS_RTOS/cmsis_os.c **** }
 2923              		.loc 1 1419 1 view .LVU721
 2924              		@ sp needed
 2925 000a 10BD     		pop	{r4, pc}
 2926              	.L211:
1415:Middlewares/Third_Party/FreeRTOS/Source/CMSIS_RTOS/cmsis_os.c **** #if (INCLUDE_xTaskGetSchedulerState  == 1 )
 2927              		.loc 1 1415 5 is_stmt 1 view .LVU722
 2928 000c FFF7FEFF 		bl	xPortSysTickHandler
 2929              	.LVL266:
 2930              		.loc 1 1419 1 is_stmt 0 view .LVU723
 2931 0010 FBE7     		b	.L209
 2932              		.cfi_endproc
 2933              	.LFE65:
 2935              		.section	.text.osThreadSuspend,"ax",%progbits
 2936              		.align	1
 2937              		.global	osThreadSuspend
 2938              		.syntax unified
 2939              		.code	16
 2940              		.thumb_func
 2941              		.fpu softvfp
 2943              	osThreadSuspend:
 2944              	.LVL267:
 2945              	.LFB66:
1420:Middlewares/Third_Party/FreeRTOS/Source/CMSIS_RTOS/cmsis_os.c **** 
1421:Middlewares/Third_Party/FreeRTOS/Source/CMSIS_RTOS/cmsis_os.c **** #if ( INCLUDE_eTaskGetState == 1 )
1422:Middlewares/Third_Party/FreeRTOS/Source/CMSIS_RTOS/cmsis_os.c **** /**
1423:Middlewares/Third_Party/FreeRTOS/Source/CMSIS_RTOS/cmsis_os.c **** * @brief  Obtain the state of any thread.
1424:Middlewares/Third_Party/FreeRTOS/Source/CMSIS_RTOS/cmsis_os.c **** * @param   thread_id   thread ID obtained by \ref osThreadCreate or \ref osThreadGetId.
1425:Middlewares/Third_Party/FreeRTOS/Source/CMSIS_RTOS/cmsis_os.c **** * @retval  the stae of the thread, states are encoded by the osThreadState enumerated type.
1426:Middlewares/Third_Party/FreeRTOS/Source/CMSIS_RTOS/cmsis_os.c **** */
1427:Middlewares/Third_Party/FreeRTOS/Source/CMSIS_RTOS/cmsis_os.c **** osThreadState osThreadGetState(osThreadId thread_id)
1428:Middlewares/Third_Party/FreeRTOS/Source/CMSIS_RTOS/cmsis_os.c **** {
1429:Middlewares/Third_Party/FreeRTOS/Source/CMSIS_RTOS/cmsis_os.c ****   eTaskState ThreadState;
1430:Middlewares/Third_Party/FreeRTOS/Source/CMSIS_RTOS/cmsis_os.c ****   osThreadState result;
1431:Middlewares/Third_Party/FreeRTOS/Source/CMSIS_RTOS/cmsis_os.c ****   
1432:Middlewares/Third_Party/FreeRTOS/Source/CMSIS_RTOS/cmsis_os.c ****   ThreadState = eTaskGetState(thread_id);
1433:Middlewares/Third_Party/FreeRTOS/Source/CMSIS_RTOS/cmsis_os.c ****   
1434:Middlewares/Third_Party/FreeRTOS/Source/CMSIS_RTOS/cmsis_os.c ****   switch (ThreadState)
1435:Middlewares/Third_Party/FreeRTOS/Source/CMSIS_RTOS/cmsis_os.c ****   {
1436:Middlewares/Third_Party/FreeRTOS/Source/CMSIS_RTOS/cmsis_os.c ****   case eRunning :
1437:Middlewares/Third_Party/FreeRTOS/Source/CMSIS_RTOS/cmsis_os.c ****     result = osThreadRunning;
1438:Middlewares/Third_Party/FreeRTOS/Source/CMSIS_RTOS/cmsis_os.c ****     break;
1439:Middlewares/Third_Party/FreeRTOS/Source/CMSIS_RTOS/cmsis_os.c ****   case eReady :
1440:Middlewares/Third_Party/FreeRTOS/Source/CMSIS_RTOS/cmsis_os.c ****     result = osThreadReady;
1441:Middlewares/Third_Party/FreeRTOS/Source/CMSIS_RTOS/cmsis_os.c ****     break;
1442:Middlewares/Third_Party/FreeRTOS/Source/CMSIS_RTOS/cmsis_os.c ****   case eBlocked :
ARM GAS  /tmp/ccAhcryT.s 			page 81


1443:Middlewares/Third_Party/FreeRTOS/Source/CMSIS_RTOS/cmsis_os.c ****     result = osThreadBlocked;
1444:Middlewares/Third_Party/FreeRTOS/Source/CMSIS_RTOS/cmsis_os.c ****     break;
1445:Middlewares/Third_Party/FreeRTOS/Source/CMSIS_RTOS/cmsis_os.c ****   case eSuspended :
1446:Middlewares/Third_Party/FreeRTOS/Source/CMSIS_RTOS/cmsis_os.c ****     result = osThreadSuspended;
1447:Middlewares/Third_Party/FreeRTOS/Source/CMSIS_RTOS/cmsis_os.c ****     break;
1448:Middlewares/Third_Party/FreeRTOS/Source/CMSIS_RTOS/cmsis_os.c ****   case eDeleted :
1449:Middlewares/Third_Party/FreeRTOS/Source/CMSIS_RTOS/cmsis_os.c ****     result = osThreadDeleted;
1450:Middlewares/Third_Party/FreeRTOS/Source/CMSIS_RTOS/cmsis_os.c ****     break;
1451:Middlewares/Third_Party/FreeRTOS/Source/CMSIS_RTOS/cmsis_os.c ****   default:
1452:Middlewares/Third_Party/FreeRTOS/Source/CMSIS_RTOS/cmsis_os.c ****     result = osThreadError;
1453:Middlewares/Third_Party/FreeRTOS/Source/CMSIS_RTOS/cmsis_os.c ****   } 
1454:Middlewares/Third_Party/FreeRTOS/Source/CMSIS_RTOS/cmsis_os.c ****   
1455:Middlewares/Third_Party/FreeRTOS/Source/CMSIS_RTOS/cmsis_os.c ****   return result;
1456:Middlewares/Third_Party/FreeRTOS/Source/CMSIS_RTOS/cmsis_os.c **** }
1457:Middlewares/Third_Party/FreeRTOS/Source/CMSIS_RTOS/cmsis_os.c **** #endif /* INCLUDE_eTaskGetState */
1458:Middlewares/Third_Party/FreeRTOS/Source/CMSIS_RTOS/cmsis_os.c **** 
1459:Middlewares/Third_Party/FreeRTOS/Source/CMSIS_RTOS/cmsis_os.c **** #if (INCLUDE_eTaskGetState == 1)
1460:Middlewares/Third_Party/FreeRTOS/Source/CMSIS_RTOS/cmsis_os.c **** /**
1461:Middlewares/Third_Party/FreeRTOS/Source/CMSIS_RTOS/cmsis_os.c **** * @brief Check if a thread is already suspended or not.
1462:Middlewares/Third_Party/FreeRTOS/Source/CMSIS_RTOS/cmsis_os.c **** * @param thread_id thread ID obtained by \ref osThreadCreate or \ref osThreadGetId.
1463:Middlewares/Third_Party/FreeRTOS/Source/CMSIS_RTOS/cmsis_os.c **** * @retval status code that indicates the execution status of the function.
1464:Middlewares/Third_Party/FreeRTOS/Source/CMSIS_RTOS/cmsis_os.c **** */
1465:Middlewares/Third_Party/FreeRTOS/Source/CMSIS_RTOS/cmsis_os.c **** osStatus osThreadIsSuspended(osThreadId thread_id)
1466:Middlewares/Third_Party/FreeRTOS/Source/CMSIS_RTOS/cmsis_os.c **** {
1467:Middlewares/Third_Party/FreeRTOS/Source/CMSIS_RTOS/cmsis_os.c ****   if (eTaskGetState(thread_id) == eSuspended)
1468:Middlewares/Third_Party/FreeRTOS/Source/CMSIS_RTOS/cmsis_os.c ****     return osOK;
1469:Middlewares/Third_Party/FreeRTOS/Source/CMSIS_RTOS/cmsis_os.c ****   else
1470:Middlewares/Third_Party/FreeRTOS/Source/CMSIS_RTOS/cmsis_os.c ****     return osErrorOS;
1471:Middlewares/Third_Party/FreeRTOS/Source/CMSIS_RTOS/cmsis_os.c **** }
1472:Middlewares/Third_Party/FreeRTOS/Source/CMSIS_RTOS/cmsis_os.c **** #endif /* INCLUDE_eTaskGetState */
1473:Middlewares/Third_Party/FreeRTOS/Source/CMSIS_RTOS/cmsis_os.c **** /**
1474:Middlewares/Third_Party/FreeRTOS/Source/CMSIS_RTOS/cmsis_os.c **** * @brief  Suspend execution of a thread.
1475:Middlewares/Third_Party/FreeRTOS/Source/CMSIS_RTOS/cmsis_os.c **** * @param   thread_id   thread ID obtained by \ref osThreadCreate or \ref osThreadGetId.
1476:Middlewares/Third_Party/FreeRTOS/Source/CMSIS_RTOS/cmsis_os.c **** * @retval  status code that indicates the execution status of the function.
1477:Middlewares/Third_Party/FreeRTOS/Source/CMSIS_RTOS/cmsis_os.c **** */
1478:Middlewares/Third_Party/FreeRTOS/Source/CMSIS_RTOS/cmsis_os.c **** osStatus osThreadSuspend (osThreadId thread_id)
1479:Middlewares/Third_Party/FreeRTOS/Source/CMSIS_RTOS/cmsis_os.c **** {
 2946              		.loc 1 1479 1 is_stmt 1 view -0
 2947              		.cfi_startproc
 2948              		@ args = 0, pretend = 0, frame = 0
 2949              		@ frame_needed = 0, uses_anonymous_args = 0
 2950              		.loc 1 1479 1 is_stmt 0 view .LVU725
 2951 0000 10B5     		push	{r4, lr}
 2952              	.LCFI46:
 2953              		.cfi_def_cfa_offset 8
 2954              		.cfi_offset 4, -8
 2955              		.cfi_offset 14, -4
1480:Middlewares/Third_Party/FreeRTOS/Source/CMSIS_RTOS/cmsis_os.c **** #if (INCLUDE_vTaskSuspend == 1)
1481:Middlewares/Third_Party/FreeRTOS/Source/CMSIS_RTOS/cmsis_os.c ****     vTaskSuspend(thread_id);
 2956              		.loc 1 1481 5 is_stmt 1 view .LVU726
 2957 0002 FFF7FEFF 		bl	vTaskSuspend
 2958              	.LVL268:
1482:Middlewares/Third_Party/FreeRTOS/Source/CMSIS_RTOS/cmsis_os.c ****   
1483:Middlewares/Third_Party/FreeRTOS/Source/CMSIS_RTOS/cmsis_os.c ****   return osOK;
 2959              		.loc 1 1483 3 view .LVU727
1484:Middlewares/Third_Party/FreeRTOS/Source/CMSIS_RTOS/cmsis_os.c **** #else
1485:Middlewares/Third_Party/FreeRTOS/Source/CMSIS_RTOS/cmsis_os.c ****   return osErrorResource;
ARM GAS  /tmp/ccAhcryT.s 			page 82


1486:Middlewares/Third_Party/FreeRTOS/Source/CMSIS_RTOS/cmsis_os.c **** #endif
1487:Middlewares/Third_Party/FreeRTOS/Source/CMSIS_RTOS/cmsis_os.c **** }
 2960              		.loc 1 1487 1 is_stmt 0 view .LVU728
 2961 0006 0020     		movs	r0, #0
 2962              		@ sp needed
 2963 0008 10BD     		pop	{r4, pc}
 2964              		.cfi_endproc
 2965              	.LFE66:
 2967              		.section	.text.osThreadResume,"ax",%progbits
 2968              		.align	1
 2969              		.global	osThreadResume
 2970              		.syntax unified
 2971              		.code	16
 2972              		.thumb_func
 2973              		.fpu softvfp
 2975              	osThreadResume:
 2976              	.LVL269:
 2977              	.LFB67:
1488:Middlewares/Third_Party/FreeRTOS/Source/CMSIS_RTOS/cmsis_os.c **** 
1489:Middlewares/Third_Party/FreeRTOS/Source/CMSIS_RTOS/cmsis_os.c **** /**
1490:Middlewares/Third_Party/FreeRTOS/Source/CMSIS_RTOS/cmsis_os.c **** * @brief  Resume execution of a suspended thread.
1491:Middlewares/Third_Party/FreeRTOS/Source/CMSIS_RTOS/cmsis_os.c **** * @param   thread_id   thread ID obtained by \ref osThreadCreate or \ref osThreadGetId.
1492:Middlewares/Third_Party/FreeRTOS/Source/CMSIS_RTOS/cmsis_os.c **** * @retval  status code that indicates the execution status of the function.
1493:Middlewares/Third_Party/FreeRTOS/Source/CMSIS_RTOS/cmsis_os.c **** */
1494:Middlewares/Third_Party/FreeRTOS/Source/CMSIS_RTOS/cmsis_os.c **** osStatus osThreadResume (osThreadId thread_id)
1495:Middlewares/Third_Party/FreeRTOS/Source/CMSIS_RTOS/cmsis_os.c **** {
 2978              		.loc 1 1495 1 is_stmt 1 view -0
 2979              		.cfi_startproc
 2980              		@ args = 0, pretend = 0, frame = 0
 2981              		@ frame_needed = 0, uses_anonymous_args = 0
 2982              		.loc 1 1495 1 is_stmt 0 view .LVU730
 2983 0000 10B5     		push	{r4, lr}
 2984              	.LCFI47:
 2985              		.cfi_def_cfa_offset 8
 2986              		.cfi_offset 4, -8
 2987              		.cfi_offset 14, -4
 2988 0002 0400     		movs	r4, r0
1496:Middlewares/Third_Party/FreeRTOS/Source/CMSIS_RTOS/cmsis_os.c **** #if (INCLUDE_vTaskSuspend == 1)  
1497:Middlewares/Third_Party/FreeRTOS/Source/CMSIS_RTOS/cmsis_os.c ****   if(inHandlerMode())
 2989              		.loc 1 1497 3 is_stmt 1 view .LVU731
 2990              		.loc 1 1497 6 is_stmt 0 view .LVU732
 2991 0004 FFF7FEFF 		bl	inHandlerMode
 2992              	.LVL270:
 2993              		.loc 1 1497 5 view .LVU733
 2994 0008 0028     		cmp	r0, #0
 2995 000a 09D0     		beq	.L214
1498:Middlewares/Third_Party/FreeRTOS/Source/CMSIS_RTOS/cmsis_os.c ****   {
1499:Middlewares/Third_Party/FreeRTOS/Source/CMSIS_RTOS/cmsis_os.c ****     if (xTaskResumeFromISR(thread_id) == pdTRUE)
 2996              		.loc 1 1499 5 is_stmt 1 view .LVU734
 2997              		.loc 1 1499 9 is_stmt 0 view .LVU735
 2998 000c 2000     		movs	r0, r4
 2999 000e FFF7FEFF 		bl	xTaskResumeFromISR
 3000              	.LVL271:
 3001              		.loc 1 1499 8 view .LVU736
 3002 0012 0128     		cmp	r0, #1
 3003 0014 07D1     		bne	.L215
1500:Middlewares/Third_Party/FreeRTOS/Source/CMSIS_RTOS/cmsis_os.c ****     {
ARM GAS  /tmp/ccAhcryT.s 			page 83


1501:Middlewares/Third_Party/FreeRTOS/Source/CMSIS_RTOS/cmsis_os.c ****       portYIELD_FROM_ISR(pdTRUE);
 3004              		.loc 1 1501 7 is_stmt 1 discriminator 1 view .LVU737
 3005              		.loc 1 1501 7 discriminator 1 view .LVU738
 3006 0016 054B     		ldr	r3, .L216
 3007 0018 8022     		movs	r2, #128
 3008 001a 5205     		lsls	r2, r2, #21
 3009 001c 1A60     		str	r2, [r3]
 3010 001e 02E0     		b	.L215
 3011              	.L214:
1502:Middlewares/Third_Party/FreeRTOS/Source/CMSIS_RTOS/cmsis_os.c ****     }
1503:Middlewares/Third_Party/FreeRTOS/Source/CMSIS_RTOS/cmsis_os.c ****   }
1504:Middlewares/Third_Party/FreeRTOS/Source/CMSIS_RTOS/cmsis_os.c ****   else
1505:Middlewares/Third_Party/FreeRTOS/Source/CMSIS_RTOS/cmsis_os.c ****   {
1506:Middlewares/Third_Party/FreeRTOS/Source/CMSIS_RTOS/cmsis_os.c ****     vTaskResume(thread_id);
 3012              		.loc 1 1506 5 view .LVU739
 3013 0020 2000     		movs	r0, r4
 3014 0022 FFF7FEFF 		bl	vTaskResume
 3015              	.LVL272:
 3016              	.L215:
1507:Middlewares/Third_Party/FreeRTOS/Source/CMSIS_RTOS/cmsis_os.c ****   }
1508:Middlewares/Third_Party/FreeRTOS/Source/CMSIS_RTOS/cmsis_os.c ****   return osOK;
 3017              		.loc 1 1508 3 view .LVU740
1509:Middlewares/Third_Party/FreeRTOS/Source/CMSIS_RTOS/cmsis_os.c **** #else
1510:Middlewares/Third_Party/FreeRTOS/Source/CMSIS_RTOS/cmsis_os.c ****   return osErrorResource;
1511:Middlewares/Third_Party/FreeRTOS/Source/CMSIS_RTOS/cmsis_os.c **** #endif
1512:Middlewares/Third_Party/FreeRTOS/Source/CMSIS_RTOS/cmsis_os.c **** }
 3018              		.loc 1 1512 1 is_stmt 0 view .LVU741
 3019 0026 0020     		movs	r0, #0
 3020              		@ sp needed
 3021              	.LVL273:
 3022              		.loc 1 1512 1 view .LVU742
 3023 0028 10BD     		pop	{r4, pc}
 3024              	.L217:
 3025 002a C046     		.align	2
 3026              	.L216:
 3027 002c 04ED00E0 		.word	-536810236
 3028              		.cfi_endproc
 3029              	.LFE67:
 3031              		.section	.text.osThreadSuspendAll,"ax",%progbits
 3032              		.align	1
 3033              		.global	osThreadSuspendAll
 3034              		.syntax unified
 3035              		.code	16
 3036              		.thumb_func
 3037              		.fpu softvfp
 3039              	osThreadSuspendAll:
 3040              	.LFB68:
1513:Middlewares/Third_Party/FreeRTOS/Source/CMSIS_RTOS/cmsis_os.c **** 
1514:Middlewares/Third_Party/FreeRTOS/Source/CMSIS_RTOS/cmsis_os.c **** /**
1515:Middlewares/Third_Party/FreeRTOS/Source/CMSIS_RTOS/cmsis_os.c **** * @brief  Suspend execution of a all active threads.
1516:Middlewares/Third_Party/FreeRTOS/Source/CMSIS_RTOS/cmsis_os.c **** * @retval  status code that indicates the execution status of the function.
1517:Middlewares/Third_Party/FreeRTOS/Source/CMSIS_RTOS/cmsis_os.c **** */
1518:Middlewares/Third_Party/FreeRTOS/Source/CMSIS_RTOS/cmsis_os.c **** osStatus osThreadSuspendAll (void)
1519:Middlewares/Third_Party/FreeRTOS/Source/CMSIS_RTOS/cmsis_os.c **** {
 3041              		.loc 1 1519 1 is_stmt 1 view -0
 3042              		.cfi_startproc
 3043              		@ args = 0, pretend = 0, frame = 0
ARM GAS  /tmp/ccAhcryT.s 			page 84


 3044              		@ frame_needed = 0, uses_anonymous_args = 0
 3045 0000 10B5     		push	{r4, lr}
 3046              	.LCFI48:
 3047              		.cfi_def_cfa_offset 8
 3048              		.cfi_offset 4, -8
 3049              		.cfi_offset 14, -4
1520:Middlewares/Third_Party/FreeRTOS/Source/CMSIS_RTOS/cmsis_os.c ****   vTaskSuspendAll();
 3050              		.loc 1 1520 3 view .LVU744
 3051 0002 FFF7FEFF 		bl	vTaskSuspendAll
 3052              	.LVL274:
1521:Middlewares/Third_Party/FreeRTOS/Source/CMSIS_RTOS/cmsis_os.c ****   
1522:Middlewares/Third_Party/FreeRTOS/Source/CMSIS_RTOS/cmsis_os.c ****   return osOK;
 3053              		.loc 1 1522 3 view .LVU745
1523:Middlewares/Third_Party/FreeRTOS/Source/CMSIS_RTOS/cmsis_os.c **** }
 3054              		.loc 1 1523 1 is_stmt 0 view .LVU746
 3055 0006 0020     		movs	r0, #0
 3056              		@ sp needed
 3057 0008 10BD     		pop	{r4, pc}
 3058              		.cfi_endproc
 3059              	.LFE68:
 3061              		.section	.text.osThreadResumeAll,"ax",%progbits
 3062              		.align	1
 3063              		.global	osThreadResumeAll
 3064              		.syntax unified
 3065              		.code	16
 3066              		.thumb_func
 3067              		.fpu softvfp
 3069              	osThreadResumeAll:
 3070              	.LFB69:
1524:Middlewares/Third_Party/FreeRTOS/Source/CMSIS_RTOS/cmsis_os.c **** 
1525:Middlewares/Third_Party/FreeRTOS/Source/CMSIS_RTOS/cmsis_os.c **** /**
1526:Middlewares/Third_Party/FreeRTOS/Source/CMSIS_RTOS/cmsis_os.c **** * @brief  Resume execution of a all suspended threads.
1527:Middlewares/Third_Party/FreeRTOS/Source/CMSIS_RTOS/cmsis_os.c **** * @retval  status code that indicates the execution status of the function.
1528:Middlewares/Third_Party/FreeRTOS/Source/CMSIS_RTOS/cmsis_os.c **** */
1529:Middlewares/Third_Party/FreeRTOS/Source/CMSIS_RTOS/cmsis_os.c **** osStatus osThreadResumeAll (void)
1530:Middlewares/Third_Party/FreeRTOS/Source/CMSIS_RTOS/cmsis_os.c **** {
 3071              		.loc 1 1530 1 is_stmt 1 view -0
 3072              		.cfi_startproc
 3073              		@ args = 0, pretend = 0, frame = 0
 3074              		@ frame_needed = 0, uses_anonymous_args = 0
 3075 0000 10B5     		push	{r4, lr}
 3076              	.LCFI49:
 3077              		.cfi_def_cfa_offset 8
 3078              		.cfi_offset 4, -8
 3079              		.cfi_offset 14, -4
1531:Middlewares/Third_Party/FreeRTOS/Source/CMSIS_RTOS/cmsis_os.c ****   if (xTaskResumeAll() == pdTRUE)
 3080              		.loc 1 1531 3 view .LVU748
 3081              		.loc 1 1531 7 is_stmt 0 view .LVU749
 3082 0002 FFF7FEFF 		bl	xTaskResumeAll
 3083              	.LVL275:
 3084              		.loc 1 1531 6 view .LVU750
 3085 0006 0128     		cmp	r0, #1
 3086 0008 01D0     		beq	.L222
1532:Middlewares/Third_Party/FreeRTOS/Source/CMSIS_RTOS/cmsis_os.c ****     return osOK;
1533:Middlewares/Third_Party/FreeRTOS/Source/CMSIS_RTOS/cmsis_os.c ****   else
1534:Middlewares/Third_Party/FreeRTOS/Source/CMSIS_RTOS/cmsis_os.c ****     return osErrorOS;
 3087              		.loc 1 1534 12 view .LVU751
ARM GAS  /tmp/ccAhcryT.s 			page 85


 3088 000a FF20     		movs	r0, #255
 3089              	.L219:
1535:Middlewares/Third_Party/FreeRTOS/Source/CMSIS_RTOS/cmsis_os.c ****   
1536:Middlewares/Third_Party/FreeRTOS/Source/CMSIS_RTOS/cmsis_os.c **** }
 3090              		.loc 1 1536 1 view .LVU752
 3091              		@ sp needed
 3092 000c 10BD     		pop	{r4, pc}
 3093              	.L222:
1532:Middlewares/Third_Party/FreeRTOS/Source/CMSIS_RTOS/cmsis_os.c ****     return osOK;
 3094              		.loc 1 1532 12 view .LVU753
 3095 000e 0020     		movs	r0, #0
 3096 0010 FCE7     		b	.L219
 3097              		.cfi_endproc
 3098              	.LFE69:
 3100              		.section	.text.osDelayUntil,"ax",%progbits
 3101              		.align	1
 3102              		.global	osDelayUntil
 3103              		.syntax unified
 3104              		.code	16
 3105              		.thumb_func
 3106              		.fpu softvfp
 3108              	osDelayUntil:
 3109              	.LVL276:
 3110              	.LFB70:
1537:Middlewares/Third_Party/FreeRTOS/Source/CMSIS_RTOS/cmsis_os.c **** 
1538:Middlewares/Third_Party/FreeRTOS/Source/CMSIS_RTOS/cmsis_os.c **** /**
1539:Middlewares/Third_Party/FreeRTOS/Source/CMSIS_RTOS/cmsis_os.c **** * @brief  Delay a task until a specified time
1540:Middlewares/Third_Party/FreeRTOS/Source/CMSIS_RTOS/cmsis_os.c **** * @param   PreviousWakeTime   Pointer to a variable that holds the time at which the 
1541:Middlewares/Third_Party/FreeRTOS/Source/CMSIS_RTOS/cmsis_os.c **** *          task was last unblocked. PreviousWakeTime must be initialised with the current time
1542:Middlewares/Third_Party/FreeRTOS/Source/CMSIS_RTOS/cmsis_os.c **** *          prior to its first use (PreviousWakeTime = osKernelSysTick() )
1543:Middlewares/Third_Party/FreeRTOS/Source/CMSIS_RTOS/cmsis_os.c **** * @param   millisec    time delay value
1544:Middlewares/Third_Party/FreeRTOS/Source/CMSIS_RTOS/cmsis_os.c **** * @retval  status code that indicates the execution status of the function.
1545:Middlewares/Third_Party/FreeRTOS/Source/CMSIS_RTOS/cmsis_os.c **** */
1546:Middlewares/Third_Party/FreeRTOS/Source/CMSIS_RTOS/cmsis_os.c **** osStatus osDelayUntil (uint32_t *PreviousWakeTime, uint32_t millisec)
1547:Middlewares/Third_Party/FreeRTOS/Source/CMSIS_RTOS/cmsis_os.c **** {
 3111              		.loc 1 1547 1 is_stmt 1 view -0
 3112              		.cfi_startproc
 3113              		@ args = 0, pretend = 0, frame = 0
 3114              		@ frame_needed = 0, uses_anonymous_args = 0
 3115              		@ link register save eliminated.
1548:Middlewares/Third_Party/FreeRTOS/Source/CMSIS_RTOS/cmsis_os.c **** #if INCLUDE_vTaskDelayUntil
1549:Middlewares/Third_Party/FreeRTOS/Source/CMSIS_RTOS/cmsis_os.c ****   TickType_t ticks = (millisec / portTICK_PERIOD_MS);
1550:Middlewares/Third_Party/FreeRTOS/Source/CMSIS_RTOS/cmsis_os.c ****   vTaskDelayUntil((TickType_t *) PreviousWakeTime, ticks ? ticks : 1);
1551:Middlewares/Third_Party/FreeRTOS/Source/CMSIS_RTOS/cmsis_os.c ****   
1552:Middlewares/Third_Party/FreeRTOS/Source/CMSIS_RTOS/cmsis_os.c ****   return osOK;
1553:Middlewares/Third_Party/FreeRTOS/Source/CMSIS_RTOS/cmsis_os.c **** #else
1554:Middlewares/Third_Party/FreeRTOS/Source/CMSIS_RTOS/cmsis_os.c ****   (void) millisec;
 3116              		.loc 1 1554 3 view .LVU755
1555:Middlewares/Third_Party/FreeRTOS/Source/CMSIS_RTOS/cmsis_os.c ****   (void) PreviousWakeTime;
 3117              		.loc 1 1555 3 view .LVU756
1556:Middlewares/Third_Party/FreeRTOS/Source/CMSIS_RTOS/cmsis_os.c ****   
1557:Middlewares/Third_Party/FreeRTOS/Source/CMSIS_RTOS/cmsis_os.c ****   return osErrorResource;
 3118              		.loc 1 1557 3 view .LVU757
1558:Middlewares/Third_Party/FreeRTOS/Source/CMSIS_RTOS/cmsis_os.c **** #endif
1559:Middlewares/Third_Party/FreeRTOS/Source/CMSIS_RTOS/cmsis_os.c **** }
 3119              		.loc 1 1559 1 is_stmt 0 view .LVU758
 3120 0000 8120     		movs	r0, #129
ARM GAS  /tmp/ccAhcryT.s 			page 86


 3121              	.LVL277:
 3122              		.loc 1 1559 1 view .LVU759
 3123              		@ sp needed
 3124 0002 7047     		bx	lr
 3125              		.cfi_endproc
 3126              	.LFE70:
 3128              		.section	.text.osAbortDelay,"ax",%progbits
 3129              		.align	1
 3130              		.global	osAbortDelay
 3131              		.syntax unified
 3132              		.code	16
 3133              		.thumb_func
 3134              		.fpu softvfp
 3136              	osAbortDelay:
 3137              	.LVL278:
 3138              	.LFB71:
1560:Middlewares/Third_Party/FreeRTOS/Source/CMSIS_RTOS/cmsis_os.c **** 
1561:Middlewares/Third_Party/FreeRTOS/Source/CMSIS_RTOS/cmsis_os.c **** /**
1562:Middlewares/Third_Party/FreeRTOS/Source/CMSIS_RTOS/cmsis_os.c **** * @brief   Abort the delay for a specific thread
1563:Middlewares/Third_Party/FreeRTOS/Source/CMSIS_RTOS/cmsis_os.c **** * @param   thread_id   thread ID obtained by \ref osThreadCreate or \ref osThreadGetId   
1564:Middlewares/Third_Party/FreeRTOS/Source/CMSIS_RTOS/cmsis_os.c **** * @retval  status code that indicates the execution status of the function.
1565:Middlewares/Third_Party/FreeRTOS/Source/CMSIS_RTOS/cmsis_os.c **** */
1566:Middlewares/Third_Party/FreeRTOS/Source/CMSIS_RTOS/cmsis_os.c **** osStatus osAbortDelay(osThreadId thread_id)
1567:Middlewares/Third_Party/FreeRTOS/Source/CMSIS_RTOS/cmsis_os.c **** {
 3139              		.loc 1 1567 1 is_stmt 1 view -0
 3140              		.cfi_startproc
 3141              		@ args = 0, pretend = 0, frame = 0
 3142              		@ frame_needed = 0, uses_anonymous_args = 0
 3143              		@ link register save eliminated.
1568:Middlewares/Third_Party/FreeRTOS/Source/CMSIS_RTOS/cmsis_os.c **** #if INCLUDE_xTaskAbortDelay
1569:Middlewares/Third_Party/FreeRTOS/Source/CMSIS_RTOS/cmsis_os.c ****   
1570:Middlewares/Third_Party/FreeRTOS/Source/CMSIS_RTOS/cmsis_os.c ****   xTaskAbortDelay(thread_id);
1571:Middlewares/Third_Party/FreeRTOS/Source/CMSIS_RTOS/cmsis_os.c ****   
1572:Middlewares/Third_Party/FreeRTOS/Source/CMSIS_RTOS/cmsis_os.c ****   return osOK;
1573:Middlewares/Third_Party/FreeRTOS/Source/CMSIS_RTOS/cmsis_os.c **** #else
1574:Middlewares/Third_Party/FreeRTOS/Source/CMSIS_RTOS/cmsis_os.c ****   (void) thread_id;
 3144              		.loc 1 1574 3 view .LVU761
1575:Middlewares/Third_Party/FreeRTOS/Source/CMSIS_RTOS/cmsis_os.c ****   
1576:Middlewares/Third_Party/FreeRTOS/Source/CMSIS_RTOS/cmsis_os.c ****   return osErrorResource;
 3145              		.loc 1 1576 3 view .LVU762
1577:Middlewares/Third_Party/FreeRTOS/Source/CMSIS_RTOS/cmsis_os.c **** #endif
1578:Middlewares/Third_Party/FreeRTOS/Source/CMSIS_RTOS/cmsis_os.c **** }
 3146              		.loc 1 1578 1 is_stmt 0 view .LVU763
 3147 0000 8120     		movs	r0, #129
 3148              	.LVL279:
 3149              		.loc 1 1578 1 view .LVU764
 3150              		@ sp needed
 3151 0002 7047     		bx	lr
 3152              		.cfi_endproc
 3153              	.LFE71:
 3155              		.section	.text.osThreadList,"ax",%progbits
 3156              		.align	1
 3157              		.global	osThreadList
 3158              		.syntax unified
 3159              		.code	16
 3160              		.thumb_func
 3161              		.fpu softvfp
ARM GAS  /tmp/ccAhcryT.s 			page 87


 3163              	osThreadList:
 3164              	.LVL280:
 3165              	.LFB72:
1579:Middlewares/Third_Party/FreeRTOS/Source/CMSIS_RTOS/cmsis_os.c **** 
1580:Middlewares/Third_Party/FreeRTOS/Source/CMSIS_RTOS/cmsis_os.c **** /**
1581:Middlewares/Third_Party/FreeRTOS/Source/CMSIS_RTOS/cmsis_os.c **** * @brief   Lists all the current threads, along with their current state 
1582:Middlewares/Third_Party/FreeRTOS/Source/CMSIS_RTOS/cmsis_os.c **** *          and stack usage high water mark.
1583:Middlewares/Third_Party/FreeRTOS/Source/CMSIS_RTOS/cmsis_os.c **** * @param   buffer   A buffer into which the above mentioned details
1584:Middlewares/Third_Party/FreeRTOS/Source/CMSIS_RTOS/cmsis_os.c **** *          will be written
1585:Middlewares/Third_Party/FreeRTOS/Source/CMSIS_RTOS/cmsis_os.c **** * @retval  status code that indicates the execution status of the function.
1586:Middlewares/Third_Party/FreeRTOS/Source/CMSIS_RTOS/cmsis_os.c **** */
1587:Middlewares/Third_Party/FreeRTOS/Source/CMSIS_RTOS/cmsis_os.c **** osStatus osThreadList (uint8_t *buffer)
1588:Middlewares/Third_Party/FreeRTOS/Source/CMSIS_RTOS/cmsis_os.c **** {
 3166              		.loc 1 1588 1 is_stmt 1 view -0
 3167              		.cfi_startproc
 3168              		@ args = 0, pretend = 0, frame = 0
 3169              		@ frame_needed = 0, uses_anonymous_args = 0
 3170              		@ link register save eliminated.
1589:Middlewares/Third_Party/FreeRTOS/Source/CMSIS_RTOS/cmsis_os.c **** #if ( ( configUSE_TRACE_FACILITY == 1 ) && ( configUSE_STATS_FORMATTING_FUNCTIONS == 1 ) )
1590:Middlewares/Third_Party/FreeRTOS/Source/CMSIS_RTOS/cmsis_os.c ****   vTaskList((char *)buffer);
1591:Middlewares/Third_Party/FreeRTOS/Source/CMSIS_RTOS/cmsis_os.c **** #endif
1592:Middlewares/Third_Party/FreeRTOS/Source/CMSIS_RTOS/cmsis_os.c ****   return osOK;
 3171              		.loc 1 1592 3 view .LVU766
1593:Middlewares/Third_Party/FreeRTOS/Source/CMSIS_RTOS/cmsis_os.c **** }
 3172              		.loc 1 1593 1 is_stmt 0 view .LVU767
 3173 0000 0020     		movs	r0, #0
 3174              	.LVL281:
 3175              		.loc 1 1593 1 view .LVU768
 3176              		@ sp needed
 3177 0002 7047     		bx	lr
 3178              		.cfi_endproc
 3179              	.LFE72:
 3181              		.section	.text.osMessagePeek,"ax",%progbits
 3182              		.align	1
 3183              		.global	osMessagePeek
 3184              		.syntax unified
 3185              		.code	16
 3186              		.thumb_func
 3187              		.fpu softvfp
 3189              	osMessagePeek:
 3190              	.LVL282:
 3191              	.LFB73:
1594:Middlewares/Third_Party/FreeRTOS/Source/CMSIS_RTOS/cmsis_os.c **** 
1595:Middlewares/Third_Party/FreeRTOS/Source/CMSIS_RTOS/cmsis_os.c **** /**
1596:Middlewares/Third_Party/FreeRTOS/Source/CMSIS_RTOS/cmsis_os.c **** * @brief  Receive an item from a queue without removing the item from the queue.
1597:Middlewares/Third_Party/FreeRTOS/Source/CMSIS_RTOS/cmsis_os.c **** * @param  queue_id  message queue ID obtained with \ref osMessageCreate.
1598:Middlewares/Third_Party/FreeRTOS/Source/CMSIS_RTOS/cmsis_os.c **** * @param  millisec  timeout value or 0 in case of no time-out.
1599:Middlewares/Third_Party/FreeRTOS/Source/CMSIS_RTOS/cmsis_os.c **** * @retval event information that includes status code.
1600:Middlewares/Third_Party/FreeRTOS/Source/CMSIS_RTOS/cmsis_os.c **** */
1601:Middlewares/Third_Party/FreeRTOS/Source/CMSIS_RTOS/cmsis_os.c **** osEvent osMessagePeek (osMessageQId queue_id, uint32_t millisec)
1602:Middlewares/Third_Party/FreeRTOS/Source/CMSIS_RTOS/cmsis_os.c **** {
 3192              		.loc 1 1602 1 is_stmt 1 view -0
 3193              		.cfi_startproc
 3194              		@ args = 0, pretend = 0, frame = 16
 3195              		@ frame_needed = 0, uses_anonymous_args = 0
 3196              		.loc 1 1602 1 is_stmt 0 view .LVU770
 3197 0000 30B5     		push	{r4, r5, lr}
ARM GAS  /tmp/ccAhcryT.s 			page 88


 3198              	.LCFI50:
 3199              		.cfi_def_cfa_offset 12
 3200              		.cfi_offset 4, -12
 3201              		.cfi_offset 5, -8
 3202              		.cfi_offset 14, -4
 3203 0002 85B0     		sub	sp, sp, #20
 3204              	.LCFI51:
 3205              		.cfi_def_cfa_offset 32
 3206 0004 0400     		movs	r4, r0
 3207 0006 0800     		movs	r0, r1
 3208              	.LVL283:
 3209              		.loc 1 1602 1 view .LVU771
 3210 0008 1500     		movs	r5, r2
1603:Middlewares/Third_Party/FreeRTOS/Source/CMSIS_RTOS/cmsis_os.c ****   TickType_t ticks;
 3211              		.loc 1 1603 3 is_stmt 1 view .LVU772
1604:Middlewares/Third_Party/FreeRTOS/Source/CMSIS_RTOS/cmsis_os.c ****   osEvent event;
 3212              		.loc 1 1604 3 view .LVU773
1605:Middlewares/Third_Party/FreeRTOS/Source/CMSIS_RTOS/cmsis_os.c ****   
1606:Middlewares/Third_Party/FreeRTOS/Source/CMSIS_RTOS/cmsis_os.c ****   event.def.message_id = queue_id;
 3213              		.loc 1 1606 3 view .LVU774
 3214              		.loc 1 1606 24 is_stmt 0 view .LVU775
 3215 000a 0391     		str	r1, [sp, #12]
1607:Middlewares/Third_Party/FreeRTOS/Source/CMSIS_RTOS/cmsis_os.c ****   
1608:Middlewares/Third_Party/FreeRTOS/Source/CMSIS_RTOS/cmsis_os.c ****   if (queue_id == NULL) {
 3216              		.loc 1 1608 3 is_stmt 1 view .LVU776
 3217              		.loc 1 1608 6 is_stmt 0 view .LVU777
 3218 000c 0029     		cmp	r1, #0
 3219 000e 13D0     		beq	.L235
1609:Middlewares/Third_Party/FreeRTOS/Source/CMSIS_RTOS/cmsis_os.c ****     event.status = osErrorParameter;
1610:Middlewares/Third_Party/FreeRTOS/Source/CMSIS_RTOS/cmsis_os.c ****     return event;
1611:Middlewares/Third_Party/FreeRTOS/Source/CMSIS_RTOS/cmsis_os.c ****   }
1612:Middlewares/Third_Party/FreeRTOS/Source/CMSIS_RTOS/cmsis_os.c ****   
1613:Middlewares/Third_Party/FreeRTOS/Source/CMSIS_RTOS/cmsis_os.c ****   ticks = 0;
 3220              		.loc 1 1613 3 is_stmt 1 view .LVU778
 3221              	.LVL284:
1614:Middlewares/Third_Party/FreeRTOS/Source/CMSIS_RTOS/cmsis_os.c ****   if (millisec == osWaitForever) {
 3222              		.loc 1 1614 3 view .LVU779
 3223              		.loc 1 1614 6 is_stmt 0 view .LVU780
 3224 0010 531C     		adds	r3, r2, #1
 3225 0012 18D0     		beq	.L236
 3226              	.L229:
 3227              	.LVL285:
1615:Middlewares/Third_Party/FreeRTOS/Source/CMSIS_RTOS/cmsis_os.c ****     ticks = portMAX_DELAY;
1616:Middlewares/Third_Party/FreeRTOS/Source/CMSIS_RTOS/cmsis_os.c ****   }
1617:Middlewares/Third_Party/FreeRTOS/Source/CMSIS_RTOS/cmsis_os.c ****   else if (millisec != 0) {
1618:Middlewares/Third_Party/FreeRTOS/Source/CMSIS_RTOS/cmsis_os.c ****     ticks = millisec / portTICK_PERIOD_MS;
1619:Middlewares/Third_Party/FreeRTOS/Source/CMSIS_RTOS/cmsis_os.c ****     if (ticks == 0) {
1620:Middlewares/Third_Party/FreeRTOS/Source/CMSIS_RTOS/cmsis_os.c ****       ticks = 1;
1621:Middlewares/Third_Party/FreeRTOS/Source/CMSIS_RTOS/cmsis_os.c ****     }
1622:Middlewares/Third_Party/FreeRTOS/Source/CMSIS_RTOS/cmsis_os.c ****   }
1623:Middlewares/Third_Party/FreeRTOS/Source/CMSIS_RTOS/cmsis_os.c ****   
1624:Middlewares/Third_Party/FreeRTOS/Source/CMSIS_RTOS/cmsis_os.c ****   if (xQueuePeek(queue_id, &event.value.v, ticks) == pdTRUE) 
 3228              		.loc 1 1624 3 is_stmt 1 view .LVU781
 3229              		.loc 1 1624 7 is_stmt 0 view .LVU782
 3230 0014 0123     		movs	r3, #1
 3231 0016 2A00     		movs	r2, r5
 3232              	.LVL286:
ARM GAS  /tmp/ccAhcryT.s 			page 89


 3233              		.loc 1 1624 7 view .LVU783
 3234 0018 02A9     		add	r1, sp, #8
 3235              	.LVL287:
 3236              		.loc 1 1624 7 view .LVU784
 3237 001a FFF7FEFF 		bl	xQueueGenericReceive
 3238              	.LVL288:
 3239              		.loc 1 1624 6 view .LVU785
 3240 001e 0128     		cmp	r0, #1
 3241 0020 14D0     		beq	.L237
1625:Middlewares/Third_Party/FreeRTOS/Source/CMSIS_RTOS/cmsis_os.c ****   {
1626:Middlewares/Third_Party/FreeRTOS/Source/CMSIS_RTOS/cmsis_os.c ****     /* We have mail */
1627:Middlewares/Third_Party/FreeRTOS/Source/CMSIS_RTOS/cmsis_os.c ****     event.status = osEventMessage;
1628:Middlewares/Third_Party/FreeRTOS/Source/CMSIS_RTOS/cmsis_os.c ****   }
1629:Middlewares/Third_Party/FreeRTOS/Source/CMSIS_RTOS/cmsis_os.c ****   else 
1630:Middlewares/Third_Party/FreeRTOS/Source/CMSIS_RTOS/cmsis_os.c ****   {
1631:Middlewares/Third_Party/FreeRTOS/Source/CMSIS_RTOS/cmsis_os.c ****     event.status = (ticks == 0) ? osOK : osEventTimeout;
 3242              		.loc 1 1631 5 is_stmt 1 view .LVU786
 3243              		.loc 1 1631 40 is_stmt 0 view .LVU787
 3244 0022 002D     		cmp	r5, #0
 3245 0024 15D1     		bne	.L234
 3246 0026 0023     		movs	r3, #0
 3247              	.L232:
 3248              		.loc 1 1631 18 discriminator 4 view .LVU788
 3249 0028 0193     		str	r3, [sp, #4]
 3250              	.L231:
1632:Middlewares/Third_Party/FreeRTOS/Source/CMSIS_RTOS/cmsis_os.c ****   }
1633:Middlewares/Third_Party/FreeRTOS/Source/CMSIS_RTOS/cmsis_os.c ****   
1634:Middlewares/Third_Party/FreeRTOS/Source/CMSIS_RTOS/cmsis_os.c ****   return event;
 3251              		.loc 1 1634 3 is_stmt 1 view .LVU789
 3252              		.loc 1 1634 10 is_stmt 0 view .LVU790
 3253 002a 01AB     		add	r3, sp, #4
 3254 002c 2200     		movs	r2, r4
 3255 002e 23CB     		ldmia	r3!, {r0, r1, r5}
 3256 0030 23C2     		stmia	r2!, {r0, r1, r5}
 3257              	.LVL289:
 3258              	.L226:
1635:Middlewares/Third_Party/FreeRTOS/Source/CMSIS_RTOS/cmsis_os.c **** }
 3259              		.loc 1 1635 1 view .LVU791
 3260 0032 2000     		movs	r0, r4
 3261 0034 05B0     		add	sp, sp, #20
 3262              		@ sp needed
 3263              	.LVL290:
 3264              		.loc 1 1635 1 view .LVU792
 3265 0036 30BD     		pop	{r4, r5, pc}
 3266              	.LVL291:
 3267              	.L235:
1609:Middlewares/Third_Party/FreeRTOS/Source/CMSIS_RTOS/cmsis_os.c ****     return event;
 3268              		.loc 1 1609 5 is_stmt 1 view .LVU793
1609:Middlewares/Third_Party/FreeRTOS/Source/CMSIS_RTOS/cmsis_os.c ****     return event;
 3269              		.loc 1 1609 18 is_stmt 0 view .LVU794
 3270 0038 01AB     		add	r3, sp, #4
 3271 003a 8022     		movs	r2, #128
 3272              	.LVL292:
1609:Middlewares/Third_Party/FreeRTOS/Source/CMSIS_RTOS/cmsis_os.c ****     return event;
 3273              		.loc 1 1609 18 view .LVU795
 3274 003c 0192     		str	r2, [sp, #4]
1610:Middlewares/Third_Party/FreeRTOS/Source/CMSIS_RTOS/cmsis_os.c ****   }
ARM GAS  /tmp/ccAhcryT.s 			page 90


 3275              		.loc 1 1610 5 is_stmt 1 view .LVU796
1610:Middlewares/Third_Party/FreeRTOS/Source/CMSIS_RTOS/cmsis_os.c ****   }
 3276              		.loc 1 1610 12 is_stmt 0 view .LVU797
 3277 003e 2200     		movs	r2, r4
 3278 0040 23CB     		ldmia	r3!, {r0, r1, r5}
 3279 0042 23C2     		stmia	r2!, {r0, r1, r5}
 3280              	.LVL293:
1610:Middlewares/Third_Party/FreeRTOS/Source/CMSIS_RTOS/cmsis_os.c ****   }
 3281              		.loc 1 1610 12 view .LVU798
 3282 0044 F5E7     		b	.L226
 3283              	.LVL294:
 3284              	.L236:
1615:Middlewares/Third_Party/FreeRTOS/Source/CMSIS_RTOS/cmsis_os.c ****   }
 3285              		.loc 1 1615 11 view .LVU799
 3286 0046 0125     		movs	r5, #1
 3287 0048 6D42     		rsbs	r5, r5, #0
 3288 004a E3E7     		b	.L229
 3289              	.LVL295:
 3290              	.L237:
1627:Middlewares/Third_Party/FreeRTOS/Source/CMSIS_RTOS/cmsis_os.c ****   }
 3291              		.loc 1 1627 5 is_stmt 1 view .LVU800
1627:Middlewares/Third_Party/FreeRTOS/Source/CMSIS_RTOS/cmsis_os.c ****   }
 3292              		.loc 1 1627 18 is_stmt 0 view .LVU801
 3293 004c 1023     		movs	r3, #16
 3294 004e 0193     		str	r3, [sp, #4]
 3295 0050 EBE7     		b	.L231
 3296              	.L234:
1631:Middlewares/Third_Party/FreeRTOS/Source/CMSIS_RTOS/cmsis_os.c ****   }
 3297              		.loc 1 1631 40 view .LVU802
 3298 0052 4023     		movs	r3, #64
 3299 0054 E8E7     		b	.L232
 3300              		.cfi_endproc
 3301              	.LFE73:
 3303              		.section	.text.osMessageWaiting,"ax",%progbits
 3304              		.align	1
 3305              		.global	osMessageWaiting
 3306              		.syntax unified
 3307              		.code	16
 3308              		.thumb_func
 3309              		.fpu softvfp
 3311              	osMessageWaiting:
 3312              	.LVL296:
 3313              	.LFB74:
1636:Middlewares/Third_Party/FreeRTOS/Source/CMSIS_RTOS/cmsis_os.c **** 
1637:Middlewares/Third_Party/FreeRTOS/Source/CMSIS_RTOS/cmsis_os.c **** /**
1638:Middlewares/Third_Party/FreeRTOS/Source/CMSIS_RTOS/cmsis_os.c **** * @brief  Get the number of messaged stored in a queue.
1639:Middlewares/Third_Party/FreeRTOS/Source/CMSIS_RTOS/cmsis_os.c **** * @param  queue_id  message queue ID obtained with \ref osMessageCreate.
1640:Middlewares/Third_Party/FreeRTOS/Source/CMSIS_RTOS/cmsis_os.c **** * @retval number of messages stored in a queue.
1641:Middlewares/Third_Party/FreeRTOS/Source/CMSIS_RTOS/cmsis_os.c **** */
1642:Middlewares/Third_Party/FreeRTOS/Source/CMSIS_RTOS/cmsis_os.c **** uint32_t osMessageWaiting(osMessageQId queue_id)
1643:Middlewares/Third_Party/FreeRTOS/Source/CMSIS_RTOS/cmsis_os.c **** {
 3314              		.loc 1 1643 1 is_stmt 1 view -0
 3315              		.cfi_startproc
 3316              		@ args = 0, pretend = 0, frame = 0
 3317              		@ frame_needed = 0, uses_anonymous_args = 0
 3318              		.loc 1 1643 1 is_stmt 0 view .LVU804
 3319 0000 10B5     		push	{r4, lr}
ARM GAS  /tmp/ccAhcryT.s 			page 91


 3320              	.LCFI52:
 3321              		.cfi_def_cfa_offset 8
 3322              		.cfi_offset 4, -8
 3323              		.cfi_offset 14, -4
 3324 0002 0400     		movs	r4, r0
1644:Middlewares/Third_Party/FreeRTOS/Source/CMSIS_RTOS/cmsis_os.c ****   if (inHandlerMode()) {
 3325              		.loc 1 1644 3 is_stmt 1 view .LVU805
 3326              		.loc 1 1644 7 is_stmt 0 view .LVU806
 3327 0004 FFF7FEFF 		bl	inHandlerMode
 3328              	.LVL297:
 3329              		.loc 1 1644 6 view .LVU807
 3330 0008 0028     		cmp	r0, #0
 3331 000a 03D0     		beq	.L239
1645:Middlewares/Third_Party/FreeRTOS/Source/CMSIS_RTOS/cmsis_os.c ****     return uxQueueMessagesWaitingFromISR(queue_id);
 3332              		.loc 1 1645 5 is_stmt 1 view .LVU808
 3333              		.loc 1 1645 12 is_stmt 0 view .LVU809
 3334 000c 2000     		movs	r0, r4
 3335 000e FFF7FEFF 		bl	uxQueueMessagesWaitingFromISR
 3336              	.LVL298:
 3337              	.L238:
1646:Middlewares/Third_Party/FreeRTOS/Source/CMSIS_RTOS/cmsis_os.c ****   }
1647:Middlewares/Third_Party/FreeRTOS/Source/CMSIS_RTOS/cmsis_os.c ****   else
1648:Middlewares/Third_Party/FreeRTOS/Source/CMSIS_RTOS/cmsis_os.c ****   {
1649:Middlewares/Third_Party/FreeRTOS/Source/CMSIS_RTOS/cmsis_os.c ****     return uxQueueMessagesWaiting(queue_id);
1650:Middlewares/Third_Party/FreeRTOS/Source/CMSIS_RTOS/cmsis_os.c ****   }
1651:Middlewares/Third_Party/FreeRTOS/Source/CMSIS_RTOS/cmsis_os.c **** }
 3338              		.loc 1 1651 1 view .LVU810
 3339              		@ sp needed
 3340              	.LVL299:
 3341              		.loc 1 1651 1 view .LVU811
 3342 0012 10BD     		pop	{r4, pc}
 3343              	.LVL300:
 3344              	.L239:
1649:Middlewares/Third_Party/FreeRTOS/Source/CMSIS_RTOS/cmsis_os.c ****   }
 3345              		.loc 1 1649 5 is_stmt 1 view .LVU812
1649:Middlewares/Third_Party/FreeRTOS/Source/CMSIS_RTOS/cmsis_os.c ****   }
 3346              		.loc 1 1649 12 is_stmt 0 view .LVU813
 3347 0014 2000     		movs	r0, r4
 3348 0016 FFF7FEFF 		bl	uxQueueMessagesWaiting
 3349              	.LVL301:
 3350 001a FAE7     		b	.L238
 3351              		.cfi_endproc
 3352              	.LFE74:
 3354              		.section	.text.osMessageAvailableSpace,"ax",%progbits
 3355              		.align	1
 3356              		.global	osMessageAvailableSpace
 3357              		.syntax unified
 3358              		.code	16
 3359              		.thumb_func
 3360              		.fpu softvfp
 3362              	osMessageAvailableSpace:
 3363              	.LVL302:
 3364              	.LFB75:
1652:Middlewares/Third_Party/FreeRTOS/Source/CMSIS_RTOS/cmsis_os.c **** 
1653:Middlewares/Third_Party/FreeRTOS/Source/CMSIS_RTOS/cmsis_os.c **** /**
1654:Middlewares/Third_Party/FreeRTOS/Source/CMSIS_RTOS/cmsis_os.c **** * @brief  Get the available space in a message queue.
1655:Middlewares/Third_Party/FreeRTOS/Source/CMSIS_RTOS/cmsis_os.c **** * @param  queue_id  message queue ID obtained with \ref osMessageCreate.
ARM GAS  /tmp/ccAhcryT.s 			page 92


1656:Middlewares/Third_Party/FreeRTOS/Source/CMSIS_RTOS/cmsis_os.c **** * @retval available space in a message queue.
1657:Middlewares/Third_Party/FreeRTOS/Source/CMSIS_RTOS/cmsis_os.c **** */
1658:Middlewares/Third_Party/FreeRTOS/Source/CMSIS_RTOS/cmsis_os.c **** uint32_t osMessageAvailableSpace(osMessageQId queue_id)  
1659:Middlewares/Third_Party/FreeRTOS/Source/CMSIS_RTOS/cmsis_os.c **** {
 3365              		.loc 1 1659 1 is_stmt 1 view -0
 3366              		.cfi_startproc
 3367              		@ args = 0, pretend = 0, frame = 0
 3368              		@ frame_needed = 0, uses_anonymous_args = 0
 3369              		.loc 1 1659 1 is_stmt 0 view .LVU815
 3370 0000 10B5     		push	{r4, lr}
 3371              	.LCFI53:
 3372              		.cfi_def_cfa_offset 8
 3373              		.cfi_offset 4, -8
 3374              		.cfi_offset 14, -4
1660:Middlewares/Third_Party/FreeRTOS/Source/CMSIS_RTOS/cmsis_os.c ****   return uxQueueSpacesAvailable(queue_id);
 3375              		.loc 1 1660 3 is_stmt 1 view .LVU816
 3376              		.loc 1 1660 10 is_stmt 0 view .LVU817
 3377 0002 FFF7FEFF 		bl	uxQueueSpacesAvailable
 3378              	.LVL303:
1661:Middlewares/Third_Party/FreeRTOS/Source/CMSIS_RTOS/cmsis_os.c **** }
 3379              		.loc 1 1661 1 view .LVU818
 3380              		@ sp needed
 3381 0006 10BD     		pop	{r4, pc}
 3382              		.cfi_endproc
 3383              	.LFE75:
 3385              		.section	.text.osMessageDelete,"ax",%progbits
 3386              		.align	1
 3387              		.global	osMessageDelete
 3388              		.syntax unified
 3389              		.code	16
 3390              		.thumb_func
 3391              		.fpu softvfp
 3393              	osMessageDelete:
 3394              	.LVL304:
 3395              	.LFB76:
1662:Middlewares/Third_Party/FreeRTOS/Source/CMSIS_RTOS/cmsis_os.c **** 
1663:Middlewares/Third_Party/FreeRTOS/Source/CMSIS_RTOS/cmsis_os.c **** /**
1664:Middlewares/Third_Party/FreeRTOS/Source/CMSIS_RTOS/cmsis_os.c **** * @brief Delete a Message Queue
1665:Middlewares/Third_Party/FreeRTOS/Source/CMSIS_RTOS/cmsis_os.c **** * @param  queue_id  message queue ID obtained with \ref osMessageCreate.
1666:Middlewares/Third_Party/FreeRTOS/Source/CMSIS_RTOS/cmsis_os.c **** * @retval  status code that indicates the execution status of the function.
1667:Middlewares/Third_Party/FreeRTOS/Source/CMSIS_RTOS/cmsis_os.c **** */
1668:Middlewares/Third_Party/FreeRTOS/Source/CMSIS_RTOS/cmsis_os.c **** osStatus osMessageDelete (osMessageQId queue_id)
1669:Middlewares/Third_Party/FreeRTOS/Source/CMSIS_RTOS/cmsis_os.c **** {
 3396              		.loc 1 1669 1 is_stmt 1 view -0
 3397              		.cfi_startproc
 3398              		@ args = 0, pretend = 0, frame = 0
 3399              		@ frame_needed = 0, uses_anonymous_args = 0
 3400              		.loc 1 1669 1 is_stmt 0 view .LVU820
 3401 0000 10B5     		push	{r4, lr}
 3402              	.LCFI54:
 3403              		.cfi_def_cfa_offset 8
 3404              		.cfi_offset 4, -8
 3405              		.cfi_offset 14, -4
 3406 0002 0400     		movs	r4, r0
1670:Middlewares/Third_Party/FreeRTOS/Source/CMSIS_RTOS/cmsis_os.c ****   if (inHandlerMode()) {
 3407              		.loc 1 1670 3 is_stmt 1 view .LVU821
 3408              		.loc 1 1670 7 is_stmt 0 view .LVU822
ARM GAS  /tmp/ccAhcryT.s 			page 93


 3409 0004 FFF7FEFF 		bl	inHandlerMode
 3410              	.LVL305:
 3411              		.loc 1 1670 6 view .LVU823
 3412 0008 0028     		cmp	r0, #0
 3413 000a 04D1     		bne	.L244
1671:Middlewares/Third_Party/FreeRTOS/Source/CMSIS_RTOS/cmsis_os.c ****     return osErrorISR;
1672:Middlewares/Third_Party/FreeRTOS/Source/CMSIS_RTOS/cmsis_os.c ****   }
1673:Middlewares/Third_Party/FreeRTOS/Source/CMSIS_RTOS/cmsis_os.c **** 
1674:Middlewares/Third_Party/FreeRTOS/Source/CMSIS_RTOS/cmsis_os.c ****   vQueueDelete(queue_id);
 3414              		.loc 1 1674 3 is_stmt 1 view .LVU824
 3415 000c 2000     		movs	r0, r4
 3416 000e FFF7FEFF 		bl	vQueueDelete
 3417              	.LVL306:
1675:Middlewares/Third_Party/FreeRTOS/Source/CMSIS_RTOS/cmsis_os.c **** 
1676:Middlewares/Third_Party/FreeRTOS/Source/CMSIS_RTOS/cmsis_os.c ****   return osOK; 
 3418              		.loc 1 1676 3 view .LVU825
 3419              		.loc 1 1676 10 is_stmt 0 view .LVU826
 3420 0012 0020     		movs	r0, #0
 3421              	.L242:
1677:Middlewares/Third_Party/FreeRTOS/Source/CMSIS_RTOS/cmsis_os.c **** }
 3422              		.loc 1 1677 1 view .LVU827
 3423              		@ sp needed
 3424              	.LVL307:
 3425              		.loc 1 1677 1 view .LVU828
 3426 0014 10BD     		pop	{r4, pc}
 3427              	.LVL308:
 3428              	.L244:
1671:Middlewares/Third_Party/FreeRTOS/Source/CMSIS_RTOS/cmsis_os.c ****     return osErrorISR;
 3429              		.loc 1 1671 12 view .LVU829
 3430 0016 8220     		movs	r0, #130
 3431 0018 FCE7     		b	.L242
 3432              		.cfi_endproc
 3433              	.LFE76:
 3435              		.section	.text.osRecursiveMutexCreate,"ax",%progbits
 3436              		.align	1
 3437              		.global	osRecursiveMutexCreate
 3438              		.syntax unified
 3439              		.code	16
 3440              		.thumb_func
 3441              		.fpu softvfp
 3443              	osRecursiveMutexCreate:
 3444              	.LVL309:
 3445              	.LFB77:
1678:Middlewares/Third_Party/FreeRTOS/Source/CMSIS_RTOS/cmsis_os.c **** 
1679:Middlewares/Third_Party/FreeRTOS/Source/CMSIS_RTOS/cmsis_os.c **** /**
1680:Middlewares/Third_Party/FreeRTOS/Source/CMSIS_RTOS/cmsis_os.c **** * @brief  Create and Initialize a Recursive Mutex
1681:Middlewares/Third_Party/FreeRTOS/Source/CMSIS_RTOS/cmsis_os.c **** * @param  mutex_def     mutex definition referenced with \ref osMutex.
1682:Middlewares/Third_Party/FreeRTOS/Source/CMSIS_RTOS/cmsis_os.c **** * @retval  mutex ID for reference by other functions or NULL in case of error..
1683:Middlewares/Third_Party/FreeRTOS/Source/CMSIS_RTOS/cmsis_os.c **** */
1684:Middlewares/Third_Party/FreeRTOS/Source/CMSIS_RTOS/cmsis_os.c **** osMutexId osRecursiveMutexCreate (const osMutexDef_t *mutex_def)
1685:Middlewares/Third_Party/FreeRTOS/Source/CMSIS_RTOS/cmsis_os.c **** {
 3446              		.loc 1 1685 1 is_stmt 1 view -0
 3447              		.cfi_startproc
 3448              		@ args = 0, pretend = 0, frame = 0
 3449              		@ frame_needed = 0, uses_anonymous_args = 0
 3450              		@ link register save eliminated.
1686:Middlewares/Third_Party/FreeRTOS/Source/CMSIS_RTOS/cmsis_os.c **** #if (configUSE_RECURSIVE_MUTEXES == 1)
ARM GAS  /tmp/ccAhcryT.s 			page 94


1687:Middlewares/Third_Party/FreeRTOS/Source/CMSIS_RTOS/cmsis_os.c **** #if( configSUPPORT_STATIC_ALLOCATION == 1 ) && ( configSUPPORT_DYNAMIC_ALLOCATION == 1 )
1688:Middlewares/Third_Party/FreeRTOS/Source/CMSIS_RTOS/cmsis_os.c **** 
1689:Middlewares/Third_Party/FreeRTOS/Source/CMSIS_RTOS/cmsis_os.c ****   if (mutex_def->controlblock != NULL){
1690:Middlewares/Third_Party/FreeRTOS/Source/CMSIS_RTOS/cmsis_os.c ****     return xSemaphoreCreateRecursiveMutexStatic( mutex_def->controlblock );
1691:Middlewares/Third_Party/FreeRTOS/Source/CMSIS_RTOS/cmsis_os.c ****   }
1692:Middlewares/Third_Party/FreeRTOS/Source/CMSIS_RTOS/cmsis_os.c ****   else {
1693:Middlewares/Third_Party/FreeRTOS/Source/CMSIS_RTOS/cmsis_os.c ****     return xSemaphoreCreateRecursiveMutex();
1694:Middlewares/Third_Party/FreeRTOS/Source/CMSIS_RTOS/cmsis_os.c ****   }
1695:Middlewares/Third_Party/FreeRTOS/Source/CMSIS_RTOS/cmsis_os.c **** #elif ( configSUPPORT_STATIC_ALLOCATION == 1 )
1696:Middlewares/Third_Party/FreeRTOS/Source/CMSIS_RTOS/cmsis_os.c ****   return xSemaphoreCreateRecursiveMutexStatic( mutex_def->controlblock );
1697:Middlewares/Third_Party/FreeRTOS/Source/CMSIS_RTOS/cmsis_os.c **** #else 
1698:Middlewares/Third_Party/FreeRTOS/Source/CMSIS_RTOS/cmsis_os.c ****   return xSemaphoreCreateRecursiveMutex();
1699:Middlewares/Third_Party/FreeRTOS/Source/CMSIS_RTOS/cmsis_os.c **** #endif
1700:Middlewares/Third_Party/FreeRTOS/Source/CMSIS_RTOS/cmsis_os.c **** #else
1701:Middlewares/Third_Party/FreeRTOS/Source/CMSIS_RTOS/cmsis_os.c ****   return NULL;
 3451              		.loc 1 1701 3 view .LVU831
1702:Middlewares/Third_Party/FreeRTOS/Source/CMSIS_RTOS/cmsis_os.c **** #endif	
1703:Middlewares/Third_Party/FreeRTOS/Source/CMSIS_RTOS/cmsis_os.c **** }
 3452              		.loc 1 1703 1 is_stmt 0 view .LVU832
 3453 0000 0020     		movs	r0, #0
 3454              	.LVL310:
 3455              		.loc 1 1703 1 view .LVU833
 3456              		@ sp needed
 3457 0002 7047     		bx	lr
 3458              		.cfi_endproc
 3459              	.LFE77:
 3461              		.section	.text.osRecursiveMutexRelease,"ax",%progbits
 3462              		.align	1
 3463              		.global	osRecursiveMutexRelease
 3464              		.syntax unified
 3465              		.code	16
 3466              		.thumb_func
 3467              		.fpu softvfp
 3469              	osRecursiveMutexRelease:
 3470              	.LVL311:
 3471              	.LFB78:
1704:Middlewares/Third_Party/FreeRTOS/Source/CMSIS_RTOS/cmsis_os.c **** 
1705:Middlewares/Third_Party/FreeRTOS/Source/CMSIS_RTOS/cmsis_os.c **** /**
1706:Middlewares/Third_Party/FreeRTOS/Source/CMSIS_RTOS/cmsis_os.c **** * @brief  Release a Recursive Mutex
1707:Middlewares/Third_Party/FreeRTOS/Source/CMSIS_RTOS/cmsis_os.c **** * @param   mutex_id      mutex ID obtained by \ref osRecursiveMutexCreate.
1708:Middlewares/Third_Party/FreeRTOS/Source/CMSIS_RTOS/cmsis_os.c **** * @retval  status code that indicates the execution status of the function.
1709:Middlewares/Third_Party/FreeRTOS/Source/CMSIS_RTOS/cmsis_os.c **** */
1710:Middlewares/Third_Party/FreeRTOS/Source/CMSIS_RTOS/cmsis_os.c **** osStatus osRecursiveMutexRelease (osMutexId mutex_id)
1711:Middlewares/Third_Party/FreeRTOS/Source/CMSIS_RTOS/cmsis_os.c **** {
 3472              		.loc 1 1711 1 is_stmt 1 view -0
 3473              		.cfi_startproc
 3474              		@ args = 0, pretend = 0, frame = 0
 3475              		@ frame_needed = 0, uses_anonymous_args = 0
 3476              		@ link register save eliminated.
1712:Middlewares/Third_Party/FreeRTOS/Source/CMSIS_RTOS/cmsis_os.c **** #if (configUSE_RECURSIVE_MUTEXES == 1)
1713:Middlewares/Third_Party/FreeRTOS/Source/CMSIS_RTOS/cmsis_os.c ****   osStatus result = osOK;
1714:Middlewares/Third_Party/FreeRTOS/Source/CMSIS_RTOS/cmsis_os.c ****  
1715:Middlewares/Third_Party/FreeRTOS/Source/CMSIS_RTOS/cmsis_os.c ****   if (xSemaphoreGiveRecursive(mutex_id) != pdTRUE) 
1716:Middlewares/Third_Party/FreeRTOS/Source/CMSIS_RTOS/cmsis_os.c ****   {
1717:Middlewares/Third_Party/FreeRTOS/Source/CMSIS_RTOS/cmsis_os.c ****     result = osErrorOS;
1718:Middlewares/Third_Party/FreeRTOS/Source/CMSIS_RTOS/cmsis_os.c ****   }
1719:Middlewares/Third_Party/FreeRTOS/Source/CMSIS_RTOS/cmsis_os.c ****   return result;
ARM GAS  /tmp/ccAhcryT.s 			page 95


1720:Middlewares/Third_Party/FreeRTOS/Source/CMSIS_RTOS/cmsis_os.c **** #else
1721:Middlewares/Third_Party/FreeRTOS/Source/CMSIS_RTOS/cmsis_os.c **** 	return osErrorResource;
 3477              		.loc 1 1721 2 view .LVU835
1722:Middlewares/Third_Party/FreeRTOS/Source/CMSIS_RTOS/cmsis_os.c **** #endif
1723:Middlewares/Third_Party/FreeRTOS/Source/CMSIS_RTOS/cmsis_os.c **** }
 3478              		.loc 1 1723 1 is_stmt 0 view .LVU836
 3479 0000 8120     		movs	r0, #129
 3480              	.LVL312:
 3481              		.loc 1 1723 1 view .LVU837
 3482              		@ sp needed
 3483 0002 7047     		bx	lr
 3484              		.cfi_endproc
 3485              	.LFE78:
 3487              		.section	.text.osRecursiveMutexWait,"ax",%progbits
 3488              		.align	1
 3489              		.global	osRecursiveMutexWait
 3490              		.syntax unified
 3491              		.code	16
 3492              		.thumb_func
 3493              		.fpu softvfp
 3495              	osRecursiveMutexWait:
 3496              	.LVL313:
 3497              	.LFB79:
1724:Middlewares/Third_Party/FreeRTOS/Source/CMSIS_RTOS/cmsis_os.c **** 
1725:Middlewares/Third_Party/FreeRTOS/Source/CMSIS_RTOS/cmsis_os.c **** /**
1726:Middlewares/Third_Party/FreeRTOS/Source/CMSIS_RTOS/cmsis_os.c **** * @brief  Release a Recursive Mutex
1727:Middlewares/Third_Party/FreeRTOS/Source/CMSIS_RTOS/cmsis_os.c **** * @param   mutex_id    mutex ID obtained by \ref osRecursiveMutexCreate.
1728:Middlewares/Third_Party/FreeRTOS/Source/CMSIS_RTOS/cmsis_os.c **** * @param millisec      timeout value or 0 in case of no time-out.
1729:Middlewares/Third_Party/FreeRTOS/Source/CMSIS_RTOS/cmsis_os.c **** * @retval  status code that indicates the execution status of the function.
1730:Middlewares/Third_Party/FreeRTOS/Source/CMSIS_RTOS/cmsis_os.c **** */
1731:Middlewares/Third_Party/FreeRTOS/Source/CMSIS_RTOS/cmsis_os.c **** osStatus osRecursiveMutexWait (osMutexId mutex_id, uint32_t millisec)
1732:Middlewares/Third_Party/FreeRTOS/Source/CMSIS_RTOS/cmsis_os.c **** {
 3498              		.loc 1 1732 1 is_stmt 1 view -0
 3499              		.cfi_startproc
 3500              		@ args = 0, pretend = 0, frame = 0
 3501              		@ frame_needed = 0, uses_anonymous_args = 0
 3502              		@ link register save eliminated.
1733:Middlewares/Third_Party/FreeRTOS/Source/CMSIS_RTOS/cmsis_os.c **** #if (configUSE_RECURSIVE_MUTEXES == 1)
1734:Middlewares/Third_Party/FreeRTOS/Source/CMSIS_RTOS/cmsis_os.c ****   TickType_t ticks;
1735:Middlewares/Third_Party/FreeRTOS/Source/CMSIS_RTOS/cmsis_os.c ****   
1736:Middlewares/Third_Party/FreeRTOS/Source/CMSIS_RTOS/cmsis_os.c ****   if (mutex_id == NULL)
1737:Middlewares/Third_Party/FreeRTOS/Source/CMSIS_RTOS/cmsis_os.c ****   {
1738:Middlewares/Third_Party/FreeRTOS/Source/CMSIS_RTOS/cmsis_os.c ****     return osErrorParameter;
1739:Middlewares/Third_Party/FreeRTOS/Source/CMSIS_RTOS/cmsis_os.c ****   }
1740:Middlewares/Third_Party/FreeRTOS/Source/CMSIS_RTOS/cmsis_os.c ****   
1741:Middlewares/Third_Party/FreeRTOS/Source/CMSIS_RTOS/cmsis_os.c ****   ticks = 0;
1742:Middlewares/Third_Party/FreeRTOS/Source/CMSIS_RTOS/cmsis_os.c ****   if (millisec == osWaitForever) 
1743:Middlewares/Third_Party/FreeRTOS/Source/CMSIS_RTOS/cmsis_os.c ****   {
1744:Middlewares/Third_Party/FreeRTOS/Source/CMSIS_RTOS/cmsis_os.c ****     ticks = portMAX_DELAY;
1745:Middlewares/Third_Party/FreeRTOS/Source/CMSIS_RTOS/cmsis_os.c ****   }
1746:Middlewares/Third_Party/FreeRTOS/Source/CMSIS_RTOS/cmsis_os.c ****   else if (millisec != 0) 
1747:Middlewares/Third_Party/FreeRTOS/Source/CMSIS_RTOS/cmsis_os.c ****   {
1748:Middlewares/Third_Party/FreeRTOS/Source/CMSIS_RTOS/cmsis_os.c ****     ticks = millisec / portTICK_PERIOD_MS;
1749:Middlewares/Third_Party/FreeRTOS/Source/CMSIS_RTOS/cmsis_os.c ****     if (ticks == 0) 
1750:Middlewares/Third_Party/FreeRTOS/Source/CMSIS_RTOS/cmsis_os.c ****     {
1751:Middlewares/Third_Party/FreeRTOS/Source/CMSIS_RTOS/cmsis_os.c ****       ticks = 1;
1752:Middlewares/Third_Party/FreeRTOS/Source/CMSIS_RTOS/cmsis_os.c ****     }
ARM GAS  /tmp/ccAhcryT.s 			page 96


1753:Middlewares/Third_Party/FreeRTOS/Source/CMSIS_RTOS/cmsis_os.c ****   }
1754:Middlewares/Third_Party/FreeRTOS/Source/CMSIS_RTOS/cmsis_os.c ****   
1755:Middlewares/Third_Party/FreeRTOS/Source/CMSIS_RTOS/cmsis_os.c ****   if (xSemaphoreTakeRecursive(mutex_id, ticks) != pdTRUE) 
1756:Middlewares/Third_Party/FreeRTOS/Source/CMSIS_RTOS/cmsis_os.c ****   {
1757:Middlewares/Third_Party/FreeRTOS/Source/CMSIS_RTOS/cmsis_os.c ****     return osErrorOS;
1758:Middlewares/Third_Party/FreeRTOS/Source/CMSIS_RTOS/cmsis_os.c ****   }
1759:Middlewares/Third_Party/FreeRTOS/Source/CMSIS_RTOS/cmsis_os.c ****   return osOK;
1760:Middlewares/Third_Party/FreeRTOS/Source/CMSIS_RTOS/cmsis_os.c **** #else
1761:Middlewares/Third_Party/FreeRTOS/Source/CMSIS_RTOS/cmsis_os.c **** 	return osErrorResource;
 3503              		.loc 1 1761 2 view .LVU839
1762:Middlewares/Third_Party/FreeRTOS/Source/CMSIS_RTOS/cmsis_os.c **** #endif
1763:Middlewares/Third_Party/FreeRTOS/Source/CMSIS_RTOS/cmsis_os.c **** }
 3504              		.loc 1 1763 1 is_stmt 0 view .LVU840
 3505 0000 8120     		movs	r0, #129
 3506              	.LVL314:
 3507              		.loc 1 1763 1 view .LVU841
 3508              		@ sp needed
 3509 0002 7047     		bx	lr
 3510              		.cfi_endproc
 3511              	.LFE79:
 3513              		.section	.text.osSemaphoreGetCount,"ax",%progbits
 3514              		.align	1
 3515              		.global	osSemaphoreGetCount
 3516              		.syntax unified
 3517              		.code	16
 3518              		.thumb_func
 3519              		.fpu softvfp
 3521              	osSemaphoreGetCount:
 3522              	.LVL315:
 3523              	.LFB80:
1764:Middlewares/Third_Party/FreeRTOS/Source/CMSIS_RTOS/cmsis_os.c **** 
1765:Middlewares/Third_Party/FreeRTOS/Source/CMSIS_RTOS/cmsis_os.c **** /**
1766:Middlewares/Third_Party/FreeRTOS/Source/CMSIS_RTOS/cmsis_os.c **** * @brief  Returns the current count value of a counting semaphore
1767:Middlewares/Third_Party/FreeRTOS/Source/CMSIS_RTOS/cmsis_os.c **** * @param  semaphore_id  semaphore_id ID obtained by \ref osSemaphoreCreate.
1768:Middlewares/Third_Party/FreeRTOS/Source/CMSIS_RTOS/cmsis_os.c **** * @retval  count value
1769:Middlewares/Third_Party/FreeRTOS/Source/CMSIS_RTOS/cmsis_os.c **** */
1770:Middlewares/Third_Party/FreeRTOS/Source/CMSIS_RTOS/cmsis_os.c **** uint32_t osSemaphoreGetCount(osSemaphoreId semaphore_id)
1771:Middlewares/Third_Party/FreeRTOS/Source/CMSIS_RTOS/cmsis_os.c **** {
 3524              		.loc 1 1771 1 is_stmt 1 view -0
 3525              		.cfi_startproc
 3526              		@ args = 0, pretend = 0, frame = 0
 3527              		@ frame_needed = 0, uses_anonymous_args = 0
 3528              		.loc 1 1771 1 is_stmt 0 view .LVU843
 3529 0000 10B5     		push	{r4, lr}
 3530              	.LCFI55:
 3531              		.cfi_def_cfa_offset 8
 3532              		.cfi_offset 4, -8
 3533              		.cfi_offset 14, -4
1772:Middlewares/Third_Party/FreeRTOS/Source/CMSIS_RTOS/cmsis_os.c ****   return uxSemaphoreGetCount(semaphore_id);
 3534              		.loc 1 1772 3 is_stmt 1 view .LVU844
 3535              		.loc 1 1772 10 is_stmt 0 view .LVU845
 3536 0002 FFF7FEFF 		bl	uxQueueMessagesWaiting
 3537              	.LVL316:
1773:Middlewares/Third_Party/FreeRTOS/Source/CMSIS_RTOS/cmsis_os.c **** }
 3538              		.loc 1 1773 1 view .LVU846
 3539              		@ sp needed
 3540 0006 10BD     		pop	{r4, pc}
ARM GAS  /tmp/ccAhcryT.s 			page 97


 3541              		.cfi_endproc
 3542              	.LFE80:
 3544              		.text
 3545              	.Letext0:
 3546              		.file 3 "/usr/arm-none-eabi/include/machine/_default_types.h"
 3547              		.file 4 "/usr/arm-none-eabi/include/sys/lock.h"
 3548              		.file 5 "/usr/arm-none-eabi/include/sys/_types.h"
 3549              		.file 6 "/usr/lib/gcc/arm-none-eabi/8.2.0/include/stddef.h"
 3550              		.file 7 "/usr/arm-none-eabi/include/sys/reent.h"
 3551              		.file 8 "/usr/arm-none-eabi/include/sys/_stdint.h"
 3552              		.file 9 "Inc/FreeRTOSConfig.h"
 3553              		.file 10 "Middlewares/Third_Party/FreeRTOS/Source/include/projdefs.h"
 3554              		.file 11 "Middlewares/Third_Party/FreeRTOS/Source/portable/GCC/ARM_CM0/portmacro.h"
 3555              		.file 12 "Middlewares/Third_Party/FreeRTOS/Source/include/task.h"
 3556              		.file 13 "Middlewares/Third_Party/FreeRTOS/Source/include/timers.h"
 3557              		.file 14 "Middlewares/Third_Party/FreeRTOS/Source/include/queue.h"
 3558              		.file 15 "Middlewares/Third_Party/FreeRTOS/Source/include/semphr.h"
 3559              		.file 16 "Middlewares/Third_Party/FreeRTOS/Source/CMSIS_RTOS/cmsis_os.h"
 3560              		.file 17 "Middlewares/Third_Party/FreeRTOS/Source/include/portable.h"
 3561              		.file 18 "<built-in>"
ARM GAS  /tmp/ccAhcryT.s 			page 98


DEFINED SYMBOLS
                            *ABS*:0000000000000000 cmsis_os.c
     /tmp/ccAhcryT.s:16     .text.makeFreeRtosPriority:0000000000000000 $t
     /tmp/ccAhcryT.s:23     .text.makeFreeRtosPriority:0000000000000000 makeFreeRtosPriority
     /tmp/ccAhcryT.s:57     .text.makeCmsisPriority:0000000000000000 $t
     /tmp/ccAhcryT.s:63     .text.makeCmsisPriority:0000000000000000 makeCmsisPriority
     /tmp/ccAhcryT.s:99     .text.inHandlerMode:0000000000000000 $t
     /tmp/ccAhcryT.s:105    .text.inHandlerMode:0000000000000000 inHandlerMode
     /tmp/ccAhcryT.s:141    .text.osKernelStart:0000000000000000 $t
     /tmp/ccAhcryT.s:148    .text.osKernelStart:0000000000000000 osKernelStart
     /tmp/ccAhcryT.s:171    .text.osKernelRunning:0000000000000000 $t
     /tmp/ccAhcryT.s:178    .text.osKernelRunning:0000000000000000 osKernelRunning
     /tmp/ccAhcryT.s:210    .text.osKernelSysTick:0000000000000000 $t
     /tmp/ccAhcryT.s:217    .text.osKernelSysTick:0000000000000000 osKernelSysTick
     /tmp/ccAhcryT.s:253    .text.osThreadCreate:0000000000000000 $t
     /tmp/ccAhcryT.s:260    .text.osThreadCreate:0000000000000000 osThreadCreate
     /tmp/ccAhcryT.s:327    .text.osThreadGetId:0000000000000000 $t
     /tmp/ccAhcryT.s:334    .text.osThreadGetId:0000000000000000 osThreadGetId
     /tmp/ccAhcryT.s:356    .text.osThreadTerminate:0000000000000000 $t
     /tmp/ccAhcryT.s:363    .text.osThreadTerminate:0000000000000000 osThreadTerminate
     /tmp/ccAhcryT.s:388    .text.osThreadYield:0000000000000000 $t
     /tmp/ccAhcryT.s:395    .text.osThreadYield:0000000000000000 osThreadYield
     /tmp/ccAhcryT.s:418    .text.osThreadSetPriority:0000000000000000 $t
     /tmp/ccAhcryT.s:425    .text.osThreadSetPriority:0000000000000000 osThreadSetPriority
     /tmp/ccAhcryT.s:461    .text.osThreadGetPriority:0000000000000000 $t
     /tmp/ccAhcryT.s:468    .text.osThreadGetPriority:0000000000000000 osThreadGetPriority
     /tmp/ccAhcryT.s:516    .text.osDelay:0000000000000000 $t
     /tmp/ccAhcryT.s:523    .text.osDelay:0000000000000000 osDelay
     /tmp/ccAhcryT.s:556    .text.osTimerCreate:0000000000000000 $t
     /tmp/ccAhcryT.s:563    .text.osTimerCreate:0000000000000000 osTimerCreate
     /tmp/ccAhcryT.s:582    .text.osTimerStart:0000000000000000 $t
     /tmp/ccAhcryT.s:589    .text.osTimerStart:0000000000000000 osTimerStart
     /tmp/ccAhcryT.s:610    .text.osTimerStop:0000000000000000 $t
     /tmp/ccAhcryT.s:617    .text.osTimerStop:0000000000000000 osTimerStop
     /tmp/ccAhcryT.s:638    .text.osTimerDelete:0000000000000000 $t
     /tmp/ccAhcryT.s:645    .text.osTimerDelete:0000000000000000 osTimerDelete
     /tmp/ccAhcryT.s:666    .text.osSignalSet:0000000000000000 $t
     /tmp/ccAhcryT.s:673    .text.osSignalSet:0000000000000000 osSignalSet
     /tmp/ccAhcryT.s:767    .text.osSignalSet:000000000000005c $d
     /tmp/ccAhcryT.s:772    .text.osSignalWait:0000000000000000 $t
     /tmp/ccAhcryT.s:779    .text.osSignalWait:0000000000000000 osSignalWait
     /tmp/ccAhcryT.s:896    .text.osMutexCreate:0000000000000000 $t
     /tmp/ccAhcryT.s:903    .text.osMutexCreate:0000000000000000 osMutexCreate
     /tmp/ccAhcryT.s:930    .text.osMutexWait:0000000000000000 $t
     /tmp/ccAhcryT.s:937    .text.osMutexWait:0000000000000000 osMutexWait
     /tmp/ccAhcryT.s:1054   .text.osMutexWait:0000000000000068 $d
     /tmp/ccAhcryT.s:1059   .text.osMutexRelease:0000000000000000 $t
     /tmp/ccAhcryT.s:1066   .text.osMutexRelease:0000000000000000 osMutexRelease
     /tmp/ccAhcryT.s:1154   .text.osMutexRelease:0000000000000054 $d
     /tmp/ccAhcryT.s:1159   .text.osMutexDelete:0000000000000000 $t
     /tmp/ccAhcryT.s:1166   .text.osMutexDelete:0000000000000000 osMutexDelete
     /tmp/ccAhcryT.s:1209   .text.osSemaphoreCreate:0000000000000000 $t
     /tmp/ccAhcryT.s:1216   .text.osSemaphoreCreate:0000000000000000 osSemaphoreCreate
     /tmp/ccAhcryT.s:1272   .text.osSemaphoreWait:0000000000000000 $t
     /tmp/ccAhcryT.s:1279   .text.osSemaphoreWait:0000000000000000 osSemaphoreWait
     /tmp/ccAhcryT.s:1396   .text.osSemaphoreWait:0000000000000068 $d
     /tmp/ccAhcryT.s:1401   .text.osSemaphoreRelease:0000000000000000 $t
ARM GAS  /tmp/ccAhcryT.s 			page 99


     /tmp/ccAhcryT.s:1408   .text.osSemaphoreRelease:0000000000000000 osSemaphoreRelease
     /tmp/ccAhcryT.s:1496   .text.osSemaphoreRelease:0000000000000054 $d
     /tmp/ccAhcryT.s:1501   .text.osSemaphoreDelete:0000000000000000 $t
     /tmp/ccAhcryT.s:1508   .text.osSemaphoreDelete:0000000000000000 osSemaphoreDelete
     /tmp/ccAhcryT.s:1551   .text.osPoolCreate:0000000000000000 $t
     /tmp/ccAhcryT.s:1558   .text.osPoolCreate:0000000000000000 osPoolCreate
     /tmp/ccAhcryT.s:1690   .text.osPoolAlloc:0000000000000000 $t
     /tmp/ccAhcryT.s:1697   .text.osPoolAlloc:0000000000000000 osPoolAlloc
     /tmp/ccAhcryT.s:1837   .text.osPoolCAlloc:0000000000000000 $t
     /tmp/ccAhcryT.s:1844   .text.osPoolCAlloc:0000000000000000 osPoolCAlloc
     /tmp/ccAhcryT.s:1886   .text.osPoolFree:0000000000000000 $t
     /tmp/ccAhcryT.s:1893   .text.osPoolFree:0000000000000000 osPoolFree
     /tmp/ccAhcryT.s:2008   .text.osMessageCreate:0000000000000000 $t
     /tmp/ccAhcryT.s:2015   .text.osMessageCreate:0000000000000000 osMessageCreate
     /tmp/ccAhcryT.s:2047   .text.osMessagePut:0000000000000000 $t
     /tmp/ccAhcryT.s:2054   .text.osMessagePut:0000000000000000 osMessagePut
     /tmp/ccAhcryT.s:2157   .text.osMessagePut:0000000000000060 $d
     /tmp/ccAhcryT.s:2162   .text.osMessageGet:0000000000000000 $t
     /tmp/ccAhcryT.s:2169   .text.osMessageGet:0000000000000000 osMessageGet
     /tmp/ccAhcryT.s:2328   .text.osMessageGet:0000000000000090 $d
     /tmp/ccAhcryT.s:2333   .text.osMailCreate:0000000000000000 $t
     /tmp/ccAhcryT.s:2340   .text.osMailCreate:0000000000000000 osMailCreate
     /tmp/ccAhcryT.s:2460   .text.osMailAlloc:0000000000000000 $t
     /tmp/ccAhcryT.s:2467   .text.osMailAlloc:0000000000000000 osMailAlloc
     /tmp/ccAhcryT.s:2509   .text.osMailCAlloc:0000000000000000 $t
     /tmp/ccAhcryT.s:2516   .text.osMailCAlloc:0000000000000000 osMailCAlloc
     /tmp/ccAhcryT.s:2572   .text.osMailPut:0000000000000000 $t
     /tmp/ccAhcryT.s:2579   .text.osMailPut:0000000000000000 osMailPut
     /tmp/ccAhcryT.s:2679   .text.osMailPut:0000000000000060 $d
     /tmp/ccAhcryT.s:2684   .text.osMailGet:0000000000000000 $t
     /tmp/ccAhcryT.s:2691   .text.osMailGet:0000000000000000 osMailGet
     /tmp/ccAhcryT.s:2846   .text.osMailGet:000000000000008c $d
     /tmp/ccAhcryT.s:2851   .text.osMailFree:0000000000000000 $t
     /tmp/ccAhcryT.s:2858   .text.osMailFree:0000000000000000 osMailFree
     /tmp/ccAhcryT.s:2897   .text.osSystickHandler:0000000000000000 $t
     /tmp/ccAhcryT.s:2904   .text.osSystickHandler:0000000000000000 osSystickHandler
     /tmp/ccAhcryT.s:2936   .text.osThreadSuspend:0000000000000000 $t
     /tmp/ccAhcryT.s:2943   .text.osThreadSuspend:0000000000000000 osThreadSuspend
     /tmp/ccAhcryT.s:2968   .text.osThreadResume:0000000000000000 $t
     /tmp/ccAhcryT.s:2975   .text.osThreadResume:0000000000000000 osThreadResume
     /tmp/ccAhcryT.s:3027   .text.osThreadResume:000000000000002c $d
     /tmp/ccAhcryT.s:3032   .text.osThreadSuspendAll:0000000000000000 $t
     /tmp/ccAhcryT.s:3039   .text.osThreadSuspendAll:0000000000000000 osThreadSuspendAll
     /tmp/ccAhcryT.s:3062   .text.osThreadResumeAll:0000000000000000 $t
     /tmp/ccAhcryT.s:3069   .text.osThreadResumeAll:0000000000000000 osThreadResumeAll
     /tmp/ccAhcryT.s:3101   .text.osDelayUntil:0000000000000000 $t
     /tmp/ccAhcryT.s:3108   .text.osDelayUntil:0000000000000000 osDelayUntil
     /tmp/ccAhcryT.s:3129   .text.osAbortDelay:0000000000000000 $t
     /tmp/ccAhcryT.s:3136   .text.osAbortDelay:0000000000000000 osAbortDelay
     /tmp/ccAhcryT.s:3156   .text.osThreadList:0000000000000000 $t
     /tmp/ccAhcryT.s:3163   .text.osThreadList:0000000000000000 osThreadList
     /tmp/ccAhcryT.s:3182   .text.osMessagePeek:0000000000000000 $t
     /tmp/ccAhcryT.s:3189   .text.osMessagePeek:0000000000000000 osMessagePeek
     /tmp/ccAhcryT.s:3304   .text.osMessageWaiting:0000000000000000 $t
     /tmp/ccAhcryT.s:3311   .text.osMessageWaiting:0000000000000000 osMessageWaiting
     /tmp/ccAhcryT.s:3355   .text.osMessageAvailableSpace:0000000000000000 $t
     /tmp/ccAhcryT.s:3362   .text.osMessageAvailableSpace:0000000000000000 osMessageAvailableSpace
ARM GAS  /tmp/ccAhcryT.s 			page 100


     /tmp/ccAhcryT.s:3386   .text.osMessageDelete:0000000000000000 $t
     /tmp/ccAhcryT.s:3393   .text.osMessageDelete:0000000000000000 osMessageDelete
     /tmp/ccAhcryT.s:3436   .text.osRecursiveMutexCreate:0000000000000000 $t
     /tmp/ccAhcryT.s:3443   .text.osRecursiveMutexCreate:0000000000000000 osRecursiveMutexCreate
     /tmp/ccAhcryT.s:3462   .text.osRecursiveMutexRelease:0000000000000000 $t
     /tmp/ccAhcryT.s:3469   .text.osRecursiveMutexRelease:0000000000000000 osRecursiveMutexRelease
     /tmp/ccAhcryT.s:3488   .text.osRecursiveMutexWait:0000000000000000 $t
     /tmp/ccAhcryT.s:3495   .text.osRecursiveMutexWait:0000000000000000 osRecursiveMutexWait
     /tmp/ccAhcryT.s:3514   .text.osSemaphoreGetCount:0000000000000000 $t
     /tmp/ccAhcryT.s:3521   .text.osSemaphoreGetCount:0000000000000000 osSemaphoreGetCount

UNDEFINED SYMBOLS
vTaskStartScheduler
xTaskGetSchedulerState
xTaskGetTickCountFromISR
xTaskGetTickCount
xTaskCreate
xTaskGetCurrentTaskHandle
vTaskDelete
vPortYield
vTaskPrioritySet
uxTaskPriorityGetFromISR
uxTaskPriorityGet
vTaskDelay
xTaskGenericNotifyFromISR
xTaskGenericNotify
xTaskNotifyWait
xQueueCreateMutex
xQueueReceiveFromISR
xQueueGenericReceive
xQueueGiveFromISR
xQueueGenericSend
vQueueDelete
xQueueGenericCreate
pvPortMalloc
vPortFree
ulSetInterruptMaskFromISR
vPortEnterCritical
vClearInterruptMaskFromISR
vPortExitCritical
memset
__aeabi_uidivmod
__aeabi_uidiv
xQueueGenericSendFromISR
xPortSysTickHandler
vTaskSuspend
xTaskResumeFromISR
vTaskResume
vTaskSuspendAll
xTaskResumeAll
uxQueueMessagesWaitingFromISR
uxQueueMessagesWaiting
uxQueueSpacesAvailable
