ARM GAS  /tmp/ccE1Ad8Q.s 			page 1


   1              		.cpu cortex-m0
   2              		.eabi_attribute 20, 1
   3              		.eabi_attribute 21, 1
   4              		.eabi_attribute 23, 3
   5              		.eabi_attribute 24, 1
   6              		.eabi_attribute 25, 1
   7              		.eabi_attribute 26, 1
   8              		.eabi_attribute 30, 1
   9              		.eabi_attribute 34, 0
  10              		.eabi_attribute 18, 4
  11              		.file	"init.c"
  12              		.text
  13              	.Ltext0:
  14              		.cfi_sections	.debug_frame
  15              		.section	.text.SystemClock_Config,"ax",%progbits
  16              		.align	1
  17              		.global	SystemClock_Config
  18              		.arch armv6s-m
  19              		.syntax unified
  20              		.code	16
  21              		.thumb_func
  22              		.fpu softvfp
  24              	SystemClock_Config:
  25              	.LFB37:
  26              		.file 1 "Src/init.c"
   1:Src/init.c    **** 
   2:Src/init.c    **** #include "init.h"
   3:Src/init.c    **** 
   4:Src/init.c    **** ADC_HandleTypeDef hadc;
   5:Src/init.c    **** DMA_HandleTypeDef hdma_adc;
   6:Src/init.c    **** 
   7:Src/init.c    **** I2C_HandleTypeDef hi2c1;
   8:Src/init.c    **** I2C_HandleTypeDef hi2c2;
   9:Src/init.c    **** DMA_HandleTypeDef hdma_i2c1_rx;
  10:Src/init.c    **** DMA_HandleTypeDef hdma_i2c1_tx;
  11:Src/init.c    **** DMA_HandleTypeDef hdma_i2c2_rx;
  12:Src/init.c    **** DMA_HandleTypeDef hdma_i2c2_tx;
  13:Src/init.c    **** 
  14:Src/init.c    **** /**
  15:Src/init.c    ****   * @brief System Clock Configuration
  16:Src/init.c    ****   * @retval None
  17:Src/init.c    ****   */
  18:Src/init.c    **** void SystemClock_Config(void)
  19:Src/init.c    **** {
  27              		.loc 1 19 1 view -0
  28              		.cfi_startproc
  29              		@ args = 0, pretend = 0, frame = 96
  30              		@ frame_needed = 0, uses_anonymous_args = 0
  31 0000 10B5     		push	{r4, lr}
  32              	.LCFI0:
  33              		.cfi_def_cfa_offset 8
  34              		.cfi_offset 4, -8
  35              		.cfi_offset 14, -4
  36 0002 98B0     		sub	sp, sp, #96
  37              	.LCFI1:
  38              		.cfi_def_cfa_offset 104
  20:Src/init.c    ****   RCC_OscInitTypeDef RCC_OscInitStruct = {0};
ARM GAS  /tmp/ccE1Ad8Q.s 			page 2


  39              		.loc 1 20 3 view .LVU1
  40              		.loc 1 20 22 is_stmt 0 view .LVU2
  41 0004 3022     		movs	r2, #48
  42 0006 0021     		movs	r1, #0
  43 0008 0CA8     		add	r0, sp, #48
  44 000a FFF7FEFF 		bl	memset
  45              	.LVL0:
  21:Src/init.c    ****   RCC_ClkInitTypeDef RCC_ClkInitStruct = {0};
  46              		.loc 1 21 3 is_stmt 1 view .LVU3
  47              		.loc 1 21 22 is_stmt 0 view .LVU4
  48 000e 1024     		movs	r4, #16
  49 0010 1022     		movs	r2, #16
  50 0012 0021     		movs	r1, #0
  51 0014 07A8     		add	r0, sp, #28
  52 0016 FFF7FEFF 		bl	memset
  53              	.LVL1:
  22:Src/init.c    ****   RCC_PeriphCLKInitTypeDef PeriphClkInit = {0};
  54              		.loc 1 22 3 is_stmt 1 view .LVU5
  55              		.loc 1 22 28 is_stmt 0 view .LVU6
  56 001a 1C22     		movs	r2, #28
  57 001c 0021     		movs	r1, #0
  58 001e 6846     		mov	r0, sp
  59 0020 FFF7FEFF 		bl	memset
  60              	.LVL2:
  23:Src/init.c    **** 
  24:Src/init.c    ****   /**Initializes the CPU, AHB and APB busses clocks 
  25:Src/init.c    ****   */
  26:Src/init.c    ****   RCC_OscInitStruct.OscillatorType = RCC_OSCILLATORTYPE_HSI|RCC_OSCILLATORTYPE_HSI14
  61              		.loc 1 26 3 is_stmt 1 view .LVU7
  62              		.loc 1 26 36 is_stmt 0 view .LVU8
  63 0024 3223     		movs	r3, #50
  64 0026 0B93     		str	r3, [sp, #44]
  27:Src/init.c    ****                               |RCC_OSCILLATORTYPE_HSI48;
  28:Src/init.c    ****   RCC_OscInitStruct.HSIState = RCC_HSI_ON;
  65              		.loc 1 28 3 is_stmt 1 view .LVU9
  66              		.loc 1 28 30 is_stmt 0 view .LVU10
  67 0028 313B     		subs	r3, r3, #49
  68 002a 0E93     		str	r3, [sp, #56]
  29:Src/init.c    ****   RCC_OscInitStruct.HSI48State = RCC_HSI48_ON;
  69              		.loc 1 29 3 is_stmt 1 view .LVU11
  70              		.loc 1 29 32 is_stmt 0 view .LVU12
  71 002c 1393     		str	r3, [sp, #76]
  30:Src/init.c    ****   RCC_OscInitStruct.HSI14State = RCC_HSI14_ON;
  72              		.loc 1 30 3 is_stmt 1 view .LVU13
  73              		.loc 1 30 32 is_stmt 0 view .LVU14
  74 002e 1093     		str	r3, [sp, #64]
  31:Src/init.c    ****   RCC_OscInitStruct.HSICalibrationValue = RCC_HSICALIBRATION_DEFAULT;
  75              		.loc 1 31 3 is_stmt 1 view .LVU15
  76              		.loc 1 31 41 is_stmt 0 view .LVU16
  77 0030 0F94     		str	r4, [sp, #60]
  32:Src/init.c    ****   RCC_OscInitStruct.HSI14CalibrationValue = 16;
  78              		.loc 1 32 3 is_stmt 1 view .LVU17
  79              		.loc 1 32 43 is_stmt 0 view .LVU18
  80 0032 1194     		str	r4, [sp, #68]
  33:Src/init.c    ****   RCC_OscInitStruct.PLL.PLLState = RCC_PLL_NONE;
  81              		.loc 1 33 3 is_stmt 1 view .LVU19
  34:Src/init.c    ****   if (HAL_RCC_OscConfig(&RCC_OscInitStruct) != HAL_OK)
ARM GAS  /tmp/ccE1Ad8Q.s 			page 3


  82              		.loc 1 34 3 view .LVU20
  83              		.loc 1 34 7 is_stmt 0 view .LVU21
  84 0034 0BA8     		add	r0, sp, #44
  85 0036 FFF7FEFF 		bl	HAL_RCC_OscConfig
  86              	.LVL3:
  87              		.loc 1 34 6 view .LVU22
  88 003a 0028     		cmp	r0, #0
  89 003c 18D1     		bne	.L5
  90              	.L2:
  35:Src/init.c    ****   {
  36:Src/init.c    ****     Error_Handler();
  37:Src/init.c    ****   }
  38:Src/init.c    ****   /**Initializes the CPU, AHB and APB busses clocks 
  39:Src/init.c    ****   */
  40:Src/init.c    ****   RCC_ClkInitStruct.ClockType = RCC_CLOCKTYPE_HCLK|RCC_CLOCKTYPE_SYSCLK
  91              		.loc 1 40 3 is_stmt 1 view .LVU23
  92              		.loc 1 40 31 is_stmt 0 view .LVU24
  93 003e 0723     		movs	r3, #7
  94 0040 0793     		str	r3, [sp, #28]
  41:Src/init.c    ****                               |RCC_CLOCKTYPE_PCLK1;
  42:Src/init.c    ****   RCC_ClkInitStruct.SYSCLKSource = RCC_SYSCLKSOURCE_HSI48;
  95              		.loc 1 42 3 is_stmt 1 view .LVU25
  96              		.loc 1 42 34 is_stmt 0 view .LVU26
  97 0042 043B     		subs	r3, r3, #4
  98 0044 0893     		str	r3, [sp, #32]
  43:Src/init.c    ****   RCC_ClkInitStruct.AHBCLKDivider = RCC_SYSCLK_DIV1;
  99              		.loc 1 43 3 is_stmt 1 view .LVU27
 100              		.loc 1 43 35 is_stmt 0 view .LVU28
 101 0046 0023     		movs	r3, #0
 102 0048 0993     		str	r3, [sp, #36]
  44:Src/init.c    ****   RCC_ClkInitStruct.APB1CLKDivider = RCC_HCLK_DIV1;
 103              		.loc 1 44 3 is_stmt 1 view .LVU29
 104              		.loc 1 44 36 is_stmt 0 view .LVU30
 105 004a 0A93     		str	r3, [sp, #40]
  45:Src/init.c    **** 
  46:Src/init.c    ****   if (HAL_RCC_ClockConfig(&RCC_ClkInitStruct, FLASH_LATENCY_1) != HAL_OK)
 106              		.loc 1 46 3 is_stmt 1 view .LVU31
 107              		.loc 1 46 7 is_stmt 0 view .LVU32
 108 004c 0121     		movs	r1, #1
 109 004e 07A8     		add	r0, sp, #28
 110 0050 FFF7FEFF 		bl	HAL_RCC_ClockConfig
 111              	.LVL4:
 112              		.loc 1 46 6 view .LVU33
 113 0054 0028     		cmp	r0, #0
 114 0056 0ED1     		bne	.L6
 115              	.L3:
  47:Src/init.c    ****   {
  48:Src/init.c    ****     Error_Handler();
  49:Src/init.c    ****   }
  50:Src/init.c    ****   PeriphClkInit.PeriphClockSelection = RCC_PERIPHCLK_USB|RCC_PERIPHCLK_I2C1;
 116              		.loc 1 50 3 is_stmt 1 view .LVU34
 117              		.loc 1 50 38 is_stmt 0 view .LVU35
 118 0058 0A4B     		ldr	r3, .L8
 119 005a 0093     		str	r3, [sp]
  51:Src/init.c    ****   PeriphClkInit.I2c1ClockSelection = RCC_I2C1CLKSOURCE_HSI;
 120              		.loc 1 51 3 is_stmt 1 view .LVU36
 121              		.loc 1 51 36 is_stmt 0 view .LVU37
ARM GAS  /tmp/ccE1Ad8Q.s 			page 4


 122 005c 0023     		movs	r3, #0
 123 005e 0493     		str	r3, [sp, #16]
  52:Src/init.c    ****   PeriphClkInit.UsbClockSelection = RCC_USBCLKSOURCE_HSI48;
 124              		.loc 1 52 3 is_stmt 1 view .LVU38
 125              		.loc 1 52 35 is_stmt 0 view .LVU39
 126 0060 0693     		str	r3, [sp, #24]
  53:Src/init.c    **** 
  54:Src/init.c    ****   if (HAL_RCCEx_PeriphCLKConfig(&PeriphClkInit) != HAL_OK)
 127              		.loc 1 54 3 is_stmt 1 view .LVU40
 128              		.loc 1 54 7 is_stmt 0 view .LVU41
 129 0062 6846     		mov	r0, sp
 130 0064 FFF7FEFF 		bl	HAL_RCCEx_PeriphCLKConfig
 131              	.LVL5:
 132              		.loc 1 54 6 view .LVU42
 133 0068 0028     		cmp	r0, #0
 134 006a 07D1     		bne	.L7
 135              	.L1:
  55:Src/init.c    ****   {
  56:Src/init.c    ****     Error_Handler();
  57:Src/init.c    ****   }
  58:Src/init.c    **** }
 136              		.loc 1 58 1 view .LVU43
 137 006c 18B0     		add	sp, sp, #96
 138              		@ sp needed
 139 006e 10BD     		pop	{r4, pc}
 140              	.L5:
  36:Src/init.c    ****   }
 141              		.loc 1 36 5 is_stmt 1 view .LVU44
 142 0070 FFF7FEFF 		bl	Error_Handler
 143              	.LVL6:
 144 0074 E3E7     		b	.L2
 145              	.L6:
  48:Src/init.c    ****   }
 146              		.loc 1 48 5 view .LVU45
 147 0076 FFF7FEFF 		bl	Error_Handler
 148              	.LVL7:
 149 007a EDE7     		b	.L3
 150              	.L7:
  56:Src/init.c    ****   }
 151              		.loc 1 56 5 view .LVU46
 152 007c FFF7FEFF 		bl	Error_Handler
 153              	.LVL8:
 154              		.loc 1 58 1 is_stmt 0 view .LVU47
 155 0080 F4E7     		b	.L1
 156              	.L9:
 157 0082 C046     		.align	2
 158              	.L8:
 159 0084 20000200 		.word	131104
 160              		.cfi_endproc
 161              	.LFE37:
 163              		.section	.text.MX_ADC_Init,"ax",%progbits
 164              		.align	1
 165              		.global	MX_ADC_Init
 166              		.syntax unified
 167              		.code	16
 168              		.thumb_func
 169              		.fpu softvfp
ARM GAS  /tmp/ccE1Ad8Q.s 			page 5


 171              	MX_ADC_Init:
 172              	.LFB38:
  59:Src/init.c    **** 
  60:Src/init.c    **** /**
  61:Src/init.c    ****   * @brief ADC Initialization Function
  62:Src/init.c    ****   * @param None
  63:Src/init.c    ****   * @retval None
  64:Src/init.c    ****   */
  65:Src/init.c    **** void MX_ADC_Init(void)
  66:Src/init.c    **** {
 173              		.loc 1 66 1 is_stmt 1 view -0
 174              		.cfi_startproc
 175              		@ args = 0, pretend = 0, frame = 16
 176              		@ frame_needed = 0, uses_anonymous_args = 0
 177 0000 00B5     		push	{lr}
 178              	.LCFI2:
 179              		.cfi_def_cfa_offset 4
 180              		.cfi_offset 14, -4
 181 0002 85B0     		sub	sp, sp, #20
 182              	.LCFI3:
 183              		.cfi_def_cfa_offset 24
  67:Src/init.c    **** 
  68:Src/init.c    ****   /* USER CODE BEGIN ADC_Init 0 */
  69:Src/init.c    **** 
  70:Src/init.c    ****   /* USER CODE END ADC_Init 0 */
  71:Src/init.c    **** 
  72:Src/init.c    ****   ADC_ChannelConfTypeDef sConfig = {0};
 184              		.loc 1 72 3 view .LVU49
 185              		.loc 1 72 26 is_stmt 0 view .LVU50
 186 0004 0C22     		movs	r2, #12
 187 0006 0021     		movs	r1, #0
 188 0008 01A8     		add	r0, sp, #4
 189 000a FFF7FEFF 		bl	memset
 190              	.LVL9:
  73:Src/init.c    **** 
  74:Src/init.c    ****   /* USER CODE BEGIN ADC_Init 1 */
  75:Src/init.c    **** 
  76:Src/init.c    ****   /* USER CODE END ADC_Init 1 */
  77:Src/init.c    ****   /**Configure the global features of the ADC (Clock, Resolution, Data Alignment and number of conv
  78:Src/init.c    ****   */
  79:Src/init.c    ****   hadc.Instance = ADC1;
 191              		.loc 1 79 3 is_stmt 1 view .LVU51
 192              		.loc 1 79 17 is_stmt 0 view .LVU52
 193 000e 1C48     		ldr	r0, .L17
 194 0010 1C4B     		ldr	r3, .L17+4
 195 0012 0360     		str	r3, [r0]
  80:Src/init.c    ****   hadc.Init.ClockPrescaler = ADC_CLOCK_ASYNC_DIV1;
 196              		.loc 1 80 3 is_stmt 1 view .LVU53
 197              		.loc 1 80 28 is_stmt 0 view .LVU54
 198 0014 0023     		movs	r3, #0
 199 0016 4360     		str	r3, [r0, #4]
  81:Src/init.c    ****   hadc.Init.Resolution = ADC_RESOLUTION_12B;
 200              		.loc 1 81 3 is_stmt 1 view .LVU55
 201              		.loc 1 81 24 is_stmt 0 view .LVU56
 202 0018 8360     		str	r3, [r0, #8]
  82:Src/init.c    ****   hadc.Init.DataAlign = ADC_DATAALIGN_RIGHT;
 203              		.loc 1 82 3 is_stmt 1 view .LVU57
ARM GAS  /tmp/ccE1Ad8Q.s 			page 6


 204              		.loc 1 82 23 is_stmt 0 view .LVU58
 205 001a C360     		str	r3, [r0, #12]
  83:Src/init.c    ****   hadc.Init.ScanConvMode = ADC_SCAN_DIRECTION_FORWARD;
 206              		.loc 1 83 3 is_stmt 1 view .LVU59
 207              		.loc 1 83 26 is_stmt 0 view .LVU60
 208 001c 0122     		movs	r2, #1
 209 001e 0261     		str	r2, [r0, #16]
  84:Src/init.c    ****   hadc.Init.EOCSelection = ADC_EOC_SEQ_CONV;
 210              		.loc 1 84 3 is_stmt 1 view .LVU61
 211              		.loc 1 84 26 is_stmt 0 view .LVU62
 212 0020 0821     		movs	r1, #8
 213 0022 4161     		str	r1, [r0, #20]
  85:Src/init.c    ****   hadc.Init.LowPowerAutoWait = DISABLE;
 214              		.loc 1 85 3 is_stmt 1 view .LVU63
 215              		.loc 1 85 30 is_stmt 0 view .LVU64
 216 0024 8361     		str	r3, [r0, #24]
  86:Src/init.c    ****   hadc.Init.LowPowerAutoPowerOff = DISABLE;
 217              		.loc 1 86 3 is_stmt 1 view .LVU65
 218              		.loc 1 86 34 is_stmt 0 view .LVU66
 219 0026 C361     		str	r3, [r0, #28]
  87:Src/init.c    ****   hadc.Init.ContinuousConvMode = ENABLE;
 220              		.loc 1 87 3 is_stmt 1 view .LVU67
 221              		.loc 1 87 32 is_stmt 0 view .LVU68
 222 0028 0262     		str	r2, [r0, #32]
  88:Src/init.c    ****   hadc.Init.DiscontinuousConvMode = DISABLE;
 223              		.loc 1 88 3 is_stmt 1 view .LVU69
 224              		.loc 1 88 35 is_stmt 0 view .LVU70
 225 002a 4362     		str	r3, [r0, #36]
  89:Src/init.c    ****   hadc.Init.ExternalTrigConv = ADC_SOFTWARE_START;
 226              		.loc 1 89 3 is_stmt 1 view .LVU71
 227              		.loc 1 89 30 is_stmt 0 view .LVU72
 228 002c C221     		movs	r1, #194
 229 002e FF31     		adds	r1, r1, #255
 230 0030 8162     		str	r1, [r0, #40]
  90:Src/init.c    ****   hadc.Init.ExternalTrigConvEdge = ADC_EXTERNALTRIGCONVEDGE_NONE;
 231              		.loc 1 90 3 is_stmt 1 view .LVU73
 232              		.loc 1 90 34 is_stmt 0 view .LVU74
 233 0032 C362     		str	r3, [r0, #44]
  91:Src/init.c    ****   hadc.Init.DMAContinuousRequests = DISABLE;
 234              		.loc 1 91 3 is_stmt 1 view .LVU75
 235              		.loc 1 91 35 is_stmt 0 view .LVU76
 236 0034 0363     		str	r3, [r0, #48]
  92:Src/init.c    ****   hadc.Init.Overrun = ADC_OVR_DATA_PRESERVED;
 237              		.loc 1 92 3 is_stmt 1 view .LVU77
 238              		.loc 1 92 21 is_stmt 0 view .LVU78
 239 0036 4263     		str	r2, [r0, #52]
  93:Src/init.c    ****   if (HAL_ADC_Init(&hadc) != HAL_OK)
 240              		.loc 1 93 3 is_stmt 1 view .LVU79
 241              		.loc 1 93 7 is_stmt 0 view .LVU80
 242 0038 FFF7FEFF 		bl	HAL_ADC_Init
 243              	.LVL10:
 244              		.loc 1 93 6 view .LVU81
 245 003c 0028     		cmp	r0, #0
 246 003e 16D1     		bne	.L14
 247              	.L11:
  94:Src/init.c    ****   {
  95:Src/init.c    ****     Error_Handler();
ARM GAS  /tmp/ccE1Ad8Q.s 			page 7


  96:Src/init.c    ****   }
  97:Src/init.c    ****   /**Configure for the selected ADC regular channel to be converted. 
  98:Src/init.c    ****   */
  99:Src/init.c    ****   sConfig.Channel = ADC_CHANNEL_1;
 248              		.loc 1 99 3 is_stmt 1 view .LVU82
 249              		.loc 1 99 19 is_stmt 0 view .LVU83
 250 0040 0123     		movs	r3, #1
 251 0042 0193     		str	r3, [sp, #4]
 100:Src/init.c    ****   sConfig.Rank = ADC_RANK_CHANNEL_NUMBER;
 252              		.loc 1 100 3 is_stmt 1 view .LVU84
 253              		.loc 1 100 16 is_stmt 0 view .LVU85
 254 0044 8023     		movs	r3, #128
 255 0046 5B01     		lsls	r3, r3, #5
 256 0048 0293     		str	r3, [sp, #8]
 101:Src/init.c    ****   sConfig.SamplingTime = ADC_SAMPLETIME_239CYCLES_5;
 257              		.loc 1 101 3 is_stmt 1 view .LVU86
 258              		.loc 1 101 24 is_stmt 0 view .LVU87
 259 004a 0723     		movs	r3, #7
 260 004c 0393     		str	r3, [sp, #12]
 102:Src/init.c    ****   if (HAL_ADC_ConfigChannel(&hadc, &sConfig) != HAL_OK)
 261              		.loc 1 102 3 is_stmt 1 view .LVU88
 262              		.loc 1 102 7 is_stmt 0 view .LVU89
 263 004e 01A9     		add	r1, sp, #4
 264 0050 0B48     		ldr	r0, .L17
 265 0052 FFF7FEFF 		bl	HAL_ADC_ConfigChannel
 266              	.LVL11:
 267              		.loc 1 102 6 view .LVU90
 268 0056 0028     		cmp	r0, #0
 269 0058 0CD1     		bne	.L15
 270              	.L12:
 103:Src/init.c    ****   {
 104:Src/init.c    ****     Error_Handler();
 105:Src/init.c    ****   }
 106:Src/init.c    ****   /**Configure for the selected ADC regular channel to be converted. 
 107:Src/init.c    ****   */
 108:Src/init.c    ****   sConfig.Channel = ADC_CHANNEL_2;
 271              		.loc 1 108 3 is_stmt 1 view .LVU91
 272              		.loc 1 108 19 is_stmt 0 view .LVU92
 273 005a 0223     		movs	r3, #2
 274 005c 0193     		str	r3, [sp, #4]
 109:Src/init.c    ****   if (HAL_ADC_ConfigChannel(&hadc, &sConfig) != HAL_OK)
 275              		.loc 1 109 3 is_stmt 1 view .LVU93
 276              		.loc 1 109 7 is_stmt 0 view .LVU94
 277 005e 01A9     		add	r1, sp, #4
 278 0060 0748     		ldr	r0, .L17
 279 0062 FFF7FEFF 		bl	HAL_ADC_ConfigChannel
 280              	.LVL12:
 281              		.loc 1 109 6 view .LVU95
 282 0066 0028     		cmp	r0, #0
 283 0068 07D1     		bne	.L16
 284              	.L10:
 110:Src/init.c    ****   {
 111:Src/init.c    ****     Error_Handler();
 112:Src/init.c    ****   }
 113:Src/init.c    ****   /* USER CODE BEGIN ADC_Init 2 */
 114:Src/init.c    **** 
 115:Src/init.c    ****   /* USER CODE END ADC_Init 2 */
ARM GAS  /tmp/ccE1Ad8Q.s 			page 8


 116:Src/init.c    **** 
 117:Src/init.c    **** }
 285              		.loc 1 117 1 view .LVU96
 286 006a 05B0     		add	sp, sp, #20
 287              		@ sp needed
 288 006c 00BD     		pop	{pc}
 289              	.L14:
  95:Src/init.c    ****   }
 290              		.loc 1 95 5 is_stmt 1 view .LVU97
 291 006e FFF7FEFF 		bl	Error_Handler
 292              	.LVL13:
 293 0072 E5E7     		b	.L11
 294              	.L15:
 104:Src/init.c    ****   }
 295              		.loc 1 104 5 view .LVU98
 296 0074 FFF7FEFF 		bl	Error_Handler
 297              	.LVL14:
 298 0078 EFE7     		b	.L12
 299              	.L16:
 111:Src/init.c    ****   }
 300              		.loc 1 111 5 view .LVU99
 301 007a FFF7FEFF 		bl	Error_Handler
 302              	.LVL15:
 303              		.loc 1 117 1 is_stmt 0 view .LVU100
 304 007e F4E7     		b	.L10
 305              	.L18:
 306              		.align	2
 307              	.L17:
 308 0080 00000000 		.word	hadc
 309 0084 00240140 		.word	1073816576
 310              		.cfi_endproc
 311              	.LFE38:
 313              		.section	.text.MX_I2C1_Init,"ax",%progbits
 314              		.align	1
 315              		.global	MX_I2C1_Init
 316              		.syntax unified
 317              		.code	16
 318              		.thumb_func
 319              		.fpu softvfp
 321              	MX_I2C1_Init:
 322              	.LFB39:
 118:Src/init.c    **** 
 119:Src/init.c    **** /**
 120:Src/init.c    ****   * @brief I2C1 Initialization Function
 121:Src/init.c    ****   * @param None
 122:Src/init.c    ****   * @retval None
 123:Src/init.c    ****   */
 124:Src/init.c    **** void MX_I2C1_Init(void)
 125:Src/init.c    **** {
 323              		.loc 1 125 1 is_stmt 1 view -0
 324              		.cfi_startproc
 325              		@ args = 0, pretend = 0, frame = 0
 326              		@ frame_needed = 0, uses_anonymous_args = 0
 327 0000 10B5     		push	{r4, lr}
 328              	.LCFI4:
 329              		.cfi_def_cfa_offset 8
 330              		.cfi_offset 4, -8
ARM GAS  /tmp/ccE1Ad8Q.s 			page 9


 331              		.cfi_offset 14, -4
 126:Src/init.c    **** 
 127:Src/init.c    ****   /* USER CODE BEGIN I2C1_Init 0 */
 128:Src/init.c    **** 
 129:Src/init.c    ****   /* USER CODE END I2C1_Init 0 */
 130:Src/init.c    **** 
 131:Src/init.c    ****   /* USER CODE BEGIN I2C1_Init 1 */
 132:Src/init.c    **** 
 133:Src/init.c    ****   /* USER CODE END I2C1_Init 1 */
 134:Src/init.c    ****   hi2c1.Instance = I2C1;
 332              		.loc 1 134 3 view .LVU102
 333              		.loc 1 134 18 is_stmt 0 view .LVU103
 334 0002 1448     		ldr	r0, .L26
 335 0004 144B     		ldr	r3, .L26+4
 336 0006 0360     		str	r3, [r0]
 135:Src/init.c    ****   hi2c1.Init.Timing = 0x0000020B;
 337              		.loc 1 135 3 is_stmt 1 view .LVU104
 338              		.loc 1 135 21 is_stmt 0 view .LVU105
 339 0008 144B     		ldr	r3, .L26+8
 340 000a 4360     		str	r3, [r0, #4]
 136:Src/init.c    ****   hi2c1.Init.OwnAddress1 = 0;
 341              		.loc 1 136 3 is_stmt 1 view .LVU106
 342              		.loc 1 136 26 is_stmt 0 view .LVU107
 343 000c 0023     		movs	r3, #0
 344 000e 8360     		str	r3, [r0, #8]
 137:Src/init.c    ****   hi2c1.Init.AddressingMode = I2C_ADDRESSINGMODE_7BIT;
 345              		.loc 1 137 3 is_stmt 1 view .LVU108
 346              		.loc 1 137 29 is_stmt 0 view .LVU109
 347 0010 0122     		movs	r2, #1
 348 0012 C260     		str	r2, [r0, #12]
 138:Src/init.c    ****   hi2c1.Init.DualAddressMode = I2C_DUALADDRESS_DISABLE;
 349              		.loc 1 138 3 is_stmt 1 view .LVU110
 350              		.loc 1 138 30 is_stmt 0 view .LVU111
 351 0014 0361     		str	r3, [r0, #16]
 139:Src/init.c    ****   hi2c1.Init.OwnAddress2 = 0;
 352              		.loc 1 139 3 is_stmt 1 view .LVU112
 353              		.loc 1 139 26 is_stmt 0 view .LVU113
 354 0016 4361     		str	r3, [r0, #20]
 140:Src/init.c    ****   hi2c1.Init.OwnAddress2Masks = I2C_OA2_NOMASK;
 355              		.loc 1 140 3 is_stmt 1 view .LVU114
 356              		.loc 1 140 31 is_stmt 0 view .LVU115
 357 0018 8361     		str	r3, [r0, #24]
 141:Src/init.c    ****   hi2c1.Init.GeneralCallMode = I2C_GENERALCALL_DISABLE;
 358              		.loc 1 141 3 is_stmt 1 view .LVU116
 359              		.loc 1 141 30 is_stmt 0 view .LVU117
 360 001a C361     		str	r3, [r0, #28]
 142:Src/init.c    ****   hi2c1.Init.NoStretchMode = I2C_NOSTRETCH_DISABLE;
 361              		.loc 1 142 3 is_stmt 1 view .LVU118
 362              		.loc 1 142 28 is_stmt 0 view .LVU119
 363 001c 0362     		str	r3, [r0, #32]
 143:Src/init.c    ****   if (HAL_I2C_Init(&hi2c1) != HAL_OK)
 364              		.loc 1 143 3 is_stmt 1 view .LVU120
 365              		.loc 1 143 7 is_stmt 0 view .LVU121
 366 001e FFF7FEFF 		bl	HAL_I2C_Init
 367              	.LVL16:
 368              		.loc 1 143 6 view .LVU122
 369 0022 0028     		cmp	r0, #0
ARM GAS  /tmp/ccE1Ad8Q.s 			page 10


 370 0024 0CD1     		bne	.L23
 371              	.L20:
 144:Src/init.c    ****   {
 145:Src/init.c    ****     Error_Handler();
 146:Src/init.c    ****   }
 147:Src/init.c    ****   /**Configure Analogue filter 
 148:Src/init.c    ****   */
 149:Src/init.c    ****   if (HAL_I2CEx_ConfigAnalogFilter(&hi2c1, I2C_ANALOGFILTER_ENABLE) != HAL_OK)
 372              		.loc 1 149 3 is_stmt 1 view .LVU123
 373              		.loc 1 149 7 is_stmt 0 view .LVU124
 374 0026 0021     		movs	r1, #0
 375 0028 0A48     		ldr	r0, .L26
 376 002a FFF7FEFF 		bl	HAL_I2CEx_ConfigAnalogFilter
 377              	.LVL17:
 378              		.loc 1 149 6 view .LVU125
 379 002e 0028     		cmp	r0, #0
 380 0030 09D1     		bne	.L24
 381              	.L21:
 150:Src/init.c    ****   {
 151:Src/init.c    ****     Error_Handler();
 152:Src/init.c    ****   }
 153:Src/init.c    ****   /**Configure Digital filter 
 154:Src/init.c    ****   */
 155:Src/init.c    ****   if (HAL_I2CEx_ConfigDigitalFilter(&hi2c1, 0) != HAL_OK)
 382              		.loc 1 155 3 is_stmt 1 view .LVU126
 383              		.loc 1 155 7 is_stmt 0 view .LVU127
 384 0032 0021     		movs	r1, #0
 385 0034 0748     		ldr	r0, .L26
 386 0036 FFF7FEFF 		bl	HAL_I2CEx_ConfigDigitalFilter
 387              	.LVL18:
 388              		.loc 1 155 6 view .LVU128
 389 003a 0028     		cmp	r0, #0
 390 003c 06D1     		bne	.L25
 391              	.L19:
 156:Src/init.c    ****   {
 157:Src/init.c    ****     Error_Handler();
 158:Src/init.c    ****   }
 159:Src/init.c    ****   /* USER CODE BEGIN I2C1_Init 2 */
 160:Src/init.c    **** 
 161:Src/init.c    ****   /* USER CODE END I2C1_Init 2 */
 162:Src/init.c    **** 
 163:Src/init.c    **** }
 392              		.loc 1 163 1 view .LVU129
 393              		@ sp needed
 394 003e 10BD     		pop	{r4, pc}
 395              	.L23:
 145:Src/init.c    ****   }
 396              		.loc 1 145 5 is_stmt 1 view .LVU130
 397 0040 FFF7FEFF 		bl	Error_Handler
 398              	.LVL19:
 399 0044 EFE7     		b	.L20
 400              	.L24:
 151:Src/init.c    ****   }
 401              		.loc 1 151 5 view .LVU131
 402 0046 FFF7FEFF 		bl	Error_Handler
 403              	.LVL20:
 404 004a F2E7     		b	.L21
ARM GAS  /tmp/ccE1Ad8Q.s 			page 11


 405              	.L25:
 157:Src/init.c    ****   }
 406              		.loc 1 157 5 view .LVU132
 407 004c FFF7FEFF 		bl	Error_Handler
 408              	.LVL21:
 409              		.loc 1 163 1 is_stmt 0 view .LVU133
 410 0050 F5E7     		b	.L19
 411              	.L27:
 412 0052 C046     		.align	2
 413              	.L26:
 414 0054 00000000 		.word	hi2c1
 415 0058 00540040 		.word	1073763328
 416 005c 0B020000 		.word	523
 417              		.cfi_endproc
 418              	.LFE39:
 420              		.section	.text.MX_I2C2_Init,"ax",%progbits
 421              		.align	1
 422              		.global	MX_I2C2_Init
 423              		.syntax unified
 424              		.code	16
 425              		.thumb_func
 426              		.fpu softvfp
 428              	MX_I2C2_Init:
 429              	.LFB40:
 164:Src/init.c    **** 
 165:Src/init.c    **** /**
 166:Src/init.c    ****   * @brief I2C2 Initialization Function
 167:Src/init.c    ****   * @param None
 168:Src/init.c    ****   * @retval None
 169:Src/init.c    ****   */
 170:Src/init.c    **** void MX_I2C2_Init(void)
 171:Src/init.c    **** {
 430              		.loc 1 171 1 is_stmt 1 view -0
 431              		.cfi_startproc
 432              		@ args = 0, pretend = 0, frame = 0
 433              		@ frame_needed = 0, uses_anonymous_args = 0
 434 0000 10B5     		push	{r4, lr}
 435              	.LCFI5:
 436              		.cfi_def_cfa_offset 8
 437              		.cfi_offset 4, -8
 438              		.cfi_offset 14, -4
 172:Src/init.c    **** 
 173:Src/init.c    ****   /* USER CODE BEGIN I2C2_Init 0 */
 174:Src/init.c    **** 
 175:Src/init.c    ****   /* USER CODE END I2C2_Init 0 */
 176:Src/init.c    **** 
 177:Src/init.c    ****   /* USER CODE BEGIN I2C2_Init 1 */
 178:Src/init.c    **** 
 179:Src/init.c    ****   /* USER CODE END I2C2_Init 1 */
 180:Src/init.c    ****   hi2c2.Instance = I2C2;
 439              		.loc 1 180 3 view .LVU135
 440              		.loc 1 180 18 is_stmt 0 view .LVU136
 441 0002 1748     		ldr	r0, .L35
 442 0004 174B     		ldr	r3, .L35+4
 443 0006 0360     		str	r3, [r0]
 181:Src/init.c    ****   hi2c2.Init.Timing = 0x20000209;
 444              		.loc 1 181 3 is_stmt 1 view .LVU137
ARM GAS  /tmp/ccE1Ad8Q.s 			page 12


 445              		.loc 1 181 21 is_stmt 0 view .LVU138
 446 0008 174B     		ldr	r3, .L35+8
 447 000a 4360     		str	r3, [r0, #4]
 182:Src/init.c    ****   hi2c2.Init.OwnAddress1 = 0;
 448              		.loc 1 182 3 is_stmt 1 view .LVU139
 449              		.loc 1 182 26 is_stmt 0 view .LVU140
 450 000c 0023     		movs	r3, #0
 451 000e 8360     		str	r3, [r0, #8]
 183:Src/init.c    ****   hi2c2.Init.AddressingMode = I2C_ADDRESSINGMODE_7BIT;
 452              		.loc 1 183 3 is_stmt 1 view .LVU141
 453              		.loc 1 183 29 is_stmt 0 view .LVU142
 454 0010 0122     		movs	r2, #1
 455 0012 C260     		str	r2, [r0, #12]
 184:Src/init.c    ****   hi2c2.Init.DualAddressMode = I2C_DUALADDRESS_DISABLE;
 456              		.loc 1 184 3 is_stmt 1 view .LVU143
 457              		.loc 1 184 30 is_stmt 0 view .LVU144
 458 0014 0361     		str	r3, [r0, #16]
 185:Src/init.c    ****   hi2c2.Init.OwnAddress2 = 0;
 459              		.loc 1 185 3 is_stmt 1 view .LVU145
 460              		.loc 1 185 26 is_stmt 0 view .LVU146
 461 0016 4361     		str	r3, [r0, #20]
 186:Src/init.c    ****   hi2c2.Init.OwnAddress2Masks = I2C_OA2_NOMASK;
 462              		.loc 1 186 3 is_stmt 1 view .LVU147
 463              		.loc 1 186 31 is_stmt 0 view .LVU148
 464 0018 8361     		str	r3, [r0, #24]
 187:Src/init.c    ****   hi2c2.Init.GeneralCallMode = I2C_GENERALCALL_DISABLE;
 465              		.loc 1 187 3 is_stmt 1 view .LVU149
 466              		.loc 1 187 30 is_stmt 0 view .LVU150
 467 001a C361     		str	r3, [r0, #28]
 188:Src/init.c    ****   hi2c2.Init.NoStretchMode = I2C_NOSTRETCH_DISABLE;
 468              		.loc 1 188 3 is_stmt 1 view .LVU151
 469              		.loc 1 188 28 is_stmt 0 view .LVU152
 470 001c 0362     		str	r3, [r0, #32]
 189:Src/init.c    ****   if (HAL_I2C_Init(&hi2c2) != HAL_OK)
 471              		.loc 1 189 3 is_stmt 1 view .LVU153
 472              		.loc 1 189 7 is_stmt 0 view .LVU154
 473 001e FFF7FEFF 		bl	HAL_I2C_Init
 474              	.LVL22:
 475              		.loc 1 189 6 view .LVU155
 476 0022 0028     		cmp	r0, #0
 477 0024 12D1     		bne	.L32
 478              	.L29:
 190:Src/init.c    ****   {
 191:Src/init.c    ****     Error_Handler();
 192:Src/init.c    ****   }
 193:Src/init.c    ****   /**Configure Analogue filter 
 194:Src/init.c    ****   */
 195:Src/init.c    ****   if (HAL_I2CEx_ConfigAnalogFilter(&hi2c2, I2C_ANALOGFILTER_ENABLE) != HAL_OK)
 479              		.loc 1 195 3 is_stmt 1 view .LVU156
 480              		.loc 1 195 7 is_stmt 0 view .LVU157
 481 0026 0021     		movs	r1, #0
 482 0028 0D48     		ldr	r0, .L35
 483 002a FFF7FEFF 		bl	HAL_I2CEx_ConfigAnalogFilter
 484              	.LVL23:
 485              		.loc 1 195 6 view .LVU158
 486 002e 0028     		cmp	r0, #0
 487 0030 0FD1     		bne	.L33
ARM GAS  /tmp/ccE1Ad8Q.s 			page 13


 488              	.L30:
 196:Src/init.c    ****   {
 197:Src/init.c    ****     Error_Handler();
 198:Src/init.c    ****   }
 199:Src/init.c    ****   /**Configure Digital filter 
 200:Src/init.c    ****   */
 201:Src/init.c    ****   if (HAL_I2CEx_ConfigDigitalFilter(&hi2c2, 0) != HAL_OK)
 489              		.loc 1 201 3 is_stmt 1 view .LVU159
 490              		.loc 1 201 7 is_stmt 0 view .LVU160
 491 0032 0021     		movs	r1, #0
 492 0034 0A48     		ldr	r0, .L35
 493 0036 FFF7FEFF 		bl	HAL_I2CEx_ConfigDigitalFilter
 494              	.LVL24:
 495              		.loc 1 201 6 view .LVU161
 496 003a 0028     		cmp	r0, #0
 497 003c 0CD1     		bne	.L34
 498              	.L31:
 202:Src/init.c    ****   {
 203:Src/init.c    ****     Error_Handler();
 204:Src/init.c    ****   }
 205:Src/init.c    ****   /**I2C Fast mode Plus enable 
 206:Src/init.c    ****   */
 207:Src/init.c    ****   __HAL_SYSCFG_FASTMODEPLUS_ENABLE(I2C_FASTMODEPLUS_I2C2);
 499              		.loc 1 207 3 is_stmt 1 view .LVU162
 500              		.loc 1 207 3 view .LVU163
 501              		.loc 1 207 3 view .LVU164
 502 003e 0B4A     		ldr	r2, .L35+12
 503 0040 1168     		ldr	r1, [r2]
 504 0042 8023     		movs	r3, #128
 505 0044 9B03     		lsls	r3, r3, #14
 506 0046 0B43     		orrs	r3, r1
 507 0048 1360     		str	r3, [r2]
 208:Src/init.c    ****   /* USER CODE BEGIN I2C2_Init 2 */
 209:Src/init.c    **** 
 210:Src/init.c    ****   /* USER CODE END I2C2_Init 2 */
 211:Src/init.c    **** 
 212:Src/init.c    **** }
 508              		.loc 1 212 1 is_stmt 0 view .LVU165
 509              		@ sp needed
 510 004a 10BD     		pop	{r4, pc}
 511              	.L32:
 191:Src/init.c    ****   }
 512              		.loc 1 191 5 is_stmt 1 view .LVU166
 513 004c FFF7FEFF 		bl	Error_Handler
 514              	.LVL25:
 515 0050 E9E7     		b	.L29
 516              	.L33:
 197:Src/init.c    ****   }
 517              		.loc 1 197 5 view .LVU167
 518 0052 FFF7FEFF 		bl	Error_Handler
 519              	.LVL26:
 520 0056 ECE7     		b	.L30
 521              	.L34:
 203:Src/init.c    ****   }
 522              		.loc 1 203 5 view .LVU168
 523 0058 FFF7FEFF 		bl	Error_Handler
 524              	.LVL27:
ARM GAS  /tmp/ccE1Ad8Q.s 			page 14


 525 005c EFE7     		b	.L31
 526              	.L36:
 527 005e C046     		.align	2
 528              	.L35:
 529 0060 00000000 		.word	hi2c2
 530 0064 00580040 		.word	1073764352
 531 0068 09020020 		.word	536871433
 532 006c 00000140 		.word	1073807360
 533              		.cfi_endproc
 534              	.LFE40:
 536              		.section	.text.MX_DMA_Init,"ax",%progbits
 537              		.align	1
 538              		.global	MX_DMA_Init
 539              		.syntax unified
 540              		.code	16
 541              		.thumb_func
 542              		.fpu softvfp
 544              	MX_DMA_Init:
 545              	.LFB41:
 213:Src/init.c    **** 
 214:Src/init.c    **** /** 
 215:Src/init.c    ****   * Enable DMA controller clock
 216:Src/init.c    ****   */
 217:Src/init.c    **** void MX_DMA_Init(void) 
 218:Src/init.c    **** {
 546              		.loc 1 218 1 view -0
 547              		.cfi_startproc
 548              		@ args = 0, pretend = 0, frame = 8
 549              		@ frame_needed = 0, uses_anonymous_args = 0
 550 0000 00B5     		push	{lr}
 551              	.LCFI6:
 552              		.cfi_def_cfa_offset 4
 553              		.cfi_offset 14, -4
 554 0002 83B0     		sub	sp, sp, #12
 555              	.LCFI7:
 556              		.cfi_def_cfa_offset 16
 219:Src/init.c    ****   /* DMA controller clock enable */
 220:Src/init.c    ****   __HAL_RCC_DMA1_CLK_ENABLE();
 557              		.loc 1 220 3 view .LVU170
 558              	.LBB2:
 559              		.loc 1 220 3 view .LVU171
 560              		.loc 1 220 3 view .LVU172
 561 0004 114A     		ldr	r2, .L38
 562 0006 5169     		ldr	r1, [r2, #20]
 563 0008 0123     		movs	r3, #1
 564 000a 1943     		orrs	r1, r3
 565 000c 5161     		str	r1, [r2, #20]
 566              		.loc 1 220 3 view .LVU173
 567 000e 5269     		ldr	r2, [r2, #20]
 568 0010 1340     		ands	r3, r2
 569 0012 0193     		str	r3, [sp, #4]
 570              		.loc 1 220 3 view .LVU174
 571 0014 019B     		ldr	r3, [sp, #4]
 572              	.LBE2:
 221:Src/init.c    **** 
 222:Src/init.c    ****   /* DMA interrupt init */
 223:Src/init.c    ****   /* DMA1_Channel1_IRQn interrupt configuration */
ARM GAS  /tmp/ccE1Ad8Q.s 			page 15


 224:Src/init.c    ****   HAL_NVIC_SetPriority(DMA1_Channel1_IRQn, 3, 0);
 573              		.loc 1 224 3 view .LVU175
 574 0016 0022     		movs	r2, #0
 575 0018 0321     		movs	r1, #3
 576 001a 0920     		movs	r0, #9
 577 001c FFF7FEFF 		bl	HAL_NVIC_SetPriority
 578              	.LVL28:
 225:Src/init.c    ****   HAL_NVIC_EnableIRQ(DMA1_Channel1_IRQn);
 579              		.loc 1 225 3 view .LVU176
 580 0020 0920     		movs	r0, #9
 581 0022 FFF7FEFF 		bl	HAL_NVIC_EnableIRQ
 582              	.LVL29:
 226:Src/init.c    ****   /* DMA1_Channel2_3_IRQn interrupt configuration */
 227:Src/init.c    ****   HAL_NVIC_SetPriority(DMA1_Channel2_3_IRQn, 3, 0);
 583              		.loc 1 227 3 view .LVU177
 584 0026 0022     		movs	r2, #0
 585 0028 0321     		movs	r1, #3
 586 002a 0A20     		movs	r0, #10
 587 002c FFF7FEFF 		bl	HAL_NVIC_SetPriority
 588              	.LVL30:
 228:Src/init.c    ****   HAL_NVIC_EnableIRQ(DMA1_Channel2_3_IRQn);
 589              		.loc 1 228 3 view .LVU178
 590 0030 0A20     		movs	r0, #10
 591 0032 FFF7FEFF 		bl	HAL_NVIC_EnableIRQ
 592              	.LVL31:
 229:Src/init.c    ****   /* DMA1_Channel4_5_6_7_IRQn interrupt configuration */
 230:Src/init.c    ****   HAL_NVIC_SetPriority(DMA1_Channel4_5_6_7_IRQn, 3, 0);
 593              		.loc 1 230 3 view .LVU179
 594 0036 0022     		movs	r2, #0
 595 0038 0321     		movs	r1, #3
 596 003a 0B20     		movs	r0, #11
 597 003c FFF7FEFF 		bl	HAL_NVIC_SetPriority
 598              	.LVL32:
 231:Src/init.c    ****   HAL_NVIC_EnableIRQ(DMA1_Channel4_5_6_7_IRQn);
 599              		.loc 1 231 3 view .LVU180
 600 0040 0B20     		movs	r0, #11
 601 0042 FFF7FEFF 		bl	HAL_NVIC_EnableIRQ
 602              	.LVL33:
 232:Src/init.c    **** 
 233:Src/init.c    **** }
 603              		.loc 1 233 1 is_stmt 0 view .LVU181
 604 0046 03B0     		add	sp, sp, #12
 605              		@ sp needed
 606 0048 00BD     		pop	{pc}
 607              	.L39:
 608 004a C046     		.align	2
 609              	.L38:
 610 004c 00100240 		.word	1073876992
 611              		.cfi_endproc
 612              	.LFE41:
 614              		.section	.text.MX_GPIO_Init,"ax",%progbits
 615              		.align	1
 616              		.global	MX_GPIO_Init
 617              		.syntax unified
 618              		.code	16
 619              		.thumb_func
 620              		.fpu softvfp
ARM GAS  /tmp/ccE1Ad8Q.s 			page 16


 622              	MX_GPIO_Init:
 623              	.LFB42:
 234:Src/init.c    **** 
 235:Src/init.c    **** /**
 236:Src/init.c    ****   * @brief GPIO Initialization Function
 237:Src/init.c    ****   * @param None
 238:Src/init.c    ****   * @retval None
 239:Src/init.c    ****   */
 240:Src/init.c    **** void MX_GPIO_Init(void)
 241:Src/init.c    **** {
 624              		.loc 1 241 1 is_stmt 1 view -0
 625              		.cfi_startproc
 626              		@ args = 0, pretend = 0, frame = 32
 627              		@ frame_needed = 0, uses_anonymous_args = 0
 628 0000 F0B5     		push	{r4, r5, r6, r7, lr}
 629              	.LCFI8:
 630              		.cfi_def_cfa_offset 20
 631              		.cfi_offset 4, -20
 632              		.cfi_offset 5, -16
 633              		.cfi_offset 6, -12
 634              		.cfi_offset 7, -8
 635              		.cfi_offset 14, -4
 636 0002 89B0     		sub	sp, sp, #36
 637              	.LCFI9:
 638              		.cfi_def_cfa_offset 56
 242:Src/init.c    ****   GPIO_InitTypeDef GPIO_InitStruct = {0};
 639              		.loc 1 242 3 view .LVU183
 640              		.loc 1 242 20 is_stmt 0 view .LVU184
 641 0004 1422     		movs	r2, #20
 642 0006 0021     		movs	r1, #0
 643 0008 03A8     		add	r0, sp, #12
 644 000a FFF7FEFF 		bl	memset
 645              	.LVL34:
 243:Src/init.c    **** 
 244:Src/init.c    ****   /* GPIO Ports Clock Enable */
 245:Src/init.c    ****   __HAL_RCC_GPIOA_CLK_ENABLE();
 646              		.loc 1 245 3 is_stmt 1 view .LVU185
 647              	.LBB3:
 648              		.loc 1 245 3 view .LVU186
 649              		.loc 1 245 3 view .LVU187
 650 000e 234B     		ldr	r3, .L41
 651 0010 5969     		ldr	r1, [r3, #20]
 652 0012 8020     		movs	r0, #128
 653 0014 8002     		lsls	r0, r0, #10
 654 0016 0143     		orrs	r1, r0
 655 0018 5961     		str	r1, [r3, #20]
 656              		.loc 1 245 3 view .LVU188
 657 001a 5A69     		ldr	r2, [r3, #20]
 658 001c 0240     		ands	r2, r0
 659 001e 0192     		str	r2, [sp, #4]
 660              		.loc 1 245 3 view .LVU189
 661 0020 019A     		ldr	r2, [sp, #4]
 662              	.LBE3:
 246:Src/init.c    ****   __HAL_RCC_GPIOB_CLK_ENABLE();
 663              		.loc 1 246 3 view .LVU190
 664              	.LBB4:
 665              		.loc 1 246 3 view .LVU191
ARM GAS  /tmp/ccE1Ad8Q.s 			page 17


 666              		.loc 1 246 3 view .LVU192
 667 0022 5A69     		ldr	r2, [r3, #20]
 668 0024 8021     		movs	r1, #128
 669 0026 C902     		lsls	r1, r1, #11
 670 0028 0A43     		orrs	r2, r1
 671 002a 5A61     		str	r2, [r3, #20]
 672              		.loc 1 246 3 view .LVU193
 673 002c 5B69     		ldr	r3, [r3, #20]
 674 002e 0B40     		ands	r3, r1
 675 0030 0293     		str	r3, [sp, #8]
 676              		.loc 1 246 3 view .LVU194
 677 0032 029B     		ldr	r3, [sp, #8]
 678              	.LBE4:
 247:Src/init.c    **** 
 248:Src/init.c    ****   /*Configure GPIO pin Output Level */
 249:Src/init.c    ****   HAL_GPIO_WritePin(GPIOB, MOSFET_Pin|OLED_PULLUP_Pin, GPIO_PIN_RESET);
 679              		.loc 1 249 3 view .LVU195
 680 0034 8427     		movs	r7, #132
 681 0036 7F00     		lsls	r7, r7, #1
 682 0038 194D     		ldr	r5, .L41+4
 683 003a 0022     		movs	r2, #0
 684 003c 3900     		movs	r1, r7
 685 003e 2800     		movs	r0, r5
 686 0040 FFF7FEFF 		bl	HAL_GPIO_WritePin
 687              	.LVL35:
 250:Src/init.c    **** 
 251:Src/init.c    ****   /*Configure GPIO pin : BUTTON_Pin */
 252:Src/init.c    ****   GPIO_InitStruct.Pin = BUTTON_Pin;
 688              		.loc 1 252 3 view .LVU196
 689              		.loc 1 252 23 is_stmt 0 view .LVU197
 690 0044 0823     		movs	r3, #8
 691 0046 0393     		str	r3, [sp, #12]
 253:Src/init.c    ****   GPIO_InitStruct.Mode = GPIO_MODE_INPUT;
 692              		.loc 1 253 3 is_stmt 1 view .LVU198
 693              		.loc 1 253 24 is_stmt 0 view .LVU199
 694 0048 0024     		movs	r4, #0
 695 004a 0494     		str	r4, [sp, #16]
 254:Src/init.c    ****   GPIO_InitStruct.Pull = GPIO_PULLDOWN;
 696              		.loc 1 254 3 is_stmt 1 view .LVU200
 697              		.loc 1 254 24 is_stmt 0 view .LVU201
 698 004c 063B     		subs	r3, r3, #6
 699 004e 0593     		str	r3, [sp, #20]
 255:Src/init.c    ****   HAL_GPIO_Init(BUTTON_GPIO_Port, &GPIO_InitStruct);
 700              		.loc 1 255 3 is_stmt 1 view .LVU202
 701 0050 9026     		movs	r6, #144
 702 0052 F605     		lsls	r6, r6, #23
 703 0054 03A9     		add	r1, sp, #12
 704 0056 3000     		movs	r0, r6
 705 0058 FFF7FEFF 		bl	HAL_GPIO_Init
 706              	.LVL36:
 256:Src/init.c    **** 
 257:Src/init.c    ****   /*Configure GPIO pin : INT_N_Pin */
 258:Src/init.c    ****   GPIO_InitStruct.Pin = INT_N_Pin;
 707              		.loc 1 258 3 view .LVU203
 708              		.loc 1 258 23 is_stmt 0 view .LVU204
 709 005c 8023     		movs	r3, #128
 710 005e 5B01     		lsls	r3, r3, #5
ARM GAS  /tmp/ccE1Ad8Q.s 			page 18


 711 0060 0393     		str	r3, [sp, #12]
 259:Src/init.c    ****   GPIO_InitStruct.Mode = GPIO_MODE_INPUT;
 712              		.loc 1 259 3 is_stmt 1 view .LVU205
 713              		.loc 1 259 24 is_stmt 0 view .LVU206
 714 0062 0494     		str	r4, [sp, #16]
 260:Src/init.c    ****   GPIO_InitStruct.Pull = GPIO_NOPULL;
 715              		.loc 1 260 3 is_stmt 1 view .LVU207
 716              		.loc 1 260 24 is_stmt 0 view .LVU208
 717 0064 0594     		str	r4, [sp, #20]
 261:Src/init.c    ****   HAL_GPIO_Init(INT_N_GPIO_Port, &GPIO_InitStruct);
 718              		.loc 1 261 3 is_stmt 1 view .LVU209
 719 0066 03A9     		add	r1, sp, #12
 720 0068 2800     		movs	r0, r5
 721 006a FFF7FEFF 		bl	HAL_GPIO_Init
 722              	.LVL37:
 262:Src/init.c    **** 
 263:Src/init.c    ****   /*Configure GPIO pins : MOSFET_Pin OLED_PULLUP_Pin */
 264:Src/init.c    ****   GPIO_InitStruct.Pin = MOSFET_Pin|OLED_PULLUP_Pin;
 723              		.loc 1 264 3 view .LVU210
 724              		.loc 1 264 23 is_stmt 0 view .LVU211
 725 006e 0397     		str	r7, [sp, #12]
 265:Src/init.c    ****   GPIO_InitStruct.Mode = GPIO_MODE_OUTPUT_PP;
 726              		.loc 1 265 3 is_stmt 1 view .LVU212
 727              		.loc 1 265 24 is_stmt 0 view .LVU213
 728 0070 083F     		subs	r7, r7, #8
 729 0072 FF3F     		subs	r7, r7, #255
 730 0074 0497     		str	r7, [sp, #16]
 266:Src/init.c    ****   GPIO_InitStruct.Pull = GPIO_NOPULL;
 731              		.loc 1 266 3 is_stmt 1 view .LVU214
 732              		.loc 1 266 24 is_stmt 0 view .LVU215
 733 0076 0594     		str	r4, [sp, #20]
 267:Src/init.c    ****   GPIO_InitStruct.Speed = GPIO_SPEED_FREQ_LOW;
 734              		.loc 1 267 3 is_stmt 1 view .LVU216
 735              		.loc 1 267 25 is_stmt 0 view .LVU217
 736 0078 0694     		str	r4, [sp, #24]
 268:Src/init.c    ****   HAL_GPIO_Init(GPIOB, &GPIO_InitStruct);
 737              		.loc 1 268 3 is_stmt 1 view .LVU218
 738 007a 03A9     		add	r1, sp, #12
 739 007c 2800     		movs	r0, r5
 740 007e FFF7FEFF 		bl	HAL_GPIO_Init
 741              	.LVL38:
 269:Src/init.c    **** 
 270:Src/init.c    ****   GPIO_InitStruct.Pin = LED_POWER_Pin|LED_STATUS_Pin;
 742              		.loc 1 270 3 view .LVU219
 743              		.loc 1 270 23 is_stmt 0 view .LVU220
 744 0082 8423     		movs	r3, #132
 745 0084 1B02     		lsls	r3, r3, #8
 746 0086 0393     		str	r3, [sp, #12]
 271:Src/init.c    ****   GPIO_InitStruct.Mode = GPIO_MODE_OUTPUT_PP;
 747              		.loc 1 271 3 is_stmt 1 view .LVU221
 748              		.loc 1 271 24 is_stmt 0 view .LVU222
 749 0088 0497     		str	r7, [sp, #16]
 272:Src/init.c    ****   GPIO_InitStruct.Pull = GPIO_NOPULL;
 750              		.loc 1 272 3 is_stmt 1 view .LVU223
 751              		.loc 1 272 24 is_stmt 0 view .LVU224
 752 008a 0594     		str	r4, [sp, #20]
 273:Src/init.c    ****   GPIO_InitStruct.Speed = GPIO_SPEED_FREQ_LOW;
ARM GAS  /tmp/ccE1Ad8Q.s 			page 19


 753              		.loc 1 273 3 is_stmt 1 view .LVU225
 754              		.loc 1 273 25 is_stmt 0 view .LVU226
 755 008c 0694     		str	r4, [sp, #24]
 274:Src/init.c    ****   HAL_GPIO_Init(GPIOA, &GPIO_InitStruct);
 756              		.loc 1 274 3 is_stmt 1 view .LVU227
 757 008e 03A9     		add	r1, sp, #12
 758 0090 3000     		movs	r0, r6
 759 0092 FFF7FEFF 		bl	HAL_GPIO_Init
 760              	.LVL39:
 275:Src/init.c    **** }...
 761              		.loc 1 275 1 is_stmt 0 view .LVU228
 762 0096 09B0     		add	sp, sp, #36
 763              		@ sp needed
 764 0098 F0BD     		pop	{r4, r5, r6, r7, pc}
 765              	.L42:
 766 009a C046     		.align	2
 767              	.L41:
 768 009c 00100240 		.word	1073876992
 769 00a0 00040048 		.word	1207960576
 770              		.cfi_endproc
 771              	.LFE42:
 773              		.comm	hdma_i2c2_tx,68,4
 774              		.comm	hdma_i2c2_rx,68,4
 775              		.comm	hdma_i2c1_tx,68,4
 776              		.comm	hdma_i2c1_rx,68,4
 777              		.comm	hi2c2,76,4
 778              		.comm	hi2c1,76,4
 779              		.comm	hdma_adc,68,4
 780              		.comm	hadc,76,4
 781              		.text
 782              	.Letext0:
 783              		.file 2 "/usr/arm-none-eabi/include/machine/_default_types.h"
 784              		.file 3 "/usr/arm-none-eabi/include/sys/_stdint.h"
 785              		.file 4 "Drivers/CMSIS/Device/ST/STM32F0xx/Include/system_stm32f0xx.h"
 786              		.file 5 "Drivers/CMSIS/Device/ST/STM32F0xx/Include/stm32f072xb.h"
 787              		.file 6 "Drivers/CMSIS/Device/ST/STM32F0xx/Include/stm32f0xx.h"
 788              		.file 7 "/usr/arm-none-eabi/include/sys/lock.h"
 789              		.file 8 "/usr/arm-none-eabi/include/sys/_types.h"
 790              		.file 9 "/usr/lib/gcc/arm-none-eabi/8.2.0/include/stddef.h"
 791              		.file 10 "/usr/arm-none-eabi/include/sys/reent.h"
 792              		.file 11 "Drivers/STM32F0xx_HAL_Driver/Inc/stm32f0xx_hal_def.h"
 793              		.file 12 "Drivers/STM32F0xx_HAL_Driver/Inc/stm32f0xx_hal_rcc.h"
 794              		.file 13 "Drivers/STM32F0xx_HAL_Driver/Inc/stm32f0xx_hal_rcc_ex.h"
 795              		.file 14 "Drivers/STM32F0xx_HAL_Driver/Inc/stm32f0xx_hal_gpio.h"
 796              		.file 15 "Drivers/STM32F0xx_HAL_Driver/Inc/stm32f0xx_hal_dma.h"
 797              		.file 16 "Drivers/STM32F0xx_HAL_Driver/Inc/stm32f0xx_hal_adc.h"
 798              		.file 17 "Drivers/STM32F0xx_HAL_Driver/Inc/stm32f0xx_hal_i2c.h"
 799              		.file 18 "Drivers/STM32F0xx_HAL_Driver/Inc/stm32f0xx_hal_cortex.h"
 800              		.file 19 "Drivers/STM32F0xx_HAL_Driver/Inc/stm32f0xx_hal_i2c_ex.h"
 801              		.file 20 "Inc/main.h"
 802              		.file 21 "<built-in>"
ARM GAS  /tmp/ccE1Ad8Q.s 			page 20

