ARM GAS  /tmp/ccVfu67b.s 			page 1


   1              		.cpu cortex-m0
   2              		.eabi_attribute 20, 1
   3              		.eabi_attribute 21, 1
   4              		.eabi_attribute 23, 3
   5              		.eabi_attribute 24, 1
   6              		.eabi_attribute 25, 1
   7              		.eabi_attribute 26, 1
   8              		.eabi_attribute 30, 1
   9              		.eabi_attribute 34, 0
  10              		.eabi_attribute 18, 4
  11              		.file	"stm32f0xx_hal_pcd.c"
  12              		.text
  13              	.Ltext0:
  14              		.cfi_sections	.debug_frame
  15              		.section	.text.HAL_PCD_MspInit,"ax",%progbits
  16              		.align	1
  17              		.weak	HAL_PCD_MspInit
  18              		.syntax unified
  19              		.code	16
  20              		.thumb_func
  21              		.fpu softvfp
  23              	HAL_PCD_MspInit:
  24              	.LFB39:
  25              		.file 1 "Drivers/STM32F0xx_HAL_Driver/Src/stm32f0xx_hal_pcd.c"
   1:Drivers/STM32F0xx_HAL_Driver/Src/stm32f0xx_hal_pcd.c **** /**
   2:Drivers/STM32F0xx_HAL_Driver/Src/stm32f0xx_hal_pcd.c ****   ******************************************************************************
   3:Drivers/STM32F0xx_HAL_Driver/Src/stm32f0xx_hal_pcd.c ****   * @file    stm32f0xx_hal_pcd.c
   4:Drivers/STM32F0xx_HAL_Driver/Src/stm32f0xx_hal_pcd.c ****   * @author  MCD Application Team
   5:Drivers/STM32F0xx_HAL_Driver/Src/stm32f0xx_hal_pcd.c ****   * @brief   PCD HAL module driver.
   6:Drivers/STM32F0xx_HAL_Driver/Src/stm32f0xx_hal_pcd.c ****   *          This file provides firmware functions to manage the following 
   7:Drivers/STM32F0xx_HAL_Driver/Src/stm32f0xx_hal_pcd.c ****   *          functionalities of the USB Peripheral Controller:
   8:Drivers/STM32F0xx_HAL_Driver/Src/stm32f0xx_hal_pcd.c ****   *           + Initialization and de-initialization functions
   9:Drivers/STM32F0xx_HAL_Driver/Src/stm32f0xx_hal_pcd.c ****   *           + IO operation functions
  10:Drivers/STM32F0xx_HAL_Driver/Src/stm32f0xx_hal_pcd.c ****   *           + Peripheral Control functions 
  11:Drivers/STM32F0xx_HAL_Driver/Src/stm32f0xx_hal_pcd.c ****   *           + Peripheral State functions
  12:Drivers/STM32F0xx_HAL_Driver/Src/stm32f0xx_hal_pcd.c ****   *         
  13:Drivers/STM32F0xx_HAL_Driver/Src/stm32f0xx_hal_pcd.c ****   @verbatim
  14:Drivers/STM32F0xx_HAL_Driver/Src/stm32f0xx_hal_pcd.c ****   ==============================================================================
  15:Drivers/STM32F0xx_HAL_Driver/Src/stm32f0xx_hal_pcd.c ****                     ##### How to use this driver #####
  16:Drivers/STM32F0xx_HAL_Driver/Src/stm32f0xx_hal_pcd.c ****   ==============================================================================
  17:Drivers/STM32F0xx_HAL_Driver/Src/stm32f0xx_hal_pcd.c ****     [..]
  18:Drivers/STM32F0xx_HAL_Driver/Src/stm32f0xx_hal_pcd.c ****       The PCD HAL driver can be used as follows:
  19:Drivers/STM32F0xx_HAL_Driver/Src/stm32f0xx_hal_pcd.c **** 
  20:Drivers/STM32F0xx_HAL_Driver/Src/stm32f0xx_hal_pcd.c ****      (#) Declare a PCD_HandleTypeDef handle structure, for example:
  21:Drivers/STM32F0xx_HAL_Driver/Src/stm32f0xx_hal_pcd.c ****          PCD_HandleTypeDef  hpcd;
  22:Drivers/STM32F0xx_HAL_Driver/Src/stm32f0xx_hal_pcd.c ****         
  23:Drivers/STM32F0xx_HAL_Driver/Src/stm32f0xx_hal_pcd.c ****      (#) Fill parameters of Init structure in HCD handle
  24:Drivers/STM32F0xx_HAL_Driver/Src/stm32f0xx_hal_pcd.c ****   
  25:Drivers/STM32F0xx_HAL_Driver/Src/stm32f0xx_hal_pcd.c ****      (#) Call HAL_PCD_Init() API to initialize the HCD peripheral (Core, Device core, ...) 
  26:Drivers/STM32F0xx_HAL_Driver/Src/stm32f0xx_hal_pcd.c **** 
  27:Drivers/STM32F0xx_HAL_Driver/Src/stm32f0xx_hal_pcd.c ****      (#) Initialize the PCD low level resources through the HAL_PCD_MspInit() API:
  28:Drivers/STM32F0xx_HAL_Driver/Src/stm32f0xx_hal_pcd.c ****          (##) Enable the PCD/USB Low Level interface clock using 
  29:Drivers/STM32F0xx_HAL_Driver/Src/stm32f0xx_hal_pcd.c ****               (+++) __HAL_RCC_USB_CLK_ENABLE);
  30:Drivers/STM32F0xx_HAL_Driver/Src/stm32f0xx_hal_pcd.c ****            
  31:Drivers/STM32F0xx_HAL_Driver/Src/stm32f0xx_hal_pcd.c ****          (##) Initialize the related GPIO clocks
  32:Drivers/STM32F0xx_HAL_Driver/Src/stm32f0xx_hal_pcd.c ****          (##) Configure PCD pin-out
  33:Drivers/STM32F0xx_HAL_Driver/Src/stm32f0xx_hal_pcd.c ****          (##) Configure PCD NVIC interrupt
ARM GAS  /tmp/ccVfu67b.s 			page 2


  34:Drivers/STM32F0xx_HAL_Driver/Src/stm32f0xx_hal_pcd.c ****     
  35:Drivers/STM32F0xx_HAL_Driver/Src/stm32f0xx_hal_pcd.c ****      (#)Associate the Upper USB device stack to the HAL PCD Driver:
  36:Drivers/STM32F0xx_HAL_Driver/Src/stm32f0xx_hal_pcd.c ****          (##) hpcd.pData = pdev;
  37:Drivers/STM32F0xx_HAL_Driver/Src/stm32f0xx_hal_pcd.c **** 
  38:Drivers/STM32F0xx_HAL_Driver/Src/stm32f0xx_hal_pcd.c ****      (#)Enable HCD transmission and reception:
  39:Drivers/STM32F0xx_HAL_Driver/Src/stm32f0xx_hal_pcd.c ****          (##) HAL_PCD_Start();
  40:Drivers/STM32F0xx_HAL_Driver/Src/stm32f0xx_hal_pcd.c **** 
  41:Drivers/STM32F0xx_HAL_Driver/Src/stm32f0xx_hal_pcd.c ****   @endverbatim
  42:Drivers/STM32F0xx_HAL_Driver/Src/stm32f0xx_hal_pcd.c ****   ******************************************************************************
  43:Drivers/STM32F0xx_HAL_Driver/Src/stm32f0xx_hal_pcd.c ****   * @attention
  44:Drivers/STM32F0xx_HAL_Driver/Src/stm32f0xx_hal_pcd.c ****   *
  45:Drivers/STM32F0xx_HAL_Driver/Src/stm32f0xx_hal_pcd.c ****   * <h2><center>&copy; COPYRIGHT(c) 2016 STMicroelectronics</center></h2>
  46:Drivers/STM32F0xx_HAL_Driver/Src/stm32f0xx_hal_pcd.c ****   *
  47:Drivers/STM32F0xx_HAL_Driver/Src/stm32f0xx_hal_pcd.c ****   * Redistribution and use in source and binary forms, with or without modification,
  48:Drivers/STM32F0xx_HAL_Driver/Src/stm32f0xx_hal_pcd.c ****   * are permitted provided that the following conditions are met:
  49:Drivers/STM32F0xx_HAL_Driver/Src/stm32f0xx_hal_pcd.c ****   *   1. Redistributions of source code must retain the above copyright notice,
  50:Drivers/STM32F0xx_HAL_Driver/Src/stm32f0xx_hal_pcd.c ****   *      this list of conditions and the following disclaimer.
  51:Drivers/STM32F0xx_HAL_Driver/Src/stm32f0xx_hal_pcd.c ****   *   2. Redistributions in binary form must reproduce the above copyright notice,
  52:Drivers/STM32F0xx_HAL_Driver/Src/stm32f0xx_hal_pcd.c ****   *      this list of conditions and the following disclaimer in the documentation
  53:Drivers/STM32F0xx_HAL_Driver/Src/stm32f0xx_hal_pcd.c ****   *      and/or other materials provided with the distribution.
  54:Drivers/STM32F0xx_HAL_Driver/Src/stm32f0xx_hal_pcd.c ****   *   3. Neither the name of STMicroelectronics nor the names of its contributors
  55:Drivers/STM32F0xx_HAL_Driver/Src/stm32f0xx_hal_pcd.c ****   *      may be used to endorse or promote products derived from this software
  56:Drivers/STM32F0xx_HAL_Driver/Src/stm32f0xx_hal_pcd.c ****   *      without specific prior written permission.
  57:Drivers/STM32F0xx_HAL_Driver/Src/stm32f0xx_hal_pcd.c ****   *
  58:Drivers/STM32F0xx_HAL_Driver/Src/stm32f0xx_hal_pcd.c ****   * THIS SOFTWARE IS PROVIDED BY THE COPYRIGHT HOLDERS AND CONTRIBUTORS "AS IS"
  59:Drivers/STM32F0xx_HAL_Driver/Src/stm32f0xx_hal_pcd.c ****   * AND ANY EXPRESS OR IMPLIED WARRANTIES, INCLUDING, BUT NOT LIMITED TO, THE
  60:Drivers/STM32F0xx_HAL_Driver/Src/stm32f0xx_hal_pcd.c ****   * IMPLIED WARRANTIES OF MERCHANTABILITY AND FITNESS FOR A PARTICULAR PURPOSE ARE
  61:Drivers/STM32F0xx_HAL_Driver/Src/stm32f0xx_hal_pcd.c ****   * DISCLAIMED. IN NO EVENT SHALL THE COPYRIGHT HOLDER OR CONTRIBUTORS BE LIABLE
  62:Drivers/STM32F0xx_HAL_Driver/Src/stm32f0xx_hal_pcd.c ****   * FOR ANY DIRECT, INDIRECT, INCIDENTAL, SPECIAL, EXEMPLARY, OR CONSEQUENTIAL
  63:Drivers/STM32F0xx_HAL_Driver/Src/stm32f0xx_hal_pcd.c ****   * DAMAGES (INCLUDING, BUT NOT LIMITED TO, PROCUREMENT OF SUBSTITUTE GOODS OR
  64:Drivers/STM32F0xx_HAL_Driver/Src/stm32f0xx_hal_pcd.c ****   * SERVICES; LOSS OF USE, DATA, OR PROFITS; OR BUSINESS INTERRUPTION) HOWEVER
  65:Drivers/STM32F0xx_HAL_Driver/Src/stm32f0xx_hal_pcd.c ****   * CAUSED AND ON ANY THEORY OF LIABILITY, WHETHER IN CONTRACT, STRICT LIABILITY,
  66:Drivers/STM32F0xx_HAL_Driver/Src/stm32f0xx_hal_pcd.c ****   * OR TORT (INCLUDING NEGLIGENCE OR OTHERWISE) ARISING IN ANY WAY OUT OF THE USE
  67:Drivers/STM32F0xx_HAL_Driver/Src/stm32f0xx_hal_pcd.c ****   * OF THIS SOFTWARE, EVEN IF ADVISED OF THE POSSIBILITY OF SUCH DAMAGE.
  68:Drivers/STM32F0xx_HAL_Driver/Src/stm32f0xx_hal_pcd.c ****   *
  69:Drivers/STM32F0xx_HAL_Driver/Src/stm32f0xx_hal_pcd.c ****   ******************************************************************************
  70:Drivers/STM32F0xx_HAL_Driver/Src/stm32f0xx_hal_pcd.c ****   */
  71:Drivers/STM32F0xx_HAL_Driver/Src/stm32f0xx_hal_pcd.c **** 
  72:Drivers/STM32F0xx_HAL_Driver/Src/stm32f0xx_hal_pcd.c **** /* Includes ------------------------------------------------------------------*/
  73:Drivers/STM32F0xx_HAL_Driver/Src/stm32f0xx_hal_pcd.c **** #include "stm32f0xx_hal.h"
  74:Drivers/STM32F0xx_HAL_Driver/Src/stm32f0xx_hal_pcd.c **** 
  75:Drivers/STM32F0xx_HAL_Driver/Src/stm32f0xx_hal_pcd.c **** /** @addtogroup STM32F0xx_HAL_Driver
  76:Drivers/STM32F0xx_HAL_Driver/Src/stm32f0xx_hal_pcd.c ****   * @{
  77:Drivers/STM32F0xx_HAL_Driver/Src/stm32f0xx_hal_pcd.c ****   */
  78:Drivers/STM32F0xx_HAL_Driver/Src/stm32f0xx_hal_pcd.c **** 
  79:Drivers/STM32F0xx_HAL_Driver/Src/stm32f0xx_hal_pcd.c **** #ifdef HAL_PCD_MODULE_ENABLED
  80:Drivers/STM32F0xx_HAL_Driver/Src/stm32f0xx_hal_pcd.c **** 
  81:Drivers/STM32F0xx_HAL_Driver/Src/stm32f0xx_hal_pcd.c **** #if defined(STM32F042x6) || defined(STM32F048xx) || defined(STM32F072xB) || defined(STM32F078xx) ||
  82:Drivers/STM32F0xx_HAL_Driver/Src/stm32f0xx_hal_pcd.c **** 
  83:Drivers/STM32F0xx_HAL_Driver/Src/stm32f0xx_hal_pcd.c **** /** @defgroup PCD PCD
  84:Drivers/STM32F0xx_HAL_Driver/Src/stm32f0xx_hal_pcd.c ****   * @brief PCD HAL module driver
  85:Drivers/STM32F0xx_HAL_Driver/Src/stm32f0xx_hal_pcd.c ****   * @{
  86:Drivers/STM32F0xx_HAL_Driver/Src/stm32f0xx_hal_pcd.c ****   */
  87:Drivers/STM32F0xx_HAL_Driver/Src/stm32f0xx_hal_pcd.c **** 
  88:Drivers/STM32F0xx_HAL_Driver/Src/stm32f0xx_hal_pcd.c **** /* Private typedef -----------------------------------------------------------*/
  89:Drivers/STM32F0xx_HAL_Driver/Src/stm32f0xx_hal_pcd.c **** /* Private define ------------------------------------------------------------*/
  90:Drivers/STM32F0xx_HAL_Driver/Src/stm32f0xx_hal_pcd.c **** 
ARM GAS  /tmp/ccVfu67b.s 			page 3


  91:Drivers/STM32F0xx_HAL_Driver/Src/stm32f0xx_hal_pcd.c **** /** @defgroup PCD_Private_Define PCD Private Define
  92:Drivers/STM32F0xx_HAL_Driver/Src/stm32f0xx_hal_pcd.c ****   * @{
  93:Drivers/STM32F0xx_HAL_Driver/Src/stm32f0xx_hal_pcd.c ****   */
  94:Drivers/STM32F0xx_HAL_Driver/Src/stm32f0xx_hal_pcd.c **** #define BTABLE_ADDRESS                  (0x000)  
  95:Drivers/STM32F0xx_HAL_Driver/Src/stm32f0xx_hal_pcd.c **** /**
  96:Drivers/STM32F0xx_HAL_Driver/Src/stm32f0xx_hal_pcd.c ****   * @}
  97:Drivers/STM32F0xx_HAL_Driver/Src/stm32f0xx_hal_pcd.c ****   */ 
  98:Drivers/STM32F0xx_HAL_Driver/Src/stm32f0xx_hal_pcd.c ****   
  99:Drivers/STM32F0xx_HAL_Driver/Src/stm32f0xx_hal_pcd.c **** /* Private macro -------------------------------------------------------------*/
 100:Drivers/STM32F0xx_HAL_Driver/Src/stm32f0xx_hal_pcd.c **** /* Private variables ---------------------------------------------------------*/
 101:Drivers/STM32F0xx_HAL_Driver/Src/stm32f0xx_hal_pcd.c **** /* Private function prototypes -----------------------------------------------*/
 102:Drivers/STM32F0xx_HAL_Driver/Src/stm32f0xx_hal_pcd.c **** /** @defgroup PCD_Private_Functions PCD Private Functions
 103:Drivers/STM32F0xx_HAL_Driver/Src/stm32f0xx_hal_pcd.c ****   * @{
 104:Drivers/STM32F0xx_HAL_Driver/Src/stm32f0xx_hal_pcd.c ****   */
 105:Drivers/STM32F0xx_HAL_Driver/Src/stm32f0xx_hal_pcd.c **** static HAL_StatusTypeDef PCD_EP_ISR_Handler(PCD_HandleTypeDef *hpcd);
 106:Drivers/STM32F0xx_HAL_Driver/Src/stm32f0xx_hal_pcd.c **** void PCD_WritePMA(USB_TypeDef  *USBx, uint8_t *pbUsrBuf, uint16_t wPMABufAddr, uint16_t wNBytes);
 107:Drivers/STM32F0xx_HAL_Driver/Src/stm32f0xx_hal_pcd.c **** void PCD_ReadPMA(USB_TypeDef  *USBx, uint8_t *pbUsrBuf, uint16_t wPMABufAddr, uint16_t wNBytes);
 108:Drivers/STM32F0xx_HAL_Driver/Src/stm32f0xx_hal_pcd.c **** /**
 109:Drivers/STM32F0xx_HAL_Driver/Src/stm32f0xx_hal_pcd.c ****   * @}
 110:Drivers/STM32F0xx_HAL_Driver/Src/stm32f0xx_hal_pcd.c ****   */ 
 111:Drivers/STM32F0xx_HAL_Driver/Src/stm32f0xx_hal_pcd.c **** 
 112:Drivers/STM32F0xx_HAL_Driver/Src/stm32f0xx_hal_pcd.c **** /* Exported functions --------------------------------------------------------*/
 113:Drivers/STM32F0xx_HAL_Driver/Src/stm32f0xx_hal_pcd.c **** /** @defgroup PCD_Exported_Functions PCD Exported Functions
 114:Drivers/STM32F0xx_HAL_Driver/Src/stm32f0xx_hal_pcd.c ****   * @{
 115:Drivers/STM32F0xx_HAL_Driver/Src/stm32f0xx_hal_pcd.c ****   */
 116:Drivers/STM32F0xx_HAL_Driver/Src/stm32f0xx_hal_pcd.c **** 
 117:Drivers/STM32F0xx_HAL_Driver/Src/stm32f0xx_hal_pcd.c **** /** @defgroup PCD_Exported_Functions_Group1 Initialization and de-initialization functions 
 118:Drivers/STM32F0xx_HAL_Driver/Src/stm32f0xx_hal_pcd.c ****  *  @brief    Initialization and Configuration functions 
 119:Drivers/STM32F0xx_HAL_Driver/Src/stm32f0xx_hal_pcd.c ****  *
 120:Drivers/STM32F0xx_HAL_Driver/Src/stm32f0xx_hal_pcd.c **** @verbatim
 121:Drivers/STM32F0xx_HAL_Driver/Src/stm32f0xx_hal_pcd.c ****  ===============================================================================
 122:Drivers/STM32F0xx_HAL_Driver/Src/stm32f0xx_hal_pcd.c ****             ##### Initialization and de-initialization functions #####
 123:Drivers/STM32F0xx_HAL_Driver/Src/stm32f0xx_hal_pcd.c ****  ===============================================================================
 124:Drivers/STM32F0xx_HAL_Driver/Src/stm32f0xx_hal_pcd.c ****     [..]  This section provides functions allowing to:
 125:Drivers/STM32F0xx_HAL_Driver/Src/stm32f0xx_hal_pcd.c ****  
 126:Drivers/STM32F0xx_HAL_Driver/Src/stm32f0xx_hal_pcd.c **** @endverbatim
 127:Drivers/STM32F0xx_HAL_Driver/Src/stm32f0xx_hal_pcd.c ****   * @{
 128:Drivers/STM32F0xx_HAL_Driver/Src/stm32f0xx_hal_pcd.c ****   */
 129:Drivers/STM32F0xx_HAL_Driver/Src/stm32f0xx_hal_pcd.c **** 
 130:Drivers/STM32F0xx_HAL_Driver/Src/stm32f0xx_hal_pcd.c **** /**
 131:Drivers/STM32F0xx_HAL_Driver/Src/stm32f0xx_hal_pcd.c ****   * @brief  Initializes the PCD according to the specified
 132:Drivers/STM32F0xx_HAL_Driver/Src/stm32f0xx_hal_pcd.c ****   *         parameters in the PCD_InitTypeDef and create the associated handle.
 133:Drivers/STM32F0xx_HAL_Driver/Src/stm32f0xx_hal_pcd.c ****   * @param  hpcd PCD handle
 134:Drivers/STM32F0xx_HAL_Driver/Src/stm32f0xx_hal_pcd.c ****   * @retval HAL status
 135:Drivers/STM32F0xx_HAL_Driver/Src/stm32f0xx_hal_pcd.c ****   */
 136:Drivers/STM32F0xx_HAL_Driver/Src/stm32f0xx_hal_pcd.c **** HAL_StatusTypeDef HAL_PCD_Init(PCD_HandleTypeDef *hpcd)
 137:Drivers/STM32F0xx_HAL_Driver/Src/stm32f0xx_hal_pcd.c **** { 
 138:Drivers/STM32F0xx_HAL_Driver/Src/stm32f0xx_hal_pcd.c ****   uint32_t i = 0U;
 139:Drivers/STM32F0xx_HAL_Driver/Src/stm32f0xx_hal_pcd.c **** 
 140:Drivers/STM32F0xx_HAL_Driver/Src/stm32f0xx_hal_pcd.c ****   uint32_t wInterrupt_Mask = 0U;
 141:Drivers/STM32F0xx_HAL_Driver/Src/stm32f0xx_hal_pcd.c ****   
 142:Drivers/STM32F0xx_HAL_Driver/Src/stm32f0xx_hal_pcd.c ****   /* Check the PCD handle allocation */
 143:Drivers/STM32F0xx_HAL_Driver/Src/stm32f0xx_hal_pcd.c ****   if(hpcd == NULL)
 144:Drivers/STM32F0xx_HAL_Driver/Src/stm32f0xx_hal_pcd.c ****   {
 145:Drivers/STM32F0xx_HAL_Driver/Src/stm32f0xx_hal_pcd.c ****     return HAL_ERROR;
 146:Drivers/STM32F0xx_HAL_Driver/Src/stm32f0xx_hal_pcd.c ****   }
 147:Drivers/STM32F0xx_HAL_Driver/Src/stm32f0xx_hal_pcd.c ****   
ARM GAS  /tmp/ccVfu67b.s 			page 4


 148:Drivers/STM32F0xx_HAL_Driver/Src/stm32f0xx_hal_pcd.c ****   /* Check the parameters */
 149:Drivers/STM32F0xx_HAL_Driver/Src/stm32f0xx_hal_pcd.c ****   assert_param(IS_PCD_ALL_INSTANCE(hpcd->Instance));
 150:Drivers/STM32F0xx_HAL_Driver/Src/stm32f0xx_hal_pcd.c **** 
 151:Drivers/STM32F0xx_HAL_Driver/Src/stm32f0xx_hal_pcd.c ****   if(hpcd->State == HAL_PCD_STATE_RESET)
 152:Drivers/STM32F0xx_HAL_Driver/Src/stm32f0xx_hal_pcd.c ****   {  
 153:Drivers/STM32F0xx_HAL_Driver/Src/stm32f0xx_hal_pcd.c ****     /* Allocate lock resource and initialize it */
 154:Drivers/STM32F0xx_HAL_Driver/Src/stm32f0xx_hal_pcd.c ****     hpcd->Lock = HAL_UNLOCKED;
 155:Drivers/STM32F0xx_HAL_Driver/Src/stm32f0xx_hal_pcd.c ****   
 156:Drivers/STM32F0xx_HAL_Driver/Src/stm32f0xx_hal_pcd.c ****     /* Init the low level hardware : GPIO, CLOCK, NVIC... */
 157:Drivers/STM32F0xx_HAL_Driver/Src/stm32f0xx_hal_pcd.c ****     HAL_PCD_MspInit(hpcd);
 158:Drivers/STM32F0xx_HAL_Driver/Src/stm32f0xx_hal_pcd.c ****   }
 159:Drivers/STM32F0xx_HAL_Driver/Src/stm32f0xx_hal_pcd.c **** 
 160:Drivers/STM32F0xx_HAL_Driver/Src/stm32f0xx_hal_pcd.c ****   hpcd->State = HAL_PCD_STATE_BUSY;
 161:Drivers/STM32F0xx_HAL_Driver/Src/stm32f0xx_hal_pcd.c ****  
 162:Drivers/STM32F0xx_HAL_Driver/Src/stm32f0xx_hal_pcd.c ****  /* Init endpoints structures */
 163:Drivers/STM32F0xx_HAL_Driver/Src/stm32f0xx_hal_pcd.c ****  for (i = 0U; i < hpcd->Init.dev_endpoints ; i++)
 164:Drivers/STM32F0xx_HAL_Driver/Src/stm32f0xx_hal_pcd.c ****  {
 165:Drivers/STM32F0xx_HAL_Driver/Src/stm32f0xx_hal_pcd.c ****    /* Init ep structure */
 166:Drivers/STM32F0xx_HAL_Driver/Src/stm32f0xx_hal_pcd.c ****    hpcd->IN_ep[i].is_in = 1U;
 167:Drivers/STM32F0xx_HAL_Driver/Src/stm32f0xx_hal_pcd.c ****    hpcd->IN_ep[i].num = i;
 168:Drivers/STM32F0xx_HAL_Driver/Src/stm32f0xx_hal_pcd.c ****    /* Control until ep is actvated */
 169:Drivers/STM32F0xx_HAL_Driver/Src/stm32f0xx_hal_pcd.c ****    hpcd->IN_ep[i].type = PCD_EP_TYPE_CTRL;
 170:Drivers/STM32F0xx_HAL_Driver/Src/stm32f0xx_hal_pcd.c ****    hpcd->IN_ep[i].maxpacket =  0U;
 171:Drivers/STM32F0xx_HAL_Driver/Src/stm32f0xx_hal_pcd.c ****    hpcd->IN_ep[i].xfer_buff = 0U;
 172:Drivers/STM32F0xx_HAL_Driver/Src/stm32f0xx_hal_pcd.c ****    hpcd->IN_ep[i].xfer_len = 0U;
 173:Drivers/STM32F0xx_HAL_Driver/Src/stm32f0xx_hal_pcd.c ****  }
 174:Drivers/STM32F0xx_HAL_Driver/Src/stm32f0xx_hal_pcd.c ****  
 175:Drivers/STM32F0xx_HAL_Driver/Src/stm32f0xx_hal_pcd.c ****  for (i = 0U; i < hpcd->Init.dev_endpoints ; i++)
 176:Drivers/STM32F0xx_HAL_Driver/Src/stm32f0xx_hal_pcd.c ****  {
 177:Drivers/STM32F0xx_HAL_Driver/Src/stm32f0xx_hal_pcd.c ****    hpcd->OUT_ep[i].is_in = 0U;
 178:Drivers/STM32F0xx_HAL_Driver/Src/stm32f0xx_hal_pcd.c ****    hpcd->OUT_ep[i].num = i;
 179:Drivers/STM32F0xx_HAL_Driver/Src/stm32f0xx_hal_pcd.c ****    /* Control until ep is activated */
 180:Drivers/STM32F0xx_HAL_Driver/Src/stm32f0xx_hal_pcd.c ****    hpcd->OUT_ep[i].type = PCD_EP_TYPE_CTRL;
 181:Drivers/STM32F0xx_HAL_Driver/Src/stm32f0xx_hal_pcd.c ****    hpcd->OUT_ep[i].maxpacket = 0U;
 182:Drivers/STM32F0xx_HAL_Driver/Src/stm32f0xx_hal_pcd.c ****    hpcd->OUT_ep[i].xfer_buff = 0U;
 183:Drivers/STM32F0xx_HAL_Driver/Src/stm32f0xx_hal_pcd.c ****    hpcd->OUT_ep[i].xfer_len = 0U;
 184:Drivers/STM32F0xx_HAL_Driver/Src/stm32f0xx_hal_pcd.c ****  }
 185:Drivers/STM32F0xx_HAL_Driver/Src/stm32f0xx_hal_pcd.c ****   
 186:Drivers/STM32F0xx_HAL_Driver/Src/stm32f0xx_hal_pcd.c ****  /* Init Device */
 187:Drivers/STM32F0xx_HAL_Driver/Src/stm32f0xx_hal_pcd.c ****  /*CNTR_FRES = 1*/
 188:Drivers/STM32F0xx_HAL_Driver/Src/stm32f0xx_hal_pcd.c ****  hpcd->Instance->CNTR = USB_CNTR_FRES;
 189:Drivers/STM32F0xx_HAL_Driver/Src/stm32f0xx_hal_pcd.c ****  
 190:Drivers/STM32F0xx_HAL_Driver/Src/stm32f0xx_hal_pcd.c ****  /*CNTR_FRES = 0*/
 191:Drivers/STM32F0xx_HAL_Driver/Src/stm32f0xx_hal_pcd.c ****  hpcd->Instance->CNTR = 0;
 192:Drivers/STM32F0xx_HAL_Driver/Src/stm32f0xx_hal_pcd.c ****  
 193:Drivers/STM32F0xx_HAL_Driver/Src/stm32f0xx_hal_pcd.c ****  /*Clear pending interrupts*/
 194:Drivers/STM32F0xx_HAL_Driver/Src/stm32f0xx_hal_pcd.c ****  hpcd->Instance->ISTR = 0;
 195:Drivers/STM32F0xx_HAL_Driver/Src/stm32f0xx_hal_pcd.c ****  
 196:Drivers/STM32F0xx_HAL_Driver/Src/stm32f0xx_hal_pcd.c ****   /*Set Btable Adress*/
 197:Drivers/STM32F0xx_HAL_Driver/Src/stm32f0xx_hal_pcd.c ****  hpcd->Instance->BTABLE = BTABLE_ADDRESS;
 198:Drivers/STM32F0xx_HAL_Driver/Src/stm32f0xx_hal_pcd.c ****   
 199:Drivers/STM32F0xx_HAL_Driver/Src/stm32f0xx_hal_pcd.c ****   /*set wInterrupt_Mask global variable*/
 200:Drivers/STM32F0xx_HAL_Driver/Src/stm32f0xx_hal_pcd.c ****  wInterrupt_Mask = USB_CNTR_CTRM  | USB_CNTR_WKUPM | USB_CNTR_SUSPM | USB_CNTR_ERRM \
 201:Drivers/STM32F0xx_HAL_Driver/Src/stm32f0xx_hal_pcd.c ****    | USB_CNTR_SOFM | USB_CNTR_ESOFM | USB_CNTR_RESETM;
 202:Drivers/STM32F0xx_HAL_Driver/Src/stm32f0xx_hal_pcd.c ****   
 203:Drivers/STM32F0xx_HAL_Driver/Src/stm32f0xx_hal_pcd.c ****   /*Set interrupt mask*/
 204:Drivers/STM32F0xx_HAL_Driver/Src/stm32f0xx_hal_pcd.c ****   hpcd->Instance->CNTR = wInterrupt_Mask;
ARM GAS  /tmp/ccVfu67b.s 			page 5


 205:Drivers/STM32F0xx_HAL_Driver/Src/stm32f0xx_hal_pcd.c ****   
 206:Drivers/STM32F0xx_HAL_Driver/Src/stm32f0xx_hal_pcd.c ****   hpcd->USB_Address = 0U;
 207:Drivers/STM32F0xx_HAL_Driver/Src/stm32f0xx_hal_pcd.c ****   hpcd->State= HAL_PCD_STATE_READY;
 208:Drivers/STM32F0xx_HAL_Driver/Src/stm32f0xx_hal_pcd.c **** 
 209:Drivers/STM32F0xx_HAL_Driver/Src/stm32f0xx_hal_pcd.c ****  return HAL_OK;
 210:Drivers/STM32F0xx_HAL_Driver/Src/stm32f0xx_hal_pcd.c **** }
 211:Drivers/STM32F0xx_HAL_Driver/Src/stm32f0xx_hal_pcd.c **** 
 212:Drivers/STM32F0xx_HAL_Driver/Src/stm32f0xx_hal_pcd.c **** /**
 213:Drivers/STM32F0xx_HAL_Driver/Src/stm32f0xx_hal_pcd.c ****   * @brief  DeInitializes the PCD peripheral 
 214:Drivers/STM32F0xx_HAL_Driver/Src/stm32f0xx_hal_pcd.c ****   * @param  hpcd PCD handle
 215:Drivers/STM32F0xx_HAL_Driver/Src/stm32f0xx_hal_pcd.c ****   * @retval HAL status
 216:Drivers/STM32F0xx_HAL_Driver/Src/stm32f0xx_hal_pcd.c ****   */
 217:Drivers/STM32F0xx_HAL_Driver/Src/stm32f0xx_hal_pcd.c **** HAL_StatusTypeDef HAL_PCD_DeInit(PCD_HandleTypeDef *hpcd)
 218:Drivers/STM32F0xx_HAL_Driver/Src/stm32f0xx_hal_pcd.c **** {
 219:Drivers/STM32F0xx_HAL_Driver/Src/stm32f0xx_hal_pcd.c ****   /* Check the PCD handle allocation */
 220:Drivers/STM32F0xx_HAL_Driver/Src/stm32f0xx_hal_pcd.c ****   if(hpcd == NULL)
 221:Drivers/STM32F0xx_HAL_Driver/Src/stm32f0xx_hal_pcd.c ****   {
 222:Drivers/STM32F0xx_HAL_Driver/Src/stm32f0xx_hal_pcd.c ****     return HAL_ERROR;
 223:Drivers/STM32F0xx_HAL_Driver/Src/stm32f0xx_hal_pcd.c ****   }
 224:Drivers/STM32F0xx_HAL_Driver/Src/stm32f0xx_hal_pcd.c **** 
 225:Drivers/STM32F0xx_HAL_Driver/Src/stm32f0xx_hal_pcd.c ****   hpcd->State = HAL_PCD_STATE_BUSY;
 226:Drivers/STM32F0xx_HAL_Driver/Src/stm32f0xx_hal_pcd.c ****   
 227:Drivers/STM32F0xx_HAL_Driver/Src/stm32f0xx_hal_pcd.c ****   /* Stop Device */
 228:Drivers/STM32F0xx_HAL_Driver/Src/stm32f0xx_hal_pcd.c ****   HAL_PCD_Stop(hpcd);
 229:Drivers/STM32F0xx_HAL_Driver/Src/stm32f0xx_hal_pcd.c ****     
 230:Drivers/STM32F0xx_HAL_Driver/Src/stm32f0xx_hal_pcd.c ****   /* DeInit the low level hardware */
 231:Drivers/STM32F0xx_HAL_Driver/Src/stm32f0xx_hal_pcd.c ****   HAL_PCD_MspDeInit(hpcd);
 232:Drivers/STM32F0xx_HAL_Driver/Src/stm32f0xx_hal_pcd.c ****   
 233:Drivers/STM32F0xx_HAL_Driver/Src/stm32f0xx_hal_pcd.c ****   hpcd->State = HAL_PCD_STATE_RESET; 
 234:Drivers/STM32F0xx_HAL_Driver/Src/stm32f0xx_hal_pcd.c ****   
 235:Drivers/STM32F0xx_HAL_Driver/Src/stm32f0xx_hal_pcd.c ****   return HAL_OK;
 236:Drivers/STM32F0xx_HAL_Driver/Src/stm32f0xx_hal_pcd.c **** }
 237:Drivers/STM32F0xx_HAL_Driver/Src/stm32f0xx_hal_pcd.c **** 
 238:Drivers/STM32F0xx_HAL_Driver/Src/stm32f0xx_hal_pcd.c **** /**
 239:Drivers/STM32F0xx_HAL_Driver/Src/stm32f0xx_hal_pcd.c ****   * @brief  Initializes the PCD MSP.
 240:Drivers/STM32F0xx_HAL_Driver/Src/stm32f0xx_hal_pcd.c ****   * @param  hpcd PCD handle
 241:Drivers/STM32F0xx_HAL_Driver/Src/stm32f0xx_hal_pcd.c ****   * @retval None
 242:Drivers/STM32F0xx_HAL_Driver/Src/stm32f0xx_hal_pcd.c ****   */
 243:Drivers/STM32F0xx_HAL_Driver/Src/stm32f0xx_hal_pcd.c **** __weak void HAL_PCD_MspInit(PCD_HandleTypeDef *hpcd)
 244:Drivers/STM32F0xx_HAL_Driver/Src/stm32f0xx_hal_pcd.c **** {
  26              		.loc 1 244 0
  27              		.cfi_startproc
  28              		@ args = 0, pretend = 0, frame = 0
  29              		@ frame_needed = 0, uses_anonymous_args = 0
  30              		@ link register save eliminated.
  31              	.LVL0:
 245:Drivers/STM32F0xx_HAL_Driver/Src/stm32f0xx_hal_pcd.c ****   /* Prevent unused argument(s) compilation warning */
 246:Drivers/STM32F0xx_HAL_Driver/Src/stm32f0xx_hal_pcd.c ****   UNUSED(hpcd);
 247:Drivers/STM32F0xx_HAL_Driver/Src/stm32f0xx_hal_pcd.c **** 
 248:Drivers/STM32F0xx_HAL_Driver/Src/stm32f0xx_hal_pcd.c ****   /* NOTE : This function Should not be modified, when the callback is needed,
 249:Drivers/STM32F0xx_HAL_Driver/Src/stm32f0xx_hal_pcd.c ****             the HAL_PCD_MspInit could be implemented in the user file
 250:Drivers/STM32F0xx_HAL_Driver/Src/stm32f0xx_hal_pcd.c ****    */
 251:Drivers/STM32F0xx_HAL_Driver/Src/stm32f0xx_hal_pcd.c **** }
  32              		.loc 1 251 0
  33              		@ sp needed
  34 0000 7047     		bx	lr
  35              		.cfi_endproc
ARM GAS  /tmp/ccVfu67b.s 			page 6


  36              	.LFE39:
  38              		.section	.text.HAL_PCD_Init,"ax",%progbits
  39              		.align	1
  40              		.global	HAL_PCD_Init
  41              		.syntax unified
  42              		.code	16
  43              		.thumb_func
  44              		.fpu softvfp
  46              	HAL_PCD_Init:
  47              	.LFB37:
 137:Drivers/STM32F0xx_HAL_Driver/Src/stm32f0xx_hal_pcd.c ****   uint32_t i = 0U;
  48              		.loc 1 137 0
  49              		.cfi_startproc
  50              		@ args = 0, pretend = 0, frame = 0
  51              		@ frame_needed = 0, uses_anonymous_args = 0
  52              	.LVL1:
  53 0000 70B5     		push	{r4, r5, r6, lr}
  54              	.LCFI0:
  55              		.cfi_def_cfa_offset 16
  56              		.cfi_offset 4, -16
  57              		.cfi_offset 5, -12
  58              		.cfi_offset 6, -8
  59              		.cfi_offset 14, -4
  60 0002 041E     		subs	r4, r0, #0
  61              	.LVL2:
 143:Drivers/STM32F0xx_HAL_Driver/Src/stm32f0xx_hal_pcd.c ****   {
  62              		.loc 1 143 0
  63 0004 58D0     		beq	.L9
 151:Drivers/STM32F0xx_HAL_Driver/Src/stm32f0xx_hal_pcd.c ****   {  
  64              		.loc 1 151 0
  65 0006 EA23     		movs	r3, #234
  66 0008 FF33     		adds	r3, r3, #255
  67 000a C35C     		ldrb	r3, [r0, r3]
  68 000c 002B     		cmp	r3, #0
  69 000e 05D0     		beq	.L10
  70              	.LVL3:
  71              	.L4:
 160:Drivers/STM32F0xx_HAL_Driver/Src/stm32f0xx_hal_pcd.c ****  
  72              		.loc 1 160 0
  73 0010 EA23     		movs	r3, #234
  74 0012 FF33     		adds	r3, r3, #255
  75 0014 0322     		movs	r2, #3
  76 0016 E254     		strb	r2, [r4, r3]
 163:Drivers/STM32F0xx_HAL_Driver/Src/stm32f0xx_hal_pcd.c ****  {
  77              		.loc 1 163 0
  78 0018 0022     		movs	r2, #0
  79 001a 18E0     		b	.L5
  80              	.LVL4:
  81              	.L10:
 154:Drivers/STM32F0xx_HAL_Driver/Src/stm32f0xx_hal_pcd.c ****   
  82              		.loc 1 154 0
  83 001c E933     		adds	r3, r3, #233
  84 001e FF33     		adds	r3, r3, #255
  85 0020 0022     		movs	r2, #0
  86 0022 C254     		strb	r2, [r0, r3]
 157:Drivers/STM32F0xx_HAL_Driver/Src/stm32f0xx_hal_pcd.c ****   }
  87              		.loc 1 157 0
ARM GAS  /tmp/ccVfu67b.s 			page 7


  88 0024 FFF7FEFF 		bl	HAL_PCD_MspInit
  89              	.LVL5:
  90 0028 F2E7     		b	.L4
  91              	.LVL6:
  92              	.L6:
 166:Drivers/STM32F0xx_HAL_Driver/Src/stm32f0xx_hal_pcd.c ****    hpcd->IN_ep[i].num = i;
  93              		.loc 1 166 0 discriminator 3
  94 002a D100     		lsls	r1, r2, #3
  95 002c 891A     		subs	r1, r1, r2
  96 002e 8B00     		lsls	r3, r1, #2
  97 0030 E318     		adds	r3, r4, r3
  98 0032 1900     		movs	r1, r3
  99 0034 2931     		adds	r1, r1, #41
 100 0036 0120     		movs	r0, #1
 101 0038 0870     		strb	r0, [r1]
 167:Drivers/STM32F0xx_HAL_Driver/Src/stm32f0xx_hal_pcd.c ****    /* Control until ep is actvated */
 102              		.loc 1 167 0 discriminator 3
 103 003a 0139     		subs	r1, r1, #1
 104 003c 0A70     		strb	r2, [r1]
 169:Drivers/STM32F0xx_HAL_Driver/Src/stm32f0xx_hal_pcd.c ****    hpcd->IN_ep[i].maxpacket =  0U;
 105              		.loc 1 169 0 discriminator 3
 106 003e 1800     		movs	r0, r3
 107 0040 2B30     		adds	r0, r0, #43
 108 0042 0021     		movs	r1, #0
 109 0044 0170     		strb	r1, [r0]
 170:Drivers/STM32F0xx_HAL_Driver/Src/stm32f0xx_hal_pcd.c ****    hpcd->IN_ep[i].xfer_buff = 0U;
 110              		.loc 1 170 0 discriminator 3
 111 0046 5963     		str	r1, [r3, #52]
 171:Drivers/STM32F0xx_HAL_Driver/Src/stm32f0xx_hal_pcd.c ****    hpcd->IN_ep[i].xfer_len = 0U;
 112              		.loc 1 171 0 discriminator 3
 113 0048 9963     		str	r1, [r3, #56]
 172:Drivers/STM32F0xx_HAL_Driver/Src/stm32f0xx_hal_pcd.c ****  }
 114              		.loc 1 172 0 discriminator 3
 115 004a D963     		str	r1, [r3, #60]
 163:Drivers/STM32F0xx_HAL_Driver/Src/stm32f0xx_hal_pcd.c ****  {
 116              		.loc 1 163 0 discriminator 3
 117 004c 0132     		adds	r2, r2, #1
 118              	.LVL7:
 119              	.L5:
 163:Drivers/STM32F0xx_HAL_Driver/Src/stm32f0xx_hal_pcd.c ****  {
 120              		.loc 1 163 0 is_stmt 0 discriminator 1
 121 004e 6068     		ldr	r0, [r4, #4]
 122 0050 9042     		cmp	r0, r2
 123 0052 EAD8     		bhi	.L6
 175:Drivers/STM32F0xx_HAL_Driver/Src/stm32f0xx_hal_pcd.c ****  {
 124              		.loc 1 175 0 is_stmt 1
 125 0054 0022     		movs	r2, #0
 126              	.LVL8:
 127 0056 14E0     		b	.L7
 128              	.LVL9:
 129              	.L8:
 177:Drivers/STM32F0xx_HAL_Driver/Src/stm32f0xx_hal_pcd.c ****    hpcd->OUT_ep[i].num = i;
 130              		.loc 1 177 0 discriminator 3
 131 0058 D100     		lsls	r1, r2, #3
 132 005a 891A     		subs	r1, r1, r2
 133 005c 8B00     		lsls	r3, r1, #2
 134 005e E318     		adds	r3, r4, r3
ARM GAS  /tmp/ccVfu67b.s 			page 8


 135 0060 1D00     		movs	r5, r3
 136 0062 0A35     		adds	r5, r5, #10
 137 0064 FF35     		adds	r5, r5, #255
 138 0066 0021     		movs	r1, #0
 139 0068 2970     		strb	r1, [r5]
 178:Drivers/STM32F0xx_HAL_Driver/Src/stm32f0xx_hal_pcd.c ****    /* Control until ep is activated */
 140              		.loc 1 178 0 discriminator 3
 141 006a 013D     		subs	r5, r5, #1
 142 006c 2A70     		strb	r2, [r5]
 180:Drivers/STM32F0xx_HAL_Driver/Src/stm32f0xx_hal_pcd.c ****    hpcd->OUT_ep[i].maxpacket = 0U;
 143              		.loc 1 180 0 discriminator 3
 144 006e 0335     		adds	r5, r5, #3
 145 0070 2970     		strb	r1, [r5]
 181:Drivers/STM32F0xx_HAL_Driver/Src/stm32f0xx_hal_pcd.c ****    hpcd->OUT_ep[i].xfer_buff = 0U;
 146              		.loc 1 181 0 discriminator 3
 147 0072 0935     		adds	r5, r5, #9
 148 0074 2960     		str	r1, [r5]
 182:Drivers/STM32F0xx_HAL_Driver/Src/stm32f0xx_hal_pcd.c ****    hpcd->OUT_ep[i].xfer_len = 0U;
 149              		.loc 1 182 0 discriminator 3
 150 0076 0435     		adds	r5, r5, #4
 151 0078 2960     		str	r1, [r5]
 183:Drivers/STM32F0xx_HAL_Driver/Src/stm32f0xx_hal_pcd.c ****  }
 152              		.loc 1 183 0 discriminator 3
 153 007a 1D33     		adds	r3, r3, #29
 154 007c FF33     		adds	r3, r3, #255
 155 007e 1960     		str	r1, [r3]
 175:Drivers/STM32F0xx_HAL_Driver/Src/stm32f0xx_hal_pcd.c ****  {
 156              		.loc 1 175 0 discriminator 3
 157 0080 0132     		adds	r2, r2, #1
 158              	.LVL10:
 159              	.L7:
 175:Drivers/STM32F0xx_HAL_Driver/Src/stm32f0xx_hal_pcd.c ****  {
 160              		.loc 1 175 0 is_stmt 0 discriminator 1
 161 0082 9042     		cmp	r0, r2
 162 0084 E8D8     		bhi	.L8
 188:Drivers/STM32F0xx_HAL_Driver/Src/stm32f0xx_hal_pcd.c ****  
 163              		.loc 1 188 0 is_stmt 1
 164 0086 4023     		movs	r3, #64
 165 0088 0122     		movs	r2, #1
 166              	.LVL11:
 167 008a 2168     		ldr	r1, [r4]
 168 008c CA52     		strh	r2, [r1, r3]
 191:Drivers/STM32F0xx_HAL_Driver/Src/stm32f0xx_hal_pcd.c ****  
 169              		.loc 1 191 0
 170 008e 0022     		movs	r2, #0
 171 0090 2168     		ldr	r1, [r4]
 172 0092 CA52     		strh	r2, [r1, r3]
 194:Drivers/STM32F0xx_HAL_Driver/Src/stm32f0xx_hal_pcd.c ****  
 173              		.loc 1 194 0
 174 0094 4421     		movs	r1, #68
 175 0096 2068     		ldr	r0, [r4]
 176 0098 4252     		strh	r2, [r0, r1]
 197:Drivers/STM32F0xx_HAL_Driver/Src/stm32f0xx_hal_pcd.c ****   
 177              		.loc 1 197 0
 178 009a 0C31     		adds	r1, r1, #12
 179 009c 2068     		ldr	r0, [r4]
 180 009e 4252     		strh	r2, [r0, r1]
ARM GAS  /tmp/ccVfu67b.s 			page 9


 181              	.LVL12:
 204:Drivers/STM32F0xx_HAL_Driver/Src/stm32f0xx_hal_pcd.c ****   
 182              		.loc 1 204 0
 183 00a0 064A     		ldr	r2, .L11
 184 00a2 2168     		ldr	r1, [r4]
 185 00a4 CA52     		strh	r2, [r1, r3]
 206:Drivers/STM32F0xx_HAL_Driver/Src/stm32f0xx_hal_pcd.c ****   hpcd->State= HAL_PCD_STATE_READY;
 186              		.loc 1 206 0
 187 00a6 0022     		movs	r2, #0
 188 00a8 1C3B     		subs	r3, r3, #28
 189 00aa E254     		strb	r2, [r4, r3]
 207:Drivers/STM32F0xx_HAL_Driver/Src/stm32f0xx_hal_pcd.c **** 
 190              		.loc 1 207 0
 191 00ac 0122     		movs	r2, #1
 192 00ae EA23     		movs	r3, #234
 193 00b0 FF33     		adds	r3, r3, #255
 194 00b2 E254     		strb	r2, [r4, r3]
 209:Drivers/STM32F0xx_HAL_Driver/Src/stm32f0xx_hal_pcd.c **** }
 195              		.loc 1 209 0
 196 00b4 0020     		movs	r0, #0
 197              	.LVL13:
 198              	.L3:
 210:Drivers/STM32F0xx_HAL_Driver/Src/stm32f0xx_hal_pcd.c **** 
 199              		.loc 1 210 0
 200              		@ sp needed
 201              	.LVL14:
 202 00b6 70BD     		pop	{r4, r5, r6, pc}
 203              	.LVL15:
 204              	.L9:
 145:Drivers/STM32F0xx_HAL_Driver/Src/stm32f0xx_hal_pcd.c ****   }
 205              		.loc 1 145 0
 206 00b8 0120     		movs	r0, #1
 207              	.LVL16:
 208 00ba FCE7     		b	.L3
 209              	.L12:
 210              		.align	2
 211              	.L11:
 212 00bc 00BFFFFF 		.word	-16640
 213              		.cfi_endproc
 214              	.LFE37:
 216              		.section	.text.HAL_PCD_MspDeInit,"ax",%progbits
 217              		.align	1
 218              		.weak	HAL_PCD_MspDeInit
 219              		.syntax unified
 220              		.code	16
 221              		.thumb_func
 222              		.fpu softvfp
 224              	HAL_PCD_MspDeInit:
 225              	.LFB40:
 252:Drivers/STM32F0xx_HAL_Driver/Src/stm32f0xx_hal_pcd.c **** 
 253:Drivers/STM32F0xx_HAL_Driver/Src/stm32f0xx_hal_pcd.c **** /**
 254:Drivers/STM32F0xx_HAL_Driver/Src/stm32f0xx_hal_pcd.c ****   * @brief  DeInitializes PCD MSP.
 255:Drivers/STM32F0xx_HAL_Driver/Src/stm32f0xx_hal_pcd.c ****   * @param  hpcd PCD handle
 256:Drivers/STM32F0xx_HAL_Driver/Src/stm32f0xx_hal_pcd.c ****   * @retval None
 257:Drivers/STM32F0xx_HAL_Driver/Src/stm32f0xx_hal_pcd.c ****   */
 258:Drivers/STM32F0xx_HAL_Driver/Src/stm32f0xx_hal_pcd.c **** __weak void HAL_PCD_MspDeInit(PCD_HandleTypeDef *hpcd)
 259:Drivers/STM32F0xx_HAL_Driver/Src/stm32f0xx_hal_pcd.c **** {
ARM GAS  /tmp/ccVfu67b.s 			page 10


 226              		.loc 1 259 0
 227              		.cfi_startproc
 228              		@ args = 0, pretend = 0, frame = 0
 229              		@ frame_needed = 0, uses_anonymous_args = 0
 230              		@ link register save eliminated.
 231              	.LVL17:
 260:Drivers/STM32F0xx_HAL_Driver/Src/stm32f0xx_hal_pcd.c ****   /* Prevent unused argument(s) compilation warning */
 261:Drivers/STM32F0xx_HAL_Driver/Src/stm32f0xx_hal_pcd.c ****   UNUSED(hpcd);
 262:Drivers/STM32F0xx_HAL_Driver/Src/stm32f0xx_hal_pcd.c **** 
 263:Drivers/STM32F0xx_HAL_Driver/Src/stm32f0xx_hal_pcd.c ****   /* NOTE : This function Should not be modified, when the callback is needed,
 264:Drivers/STM32F0xx_HAL_Driver/Src/stm32f0xx_hal_pcd.c ****             the HAL_PCD_MspDeInit could be implemented in the user file
 265:Drivers/STM32F0xx_HAL_Driver/Src/stm32f0xx_hal_pcd.c ****    */
 266:Drivers/STM32F0xx_HAL_Driver/Src/stm32f0xx_hal_pcd.c **** }
 232              		.loc 1 266 0
 233              		@ sp needed
 234 0000 7047     		bx	lr
 235              		.cfi_endproc
 236              	.LFE40:
 238              		.section	.text.HAL_PCD_Start,"ax",%progbits
 239              		.align	1
 240              		.global	HAL_PCD_Start
 241              		.syntax unified
 242              		.code	16
 243              		.thumb_func
 244              		.fpu softvfp
 246              	HAL_PCD_Start:
 247              	.LFB41:
 267:Drivers/STM32F0xx_HAL_Driver/Src/stm32f0xx_hal_pcd.c **** 
 268:Drivers/STM32F0xx_HAL_Driver/Src/stm32f0xx_hal_pcd.c **** /**
 269:Drivers/STM32F0xx_HAL_Driver/Src/stm32f0xx_hal_pcd.c ****   * @}
 270:Drivers/STM32F0xx_HAL_Driver/Src/stm32f0xx_hal_pcd.c ****   */
 271:Drivers/STM32F0xx_HAL_Driver/Src/stm32f0xx_hal_pcd.c **** 
 272:Drivers/STM32F0xx_HAL_Driver/Src/stm32f0xx_hal_pcd.c **** /** @defgroup PCD_Exported_Functions_Group2 IO operation functions 
 273:Drivers/STM32F0xx_HAL_Driver/Src/stm32f0xx_hal_pcd.c ****  *  @brief   Data transfers functions 
 274:Drivers/STM32F0xx_HAL_Driver/Src/stm32f0xx_hal_pcd.c ****  *
 275:Drivers/STM32F0xx_HAL_Driver/Src/stm32f0xx_hal_pcd.c **** @verbatim   
 276:Drivers/STM32F0xx_HAL_Driver/Src/stm32f0xx_hal_pcd.c ****  ===============================================================================
 277:Drivers/STM32F0xx_HAL_Driver/Src/stm32f0xx_hal_pcd.c ****                       ##### IO operation functions #####
 278:Drivers/STM32F0xx_HAL_Driver/Src/stm32f0xx_hal_pcd.c ****  ===============================================================================  
 279:Drivers/STM32F0xx_HAL_Driver/Src/stm32f0xx_hal_pcd.c ****     [..]
 280:Drivers/STM32F0xx_HAL_Driver/Src/stm32f0xx_hal_pcd.c ****     This subsection provides a set of functions allowing to manage the PCD data 
 281:Drivers/STM32F0xx_HAL_Driver/Src/stm32f0xx_hal_pcd.c ****     transfers.
 282:Drivers/STM32F0xx_HAL_Driver/Src/stm32f0xx_hal_pcd.c **** 
 283:Drivers/STM32F0xx_HAL_Driver/Src/stm32f0xx_hal_pcd.c **** @endverbatim
 284:Drivers/STM32F0xx_HAL_Driver/Src/stm32f0xx_hal_pcd.c ****   * @{
 285:Drivers/STM32F0xx_HAL_Driver/Src/stm32f0xx_hal_pcd.c ****   */
 286:Drivers/STM32F0xx_HAL_Driver/Src/stm32f0xx_hal_pcd.c ****   
 287:Drivers/STM32F0xx_HAL_Driver/Src/stm32f0xx_hal_pcd.c **** /**
 288:Drivers/STM32F0xx_HAL_Driver/Src/stm32f0xx_hal_pcd.c ****   * @brief  Start the USB device.
 289:Drivers/STM32F0xx_HAL_Driver/Src/stm32f0xx_hal_pcd.c ****   * @param  hpcd PCD handle
 290:Drivers/STM32F0xx_HAL_Driver/Src/stm32f0xx_hal_pcd.c ****   * @retval HAL status
 291:Drivers/STM32F0xx_HAL_Driver/Src/stm32f0xx_hal_pcd.c ****   */
 292:Drivers/STM32F0xx_HAL_Driver/Src/stm32f0xx_hal_pcd.c **** HAL_StatusTypeDef HAL_PCD_Start(PCD_HandleTypeDef *hpcd)
 293:Drivers/STM32F0xx_HAL_Driver/Src/stm32f0xx_hal_pcd.c **** { 
 248              		.loc 1 293 0
 249              		.cfi_startproc
 250              		@ args = 0, pretend = 0, frame = 0
ARM GAS  /tmp/ccVfu67b.s 			page 11


 251              		@ frame_needed = 0, uses_anonymous_args = 0
 252              		@ link register save eliminated.
 253              	.LVL18:
 294:Drivers/STM32F0xx_HAL_Driver/Src/stm32f0xx_hal_pcd.c ****   /* Enabling DP Pull-Down bit to Connect internal pull-up on USB DP line */
 295:Drivers/STM32F0xx_HAL_Driver/Src/stm32f0xx_hal_pcd.c ****   hpcd->Instance->BCDR |= USB_BCDR_DPPU;
 254              		.loc 1 295 0
 255 0000 0168     		ldr	r1, [r0]
 256 0002 5822     		movs	r2, #88
 257 0004 8B5A     		ldrh	r3, [r1, r2]
 258 0006 0348     		ldr	r0, .L15
 259              	.LVL19:
 260 0008 0343     		orrs	r3, r0
 261 000a 9BB2     		uxth	r3, r3
 262 000c 8B52     		strh	r3, [r1, r2]
 296:Drivers/STM32F0xx_HAL_Driver/Src/stm32f0xx_hal_pcd.c ****   
 297:Drivers/STM32F0xx_HAL_Driver/Src/stm32f0xx_hal_pcd.c ****   return HAL_OK;
 298:Drivers/STM32F0xx_HAL_Driver/Src/stm32f0xx_hal_pcd.c **** }
 263              		.loc 1 298 0
 264 000e 0020     		movs	r0, #0
 265              		@ sp needed
 266 0010 7047     		bx	lr
 267              	.L16:
 268 0012 C046     		.align	2
 269              	.L15:
 270 0014 0080FFFF 		.word	-32768
 271              		.cfi_endproc
 272              	.LFE41:
 274              		.section	.text.HAL_PCD_Stop,"ax",%progbits
 275              		.align	1
 276              		.global	HAL_PCD_Stop
 277              		.syntax unified
 278              		.code	16
 279              		.thumb_func
 280              		.fpu softvfp
 282              	HAL_PCD_Stop:
 283              	.LFB42:
 299:Drivers/STM32F0xx_HAL_Driver/Src/stm32f0xx_hal_pcd.c **** 
 300:Drivers/STM32F0xx_HAL_Driver/Src/stm32f0xx_hal_pcd.c **** /**
 301:Drivers/STM32F0xx_HAL_Driver/Src/stm32f0xx_hal_pcd.c ****   * @brief  Stop the USB device.
 302:Drivers/STM32F0xx_HAL_Driver/Src/stm32f0xx_hal_pcd.c ****   * @param  hpcd PCD handle
 303:Drivers/STM32F0xx_HAL_Driver/Src/stm32f0xx_hal_pcd.c ****   * @retval HAL status
 304:Drivers/STM32F0xx_HAL_Driver/Src/stm32f0xx_hal_pcd.c ****   */
 305:Drivers/STM32F0xx_HAL_Driver/Src/stm32f0xx_hal_pcd.c **** HAL_StatusTypeDef HAL_PCD_Stop(PCD_HandleTypeDef *hpcd)
 306:Drivers/STM32F0xx_HAL_Driver/Src/stm32f0xx_hal_pcd.c **** { 
 284              		.loc 1 306 0
 285              		.cfi_startproc
 286              		@ args = 0, pretend = 0, frame = 0
 287              		@ frame_needed = 0, uses_anonymous_args = 0
 288              	.LVL20:
 289 0000 10B5     		push	{r4, lr}
 290              	.LCFI1:
 291              		.cfi_def_cfa_offset 8
 292              		.cfi_offset 4, -8
 293              		.cfi_offset 14, -4
 307:Drivers/STM32F0xx_HAL_Driver/Src/stm32f0xx_hal_pcd.c ****   __HAL_LOCK(hpcd); 
 294              		.loc 1 307 0
 295 0002 F423     		movs	r3, #244
ARM GAS  /tmp/ccVfu67b.s 			page 12


 296 0004 5B00     		lsls	r3, r3, #1
 297 0006 C35C     		ldrb	r3, [r0, r3]
 298 0008 012B     		cmp	r3, #1
 299 000a 10D0     		beq	.L19
 308:Drivers/STM32F0xx_HAL_Driver/Src/stm32f0xx_hal_pcd.c ****   
 309:Drivers/STM32F0xx_HAL_Driver/Src/stm32f0xx_hal_pcd.c ****     /* disable all interrupts and force USB reset */
 310:Drivers/STM32F0xx_HAL_Driver/Src/stm32f0xx_hal_pcd.c ****   hpcd->Instance->CNTR = USB_CNTR_FRES;
 300              		.loc 1 310 0 discriminator 2
 301 000c 4023     		movs	r3, #64
 302 000e 0122     		movs	r2, #1
 303 0010 0168     		ldr	r1, [r0]
 304 0012 CA52     		strh	r2, [r1, r3]
 311:Drivers/STM32F0xx_HAL_Driver/Src/stm32f0xx_hal_pcd.c ****   
 312:Drivers/STM32F0xx_HAL_Driver/Src/stm32f0xx_hal_pcd.c ****   /* clear interrupt status register */
 313:Drivers/STM32F0xx_HAL_Driver/Src/stm32f0xx_hal_pcd.c ****   hpcd->Instance->ISTR = 0;
 305              		.loc 1 313 0 discriminator 2
 306 0014 4332     		adds	r2, r2, #67
 307 0016 0021     		movs	r1, #0
 308 0018 0468     		ldr	r4, [r0]
 309 001a A152     		strh	r1, [r4, r2]
 314:Drivers/STM32F0xx_HAL_Driver/Src/stm32f0xx_hal_pcd.c ****   
 315:Drivers/STM32F0xx_HAL_Driver/Src/stm32f0xx_hal_pcd.c ****   /* switch-off device */
 316:Drivers/STM32F0xx_HAL_Driver/Src/stm32f0xx_hal_pcd.c ****   hpcd->Instance->CNTR = (USB_CNTR_FRES | USB_CNTR_PDWN);
 310              		.loc 1 316 0 discriminator 2
 311 001c 413A     		subs	r2, r2, #65
 312 001e 0168     		ldr	r1, [r0]
 313 0020 CA52     		strh	r2, [r1, r3]
 317:Drivers/STM32F0xx_HAL_Driver/Src/stm32f0xx_hal_pcd.c ****   
 318:Drivers/STM32F0xx_HAL_Driver/Src/stm32f0xx_hal_pcd.c ****   __HAL_UNLOCK(hpcd); 
 314              		.loc 1 318 0 discriminator 2
 315 0022 0022     		movs	r2, #0
 316 0024 A933     		adds	r3, r3, #169
 317 0026 FF33     		adds	r3, r3, #255
 318 0028 C254     		strb	r2, [r0, r3]
 319:Drivers/STM32F0xx_HAL_Driver/Src/stm32f0xx_hal_pcd.c ****   return HAL_OK;
 319              		.loc 1 319 0 discriminator 2
 320 002a 0020     		movs	r0, #0
 321              	.LVL21:
 322              	.L18:
 320:Drivers/STM32F0xx_HAL_Driver/Src/stm32f0xx_hal_pcd.c **** }
 323              		.loc 1 320 0
 324              		@ sp needed
 325 002c 10BD     		pop	{r4, pc}
 326              	.LVL22:
 327              	.L19:
 307:Drivers/STM32F0xx_HAL_Driver/Src/stm32f0xx_hal_pcd.c ****   
 328              		.loc 1 307 0
 329 002e 0220     		movs	r0, #2
 330              	.LVL23:
 331 0030 FCE7     		b	.L18
 332              		.cfi_endproc
 333              	.LFE42:
 335              		.section	.text.HAL_PCD_DeInit,"ax",%progbits
 336              		.align	1
 337              		.global	HAL_PCD_DeInit
 338              		.syntax unified
 339              		.code	16
ARM GAS  /tmp/ccVfu67b.s 			page 13


 340              		.thumb_func
 341              		.fpu softvfp
 343              	HAL_PCD_DeInit:
 344              	.LFB38:
 218:Drivers/STM32F0xx_HAL_Driver/Src/stm32f0xx_hal_pcd.c ****   /* Check the PCD handle allocation */
 345              		.loc 1 218 0
 346              		.cfi_startproc
 347              		@ args = 0, pretend = 0, frame = 0
 348              		@ frame_needed = 0, uses_anonymous_args = 0
 349              	.LVL24:
 350 0000 70B5     		push	{r4, r5, r6, lr}
 351              	.LCFI2:
 352              		.cfi_def_cfa_offset 16
 353              		.cfi_offset 4, -16
 354              		.cfi_offset 5, -12
 355              		.cfi_offset 6, -8
 356              		.cfi_offset 14, -4
 357 0002 041E     		subs	r4, r0, #0
 220:Drivers/STM32F0xx_HAL_Driver/Src/stm32f0xx_hal_pcd.c ****   {
 358              		.loc 1 220 0
 359 0004 0CD0     		beq	.L22
 225:Drivers/STM32F0xx_HAL_Driver/Src/stm32f0xx_hal_pcd.c ****   
 360              		.loc 1 225 0
 361 0006 EA25     		movs	r5, #234
 362 0008 FF35     		adds	r5, r5, #255
 363 000a 0323     		movs	r3, #3
 364 000c 4355     		strb	r3, [r0, r5]
 228:Drivers/STM32F0xx_HAL_Driver/Src/stm32f0xx_hal_pcd.c ****     
 365              		.loc 1 228 0
 366 000e FFF7FEFF 		bl	HAL_PCD_Stop
 367              	.LVL25:
 231:Drivers/STM32F0xx_HAL_Driver/Src/stm32f0xx_hal_pcd.c ****   
 368              		.loc 1 231 0
 369 0012 2000     		movs	r0, r4
 370 0014 FFF7FEFF 		bl	HAL_PCD_MspDeInit
 371              	.LVL26:
 233:Drivers/STM32F0xx_HAL_Driver/Src/stm32f0xx_hal_pcd.c ****   
 372              		.loc 1 233 0
 373 0018 0023     		movs	r3, #0
 374 001a 6355     		strb	r3, [r4, r5]
 235:Drivers/STM32F0xx_HAL_Driver/Src/stm32f0xx_hal_pcd.c **** }
 375              		.loc 1 235 0
 376 001c 0020     		movs	r0, #0
 377              	.L21:
 236:Drivers/STM32F0xx_HAL_Driver/Src/stm32f0xx_hal_pcd.c **** 
 378              		.loc 1 236 0
 379              		@ sp needed
 380              	.LVL27:
 381 001e 70BD     		pop	{r4, r5, r6, pc}
 382              	.LVL28:
 383              	.L22:
 222:Drivers/STM32F0xx_HAL_Driver/Src/stm32f0xx_hal_pcd.c ****   }
 384              		.loc 1 222 0
 385 0020 0120     		movs	r0, #1
 386              	.LVL29:
 387 0022 FCE7     		b	.L21
 388              		.cfi_endproc
ARM GAS  /tmp/ccVfu67b.s 			page 14


 389              	.LFE38:
 391              		.section	.text.HAL_PCD_DataOutStageCallback,"ax",%progbits
 392              		.align	1
 393              		.weak	HAL_PCD_DataOutStageCallback
 394              		.syntax unified
 395              		.code	16
 396              		.thumb_func
 397              		.fpu softvfp
 399              	HAL_PCD_DataOutStageCallback:
 400              	.LFB44:
 321:Drivers/STM32F0xx_HAL_Driver/Src/stm32f0xx_hal_pcd.c **** 
 322:Drivers/STM32F0xx_HAL_Driver/Src/stm32f0xx_hal_pcd.c **** /**
 323:Drivers/STM32F0xx_HAL_Driver/Src/stm32f0xx_hal_pcd.c ****   * @brief  This function handles PCD interrupt request.
 324:Drivers/STM32F0xx_HAL_Driver/Src/stm32f0xx_hal_pcd.c ****   * @param  hpcd PCD handle
 325:Drivers/STM32F0xx_HAL_Driver/Src/stm32f0xx_hal_pcd.c ****   * @retval HAL status
 326:Drivers/STM32F0xx_HAL_Driver/Src/stm32f0xx_hal_pcd.c ****   */
 327:Drivers/STM32F0xx_HAL_Driver/Src/stm32f0xx_hal_pcd.c **** void HAL_PCD_IRQHandler(PCD_HandleTypeDef *hpcd)
 328:Drivers/STM32F0xx_HAL_Driver/Src/stm32f0xx_hal_pcd.c **** {
 329:Drivers/STM32F0xx_HAL_Driver/Src/stm32f0xx_hal_pcd.c ****   uint32_t wInterrupt_Mask = 0U;
 330:Drivers/STM32F0xx_HAL_Driver/Src/stm32f0xx_hal_pcd.c ****   
 331:Drivers/STM32F0xx_HAL_Driver/Src/stm32f0xx_hal_pcd.c ****   if (__HAL_PCD_GET_FLAG (hpcd, USB_ISTR_CTR))
 332:Drivers/STM32F0xx_HAL_Driver/Src/stm32f0xx_hal_pcd.c ****   {
 333:Drivers/STM32F0xx_HAL_Driver/Src/stm32f0xx_hal_pcd.c ****     /* servicing of the endpoint correct transfer interrupt */
 334:Drivers/STM32F0xx_HAL_Driver/Src/stm32f0xx_hal_pcd.c ****     /* clear of the CTR flag into the sub */
 335:Drivers/STM32F0xx_HAL_Driver/Src/stm32f0xx_hal_pcd.c ****     PCD_EP_ISR_Handler(hpcd);
 336:Drivers/STM32F0xx_HAL_Driver/Src/stm32f0xx_hal_pcd.c ****   }
 337:Drivers/STM32F0xx_HAL_Driver/Src/stm32f0xx_hal_pcd.c **** 
 338:Drivers/STM32F0xx_HAL_Driver/Src/stm32f0xx_hal_pcd.c ****   if (__HAL_PCD_GET_FLAG (hpcd, USB_ISTR_RESET))
 339:Drivers/STM32F0xx_HAL_Driver/Src/stm32f0xx_hal_pcd.c ****   {
 340:Drivers/STM32F0xx_HAL_Driver/Src/stm32f0xx_hal_pcd.c ****     __HAL_PCD_CLEAR_FLAG(hpcd, USB_ISTR_RESET);
 341:Drivers/STM32F0xx_HAL_Driver/Src/stm32f0xx_hal_pcd.c ****     HAL_PCD_ResetCallback(hpcd);
 342:Drivers/STM32F0xx_HAL_Driver/Src/stm32f0xx_hal_pcd.c ****     HAL_PCD_SetAddress(hpcd, 0U);
 343:Drivers/STM32F0xx_HAL_Driver/Src/stm32f0xx_hal_pcd.c ****   }
 344:Drivers/STM32F0xx_HAL_Driver/Src/stm32f0xx_hal_pcd.c **** 
 345:Drivers/STM32F0xx_HAL_Driver/Src/stm32f0xx_hal_pcd.c ****   if (__HAL_PCD_GET_FLAG (hpcd, USB_ISTR_PMAOVR))
 346:Drivers/STM32F0xx_HAL_Driver/Src/stm32f0xx_hal_pcd.c ****   {
 347:Drivers/STM32F0xx_HAL_Driver/Src/stm32f0xx_hal_pcd.c ****     __HAL_PCD_CLEAR_FLAG(hpcd, USB_ISTR_PMAOVR);    
 348:Drivers/STM32F0xx_HAL_Driver/Src/stm32f0xx_hal_pcd.c ****   }
 349:Drivers/STM32F0xx_HAL_Driver/Src/stm32f0xx_hal_pcd.c **** 
 350:Drivers/STM32F0xx_HAL_Driver/Src/stm32f0xx_hal_pcd.c ****   if (__HAL_PCD_GET_FLAG (hpcd, USB_ISTR_ERR))
 351:Drivers/STM32F0xx_HAL_Driver/Src/stm32f0xx_hal_pcd.c ****   {
 352:Drivers/STM32F0xx_HAL_Driver/Src/stm32f0xx_hal_pcd.c ****     __HAL_PCD_CLEAR_FLAG(hpcd, USB_ISTR_ERR); 
 353:Drivers/STM32F0xx_HAL_Driver/Src/stm32f0xx_hal_pcd.c ****   }
 354:Drivers/STM32F0xx_HAL_Driver/Src/stm32f0xx_hal_pcd.c **** 
 355:Drivers/STM32F0xx_HAL_Driver/Src/stm32f0xx_hal_pcd.c ****   if (__HAL_PCD_GET_FLAG (hpcd, USB_ISTR_WKUP))
 356:Drivers/STM32F0xx_HAL_Driver/Src/stm32f0xx_hal_pcd.c ****   {
 357:Drivers/STM32F0xx_HAL_Driver/Src/stm32f0xx_hal_pcd.c ****     
 358:Drivers/STM32F0xx_HAL_Driver/Src/stm32f0xx_hal_pcd.c ****     hpcd->Instance->CNTR &= (uint16_t)(~(USB_CNTR_LPMODE));
 359:Drivers/STM32F0xx_HAL_Driver/Src/stm32f0xx_hal_pcd.c **** 
 360:Drivers/STM32F0xx_HAL_Driver/Src/stm32f0xx_hal_pcd.c ****     /*set wInterrupt_Mask global variable*/
 361:Drivers/STM32F0xx_HAL_Driver/Src/stm32f0xx_hal_pcd.c ****     wInterrupt_Mask = USB_CNTR_CTRM  | USB_CNTR_WKUPM | USB_CNTR_SUSPM | USB_CNTR_ERRM \
 362:Drivers/STM32F0xx_HAL_Driver/Src/stm32f0xx_hal_pcd.c ****       | USB_CNTR_ESOFM | USB_CNTR_RESETM;
 363:Drivers/STM32F0xx_HAL_Driver/Src/stm32f0xx_hal_pcd.c ****     
 364:Drivers/STM32F0xx_HAL_Driver/Src/stm32f0xx_hal_pcd.c ****     /*Set interrupt mask*/
 365:Drivers/STM32F0xx_HAL_Driver/Src/stm32f0xx_hal_pcd.c ****     hpcd->Instance->CNTR = wInterrupt_Mask;
 366:Drivers/STM32F0xx_HAL_Driver/Src/stm32f0xx_hal_pcd.c ****     
 367:Drivers/STM32F0xx_HAL_Driver/Src/stm32f0xx_hal_pcd.c ****     HAL_PCD_ResumeCallback(hpcd);
ARM GAS  /tmp/ccVfu67b.s 			page 15


 368:Drivers/STM32F0xx_HAL_Driver/Src/stm32f0xx_hal_pcd.c ****     
 369:Drivers/STM32F0xx_HAL_Driver/Src/stm32f0xx_hal_pcd.c ****     __HAL_PCD_CLEAR_FLAG(hpcd, USB_ISTR_WKUP);     
 370:Drivers/STM32F0xx_HAL_Driver/Src/stm32f0xx_hal_pcd.c ****   }
 371:Drivers/STM32F0xx_HAL_Driver/Src/stm32f0xx_hal_pcd.c **** 
 372:Drivers/STM32F0xx_HAL_Driver/Src/stm32f0xx_hal_pcd.c ****   if (__HAL_PCD_GET_FLAG (hpcd, USB_ISTR_SUSP))
 373:Drivers/STM32F0xx_HAL_Driver/Src/stm32f0xx_hal_pcd.c ****   {    
 374:Drivers/STM32F0xx_HAL_Driver/Src/stm32f0xx_hal_pcd.c ****     /* clear of the ISTR bit must be done after setting of CNTR_FSUSP */
 375:Drivers/STM32F0xx_HAL_Driver/Src/stm32f0xx_hal_pcd.c ****     __HAL_PCD_CLEAR_FLAG(hpcd, USB_ISTR_SUSP);  
 376:Drivers/STM32F0xx_HAL_Driver/Src/stm32f0xx_hal_pcd.c ****     
 377:Drivers/STM32F0xx_HAL_Driver/Src/stm32f0xx_hal_pcd.c ****     /* Force low-power mode in the macrocell */
 378:Drivers/STM32F0xx_HAL_Driver/Src/stm32f0xx_hal_pcd.c ****     hpcd->Instance->CNTR |= USB_CNTR_FSUSP;
 379:Drivers/STM32F0xx_HAL_Driver/Src/stm32f0xx_hal_pcd.c ****     hpcd->Instance->CNTR |= USB_CNTR_LPMODE;
 380:Drivers/STM32F0xx_HAL_Driver/Src/stm32f0xx_hal_pcd.c **** 
 381:Drivers/STM32F0xx_HAL_Driver/Src/stm32f0xx_hal_pcd.c ****     if (__HAL_PCD_GET_FLAG (hpcd, USB_ISTR_WKUP) == 0)
 382:Drivers/STM32F0xx_HAL_Driver/Src/stm32f0xx_hal_pcd.c ****     {
 383:Drivers/STM32F0xx_HAL_Driver/Src/stm32f0xx_hal_pcd.c ****       HAL_PCD_SuspendCallback(hpcd);
 384:Drivers/STM32F0xx_HAL_Driver/Src/stm32f0xx_hal_pcd.c ****     }
 385:Drivers/STM32F0xx_HAL_Driver/Src/stm32f0xx_hal_pcd.c ****   }
 386:Drivers/STM32F0xx_HAL_Driver/Src/stm32f0xx_hal_pcd.c **** 
 387:Drivers/STM32F0xx_HAL_Driver/Src/stm32f0xx_hal_pcd.c ****   if (__HAL_PCD_GET_FLAG (hpcd, USB_ISTR_SOF))
 388:Drivers/STM32F0xx_HAL_Driver/Src/stm32f0xx_hal_pcd.c ****   {
 389:Drivers/STM32F0xx_HAL_Driver/Src/stm32f0xx_hal_pcd.c ****     __HAL_PCD_CLEAR_FLAG(hpcd, USB_ISTR_SOF); 
 390:Drivers/STM32F0xx_HAL_Driver/Src/stm32f0xx_hal_pcd.c ****     HAL_PCD_SOFCallback(hpcd);
 391:Drivers/STM32F0xx_HAL_Driver/Src/stm32f0xx_hal_pcd.c ****   }
 392:Drivers/STM32F0xx_HAL_Driver/Src/stm32f0xx_hal_pcd.c **** 
 393:Drivers/STM32F0xx_HAL_Driver/Src/stm32f0xx_hal_pcd.c ****   if (__HAL_PCD_GET_FLAG (hpcd, USB_ISTR_ESOF))
 394:Drivers/STM32F0xx_HAL_Driver/Src/stm32f0xx_hal_pcd.c ****   {
 395:Drivers/STM32F0xx_HAL_Driver/Src/stm32f0xx_hal_pcd.c ****     /* clear ESOF flag in ISTR */
 396:Drivers/STM32F0xx_HAL_Driver/Src/stm32f0xx_hal_pcd.c ****     __HAL_PCD_CLEAR_FLAG(hpcd, USB_ISTR_ESOF); 
 397:Drivers/STM32F0xx_HAL_Driver/Src/stm32f0xx_hal_pcd.c ****   }
 398:Drivers/STM32F0xx_HAL_Driver/Src/stm32f0xx_hal_pcd.c **** }
 399:Drivers/STM32F0xx_HAL_Driver/Src/stm32f0xx_hal_pcd.c **** 
 400:Drivers/STM32F0xx_HAL_Driver/Src/stm32f0xx_hal_pcd.c **** /**
 401:Drivers/STM32F0xx_HAL_Driver/Src/stm32f0xx_hal_pcd.c ****   * @brief  Data out stage callbacks
 402:Drivers/STM32F0xx_HAL_Driver/Src/stm32f0xx_hal_pcd.c ****   * @param  hpcd PCD handle
 403:Drivers/STM32F0xx_HAL_Driver/Src/stm32f0xx_hal_pcd.c ****   * @param  epnum endpoint number
 404:Drivers/STM32F0xx_HAL_Driver/Src/stm32f0xx_hal_pcd.c ****   * @retval None
 405:Drivers/STM32F0xx_HAL_Driver/Src/stm32f0xx_hal_pcd.c ****   */
 406:Drivers/STM32F0xx_HAL_Driver/Src/stm32f0xx_hal_pcd.c ****  __weak void HAL_PCD_DataOutStageCallback(PCD_HandleTypeDef *hpcd, uint8_t epnum)
 407:Drivers/STM32F0xx_HAL_Driver/Src/stm32f0xx_hal_pcd.c **** {
 401              		.loc 1 407 0
 402              		.cfi_startproc
 403              		@ args = 0, pretend = 0, frame = 0
 404              		@ frame_needed = 0, uses_anonymous_args = 0
 405              		@ link register save eliminated.
 406              	.LVL30:
 408:Drivers/STM32F0xx_HAL_Driver/Src/stm32f0xx_hal_pcd.c ****   /* Prevent unused argument(s) compilation warning */
 409:Drivers/STM32F0xx_HAL_Driver/Src/stm32f0xx_hal_pcd.c ****   UNUSED(hpcd);
 410:Drivers/STM32F0xx_HAL_Driver/Src/stm32f0xx_hal_pcd.c ****   UNUSED(epnum);
 411:Drivers/STM32F0xx_HAL_Driver/Src/stm32f0xx_hal_pcd.c **** 
 412:Drivers/STM32F0xx_HAL_Driver/Src/stm32f0xx_hal_pcd.c ****   /* NOTE : This function Should not be modified, when the callback is needed,
 413:Drivers/STM32F0xx_HAL_Driver/Src/stm32f0xx_hal_pcd.c ****             the HAL_PCD_DataOutStageCallback could be implemented in the user file
 414:Drivers/STM32F0xx_HAL_Driver/Src/stm32f0xx_hal_pcd.c ****    */ 
 415:Drivers/STM32F0xx_HAL_Driver/Src/stm32f0xx_hal_pcd.c **** }
 407              		.loc 1 415 0
 408              		@ sp needed
 409 0000 7047     		bx	lr
ARM GAS  /tmp/ccVfu67b.s 			page 16


 410              		.cfi_endproc
 411              	.LFE44:
 413              		.section	.text.HAL_PCD_DataInStageCallback,"ax",%progbits
 414              		.align	1
 415              		.weak	HAL_PCD_DataInStageCallback
 416              		.syntax unified
 417              		.code	16
 418              		.thumb_func
 419              		.fpu softvfp
 421              	HAL_PCD_DataInStageCallback:
 422              	.LFB45:
 416:Drivers/STM32F0xx_HAL_Driver/Src/stm32f0xx_hal_pcd.c **** 
 417:Drivers/STM32F0xx_HAL_Driver/Src/stm32f0xx_hal_pcd.c **** /**
 418:Drivers/STM32F0xx_HAL_Driver/Src/stm32f0xx_hal_pcd.c ****   * @brief  Data IN stage callbacks
 419:Drivers/STM32F0xx_HAL_Driver/Src/stm32f0xx_hal_pcd.c ****   * @param  hpcd PCD handle
 420:Drivers/STM32F0xx_HAL_Driver/Src/stm32f0xx_hal_pcd.c ****   * @param  epnum endpoint number
 421:Drivers/STM32F0xx_HAL_Driver/Src/stm32f0xx_hal_pcd.c ****   * @retval None
 422:Drivers/STM32F0xx_HAL_Driver/Src/stm32f0xx_hal_pcd.c ****   */
 423:Drivers/STM32F0xx_HAL_Driver/Src/stm32f0xx_hal_pcd.c ****  __weak void HAL_PCD_DataInStageCallback(PCD_HandleTypeDef *hpcd, uint8_t epnum)
 424:Drivers/STM32F0xx_HAL_Driver/Src/stm32f0xx_hal_pcd.c **** {
 423              		.loc 1 424 0
 424              		.cfi_startproc
 425              		@ args = 0, pretend = 0, frame = 0
 426              		@ frame_needed = 0, uses_anonymous_args = 0
 427              		@ link register save eliminated.
 428              	.LVL31:
 425:Drivers/STM32F0xx_HAL_Driver/Src/stm32f0xx_hal_pcd.c ****   /* Prevent unused argument(s) compilation warning */
 426:Drivers/STM32F0xx_HAL_Driver/Src/stm32f0xx_hal_pcd.c ****   UNUSED(hpcd);
 427:Drivers/STM32F0xx_HAL_Driver/Src/stm32f0xx_hal_pcd.c ****   UNUSED(epnum);
 428:Drivers/STM32F0xx_HAL_Driver/Src/stm32f0xx_hal_pcd.c **** 
 429:Drivers/STM32F0xx_HAL_Driver/Src/stm32f0xx_hal_pcd.c ****   /* NOTE : This function Should not be modified, when the callback is needed,
 430:Drivers/STM32F0xx_HAL_Driver/Src/stm32f0xx_hal_pcd.c ****             the HAL_PCD_DataInStageCallback could be implemented in the user file
 431:Drivers/STM32F0xx_HAL_Driver/Src/stm32f0xx_hal_pcd.c ****    */ 
 432:Drivers/STM32F0xx_HAL_Driver/Src/stm32f0xx_hal_pcd.c **** }
 429              		.loc 1 432 0
 430              		@ sp needed
 431 0000 7047     		bx	lr
 432              		.cfi_endproc
 433              	.LFE45:
 435              		.section	.text.HAL_PCD_SetupStageCallback,"ax",%progbits
 436              		.align	1
 437              		.weak	HAL_PCD_SetupStageCallback
 438              		.syntax unified
 439              		.code	16
 440              		.thumb_func
 441              		.fpu softvfp
 443              	HAL_PCD_SetupStageCallback:
 444              	.LFB46:
 433:Drivers/STM32F0xx_HAL_Driver/Src/stm32f0xx_hal_pcd.c **** /**
 434:Drivers/STM32F0xx_HAL_Driver/Src/stm32f0xx_hal_pcd.c ****   * @brief  Setup stage callback
 435:Drivers/STM32F0xx_HAL_Driver/Src/stm32f0xx_hal_pcd.c ****   * @param  hpcd PCD handle
 436:Drivers/STM32F0xx_HAL_Driver/Src/stm32f0xx_hal_pcd.c ****   * @retval None
 437:Drivers/STM32F0xx_HAL_Driver/Src/stm32f0xx_hal_pcd.c ****   */
 438:Drivers/STM32F0xx_HAL_Driver/Src/stm32f0xx_hal_pcd.c ****  __weak void HAL_PCD_SetupStageCallback(PCD_HandleTypeDef *hpcd)
 439:Drivers/STM32F0xx_HAL_Driver/Src/stm32f0xx_hal_pcd.c **** {
 445              		.loc 1 439 0
 446              		.cfi_startproc
ARM GAS  /tmp/ccVfu67b.s 			page 17


 447              		@ args = 0, pretend = 0, frame = 0
 448              		@ frame_needed = 0, uses_anonymous_args = 0
 449              		@ link register save eliminated.
 450              	.LVL32:
 440:Drivers/STM32F0xx_HAL_Driver/Src/stm32f0xx_hal_pcd.c ****   /* Prevent unused argument(s) compilation warning */
 441:Drivers/STM32F0xx_HAL_Driver/Src/stm32f0xx_hal_pcd.c ****   UNUSED(hpcd);
 442:Drivers/STM32F0xx_HAL_Driver/Src/stm32f0xx_hal_pcd.c **** 
 443:Drivers/STM32F0xx_HAL_Driver/Src/stm32f0xx_hal_pcd.c ****   /* NOTE : This function Should not be modified, when the callback is needed,
 444:Drivers/STM32F0xx_HAL_Driver/Src/stm32f0xx_hal_pcd.c ****             the HAL_PCD_SetupStageCallback could be implemented in the user file
 445:Drivers/STM32F0xx_HAL_Driver/Src/stm32f0xx_hal_pcd.c ****    */ 
 446:Drivers/STM32F0xx_HAL_Driver/Src/stm32f0xx_hal_pcd.c **** }
 451              		.loc 1 446 0
 452              		@ sp needed
 453 0000 7047     		bx	lr
 454              		.cfi_endproc
 455              	.LFE46:
 457              		.section	.text.HAL_PCD_SOFCallback,"ax",%progbits
 458              		.align	1
 459              		.weak	HAL_PCD_SOFCallback
 460              		.syntax unified
 461              		.code	16
 462              		.thumb_func
 463              		.fpu softvfp
 465              	HAL_PCD_SOFCallback:
 466              	.LFB47:
 447:Drivers/STM32F0xx_HAL_Driver/Src/stm32f0xx_hal_pcd.c **** 
 448:Drivers/STM32F0xx_HAL_Driver/Src/stm32f0xx_hal_pcd.c **** /**
 449:Drivers/STM32F0xx_HAL_Driver/Src/stm32f0xx_hal_pcd.c ****   * @brief  USB Start Of Frame callbacks
 450:Drivers/STM32F0xx_HAL_Driver/Src/stm32f0xx_hal_pcd.c ****   * @param  hpcd PCD handle
 451:Drivers/STM32F0xx_HAL_Driver/Src/stm32f0xx_hal_pcd.c ****   * @retval None
 452:Drivers/STM32F0xx_HAL_Driver/Src/stm32f0xx_hal_pcd.c ****   */
 453:Drivers/STM32F0xx_HAL_Driver/Src/stm32f0xx_hal_pcd.c ****  __weak void HAL_PCD_SOFCallback(PCD_HandleTypeDef *hpcd)
 454:Drivers/STM32F0xx_HAL_Driver/Src/stm32f0xx_hal_pcd.c **** {
 467              		.loc 1 454 0
 468              		.cfi_startproc
 469              		@ args = 0, pretend = 0, frame = 0
 470              		@ frame_needed = 0, uses_anonymous_args = 0
 471              		@ link register save eliminated.
 472              	.LVL33:
 455:Drivers/STM32F0xx_HAL_Driver/Src/stm32f0xx_hal_pcd.c ****   /* Prevent unused argument(s) compilation warning */
 456:Drivers/STM32F0xx_HAL_Driver/Src/stm32f0xx_hal_pcd.c ****   UNUSED(hpcd);
 457:Drivers/STM32F0xx_HAL_Driver/Src/stm32f0xx_hal_pcd.c **** 
 458:Drivers/STM32F0xx_HAL_Driver/Src/stm32f0xx_hal_pcd.c ****   /* NOTE : This function Should not be modified, when the callback is needed,
 459:Drivers/STM32F0xx_HAL_Driver/Src/stm32f0xx_hal_pcd.c ****             the HAL_PCD_SOFCallback could be implemented in the user file
 460:Drivers/STM32F0xx_HAL_Driver/Src/stm32f0xx_hal_pcd.c ****    */ 
 461:Drivers/STM32F0xx_HAL_Driver/Src/stm32f0xx_hal_pcd.c **** }
 473              		.loc 1 461 0
 474              		@ sp needed
 475 0000 7047     		bx	lr
 476              		.cfi_endproc
 477              	.LFE47:
 479              		.section	.text.HAL_PCD_ResetCallback,"ax",%progbits
 480              		.align	1
 481              		.weak	HAL_PCD_ResetCallback
 482              		.syntax unified
 483              		.code	16
 484              		.thumb_func
ARM GAS  /tmp/ccVfu67b.s 			page 18


 485              		.fpu softvfp
 487              	HAL_PCD_ResetCallback:
 488              	.LFB48:
 462:Drivers/STM32F0xx_HAL_Driver/Src/stm32f0xx_hal_pcd.c **** 
 463:Drivers/STM32F0xx_HAL_Driver/Src/stm32f0xx_hal_pcd.c **** /**
 464:Drivers/STM32F0xx_HAL_Driver/Src/stm32f0xx_hal_pcd.c ****   * @brief  USB Reset callbacks
 465:Drivers/STM32F0xx_HAL_Driver/Src/stm32f0xx_hal_pcd.c ****   * @param  hpcd PCD handle
 466:Drivers/STM32F0xx_HAL_Driver/Src/stm32f0xx_hal_pcd.c ****   * @retval None
 467:Drivers/STM32F0xx_HAL_Driver/Src/stm32f0xx_hal_pcd.c ****   */
 468:Drivers/STM32F0xx_HAL_Driver/Src/stm32f0xx_hal_pcd.c ****  __weak void HAL_PCD_ResetCallback(PCD_HandleTypeDef *hpcd)
 469:Drivers/STM32F0xx_HAL_Driver/Src/stm32f0xx_hal_pcd.c **** {
 489              		.loc 1 469 0
 490              		.cfi_startproc
 491              		@ args = 0, pretend = 0, frame = 0
 492              		@ frame_needed = 0, uses_anonymous_args = 0
 493              		@ link register save eliminated.
 494              	.LVL34:
 470:Drivers/STM32F0xx_HAL_Driver/Src/stm32f0xx_hal_pcd.c ****   /* Prevent unused argument(s) compilation warning */
 471:Drivers/STM32F0xx_HAL_Driver/Src/stm32f0xx_hal_pcd.c ****   UNUSED(hpcd);
 472:Drivers/STM32F0xx_HAL_Driver/Src/stm32f0xx_hal_pcd.c **** 
 473:Drivers/STM32F0xx_HAL_Driver/Src/stm32f0xx_hal_pcd.c ****   /* NOTE : This function Should not be modified, when the callback is needed,
 474:Drivers/STM32F0xx_HAL_Driver/Src/stm32f0xx_hal_pcd.c ****             the HAL_PCD_ResetCallback could be implemented in the user file
 475:Drivers/STM32F0xx_HAL_Driver/Src/stm32f0xx_hal_pcd.c ****    */ 
 476:Drivers/STM32F0xx_HAL_Driver/Src/stm32f0xx_hal_pcd.c **** }
 495              		.loc 1 476 0
 496              		@ sp needed
 497 0000 7047     		bx	lr
 498              		.cfi_endproc
 499              	.LFE48:
 501              		.section	.text.HAL_PCD_SuspendCallback,"ax",%progbits
 502              		.align	1
 503              		.weak	HAL_PCD_SuspendCallback
 504              		.syntax unified
 505              		.code	16
 506              		.thumb_func
 507              		.fpu softvfp
 509              	HAL_PCD_SuspendCallback:
 510              	.LFB49:
 477:Drivers/STM32F0xx_HAL_Driver/Src/stm32f0xx_hal_pcd.c **** 
 478:Drivers/STM32F0xx_HAL_Driver/Src/stm32f0xx_hal_pcd.c **** /**
 479:Drivers/STM32F0xx_HAL_Driver/Src/stm32f0xx_hal_pcd.c ****   * @brief  Suspend event callbacks
 480:Drivers/STM32F0xx_HAL_Driver/Src/stm32f0xx_hal_pcd.c ****   * @param  hpcd PCD handle
 481:Drivers/STM32F0xx_HAL_Driver/Src/stm32f0xx_hal_pcd.c ****   * @retval None
 482:Drivers/STM32F0xx_HAL_Driver/Src/stm32f0xx_hal_pcd.c ****   */
 483:Drivers/STM32F0xx_HAL_Driver/Src/stm32f0xx_hal_pcd.c ****  __weak void HAL_PCD_SuspendCallback(PCD_HandleTypeDef *hpcd)
 484:Drivers/STM32F0xx_HAL_Driver/Src/stm32f0xx_hal_pcd.c **** {
 511              		.loc 1 484 0
 512              		.cfi_startproc
 513              		@ args = 0, pretend = 0, frame = 0
 514              		@ frame_needed = 0, uses_anonymous_args = 0
 515              		@ link register save eliminated.
 516              	.LVL35:
 485:Drivers/STM32F0xx_HAL_Driver/Src/stm32f0xx_hal_pcd.c ****   /* Prevent unused argument(s) compilation warning */
 486:Drivers/STM32F0xx_HAL_Driver/Src/stm32f0xx_hal_pcd.c ****   UNUSED(hpcd);
 487:Drivers/STM32F0xx_HAL_Driver/Src/stm32f0xx_hal_pcd.c **** 
 488:Drivers/STM32F0xx_HAL_Driver/Src/stm32f0xx_hal_pcd.c ****   /* NOTE : This function Should not be modified, when the callback is needed,
 489:Drivers/STM32F0xx_HAL_Driver/Src/stm32f0xx_hal_pcd.c ****             the HAL_PCD_SuspendCallback could be implemented in the user file
ARM GAS  /tmp/ccVfu67b.s 			page 19


 490:Drivers/STM32F0xx_HAL_Driver/Src/stm32f0xx_hal_pcd.c ****    */ 
 491:Drivers/STM32F0xx_HAL_Driver/Src/stm32f0xx_hal_pcd.c **** }
 517              		.loc 1 491 0
 518              		@ sp needed
 519 0000 7047     		bx	lr
 520              		.cfi_endproc
 521              	.LFE49:
 523              		.section	.text.HAL_PCD_ResumeCallback,"ax",%progbits
 524              		.align	1
 525              		.weak	HAL_PCD_ResumeCallback
 526              		.syntax unified
 527              		.code	16
 528              		.thumb_func
 529              		.fpu softvfp
 531              	HAL_PCD_ResumeCallback:
 532              	.LFB50:
 492:Drivers/STM32F0xx_HAL_Driver/Src/stm32f0xx_hal_pcd.c **** 
 493:Drivers/STM32F0xx_HAL_Driver/Src/stm32f0xx_hal_pcd.c **** /**
 494:Drivers/STM32F0xx_HAL_Driver/Src/stm32f0xx_hal_pcd.c ****   * @brief  Resume event callbacks
 495:Drivers/STM32F0xx_HAL_Driver/Src/stm32f0xx_hal_pcd.c ****   * @param  hpcd PCD handle
 496:Drivers/STM32F0xx_HAL_Driver/Src/stm32f0xx_hal_pcd.c ****   * @retval None
 497:Drivers/STM32F0xx_HAL_Driver/Src/stm32f0xx_hal_pcd.c ****   */
 498:Drivers/STM32F0xx_HAL_Driver/Src/stm32f0xx_hal_pcd.c ****  __weak void HAL_PCD_ResumeCallback(PCD_HandleTypeDef *hpcd)
 499:Drivers/STM32F0xx_HAL_Driver/Src/stm32f0xx_hal_pcd.c **** {
 533              		.loc 1 499 0
 534              		.cfi_startproc
 535              		@ args = 0, pretend = 0, frame = 0
 536              		@ frame_needed = 0, uses_anonymous_args = 0
 537              		@ link register save eliminated.
 538              	.LVL36:
 500:Drivers/STM32F0xx_HAL_Driver/Src/stm32f0xx_hal_pcd.c ****   /* Prevent unused argument(s) compilation warning */
 501:Drivers/STM32F0xx_HAL_Driver/Src/stm32f0xx_hal_pcd.c ****   UNUSED(hpcd);
 502:Drivers/STM32F0xx_HAL_Driver/Src/stm32f0xx_hal_pcd.c **** 
 503:Drivers/STM32F0xx_HAL_Driver/Src/stm32f0xx_hal_pcd.c ****   /* NOTE : This function Should not be modified, when the callback is needed,
 504:Drivers/STM32F0xx_HAL_Driver/Src/stm32f0xx_hal_pcd.c ****             the HAL_PCD_ResumeCallback could be implemented in the user file
 505:Drivers/STM32F0xx_HAL_Driver/Src/stm32f0xx_hal_pcd.c ****    */ 
 506:Drivers/STM32F0xx_HAL_Driver/Src/stm32f0xx_hal_pcd.c **** }
 539              		.loc 1 506 0
 540              		@ sp needed
 541 0000 7047     		bx	lr
 542              		.cfi_endproc
 543              	.LFE50:
 545              		.section	.text.HAL_PCD_ISOOUTIncompleteCallback,"ax",%progbits
 546              		.align	1
 547              		.weak	HAL_PCD_ISOOUTIncompleteCallback
 548              		.syntax unified
 549              		.code	16
 550              		.thumb_func
 551              		.fpu softvfp
 553              	HAL_PCD_ISOOUTIncompleteCallback:
 554              	.LFB51:
 507:Drivers/STM32F0xx_HAL_Driver/Src/stm32f0xx_hal_pcd.c **** 
 508:Drivers/STM32F0xx_HAL_Driver/Src/stm32f0xx_hal_pcd.c **** /**
 509:Drivers/STM32F0xx_HAL_Driver/Src/stm32f0xx_hal_pcd.c ****   * @brief  Incomplete ISO OUT callbacks
 510:Drivers/STM32F0xx_HAL_Driver/Src/stm32f0xx_hal_pcd.c ****   * @param  hpcd PCD handle
 511:Drivers/STM32F0xx_HAL_Driver/Src/stm32f0xx_hal_pcd.c ****   * @param  epnum endpoint number
 512:Drivers/STM32F0xx_HAL_Driver/Src/stm32f0xx_hal_pcd.c ****   * @retval None
ARM GAS  /tmp/ccVfu67b.s 			page 20


 513:Drivers/STM32F0xx_HAL_Driver/Src/stm32f0xx_hal_pcd.c ****   */
 514:Drivers/STM32F0xx_HAL_Driver/Src/stm32f0xx_hal_pcd.c ****  __weak void HAL_PCD_ISOOUTIncompleteCallback(PCD_HandleTypeDef *hpcd, uint8_t epnum)
 515:Drivers/STM32F0xx_HAL_Driver/Src/stm32f0xx_hal_pcd.c **** {
 555              		.loc 1 515 0
 556              		.cfi_startproc
 557              		@ args = 0, pretend = 0, frame = 0
 558              		@ frame_needed = 0, uses_anonymous_args = 0
 559              		@ link register save eliminated.
 560              	.LVL37:
 516:Drivers/STM32F0xx_HAL_Driver/Src/stm32f0xx_hal_pcd.c ****   /* Prevent unused argument(s) compilation warning */
 517:Drivers/STM32F0xx_HAL_Driver/Src/stm32f0xx_hal_pcd.c ****   UNUSED(hpcd);
 518:Drivers/STM32F0xx_HAL_Driver/Src/stm32f0xx_hal_pcd.c ****   UNUSED(epnum);
 519:Drivers/STM32F0xx_HAL_Driver/Src/stm32f0xx_hal_pcd.c **** 
 520:Drivers/STM32F0xx_HAL_Driver/Src/stm32f0xx_hal_pcd.c ****   /* NOTE : This function Should not be modified, when the callback is needed,
 521:Drivers/STM32F0xx_HAL_Driver/Src/stm32f0xx_hal_pcd.c ****             the HAL_PCD_ISOOUTIncompleteCallback could be implemented in the user file
 522:Drivers/STM32F0xx_HAL_Driver/Src/stm32f0xx_hal_pcd.c ****    */ 
 523:Drivers/STM32F0xx_HAL_Driver/Src/stm32f0xx_hal_pcd.c **** }
 561              		.loc 1 523 0
 562              		@ sp needed
 563 0000 7047     		bx	lr
 564              		.cfi_endproc
 565              	.LFE51:
 567              		.section	.text.HAL_PCD_ISOINIncompleteCallback,"ax",%progbits
 568              		.align	1
 569              		.weak	HAL_PCD_ISOINIncompleteCallback
 570              		.syntax unified
 571              		.code	16
 572              		.thumb_func
 573              		.fpu softvfp
 575              	HAL_PCD_ISOINIncompleteCallback:
 576              	.LFB52:
 524:Drivers/STM32F0xx_HAL_Driver/Src/stm32f0xx_hal_pcd.c **** 
 525:Drivers/STM32F0xx_HAL_Driver/Src/stm32f0xx_hal_pcd.c **** /**
 526:Drivers/STM32F0xx_HAL_Driver/Src/stm32f0xx_hal_pcd.c ****   * @brief  Incomplete ISO IN  callbacks
 527:Drivers/STM32F0xx_HAL_Driver/Src/stm32f0xx_hal_pcd.c ****   * @param  hpcd PCD handle
 528:Drivers/STM32F0xx_HAL_Driver/Src/stm32f0xx_hal_pcd.c ****   * @param  epnum endpoint number
 529:Drivers/STM32F0xx_HAL_Driver/Src/stm32f0xx_hal_pcd.c ****   * @retval None
 530:Drivers/STM32F0xx_HAL_Driver/Src/stm32f0xx_hal_pcd.c ****   */
 531:Drivers/STM32F0xx_HAL_Driver/Src/stm32f0xx_hal_pcd.c ****  __weak void HAL_PCD_ISOINIncompleteCallback(PCD_HandleTypeDef *hpcd, uint8_t epnum)
 532:Drivers/STM32F0xx_HAL_Driver/Src/stm32f0xx_hal_pcd.c **** {
 577              		.loc 1 532 0
 578              		.cfi_startproc
 579              		@ args = 0, pretend = 0, frame = 0
 580              		@ frame_needed = 0, uses_anonymous_args = 0
 581              		@ link register save eliminated.
 582              	.LVL38:
 533:Drivers/STM32F0xx_HAL_Driver/Src/stm32f0xx_hal_pcd.c ****   /* Prevent unused argument(s) compilation warning */
 534:Drivers/STM32F0xx_HAL_Driver/Src/stm32f0xx_hal_pcd.c ****   UNUSED(hpcd);
 535:Drivers/STM32F0xx_HAL_Driver/Src/stm32f0xx_hal_pcd.c ****   UNUSED(epnum);
 536:Drivers/STM32F0xx_HAL_Driver/Src/stm32f0xx_hal_pcd.c **** 
 537:Drivers/STM32F0xx_HAL_Driver/Src/stm32f0xx_hal_pcd.c ****   /* NOTE : This function Should not be modified, when the callback is needed,
 538:Drivers/STM32F0xx_HAL_Driver/Src/stm32f0xx_hal_pcd.c ****             the HAL_PCD_ISOINIncompleteCallback could be implemented in the user file
 539:Drivers/STM32F0xx_HAL_Driver/Src/stm32f0xx_hal_pcd.c ****    */ 
 540:Drivers/STM32F0xx_HAL_Driver/Src/stm32f0xx_hal_pcd.c **** }
 583              		.loc 1 540 0
 584              		@ sp needed
 585 0000 7047     		bx	lr
ARM GAS  /tmp/ccVfu67b.s 			page 21


 586              		.cfi_endproc
 587              	.LFE52:
 589              		.section	.text.HAL_PCD_ConnectCallback,"ax",%progbits
 590              		.align	1
 591              		.weak	HAL_PCD_ConnectCallback
 592              		.syntax unified
 593              		.code	16
 594              		.thumb_func
 595              		.fpu softvfp
 597              	HAL_PCD_ConnectCallback:
 598              	.LFB53:
 541:Drivers/STM32F0xx_HAL_Driver/Src/stm32f0xx_hal_pcd.c **** 
 542:Drivers/STM32F0xx_HAL_Driver/Src/stm32f0xx_hal_pcd.c **** /**
 543:Drivers/STM32F0xx_HAL_Driver/Src/stm32f0xx_hal_pcd.c ****   * @brief  Connection event callbacks
 544:Drivers/STM32F0xx_HAL_Driver/Src/stm32f0xx_hal_pcd.c ****   * @param  hpcd PCD handle
 545:Drivers/STM32F0xx_HAL_Driver/Src/stm32f0xx_hal_pcd.c ****   * @retval None
 546:Drivers/STM32F0xx_HAL_Driver/Src/stm32f0xx_hal_pcd.c ****   */
 547:Drivers/STM32F0xx_HAL_Driver/Src/stm32f0xx_hal_pcd.c ****  __weak void HAL_PCD_ConnectCallback(PCD_HandleTypeDef *hpcd)
 548:Drivers/STM32F0xx_HAL_Driver/Src/stm32f0xx_hal_pcd.c **** {
 599              		.loc 1 548 0
 600              		.cfi_startproc
 601              		@ args = 0, pretend = 0, frame = 0
 602              		@ frame_needed = 0, uses_anonymous_args = 0
 603              		@ link register save eliminated.
 604              	.LVL39:
 549:Drivers/STM32F0xx_HAL_Driver/Src/stm32f0xx_hal_pcd.c ****   /* Prevent unused argument(s) compilation warning */
 550:Drivers/STM32F0xx_HAL_Driver/Src/stm32f0xx_hal_pcd.c ****   UNUSED(hpcd);
 551:Drivers/STM32F0xx_HAL_Driver/Src/stm32f0xx_hal_pcd.c **** 
 552:Drivers/STM32F0xx_HAL_Driver/Src/stm32f0xx_hal_pcd.c ****   /* NOTE : This function Should not be modified, when the callback is needed,
 553:Drivers/STM32F0xx_HAL_Driver/Src/stm32f0xx_hal_pcd.c ****             the HAL_PCD_ConnectCallback could be implemented in the user file
 554:Drivers/STM32F0xx_HAL_Driver/Src/stm32f0xx_hal_pcd.c ****    */ 
 555:Drivers/STM32F0xx_HAL_Driver/Src/stm32f0xx_hal_pcd.c **** }
 605              		.loc 1 555 0
 606              		@ sp needed
 607 0000 7047     		bx	lr
 608              		.cfi_endproc
 609              	.LFE53:
 611              		.section	.text.HAL_PCD_DisconnectCallback,"ax",%progbits
 612              		.align	1
 613              		.weak	HAL_PCD_DisconnectCallback
 614              		.syntax unified
 615              		.code	16
 616              		.thumb_func
 617              		.fpu softvfp
 619              	HAL_PCD_DisconnectCallback:
 620              	.LFB54:
 556:Drivers/STM32F0xx_HAL_Driver/Src/stm32f0xx_hal_pcd.c **** 
 557:Drivers/STM32F0xx_HAL_Driver/Src/stm32f0xx_hal_pcd.c **** /**
 558:Drivers/STM32F0xx_HAL_Driver/Src/stm32f0xx_hal_pcd.c ****   * @brief  Disconnection event callbacks
 559:Drivers/STM32F0xx_HAL_Driver/Src/stm32f0xx_hal_pcd.c ****   * @param  hpcd PCD handle
 560:Drivers/STM32F0xx_HAL_Driver/Src/stm32f0xx_hal_pcd.c ****   * @retval None
 561:Drivers/STM32F0xx_HAL_Driver/Src/stm32f0xx_hal_pcd.c ****   */
 562:Drivers/STM32F0xx_HAL_Driver/Src/stm32f0xx_hal_pcd.c ****  __weak void HAL_PCD_DisconnectCallback(PCD_HandleTypeDef *hpcd)
 563:Drivers/STM32F0xx_HAL_Driver/Src/stm32f0xx_hal_pcd.c **** {
 621              		.loc 1 563 0
 622              		.cfi_startproc
 623              		@ args = 0, pretend = 0, frame = 0
ARM GAS  /tmp/ccVfu67b.s 			page 22


 624              		@ frame_needed = 0, uses_anonymous_args = 0
 625              		@ link register save eliminated.
 626              	.LVL40:
 564:Drivers/STM32F0xx_HAL_Driver/Src/stm32f0xx_hal_pcd.c ****   /* Prevent unused argument(s) compilation warning */
 565:Drivers/STM32F0xx_HAL_Driver/Src/stm32f0xx_hal_pcd.c ****   UNUSED(hpcd);
 566:Drivers/STM32F0xx_HAL_Driver/Src/stm32f0xx_hal_pcd.c **** 
 567:Drivers/STM32F0xx_HAL_Driver/Src/stm32f0xx_hal_pcd.c ****   /* NOTE : This function Should not be modified, when the callback is needed,
 568:Drivers/STM32F0xx_HAL_Driver/Src/stm32f0xx_hal_pcd.c ****             the HAL_PCD_DisconnectCallback could be implemented in the user file
 569:Drivers/STM32F0xx_HAL_Driver/Src/stm32f0xx_hal_pcd.c ****    */ 
 570:Drivers/STM32F0xx_HAL_Driver/Src/stm32f0xx_hal_pcd.c **** }
 627              		.loc 1 570 0
 628              		@ sp needed
 629 0000 7047     		bx	lr
 630              		.cfi_endproc
 631              	.LFE54:
 633              		.section	.text.HAL_PCD_DevConnect,"ax",%progbits
 634              		.align	1
 635              		.global	HAL_PCD_DevConnect
 636              		.syntax unified
 637              		.code	16
 638              		.thumb_func
 639              		.fpu softvfp
 641              	HAL_PCD_DevConnect:
 642              	.LFB55:
 571:Drivers/STM32F0xx_HAL_Driver/Src/stm32f0xx_hal_pcd.c **** /**
 572:Drivers/STM32F0xx_HAL_Driver/Src/stm32f0xx_hal_pcd.c ****   * @}
 573:Drivers/STM32F0xx_HAL_Driver/Src/stm32f0xx_hal_pcd.c ****   */
 574:Drivers/STM32F0xx_HAL_Driver/Src/stm32f0xx_hal_pcd.c ****     
 575:Drivers/STM32F0xx_HAL_Driver/Src/stm32f0xx_hal_pcd.c **** /** @defgroup PCD_Exported_Functions_Group3 Peripheral Control functions 
 576:Drivers/STM32F0xx_HAL_Driver/Src/stm32f0xx_hal_pcd.c ****  *  @brief   management functions 
 577:Drivers/STM32F0xx_HAL_Driver/Src/stm32f0xx_hal_pcd.c ****  *
 578:Drivers/STM32F0xx_HAL_Driver/Src/stm32f0xx_hal_pcd.c **** @verbatim   
 579:Drivers/STM32F0xx_HAL_Driver/Src/stm32f0xx_hal_pcd.c ****  ===============================================================================
 580:Drivers/STM32F0xx_HAL_Driver/Src/stm32f0xx_hal_pcd.c ****                       ##### Peripheral Control functions #####
 581:Drivers/STM32F0xx_HAL_Driver/Src/stm32f0xx_hal_pcd.c ****  ===============================================================================  
 582:Drivers/STM32F0xx_HAL_Driver/Src/stm32f0xx_hal_pcd.c ****     [..]
 583:Drivers/STM32F0xx_HAL_Driver/Src/stm32f0xx_hal_pcd.c ****     This subsection provides a set of functions allowing to control the PCD data 
 584:Drivers/STM32F0xx_HAL_Driver/Src/stm32f0xx_hal_pcd.c ****     transfers.
 585:Drivers/STM32F0xx_HAL_Driver/Src/stm32f0xx_hal_pcd.c **** 
 586:Drivers/STM32F0xx_HAL_Driver/Src/stm32f0xx_hal_pcd.c **** @endverbatim
 587:Drivers/STM32F0xx_HAL_Driver/Src/stm32f0xx_hal_pcd.c ****   * @{
 588:Drivers/STM32F0xx_HAL_Driver/Src/stm32f0xx_hal_pcd.c ****   */
 589:Drivers/STM32F0xx_HAL_Driver/Src/stm32f0xx_hal_pcd.c **** 
 590:Drivers/STM32F0xx_HAL_Driver/Src/stm32f0xx_hal_pcd.c **** /**
 591:Drivers/STM32F0xx_HAL_Driver/Src/stm32f0xx_hal_pcd.c ****   * @brief  Connect the USB device 
 592:Drivers/STM32F0xx_HAL_Driver/Src/stm32f0xx_hal_pcd.c ****   * @param  hpcd PCD handle
 593:Drivers/STM32F0xx_HAL_Driver/Src/stm32f0xx_hal_pcd.c ****   * @retval HAL status
 594:Drivers/STM32F0xx_HAL_Driver/Src/stm32f0xx_hal_pcd.c ****   */
 595:Drivers/STM32F0xx_HAL_Driver/Src/stm32f0xx_hal_pcd.c **** HAL_StatusTypeDef HAL_PCD_DevConnect(PCD_HandleTypeDef *hpcd)
 596:Drivers/STM32F0xx_HAL_Driver/Src/stm32f0xx_hal_pcd.c **** {
 643              		.loc 1 596 0
 644              		.cfi_startproc
 645              		@ args = 0, pretend = 0, frame = 0
 646              		@ frame_needed = 0, uses_anonymous_args = 0
 647              	.LVL41:
 648 0000 30B5     		push	{r4, r5, lr}
 649              	.LCFI3:
ARM GAS  /tmp/ccVfu67b.s 			page 23


 650              		.cfi_def_cfa_offset 12
 651              		.cfi_offset 4, -12
 652              		.cfi_offset 5, -8
 653              		.cfi_offset 14, -4
 597:Drivers/STM32F0xx_HAL_Driver/Src/stm32f0xx_hal_pcd.c ****   __HAL_LOCK(hpcd); 
 654              		.loc 1 597 0
 655 0002 F423     		movs	r3, #244
 656 0004 5B00     		lsls	r3, r3, #1
 657 0006 C35C     		ldrb	r3, [r0, r3]
 658 0008 012B     		cmp	r3, #1
 659 000a 0ED0     		beq	.L36
 660              		.loc 1 597 0 is_stmt 0 discriminator 2
 661 000c F422     		movs	r2, #244
 662 000e 5200     		lsls	r2, r2, #1
 663 0010 0123     		movs	r3, #1
 664 0012 8354     		strb	r3, [r0, r2]
 598:Drivers/STM32F0xx_HAL_Driver/Src/stm32f0xx_hal_pcd.c ****   
 599:Drivers/STM32F0xx_HAL_Driver/Src/stm32f0xx_hal_pcd.c ****   /* Enabling DP Pull-Down bit to Connect internal pull-up on USB DP line */
 600:Drivers/STM32F0xx_HAL_Driver/Src/stm32f0xx_hal_pcd.c ****   hpcd->Instance->BCDR |= USB_BCDR_DPPU;
 665              		.loc 1 600 0 is_stmt 1 discriminator 2
 666 0014 0468     		ldr	r4, [r0]
 667 0016 5821     		movs	r1, #88
 668 0018 635A     		ldrh	r3, [r4, r1]
 669 001a 054D     		ldr	r5, .L37
 670 001c 2B43     		orrs	r3, r5
 671 001e 9BB2     		uxth	r3, r3
 672 0020 6352     		strh	r3, [r4, r1]
 601:Drivers/STM32F0xx_HAL_Driver/Src/stm32f0xx_hal_pcd.c ****   
 602:Drivers/STM32F0xx_HAL_Driver/Src/stm32f0xx_hal_pcd.c ****   __HAL_UNLOCK(hpcd); 
 673              		.loc 1 602 0 discriminator 2
 674 0022 0023     		movs	r3, #0
 675 0024 8354     		strb	r3, [r0, r2]
 603:Drivers/STM32F0xx_HAL_Driver/Src/stm32f0xx_hal_pcd.c ****   return HAL_OK;
 676              		.loc 1 603 0 discriminator 2
 677 0026 0020     		movs	r0, #0
 678              	.LVL42:
 679              	.L35:
 604:Drivers/STM32F0xx_HAL_Driver/Src/stm32f0xx_hal_pcd.c **** }
 680              		.loc 1 604 0
 681              		@ sp needed
 682 0028 30BD     		pop	{r4, r5, pc}
 683              	.LVL43:
 684              	.L36:
 597:Drivers/STM32F0xx_HAL_Driver/Src/stm32f0xx_hal_pcd.c ****   
 685              		.loc 1 597 0
 686 002a 0220     		movs	r0, #2
 687              	.LVL44:
 688 002c FCE7     		b	.L35
 689              	.L38:
 690 002e C046     		.align	2
 691              	.L37:
 692 0030 0080FFFF 		.word	-32768
 693              		.cfi_endproc
 694              	.LFE55:
 696              		.section	.text.HAL_PCD_DevDisconnect,"ax",%progbits
 697              		.align	1
 698              		.global	HAL_PCD_DevDisconnect
ARM GAS  /tmp/ccVfu67b.s 			page 24


 699              		.syntax unified
 700              		.code	16
 701              		.thumb_func
 702              		.fpu softvfp
 704              	HAL_PCD_DevDisconnect:
 705              	.LFB56:
 605:Drivers/STM32F0xx_HAL_Driver/Src/stm32f0xx_hal_pcd.c **** 
 606:Drivers/STM32F0xx_HAL_Driver/Src/stm32f0xx_hal_pcd.c **** /**
 607:Drivers/STM32F0xx_HAL_Driver/Src/stm32f0xx_hal_pcd.c ****   * @brief  Disconnect the USB device 
 608:Drivers/STM32F0xx_HAL_Driver/Src/stm32f0xx_hal_pcd.c ****   * @param  hpcd PCD handle
 609:Drivers/STM32F0xx_HAL_Driver/Src/stm32f0xx_hal_pcd.c ****   * @retval HAL status
 610:Drivers/STM32F0xx_HAL_Driver/Src/stm32f0xx_hal_pcd.c ****   */
 611:Drivers/STM32F0xx_HAL_Driver/Src/stm32f0xx_hal_pcd.c **** HAL_StatusTypeDef HAL_PCD_DevDisconnect(PCD_HandleTypeDef *hpcd)
 612:Drivers/STM32F0xx_HAL_Driver/Src/stm32f0xx_hal_pcd.c **** {
 706              		.loc 1 612 0
 707              		.cfi_startproc
 708              		@ args = 0, pretend = 0, frame = 0
 709              		@ frame_needed = 0, uses_anonymous_args = 0
 710              	.LVL45:
 711 0000 10B5     		push	{r4, lr}
 712              	.LCFI4:
 713              		.cfi_def_cfa_offset 8
 714              		.cfi_offset 4, -8
 715              		.cfi_offset 14, -4
 613:Drivers/STM32F0xx_HAL_Driver/Src/stm32f0xx_hal_pcd.c ****   __HAL_LOCK(hpcd); 
 716              		.loc 1 613 0
 717 0002 F423     		movs	r3, #244
 718 0004 5B00     		lsls	r3, r3, #1
 719 0006 C35C     		ldrb	r3, [r0, r3]
 720 0008 012B     		cmp	r3, #1
 721 000a 0DD0     		beq	.L41
 722              		.loc 1 613 0 is_stmt 0 discriminator 2
 723 000c F422     		movs	r2, #244
 724 000e 5200     		lsls	r2, r2, #1
 725 0010 0123     		movs	r3, #1
 726 0012 8354     		strb	r3, [r0, r2]
 614:Drivers/STM32F0xx_HAL_Driver/Src/stm32f0xx_hal_pcd.c ****   
 615:Drivers/STM32F0xx_HAL_Driver/Src/stm32f0xx_hal_pcd.c ****   /* Disable DP Pull-Down bit*/
 616:Drivers/STM32F0xx_HAL_Driver/Src/stm32f0xx_hal_pcd.c ****    hpcd->Instance->BCDR &= (uint16_t)(~(USB_BCDR_DPPU));
 727              		.loc 1 616 0 is_stmt 1 discriminator 2
 728 0014 0468     		ldr	r4, [r0]
 729 0016 5821     		movs	r1, #88
 730 0018 635A     		ldrh	r3, [r4, r1]
 731 001a 5B04     		lsls	r3, r3, #17
 732 001c 5B0C     		lsrs	r3, r3, #17
 733 001e 6352     		strh	r3, [r4, r1]
 617:Drivers/STM32F0xx_HAL_Driver/Src/stm32f0xx_hal_pcd.c ****   
 618:Drivers/STM32F0xx_HAL_Driver/Src/stm32f0xx_hal_pcd.c ****   __HAL_UNLOCK(hpcd); 
 734              		.loc 1 618 0 discriminator 2
 735 0020 0023     		movs	r3, #0
 736 0022 8354     		strb	r3, [r0, r2]
 619:Drivers/STM32F0xx_HAL_Driver/Src/stm32f0xx_hal_pcd.c ****   return HAL_OK;
 737              		.loc 1 619 0 discriminator 2
 738 0024 0020     		movs	r0, #0
 739              	.LVL46:
 740              	.L40:
 620:Drivers/STM32F0xx_HAL_Driver/Src/stm32f0xx_hal_pcd.c **** }
ARM GAS  /tmp/ccVfu67b.s 			page 25


 741              		.loc 1 620 0
 742              		@ sp needed
 743 0026 10BD     		pop	{r4, pc}
 744              	.LVL47:
 745              	.L41:
 613:Drivers/STM32F0xx_HAL_Driver/Src/stm32f0xx_hal_pcd.c ****   
 746              		.loc 1 613 0
 747 0028 0220     		movs	r0, #2
 748              	.LVL48:
 749 002a FCE7     		b	.L40
 750              		.cfi_endproc
 751              	.LFE56:
 753              		.section	.text.HAL_PCD_SetAddress,"ax",%progbits
 754              		.align	1
 755              		.global	HAL_PCD_SetAddress
 756              		.syntax unified
 757              		.code	16
 758              		.thumb_func
 759              		.fpu softvfp
 761              	HAL_PCD_SetAddress:
 762              	.LFB57:
 621:Drivers/STM32F0xx_HAL_Driver/Src/stm32f0xx_hal_pcd.c **** 
 622:Drivers/STM32F0xx_HAL_Driver/Src/stm32f0xx_hal_pcd.c **** /**
 623:Drivers/STM32F0xx_HAL_Driver/Src/stm32f0xx_hal_pcd.c ****   * @brief  Set the USB Device address 
 624:Drivers/STM32F0xx_HAL_Driver/Src/stm32f0xx_hal_pcd.c ****   * @param  hpcd PCD handle
 625:Drivers/STM32F0xx_HAL_Driver/Src/stm32f0xx_hal_pcd.c ****   * @param  address new device address
 626:Drivers/STM32F0xx_HAL_Driver/Src/stm32f0xx_hal_pcd.c ****   * @retval HAL status
 627:Drivers/STM32F0xx_HAL_Driver/Src/stm32f0xx_hal_pcd.c ****   */
 628:Drivers/STM32F0xx_HAL_Driver/Src/stm32f0xx_hal_pcd.c **** HAL_StatusTypeDef HAL_PCD_SetAddress(PCD_HandleTypeDef *hpcd, uint8_t address)
 629:Drivers/STM32F0xx_HAL_Driver/Src/stm32f0xx_hal_pcd.c **** {
 763              		.loc 1 629 0
 764              		.cfi_startproc
 765              		@ args = 0, pretend = 0, frame = 0
 766              		@ frame_needed = 0, uses_anonymous_args = 0
 767              		@ link register save eliminated.
 768              	.LVL49:
 630:Drivers/STM32F0xx_HAL_Driver/Src/stm32f0xx_hal_pcd.c ****    __HAL_LOCK(hpcd); 
 769              		.loc 1 630 0
 770 0000 F423     		movs	r3, #244
 771 0002 5B00     		lsls	r3, r3, #1
 772 0004 C35C     		ldrb	r3, [r0, r3]
 773 0006 012B     		cmp	r3, #1
 774 0008 13D0     		beq	.L46
 775              		.loc 1 630 0 is_stmt 0 discriminator 2
 776 000a F423     		movs	r3, #244
 777 000c 5B00     		lsls	r3, r3, #1
 778 000e 0122     		movs	r2, #1
 779 0010 C254     		strb	r2, [r0, r3]
 631:Drivers/STM32F0xx_HAL_Driver/Src/stm32f0xx_hal_pcd.c **** 
 632:Drivers/STM32F0xx_HAL_Driver/Src/stm32f0xx_hal_pcd.c ****    if(address == 0U) 
 780              		.loc 1 632 0 is_stmt 1 discriminator 2
 781 0012 0029     		cmp	r1, #0
 782 0014 0AD1     		bne	.L44
 633:Drivers/STM32F0xx_HAL_Driver/Src/stm32f0xx_hal_pcd.c ****    {
 634:Drivers/STM32F0xx_HAL_Driver/Src/stm32f0xx_hal_pcd.c ****      /* set device address and enable function */
 635:Drivers/STM32F0xx_HAL_Driver/Src/stm32f0xx_hal_pcd.c ****      hpcd->Instance->DADDR = USB_DADDR_EF;
 783              		.loc 1 635 0
ARM GAS  /tmp/ccVfu67b.s 			page 26


 784 0016 9D3B     		subs	r3, r3, #157
 785 0018 FF3B     		subs	r3, r3, #255
 786 001a 7F32     		adds	r2, r2, #127
 787 001c 0168     		ldr	r1, [r0]
 788              	.LVL50:
 789 001e CA52     		strh	r2, [r1, r3]
 790              	.L45:
 636:Drivers/STM32F0xx_HAL_Driver/Src/stm32f0xx_hal_pcd.c ****    }
 637:Drivers/STM32F0xx_HAL_Driver/Src/stm32f0xx_hal_pcd.c ****    else /* USB Address will be applied later */
 638:Drivers/STM32F0xx_HAL_Driver/Src/stm32f0xx_hal_pcd.c ****    {
 639:Drivers/STM32F0xx_HAL_Driver/Src/stm32f0xx_hal_pcd.c ****      hpcd->USB_Address = address;
 640:Drivers/STM32F0xx_HAL_Driver/Src/stm32f0xx_hal_pcd.c ****    }
 641:Drivers/STM32F0xx_HAL_Driver/Src/stm32f0xx_hal_pcd.c **** 
 642:Drivers/STM32F0xx_HAL_Driver/Src/stm32f0xx_hal_pcd.c ****   __HAL_UNLOCK(hpcd);   
 791              		.loc 1 642 0
 792 0020 F423     		movs	r3, #244
 793 0022 5B00     		lsls	r3, r3, #1
 794 0024 0022     		movs	r2, #0
 795 0026 C254     		strb	r2, [r0, r3]
 643:Drivers/STM32F0xx_HAL_Driver/Src/stm32f0xx_hal_pcd.c ****   return HAL_OK;
 796              		.loc 1 643 0
 797 0028 0020     		movs	r0, #0
 798              	.LVL51:
 799              	.L43:
 644:Drivers/STM32F0xx_HAL_Driver/Src/stm32f0xx_hal_pcd.c **** }
 800              		.loc 1 644 0
 801              		@ sp needed
 802 002a 7047     		bx	lr
 803              	.LVL52:
 804              	.L44:
 639:Drivers/STM32F0xx_HAL_Driver/Src/stm32f0xx_hal_pcd.c ****    }
 805              		.loc 1 639 0
 806 002c 2423     		movs	r3, #36
 807 002e C154     		strb	r1, [r0, r3]
 808 0030 F6E7     		b	.L45
 809              	.L46:
 630:Drivers/STM32F0xx_HAL_Driver/Src/stm32f0xx_hal_pcd.c **** 
 810              		.loc 1 630 0
 811 0032 0220     		movs	r0, #2
 812              	.LVL53:
 813 0034 F9E7     		b	.L43
 814              		.cfi_endproc
 815              	.LFE57:
 817              		.section	.text.HAL_PCD_EP_Open,"ax",%progbits
 818              		.align	1
 819              		.global	HAL_PCD_EP_Open
 820              		.syntax unified
 821              		.code	16
 822              		.thumb_func
 823              		.fpu softvfp
 825              	HAL_PCD_EP_Open:
 826              	.LFB58:
 645:Drivers/STM32F0xx_HAL_Driver/Src/stm32f0xx_hal_pcd.c **** /**
 646:Drivers/STM32F0xx_HAL_Driver/Src/stm32f0xx_hal_pcd.c ****   * @brief  Open and configure an endpoint
 647:Drivers/STM32F0xx_HAL_Driver/Src/stm32f0xx_hal_pcd.c ****   * @param  hpcd PCD handle
 648:Drivers/STM32F0xx_HAL_Driver/Src/stm32f0xx_hal_pcd.c ****   * @param  ep_addr endpoint address
 649:Drivers/STM32F0xx_HAL_Driver/Src/stm32f0xx_hal_pcd.c ****   * @param  ep_mps endpoint max packert size
ARM GAS  /tmp/ccVfu67b.s 			page 27


 650:Drivers/STM32F0xx_HAL_Driver/Src/stm32f0xx_hal_pcd.c ****   * @param  ep_type endpoint type   
 651:Drivers/STM32F0xx_HAL_Driver/Src/stm32f0xx_hal_pcd.c ****   * @retval HAL status
 652:Drivers/STM32F0xx_HAL_Driver/Src/stm32f0xx_hal_pcd.c ****   */
 653:Drivers/STM32F0xx_HAL_Driver/Src/stm32f0xx_hal_pcd.c **** HAL_StatusTypeDef HAL_PCD_EP_Open(PCD_HandleTypeDef *hpcd, uint8_t ep_addr, uint16_t ep_mps, uint8_
 654:Drivers/STM32F0xx_HAL_Driver/Src/stm32f0xx_hal_pcd.c **** {
 827              		.loc 1 654 0
 828              		.cfi_startproc
 829              		@ args = 0, pretend = 0, frame = 0
 830              		@ frame_needed = 0, uses_anonymous_args = 0
 831              	.LVL54:
 832 0000 F0B5     		push	{r4, r5, r6, r7, lr}
 833              	.LCFI5:
 834              		.cfi_def_cfa_offset 20
 835              		.cfi_offset 4, -20
 836              		.cfi_offset 5, -16
 837              		.cfi_offset 6, -12
 838              		.cfi_offset 7, -8
 839              		.cfi_offset 14, -4
 840              	.LVL55:
 655:Drivers/STM32F0xx_HAL_Driver/Src/stm32f0xx_hal_pcd.c ****   HAL_StatusTypeDef  ret = HAL_OK;
 656:Drivers/STM32F0xx_HAL_Driver/Src/stm32f0xx_hal_pcd.c ****   PCD_EPTypeDef *ep;
 657:Drivers/STM32F0xx_HAL_Driver/Src/stm32f0xx_hal_pcd.c ****   
 658:Drivers/STM32F0xx_HAL_Driver/Src/stm32f0xx_hal_pcd.c ****   if ((ep_addr & 0x80U) == 0x80U)
 841              		.loc 1 658 0
 842 0002 4DB2     		sxtb	r5, r1
 843 0004 002D     		cmp	r5, #0
 844 0006 65DB     		blt	.L71
 659:Drivers/STM32F0xx_HAL_Driver/Src/stm32f0xx_hal_pcd.c ****   {
 660:Drivers/STM32F0xx_HAL_Driver/Src/stm32f0xx_hal_pcd.c ****     ep = &hpcd->IN_ep[ep_addr & 0x7FU];
 661:Drivers/STM32F0xx_HAL_Driver/Src/stm32f0xx_hal_pcd.c ****   }
 662:Drivers/STM32F0xx_HAL_Driver/Src/stm32f0xx_hal_pcd.c ****   else
 663:Drivers/STM32F0xx_HAL_Driver/Src/stm32f0xx_hal_pcd.c ****   {
 664:Drivers/STM32F0xx_HAL_Driver/Src/stm32f0xx_hal_pcd.c ****     ep = &hpcd->OUT_ep[ep_addr & 0x7FU];
 845              		.loc 1 664 0
 846 0008 7F24     		movs	r4, #127
 847 000a 0C40     		ands	r4, r1
 848 000c E600     		lsls	r6, r4, #3
 849 000e 361B     		subs	r6, r6, r4
 850 0010 B400     		lsls	r4, r6, #2
 851 0012 0934     		adds	r4, r4, #9
 852 0014 FF34     		adds	r4, r4, #255
 853 0016 0419     		adds	r4, r0, r4
 854              	.LVL56:
 855              	.L49:
 665:Drivers/STM32F0xx_HAL_Driver/Src/stm32f0xx_hal_pcd.c ****   }
 666:Drivers/STM32F0xx_HAL_Driver/Src/stm32f0xx_hal_pcd.c ****   ep->num   = ep_addr & 0x7FU;
 856              		.loc 1 666 0
 857 0018 7F26     		movs	r6, #127
 858 001a 3140     		ands	r1, r6
 859              	.LVL57:
 860 001c 2170     		strb	r1, [r4]
 667:Drivers/STM32F0xx_HAL_Driver/Src/stm32f0xx_hal_pcd.c ****   
 668:Drivers/STM32F0xx_HAL_Driver/Src/stm32f0xx_hal_pcd.c ****   ep->is_in = (0x80U & ep_addr) != 0U;
 861              		.loc 1 668 0
 862 001e ED0F     		lsrs	r5, r5, #31
 863              	.LVL58:
 864 0020 6570     		strb	r5, [r4, #1]
ARM GAS  /tmp/ccVfu67b.s 			page 28


 669:Drivers/STM32F0xx_HAL_Driver/Src/stm32f0xx_hal_pcd.c ****   ep->maxpacket = ep_mps;
 865              		.loc 1 669 0
 866 0022 E260     		str	r2, [r4, #12]
 670:Drivers/STM32F0xx_HAL_Driver/Src/stm32f0xx_hal_pcd.c ****   ep->type = ep_type;
 867              		.loc 1 670 0
 868 0024 E370     		strb	r3, [r4, #3]
 671:Drivers/STM32F0xx_HAL_Driver/Src/stm32f0xx_hal_pcd.c ****   
 672:Drivers/STM32F0xx_HAL_Driver/Src/stm32f0xx_hal_pcd.c ****   __HAL_LOCK(hpcd); 
 869              		.loc 1 672 0
 870 0026 F423     		movs	r3, #244
 871              	.LVL59:
 872 0028 5B00     		lsls	r3, r3, #1
 873 002a C35C     		ldrb	r3, [r0, r3]
 874 002c 012B     		cmp	r3, #1
 875 002e 00D1     		bne	.LCB670
 876 0030 75E1     		b	.L70	@long jump
 877              	.LCB670:
 878              		.loc 1 672 0 is_stmt 0 discriminator 2
 879 0032 F423     		movs	r3, #244
 880 0034 5B00     		lsls	r3, r3, #1
 881 0036 0122     		movs	r2, #1
 882              	.LVL60:
 883 0038 C254     		strb	r2, [r0, r3]
 884              	.LVL61:
 673:Drivers/STM32F0xx_HAL_Driver/Src/stm32f0xx_hal_pcd.c **** 
 674:Drivers/STM32F0xx_HAL_Driver/Src/stm32f0xx_hal_pcd.c ****   /* initialize Endpoint */
 675:Drivers/STM32F0xx_HAL_Driver/Src/stm32f0xx_hal_pcd.c ****   switch (ep->type)
 885              		.loc 1 675 0 is_stmt 1 discriminator 2
 886 003a E378     		ldrb	r3, [r4, #3]
 887 003c 012B     		cmp	r3, #1
 888 003e 00D1     		bne	.LCB681
 889 0040 74E0     		b	.L52	@long jump
 890              	.LCB681:
 891 0042 002B     		cmp	r3, #0
 892 0044 4ED0     		beq	.L53
 893 0046 022B     		cmp	r3, #2
 894 0048 59D0     		beq	.L54
 895 004a 032B     		cmp	r3, #3
 896 004c 61D0     		beq	.L55
 897              	.L51:
 676:Drivers/STM32F0xx_HAL_Driver/Src/stm32f0xx_hal_pcd.c ****   {
 677:Drivers/STM32F0xx_HAL_Driver/Src/stm32f0xx_hal_pcd.c ****   case PCD_EP_TYPE_CTRL:
 678:Drivers/STM32F0xx_HAL_Driver/Src/stm32f0xx_hal_pcd.c ****     PCD_SET_EPTYPE(hpcd->Instance, ep->num, USB_EP_CONTROL);
 679:Drivers/STM32F0xx_HAL_Driver/Src/stm32f0xx_hal_pcd.c ****     break;
 680:Drivers/STM32F0xx_HAL_Driver/Src/stm32f0xx_hal_pcd.c ****   case PCD_EP_TYPE_BULK:
 681:Drivers/STM32F0xx_HAL_Driver/Src/stm32f0xx_hal_pcd.c ****     PCD_SET_EPTYPE(hpcd->Instance, ep->num, USB_EP_BULK);
 682:Drivers/STM32F0xx_HAL_Driver/Src/stm32f0xx_hal_pcd.c ****     break;
 683:Drivers/STM32F0xx_HAL_Driver/Src/stm32f0xx_hal_pcd.c ****   case PCD_EP_TYPE_INTR:
 684:Drivers/STM32F0xx_HAL_Driver/Src/stm32f0xx_hal_pcd.c ****     PCD_SET_EPTYPE(hpcd->Instance, ep->num, USB_EP_INTERRUPT);
 685:Drivers/STM32F0xx_HAL_Driver/Src/stm32f0xx_hal_pcd.c ****     break;
 686:Drivers/STM32F0xx_HAL_Driver/Src/stm32f0xx_hal_pcd.c ****   case PCD_EP_TYPE_ISOC:
 687:Drivers/STM32F0xx_HAL_Driver/Src/stm32f0xx_hal_pcd.c ****     PCD_SET_EPTYPE(hpcd->Instance, ep->num, USB_EP_ISOCHRONOUS);
 688:Drivers/STM32F0xx_HAL_Driver/Src/stm32f0xx_hal_pcd.c ****     break;
 689:Drivers/STM32F0xx_HAL_Driver/Src/stm32f0xx_hal_pcd.c ****   default:
 690:Drivers/STM32F0xx_HAL_Driver/Src/stm32f0xx_hal_pcd.c ****     break;
 691:Drivers/STM32F0xx_HAL_Driver/Src/stm32f0xx_hal_pcd.c ****   } 
 692:Drivers/STM32F0xx_HAL_Driver/Src/stm32f0xx_hal_pcd.c ****   
ARM GAS  /tmp/ccVfu67b.s 			page 29


 693:Drivers/STM32F0xx_HAL_Driver/Src/stm32f0xx_hal_pcd.c ****   PCD_SET_EP_ADDRESS(hpcd->Instance, ep->num, ep->num);
 898              		.loc 1 693 0
 899 004e 2278     		ldrb	r2, [r4]
 900 0050 9300     		lsls	r3, r2, #2
 901 0052 0168     		ldr	r1, [r0]
 902 0054 8C46     		mov	ip, r1
 903 0056 6344     		add	r3, r3, ip
 904 0058 1988     		ldrh	r1, [r3]
 905 005a B24D     		ldr	r5, .L72
 906 005c 2940     		ands	r1, r5
 907 005e 0A43     		orrs	r2, r1
 908 0060 B149     		ldr	r1, .L72+4
 909 0062 0A43     		orrs	r2, r1
 910 0064 1A80     		strh	r2, [r3]
 694:Drivers/STM32F0xx_HAL_Driver/Src/stm32f0xx_hal_pcd.c ****   
 695:Drivers/STM32F0xx_HAL_Driver/Src/stm32f0xx_hal_pcd.c ****   if (ep->doublebuffer == 0U) 
 911              		.loc 1 695 0
 912 0066 A37A     		ldrb	r3, [r4, #10]
 913 0068 002B     		cmp	r3, #0
 914 006a 00D0     		beq	.LCB708
 915 006c B5E0     		b	.L56	@long jump
 916              	.LCB708:
 696:Drivers/STM32F0xx_HAL_Driver/Src/stm32f0xx_hal_pcd.c ****   {
 697:Drivers/STM32F0xx_HAL_Driver/Src/stm32f0xx_hal_pcd.c ****     if (ep->is_in)
 917              		.loc 1 697 0
 918 006e 6378     		ldrb	r3, [r4, #1]
 919 0070 002B     		cmp	r3, #0
 920 0072 00D1     		bne	.LCB711
 921 0074 67E0     		b	.L57	@long jump
 922              	.LCB711:
 698:Drivers/STM32F0xx_HAL_Driver/Src/stm32f0xx_hal_pcd.c ****     {
 699:Drivers/STM32F0xx_HAL_Driver/Src/stm32f0xx_hal_pcd.c ****       /*Set the endpoint Transmit buffer address */
 700:Drivers/STM32F0xx_HAL_Driver/Src/stm32f0xx_hal_pcd.c ****       PCD_SET_EP_TX_ADDRESS(hpcd->Instance, ep->num, ep->pmaadress);
 923              		.loc 1 700 0
 924 0076 A288     		ldrh	r2, [r4, #4]
 925 0078 0568     		ldr	r5, [r0]
 926 007a 5023     		movs	r3, #80
 927 007c EB5A     		ldrh	r3, [r5, r3]
 928 007e 2178     		ldrb	r1, [r4]
 929 0080 C900     		lsls	r1, r1, #3
 930 0082 5B18     		adds	r3, r3, r1
 931 0084 5B19     		adds	r3, r3, r5
 932 0086 8021     		movs	r1, #128
 933 0088 C900     		lsls	r1, r1, #3
 934 008a 8C46     		mov	ip, r1
 935 008c 6344     		add	r3, r3, ip
 936 008e 0121     		movs	r1, #1
 937 0090 8A43     		bics	r2, r1
 938 0092 1A80     		strh	r2, [r3]
 701:Drivers/STM32F0xx_HAL_Driver/Src/stm32f0xx_hal_pcd.c ****       PCD_CLEAR_TX_DTOG(hpcd->Instance, ep->num)
 939              		.loc 1 701 0
 940 0094 2378     		ldrb	r3, [r4]
 941 0096 9B00     		lsls	r3, r3, #2
 942 0098 0268     		ldr	r2, [r0]
 943 009a 9446     		mov	ip, r2
 944 009c 6344     		add	r3, r3, ip
 945 009e 1A88     		ldrh	r2, [r3]
ARM GAS  /tmp/ccVfu67b.s 			page 30


 946 00a0 5106     		lsls	r1, r2, #25
 947 00a2 04D5     		bpl	.L58
 948              		.loc 1 701 0 is_stmt 0 discriminator 1
 949 00a4 9F49     		ldr	r1, .L72
 950 00a6 0A40     		ands	r2, r1
 951 00a8 A049     		ldr	r1, .L72+8
 952 00aa 0A43     		orrs	r2, r1
 953 00ac 1A80     		strh	r2, [r3]
 954              	.L58:
 955              	.LBB2:
 702:Drivers/STM32F0xx_HAL_Driver/Src/stm32f0xx_hal_pcd.c ****       /* Configure NAK status for the Endpoint*/
 703:Drivers/STM32F0xx_HAL_Driver/Src/stm32f0xx_hal_pcd.c ****       PCD_SET_EP_TX_STATUS(hpcd->Instance, ep->num, USB_EP_TX_NAK) 
 956              		.loc 1 703 0 is_stmt 1
 957 00ae 2278     		ldrb	r2, [r4]
 958 00b0 9200     		lsls	r2, r2, #2
 959 00b2 0368     		ldr	r3, [r0]
 960 00b4 9C46     		mov	ip, r3
 961 00b6 6244     		add	r2, r2, ip
 962 00b8 1388     		ldrh	r3, [r2]
 963 00ba 9D49     		ldr	r1, .L72+12
 964 00bc 0B40     		ands	r3, r1
 965              	.LVL62:
 966 00be 2021     		movs	r1, #32
 967 00c0 4B40     		eors	r3, r1
 968              	.LVL63:
 969 00c2 9949     		ldr	r1, .L72+4
 970 00c4 0B43     		orrs	r3, r1
 971              	.LVL64:
 972 00c6 1380     		strh	r3, [r2]
 973              	.LVL65:
 974              	.L59:
 975              	.LBE2:
 704:Drivers/STM32F0xx_HAL_Driver/Src/stm32f0xx_hal_pcd.c ****     }
 705:Drivers/STM32F0xx_HAL_Driver/Src/stm32f0xx_hal_pcd.c ****     else
 706:Drivers/STM32F0xx_HAL_Driver/Src/stm32f0xx_hal_pcd.c ****     {
 707:Drivers/STM32F0xx_HAL_Driver/Src/stm32f0xx_hal_pcd.c ****       /*Set the endpoint Receive buffer address */
 708:Drivers/STM32F0xx_HAL_Driver/Src/stm32f0xx_hal_pcd.c ****       PCD_SET_EP_RX_ADDRESS(hpcd->Instance, ep->num, ep->pmaadress);
 709:Drivers/STM32F0xx_HAL_Driver/Src/stm32f0xx_hal_pcd.c ****       /*Set the endpoint Receive buffer counter*/
 710:Drivers/STM32F0xx_HAL_Driver/Src/stm32f0xx_hal_pcd.c ****       PCD_SET_EP_RX_CNT(hpcd->Instance, ep->num, ep->maxpacket)
 711:Drivers/STM32F0xx_HAL_Driver/Src/stm32f0xx_hal_pcd.c ****       PCD_CLEAR_RX_DTOG(hpcd->Instance, ep->num)
 712:Drivers/STM32F0xx_HAL_Driver/Src/stm32f0xx_hal_pcd.c ****       /* Configure VALID status for the Endpoint*/
 713:Drivers/STM32F0xx_HAL_Driver/Src/stm32f0xx_hal_pcd.c ****       PCD_SET_EP_RX_STATUS(hpcd->Instance, ep->num, USB_EP_RX_VALID)
 714:Drivers/STM32F0xx_HAL_Driver/Src/stm32f0xx_hal_pcd.c ****     }
 715:Drivers/STM32F0xx_HAL_Driver/Src/stm32f0xx_hal_pcd.c ****   }
 716:Drivers/STM32F0xx_HAL_Driver/Src/stm32f0xx_hal_pcd.c ****   /*Double Buffer*/
 717:Drivers/STM32F0xx_HAL_Driver/Src/stm32f0xx_hal_pcd.c ****   else
 718:Drivers/STM32F0xx_HAL_Driver/Src/stm32f0xx_hal_pcd.c ****   {
 719:Drivers/STM32F0xx_HAL_Driver/Src/stm32f0xx_hal_pcd.c ****     /*Set the endpoint as double buffered*/
 720:Drivers/STM32F0xx_HAL_Driver/Src/stm32f0xx_hal_pcd.c ****     PCD_SET_EP_DBUF(hpcd->Instance, ep->num);
 721:Drivers/STM32F0xx_HAL_Driver/Src/stm32f0xx_hal_pcd.c ****     /*Set buffer address for double buffered mode*/
 722:Drivers/STM32F0xx_HAL_Driver/Src/stm32f0xx_hal_pcd.c ****     PCD_SET_EP_DBUF_ADDR(hpcd->Instance, ep->num,ep->pmaaddr0, ep->pmaaddr1)
 723:Drivers/STM32F0xx_HAL_Driver/Src/stm32f0xx_hal_pcd.c ****     
 724:Drivers/STM32F0xx_HAL_Driver/Src/stm32f0xx_hal_pcd.c ****     if (ep->is_in==0U)
 725:Drivers/STM32F0xx_HAL_Driver/Src/stm32f0xx_hal_pcd.c ****     {
 726:Drivers/STM32F0xx_HAL_Driver/Src/stm32f0xx_hal_pcd.c ****       /* Clear the data toggle bits for the endpoint IN/OUT*/
 727:Drivers/STM32F0xx_HAL_Driver/Src/stm32f0xx_hal_pcd.c ****       PCD_CLEAR_RX_DTOG(hpcd->Instance, ep->num)
 728:Drivers/STM32F0xx_HAL_Driver/Src/stm32f0xx_hal_pcd.c ****       PCD_CLEAR_TX_DTOG(hpcd->Instance, ep->num)
ARM GAS  /tmp/ccVfu67b.s 			page 31


 729:Drivers/STM32F0xx_HAL_Driver/Src/stm32f0xx_hal_pcd.c ****       
 730:Drivers/STM32F0xx_HAL_Driver/Src/stm32f0xx_hal_pcd.c ****       /* Reset value of the data toggle bits for the endpoint out*/
 731:Drivers/STM32F0xx_HAL_Driver/Src/stm32f0xx_hal_pcd.c ****       PCD_TX_DTOG(hpcd->Instance, ep->num);
 732:Drivers/STM32F0xx_HAL_Driver/Src/stm32f0xx_hal_pcd.c ****       
 733:Drivers/STM32F0xx_HAL_Driver/Src/stm32f0xx_hal_pcd.c ****       PCD_SET_EP_RX_STATUS(hpcd->Instance, ep->num, USB_EP_RX_VALID)
 734:Drivers/STM32F0xx_HAL_Driver/Src/stm32f0xx_hal_pcd.c ****       PCD_SET_EP_TX_STATUS(hpcd->Instance, ep->num, USB_EP_TX_DIS)
 735:Drivers/STM32F0xx_HAL_Driver/Src/stm32f0xx_hal_pcd.c ****     }
 736:Drivers/STM32F0xx_HAL_Driver/Src/stm32f0xx_hal_pcd.c ****     else
 737:Drivers/STM32F0xx_HAL_Driver/Src/stm32f0xx_hal_pcd.c ****     {
 738:Drivers/STM32F0xx_HAL_Driver/Src/stm32f0xx_hal_pcd.c ****       /* Clear the data toggle bits for the endpoint IN/OUT*/
 739:Drivers/STM32F0xx_HAL_Driver/Src/stm32f0xx_hal_pcd.c ****       PCD_CLEAR_RX_DTOG(hpcd->Instance, ep->num)
 740:Drivers/STM32F0xx_HAL_Driver/Src/stm32f0xx_hal_pcd.c ****       PCD_CLEAR_TX_DTOG(hpcd->Instance, ep->num)
 741:Drivers/STM32F0xx_HAL_Driver/Src/stm32f0xx_hal_pcd.c ****       PCD_RX_DTOG(hpcd->Instance, ep->num);
 742:Drivers/STM32F0xx_HAL_Driver/Src/stm32f0xx_hal_pcd.c ****       /* Configure DISABLE status for the Endpoint*/
 743:Drivers/STM32F0xx_HAL_Driver/Src/stm32f0xx_hal_pcd.c ****       PCD_SET_EP_TX_STATUS(hpcd->Instance, ep->num, USB_EP_TX_DIS)
 744:Drivers/STM32F0xx_HAL_Driver/Src/stm32f0xx_hal_pcd.c ****       PCD_SET_EP_RX_STATUS(hpcd->Instance, ep->num, USB_EP_RX_DIS)
 745:Drivers/STM32F0xx_HAL_Driver/Src/stm32f0xx_hal_pcd.c ****     }
 746:Drivers/STM32F0xx_HAL_Driver/Src/stm32f0xx_hal_pcd.c ****   } 
 747:Drivers/STM32F0xx_HAL_Driver/Src/stm32f0xx_hal_pcd.c ****   
 748:Drivers/STM32F0xx_HAL_Driver/Src/stm32f0xx_hal_pcd.c ****   __HAL_UNLOCK(hpcd);   
 976              		.loc 1 748 0
 977 00c8 F423     		movs	r3, #244
 978 00ca 5B00     		lsls	r3, r3, #1
 979 00cc 0022     		movs	r2, #0
 980 00ce C254     		strb	r2, [r0, r3]
 749:Drivers/STM32F0xx_HAL_Driver/Src/stm32f0xx_hal_pcd.c ****   return ret;
 981              		.loc 1 749 0
 982 00d0 0020     		movs	r0, #0
 983              	.LVL66:
 984              	.L50:
 750:Drivers/STM32F0xx_HAL_Driver/Src/stm32f0xx_hal_pcd.c **** }
 985              		.loc 1 750 0
 986              		@ sp needed
 987 00d2 F0BD     		pop	{r4, r5, r6, r7, pc}
 988              	.LVL67:
 989              	.L71:
 660:Drivers/STM32F0xx_HAL_Driver/Src/stm32f0xx_hal_pcd.c ****   }
 990              		.loc 1 660 0
 991 00d4 7F24     		movs	r4, #127
 992 00d6 0C40     		ands	r4, r1
 993 00d8 E600     		lsls	r6, r4, #3
 994 00da 361B     		subs	r6, r6, r4
 995 00dc B400     		lsls	r4, r6, #2
 996 00de 2834     		adds	r4, r4, #40
 997 00e0 0419     		adds	r4, r0, r4
 998              	.LVL68:
 999 00e2 99E7     		b	.L49
 1000              	.LVL69:
 1001              	.L53:
 678:Drivers/STM32F0xx_HAL_Driver/Src/stm32f0xx_hal_pcd.c ****     break;
 1002              		.loc 1 678 0
 1003 00e4 2378     		ldrb	r3, [r4]
 1004 00e6 9B00     		lsls	r3, r3, #2
 1005 00e8 0268     		ldr	r2, [r0]
 1006 00ea 9446     		mov	ip, r2
 1007 00ec 6344     		add	r3, r3, ip
 1008 00ee 1A88     		ldrh	r2, [r3]
ARM GAS  /tmp/ccVfu67b.s 			page 32


 1009 00f0 9049     		ldr	r1, .L72+16
 1010 00f2 1140     		ands	r1, r2
 1011 00f4 8022     		movs	r2, #128
 1012 00f6 9200     		lsls	r2, r2, #2
 1013 00f8 0A43     		orrs	r2, r1
 1014 00fa 1A80     		strh	r2, [r3]
 679:Drivers/STM32F0xx_HAL_Driver/Src/stm32f0xx_hal_pcd.c ****   case PCD_EP_TYPE_BULK:
 1015              		.loc 1 679 0
 1016 00fc A7E7     		b	.L51
 1017              	.L54:
 681:Drivers/STM32F0xx_HAL_Driver/Src/stm32f0xx_hal_pcd.c ****     break;
 1018              		.loc 1 681 0
 1019 00fe 2378     		ldrb	r3, [r4]
 1020 0100 9B00     		lsls	r3, r3, #2
 1021 0102 0268     		ldr	r2, [r0]
 1022 0104 9446     		mov	ip, r2
 1023 0106 6344     		add	r3, r3, ip
 1024 0108 1A88     		ldrh	r2, [r3]
 1025 010a 8A49     		ldr	r1, .L72+16
 1026 010c 0A40     		ands	r2, r1
 1027 010e 1A80     		strh	r2, [r3]
 682:Drivers/STM32F0xx_HAL_Driver/Src/stm32f0xx_hal_pcd.c ****   case PCD_EP_TYPE_INTR:
 1028              		.loc 1 682 0
 1029 0110 9DE7     		b	.L51
 1030              	.L55:
 684:Drivers/STM32F0xx_HAL_Driver/Src/stm32f0xx_hal_pcd.c ****     break;
 1031              		.loc 1 684 0
 1032 0112 2378     		ldrb	r3, [r4]
 1033 0114 9B00     		lsls	r3, r3, #2
 1034 0116 0268     		ldr	r2, [r0]
 1035 0118 9446     		mov	ip, r2
 1036 011a 6344     		add	r3, r3, ip
 1037 011c 1A88     		ldrh	r2, [r3]
 1038 011e 8549     		ldr	r1, .L72+16
 1039 0120 1140     		ands	r1, r2
 1040 0122 C022     		movs	r2, #192
 1041 0124 D200     		lsls	r2, r2, #3
 1042 0126 0A43     		orrs	r2, r1
 1043 0128 1A80     		strh	r2, [r3]
 685:Drivers/STM32F0xx_HAL_Driver/Src/stm32f0xx_hal_pcd.c ****   case PCD_EP_TYPE_ISOC:
 1044              		.loc 1 685 0
 1045 012a 90E7     		b	.L51
 1046              	.L52:
 687:Drivers/STM32F0xx_HAL_Driver/Src/stm32f0xx_hal_pcd.c ****     break;
 1047              		.loc 1 687 0
 1048 012c 2378     		ldrb	r3, [r4]
 1049 012e 9B00     		lsls	r3, r3, #2
 1050 0130 0268     		ldr	r2, [r0]
 1051 0132 9446     		mov	ip, r2
 1052 0134 6344     		add	r3, r3, ip
 1053 0136 1A88     		ldrh	r2, [r3]
 1054 0138 7E49     		ldr	r1, .L72+16
 1055 013a 1140     		ands	r1, r2
 1056 013c 8022     		movs	r2, #128
 1057 013e D200     		lsls	r2, r2, #3
 1058 0140 0A43     		orrs	r2, r1
 1059 0142 1A80     		strh	r2, [r3]
ARM GAS  /tmp/ccVfu67b.s 			page 33


 688:Drivers/STM32F0xx_HAL_Driver/Src/stm32f0xx_hal_pcd.c ****   default:
 1060              		.loc 1 688 0
 1061 0144 83E7     		b	.L51
 1062              	.L57:
 708:Drivers/STM32F0xx_HAL_Driver/Src/stm32f0xx_hal_pcd.c ****       /*Set the endpoint Receive buffer counter*/
 1063              		.loc 1 708 0
 1064 0146 A288     		ldrh	r2, [r4, #4]
 1065 0148 0568     		ldr	r5, [r0]
 1066 014a 5026     		movs	r6, #80
 1067 014c AB5B     		ldrh	r3, [r5, r6]
 1068 014e 2178     		ldrb	r1, [r4]
 1069 0150 C900     		lsls	r1, r1, #3
 1070 0152 5B18     		adds	r3, r3, r1
 1071 0154 5B19     		adds	r3, r3, r5
 1072 0156 7849     		ldr	r1, .L72+20
 1073 0158 8C46     		mov	ip, r1
 1074 015a 6344     		add	r3, r3, ip
 1075 015c 0121     		movs	r1, #1
 1076 015e 8A43     		bics	r2, r1
 1077 0160 1A80     		strh	r2, [r3]
 1078              	.LBB3:
 710:Drivers/STM32F0xx_HAL_Driver/Src/stm32f0xx_hal_pcd.c ****       PCD_CLEAR_RX_DTOG(hpcd->Instance, ep->num)
 1079              		.loc 1 710 0
 1080 0162 0168     		ldr	r1, [r0]
 1081 0164 8B5B     		ldrh	r3, [r1, r6]
 1082 0166 2278     		ldrb	r2, [r4]
 1083 0168 D200     		lsls	r2, r2, #3
 1084 016a 9B18     		adds	r3, r3, r2
 1085 016c 5B18     		adds	r3, r3, r1
 1086 016e 734A     		ldr	r2, .L72+24
 1087 0170 9446     		mov	ip, r2
 1088 0172 6344     		add	r3, r3, ip
 1089              	.LVL70:
 1090              	.LBB4:
 1091 0174 E168     		ldr	r1, [r4, #12]
 1092 0176 3E29     		cmp	r1, #62
 1093 0178 26D9     		bls	.L60
 710:Drivers/STM32F0xx_HAL_Driver/Src/stm32f0xx_hal_pcd.c ****       PCD_CLEAR_RX_DTOG(hpcd->Instance, ep->num)
 1094              		.loc 1 710 0 is_stmt 0 discriminator 1
 1095 017a 4A09     		lsrs	r2, r1, #5
 1096 017c 92B2     		uxth	r2, r2
 1097              	.LVL71:
 1098 017e C906     		lsls	r1, r1, #27
 1099 0180 01D1     		bne	.L61
 710:Drivers/STM32F0xx_HAL_Driver/Src/stm32f0xx_hal_pcd.c ****       PCD_CLEAR_RX_DTOG(hpcd->Instance, ep->num)
 1100              		.loc 1 710 0 discriminator 3
 1101 0182 013A     		subs	r2, r2, #1
 1102              	.LVL72:
 1103 0184 92B2     		uxth	r2, r2
 1104              	.LVL73:
 1105              	.L61:
 710:Drivers/STM32F0xx_HAL_Driver/Src/stm32f0xx_hal_pcd.c ****       PCD_CLEAR_RX_DTOG(hpcd->Instance, ep->num)
 1106              		.loc 1 710 0 discriminator 5
 1107 0186 9202     		lsls	r2, r2, #10
 1108              	.LVL74:
 1109 0188 92B2     		uxth	r2, r2
 1110 018a 6D49     		ldr	r1, .L72+28
ARM GAS  /tmp/ccVfu67b.s 			page 34


 1111 018c 0A43     		orrs	r2, r1
 1112 018e 1A80     		strh	r2, [r3]
 1113              	.L62:
 1114              	.LBE4:
 1115              	.LBE3:
 711:Drivers/STM32F0xx_HAL_Driver/Src/stm32f0xx_hal_pcd.c ****       /* Configure VALID status for the Endpoint*/
 1116              		.loc 1 711 0 is_stmt 1
 1117 0190 2378     		ldrb	r3, [r4]
 1118              	.LVL75:
 1119 0192 9B00     		lsls	r3, r3, #2
 1120 0194 0268     		ldr	r2, [r0]
 1121 0196 9446     		mov	ip, r2
 1122 0198 6344     		add	r3, r3, ip
 1123 019a 1A88     		ldrh	r2, [r3]
 1124 019c 5104     		lsls	r1, r2, #17
 1125 019e 04D5     		bpl	.L64
 711:Drivers/STM32F0xx_HAL_Driver/Src/stm32f0xx_hal_pcd.c ****       /* Configure VALID status for the Endpoint*/
 1126              		.loc 1 711 0 is_stmt 0 discriminator 1
 1127 01a0 6049     		ldr	r1, .L72
 1128 01a2 0A40     		ands	r2, r1
 1129 01a4 6749     		ldr	r1, .L72+32
 1130 01a6 0A43     		orrs	r2, r1
 1131 01a8 1A80     		strh	r2, [r3]
 1132              	.L64:
 1133              	.LBB6:
 713:Drivers/STM32F0xx_HAL_Driver/Src/stm32f0xx_hal_pcd.c ****     }
 1134              		.loc 1 713 0 is_stmt 1
 1135 01aa 2378     		ldrb	r3, [r4]
 1136 01ac 9B00     		lsls	r3, r3, #2
 1137 01ae 0268     		ldr	r2, [r0]
 1138 01b0 9446     		mov	ip, r2
 1139 01b2 6344     		add	r3, r3, ip
 1140 01b4 1988     		ldrh	r1, [r3]
 1141 01b6 644A     		ldr	r2, .L72+36
 1142 01b8 1140     		ands	r1, r2
 1143              	.LVL76:
 1144 01ba C022     		movs	r2, #192
 1145 01bc 9201     		lsls	r2, r2, #6
 1146 01be 5140     		eors	r1, r2
 1147              	.LVL77:
 1148 01c0 594A     		ldr	r2, .L72+4
 1149 01c2 0A43     		orrs	r2, r1
 1150 01c4 1A80     		strh	r2, [r3]
 1151 01c6 7FE7     		b	.L59
 1152              	.LVL78:
 1153              	.L60:
 1154              	.LBE6:
 1155              	.LBB7:
 1156              	.LBB5:
 710:Drivers/STM32F0xx_HAL_Driver/Src/stm32f0xx_hal_pcd.c ****       PCD_CLEAR_RX_DTOG(hpcd->Instance, ep->num)
 1157              		.loc 1 710 0 discriminator 2
 1158 01c8 4A08     		lsrs	r2, r1, #1
 1159 01ca 92B2     		uxth	r2, r2
 1160              	.LVL79:
 1161 01cc C907     		lsls	r1, r1, #31
 1162 01ce 01D5     		bpl	.L63
 710:Drivers/STM32F0xx_HAL_Driver/Src/stm32f0xx_hal_pcd.c ****       PCD_CLEAR_RX_DTOG(hpcd->Instance, ep->num)
ARM GAS  /tmp/ccVfu67b.s 			page 35


 1163              		.loc 1 710 0 is_stmt 0 discriminator 6
 1164 01d0 0132     		adds	r2, r2, #1
 1165              	.LVL80:
 1166 01d2 92B2     		uxth	r2, r2
 1167              	.LVL81:
 1168              	.L63:
 710:Drivers/STM32F0xx_HAL_Driver/Src/stm32f0xx_hal_pcd.c ****       PCD_CLEAR_RX_DTOG(hpcd->Instance, ep->num)
 1169              		.loc 1 710 0 discriminator 8
 1170 01d4 9202     		lsls	r2, r2, #10
 1171              	.LVL82:
 1172 01d6 1A80     		strh	r2, [r3]
 1173 01d8 DAE7     		b	.L62
 1174              	.LVL83:
 1175              	.L56:
 1176              	.LBE5:
 1177              	.LBE7:
 720:Drivers/STM32F0xx_HAL_Driver/Src/stm32f0xx_hal_pcd.c ****     /*Set buffer address for double buffered mode*/
 1178              		.loc 1 720 0 is_stmt 1
 1179 01da 2378     		ldrb	r3, [r4]
 1180 01dc 9B00     		lsls	r3, r3, #2
 1181 01de 0268     		ldr	r2, [r0]
 1182 01e0 9446     		mov	ip, r2
 1183 01e2 6344     		add	r3, r3, ip
 1184 01e4 1A88     		ldrh	r2, [r3]
 1185 01e6 5949     		ldr	r1, .L72+40
 1186 01e8 1140     		ands	r1, r2
 1187 01ea 594A     		ldr	r2, .L72+44
 1188 01ec 0A43     		orrs	r2, r1
 1189 01ee 1A80     		strh	r2, [r3]
 722:Drivers/STM32F0xx_HAL_Driver/Src/stm32f0xx_hal_pcd.c ****     
 1190              		.loc 1 722 0
 1191 01f0 E288     		ldrh	r2, [r4, #6]
 1192 01f2 0568     		ldr	r5, [r0]
 1193 01f4 5027     		movs	r7, #80
 1194 01f6 EB5B     		ldrh	r3, [r5, r7]
 1195 01f8 2178     		ldrb	r1, [r4]
 1196 01fa C900     		lsls	r1, r1, #3
 1197 01fc 5B18     		adds	r3, r3, r1
 1198 01fe 5B19     		adds	r3, r3, r5
 1199 0200 8021     		movs	r1, #128
 1200 0202 C900     		lsls	r1, r1, #3
 1201 0204 8C46     		mov	ip, r1
 1202 0206 6344     		add	r3, r3, ip
 1203 0208 0126     		movs	r6, #1
 1204 020a B243     		bics	r2, r6
 1205 020c 1A80     		strh	r2, [r3]
 1206 020e 2289     		ldrh	r2, [r4, #8]
 1207 0210 0568     		ldr	r5, [r0]
 1208 0212 EB5B     		ldrh	r3, [r5, r7]
 1209 0214 2178     		ldrb	r1, [r4]
 1210 0216 C900     		lsls	r1, r1, #3
 1211 0218 5B18     		adds	r3, r3, r1
 1212 021a 5B19     		adds	r3, r3, r5
 1213 021c 4649     		ldr	r1, .L72+20
 1214 021e 8C46     		mov	ip, r1
 1215 0220 6344     		add	r3, r3, ip
 1216 0222 B243     		bics	r2, r6
ARM GAS  /tmp/ccVfu67b.s 			page 36


 1217 0224 1A80     		strh	r2, [r3]
 724:Drivers/STM32F0xx_HAL_Driver/Src/stm32f0xx_hal_pcd.c ****     {
 1218              		.loc 1 724 0
 1219 0226 6378     		ldrb	r3, [r4, #1]
 1220 0228 002B     		cmp	r3, #0
 1221 022a 3DD1     		bne	.L65
 727:Drivers/STM32F0xx_HAL_Driver/Src/stm32f0xx_hal_pcd.c ****       PCD_CLEAR_TX_DTOG(hpcd->Instance, ep->num)
 1222              		.loc 1 727 0
 1223 022c 2378     		ldrb	r3, [r4]
 1224 022e 9B00     		lsls	r3, r3, #2
 1225 0230 0268     		ldr	r2, [r0]
 1226 0232 9446     		mov	ip, r2
 1227 0234 6344     		add	r3, r3, ip
 1228 0236 1A88     		ldrh	r2, [r3]
 1229 0238 5104     		lsls	r1, r2, #17
 1230 023a 04D5     		bpl	.L66
 727:Drivers/STM32F0xx_HAL_Driver/Src/stm32f0xx_hal_pcd.c ****       PCD_CLEAR_TX_DTOG(hpcd->Instance, ep->num)
 1231              		.loc 1 727 0 is_stmt 0 discriminator 1
 1232 023c 3949     		ldr	r1, .L72
 1233 023e 0A40     		ands	r2, r1
 1234 0240 4049     		ldr	r1, .L72+32
 1235 0242 0A43     		orrs	r2, r1
 1236 0244 1A80     		strh	r2, [r3]
 1237              	.L66:
 728:Drivers/STM32F0xx_HAL_Driver/Src/stm32f0xx_hal_pcd.c ****       
 1238              		.loc 1 728 0 is_stmt 1
 1239 0246 2378     		ldrb	r3, [r4]
 1240 0248 9B00     		lsls	r3, r3, #2
 1241 024a 0268     		ldr	r2, [r0]
 1242 024c 9446     		mov	ip, r2
 1243 024e 6344     		add	r3, r3, ip
 1244 0250 1A88     		ldrh	r2, [r3]
 1245 0252 5106     		lsls	r1, r2, #25
 1246 0254 04D5     		bpl	.L67
 728:Drivers/STM32F0xx_HAL_Driver/Src/stm32f0xx_hal_pcd.c ****       
 1247              		.loc 1 728 0 is_stmt 0 discriminator 1
 1248 0256 3349     		ldr	r1, .L72
 1249 0258 0A40     		ands	r2, r1
 1250 025a 3449     		ldr	r1, .L72+8
 1251 025c 0A43     		orrs	r2, r1
 1252 025e 1A80     		strh	r2, [r3]
 1253              	.L67:
 731:Drivers/STM32F0xx_HAL_Driver/Src/stm32f0xx_hal_pcd.c ****       
 1254              		.loc 1 731 0 is_stmt 1
 1255 0260 2378     		ldrb	r3, [r4]
 1256 0262 9B00     		lsls	r3, r3, #2
 1257 0264 0268     		ldr	r2, [r0]
 1258 0266 9446     		mov	ip, r2
 1259 0268 6344     		add	r3, r3, ip
 1260 026a 1A88     		ldrh	r2, [r3]
 1261 026c 2D49     		ldr	r1, .L72
 1262 026e 1140     		ands	r1, r2
 1263 0270 2E4A     		ldr	r2, .L72+8
 1264 0272 0A43     		orrs	r2, r1
 1265 0274 1A80     		strh	r2, [r3]
 1266              	.LBB8:
 733:Drivers/STM32F0xx_HAL_Driver/Src/stm32f0xx_hal_pcd.c ****       PCD_SET_EP_TX_STATUS(hpcd->Instance, ep->num, USB_EP_TX_DIS)
ARM GAS  /tmp/ccVfu67b.s 			page 37


 1267              		.loc 1 733 0
 1268 0276 2178     		ldrb	r1, [r4]
 1269 0278 8900     		lsls	r1, r1, #2
 1270 027a 0368     		ldr	r3, [r0]
 1271 027c 9C46     		mov	ip, r3
 1272 027e 6144     		add	r1, r1, ip
 1273 0280 0B88     		ldrh	r3, [r1]
 1274 0282 314A     		ldr	r2, .L72+36
 1275 0284 1A40     		ands	r2, r3
 1276              	.LVL84:
 1277 0286 C023     		movs	r3, #192
 1278 0288 9B01     		lsls	r3, r3, #6
 1279 028a 5340     		eors	r3, r2
 1280              	.LVL85:
 1281 028c 264A     		ldr	r2, .L72+4
 1282 028e 1343     		orrs	r3, r2
 1283              	.LVL86:
 1284 0290 0B80     		strh	r3, [r1]
 1285              	.LVL87:
 1286              	.LBE8:
 1287              	.LBB9:
 734:Drivers/STM32F0xx_HAL_Driver/Src/stm32f0xx_hal_pcd.c ****     }
 1288              		.loc 1 734 0
 1289 0292 2378     		ldrb	r3, [r4]
 1290 0294 9B00     		lsls	r3, r3, #2
 1291 0296 0168     		ldr	r1, [r0]
 1292 0298 8C46     		mov	ip, r1
 1293 029a 6344     		add	r3, r3, ip
 1294 029c 1988     		ldrh	r1, [r3]
 1295 029e 244C     		ldr	r4, .L72+12
 1296              	.LVL88:
 1297 02a0 2140     		ands	r1, r4
 1298              	.LVL89:
 1299 02a2 0A43     		orrs	r2, r1
 1300 02a4 1A80     		strh	r2, [r3]
 1301              	.LBE9:
 1302 02a6 0FE7     		b	.L59
 1303              	.LVL90:
 1304              	.L65:
 739:Drivers/STM32F0xx_HAL_Driver/Src/stm32f0xx_hal_pcd.c ****       PCD_CLEAR_TX_DTOG(hpcd->Instance, ep->num)
 1305              		.loc 1 739 0
 1306 02a8 2378     		ldrb	r3, [r4]
 1307 02aa 9B00     		lsls	r3, r3, #2
 1308 02ac 0268     		ldr	r2, [r0]
 1309 02ae 9446     		mov	ip, r2
 1310 02b0 6344     		add	r3, r3, ip
 1311 02b2 1A88     		ldrh	r2, [r3]
 1312 02b4 5104     		lsls	r1, r2, #17
 1313 02b6 04D5     		bpl	.L68
 739:Drivers/STM32F0xx_HAL_Driver/Src/stm32f0xx_hal_pcd.c ****       PCD_CLEAR_TX_DTOG(hpcd->Instance, ep->num)
 1314              		.loc 1 739 0 is_stmt 0 discriminator 1
 1315 02b8 1A49     		ldr	r1, .L72
 1316 02ba 0A40     		ands	r2, r1
 1317 02bc 2149     		ldr	r1, .L72+32
 1318 02be 0A43     		orrs	r2, r1
 1319 02c0 1A80     		strh	r2, [r3]
 1320              	.L68:
ARM GAS  /tmp/ccVfu67b.s 			page 38


 740:Drivers/STM32F0xx_HAL_Driver/Src/stm32f0xx_hal_pcd.c ****       PCD_RX_DTOG(hpcd->Instance, ep->num);
 1321              		.loc 1 740 0 is_stmt 1
 1322 02c2 2378     		ldrb	r3, [r4]
 1323 02c4 9B00     		lsls	r3, r3, #2
 1324 02c6 0268     		ldr	r2, [r0]
 1325 02c8 9446     		mov	ip, r2
 1326 02ca 6344     		add	r3, r3, ip
 1327 02cc 1A88     		ldrh	r2, [r3]
 1328 02ce 5106     		lsls	r1, r2, #25
 1329 02d0 04D5     		bpl	.L69
 740:Drivers/STM32F0xx_HAL_Driver/Src/stm32f0xx_hal_pcd.c ****       PCD_RX_DTOG(hpcd->Instance, ep->num);
 1330              		.loc 1 740 0 is_stmt 0 discriminator 1
 1331 02d2 1449     		ldr	r1, .L72
 1332 02d4 0A40     		ands	r2, r1
 1333 02d6 1549     		ldr	r1, .L72+8
 1334 02d8 0A43     		orrs	r2, r1
 1335 02da 1A80     		strh	r2, [r3]
 1336              	.L69:
 741:Drivers/STM32F0xx_HAL_Driver/Src/stm32f0xx_hal_pcd.c ****       /* Configure DISABLE status for the Endpoint*/
 1337              		.loc 1 741 0 is_stmt 1
 1338 02dc 2378     		ldrb	r3, [r4]
 1339 02de 9B00     		lsls	r3, r3, #2
 1340 02e0 0268     		ldr	r2, [r0]
 1341 02e2 9446     		mov	ip, r2
 1342 02e4 6344     		add	r3, r3, ip
 1343 02e6 1A88     		ldrh	r2, [r3]
 1344 02e8 0E49     		ldr	r1, .L72
 1345 02ea 1140     		ands	r1, r2
 1346 02ec 154A     		ldr	r2, .L72+32
 1347 02ee 0A43     		orrs	r2, r1
 1348 02f0 1A80     		strh	r2, [r3]
 1349              	.LBB10:
 743:Drivers/STM32F0xx_HAL_Driver/Src/stm32f0xx_hal_pcd.c ****       PCD_SET_EP_RX_STATUS(hpcd->Instance, ep->num, USB_EP_RX_DIS)
 1350              		.loc 1 743 0
 1351 02f2 2178     		ldrb	r1, [r4]
 1352 02f4 8900     		lsls	r1, r1, #2
 1353 02f6 0368     		ldr	r3, [r0]
 1354 02f8 9C46     		mov	ip, r3
 1355 02fa 6144     		add	r1, r1, ip
 1356 02fc 0B88     		ldrh	r3, [r1]
 1357 02fe 0C4A     		ldr	r2, .L72+12
 1358 0300 1340     		ands	r3, r2
 1359              	.LVL91:
 1360 0302 094A     		ldr	r2, .L72+4
 1361 0304 1343     		orrs	r3, r2
 1362              	.LVL92:
 1363 0306 0B80     		strh	r3, [r1]
 1364              	.LVL93:
 1365              	.LBE10:
 1366              	.LBB11:
 744:Drivers/STM32F0xx_HAL_Driver/Src/stm32f0xx_hal_pcd.c ****     }
 1367              		.loc 1 744 0
 1368 0308 2378     		ldrb	r3, [r4]
 1369 030a 9B00     		lsls	r3, r3, #2
 1370 030c 0168     		ldr	r1, [r0]
 1371 030e 8C46     		mov	ip, r1
 1372 0310 6344     		add	r3, r3, ip
ARM GAS  /tmp/ccVfu67b.s 			page 39


 1373 0312 1988     		ldrh	r1, [r3]
 1374 0314 0C4C     		ldr	r4, .L72+36
 1375              	.LVL94:
 1376 0316 2140     		ands	r1, r4
 1377              	.LVL95:
 1378 0318 0A43     		orrs	r2, r1
 1379 031a 1A80     		strh	r2, [r3]
 1380 031c D4E6     		b	.L59
 1381              	.LVL96:
 1382              	.L70:
 1383              	.LBE11:
 672:Drivers/STM32F0xx_HAL_Driver/Src/stm32f0xx_hal_pcd.c **** 
 1384              		.loc 1 672 0
 1385 031e 0220     		movs	r0, #2
 1386              	.LVL97:
 1387 0320 D7E6     		b	.L50
 1388              	.L73:
 1389 0322 C046     		.align	2
 1390              	.L72:
 1391 0324 0F0F0000 		.word	3855
 1392 0328 8080FFFF 		.word	-32640
 1393 032c C080FFFF 		.word	-32576
 1394 0330 BF8FFFFF 		.word	-28737
 1395 0334 8F89FFFF 		.word	-30321
 1396 0338 04040000 		.word	1028
 1397 033c 06040000 		.word	1030
 1398 0340 0080FFFF 		.word	-32768
 1399 0344 80C0FFFF 		.word	-16256
 1400 0348 8FBFFFFF 		.word	-16497
 1401 034c 0F0E0000 		.word	3599
 1402 0350 8081FFFF 		.word	-32384
 1403              		.cfi_endproc
 1404              	.LFE58:
 1406              		.section	.text.HAL_PCD_EP_Close,"ax",%progbits
 1407              		.align	1
 1408              		.global	HAL_PCD_EP_Close
 1409              		.syntax unified
 1410              		.code	16
 1411              		.thumb_func
 1412              		.fpu softvfp
 1414              	HAL_PCD_EP_Close:
 1415              	.LFB59:
 751:Drivers/STM32F0xx_HAL_Driver/Src/stm32f0xx_hal_pcd.c **** 
 752:Drivers/STM32F0xx_HAL_Driver/Src/stm32f0xx_hal_pcd.c **** 
 753:Drivers/STM32F0xx_HAL_Driver/Src/stm32f0xx_hal_pcd.c **** /**
 754:Drivers/STM32F0xx_HAL_Driver/Src/stm32f0xx_hal_pcd.c ****   * @brief  Deactivate an endpoint
 755:Drivers/STM32F0xx_HAL_Driver/Src/stm32f0xx_hal_pcd.c ****   * @param  hpcd PCD handle
 756:Drivers/STM32F0xx_HAL_Driver/Src/stm32f0xx_hal_pcd.c ****   * @param  ep_addr endpoint address
 757:Drivers/STM32F0xx_HAL_Driver/Src/stm32f0xx_hal_pcd.c ****   * @retval HAL status
 758:Drivers/STM32F0xx_HAL_Driver/Src/stm32f0xx_hal_pcd.c ****   */
 759:Drivers/STM32F0xx_HAL_Driver/Src/stm32f0xx_hal_pcd.c **** HAL_StatusTypeDef HAL_PCD_EP_Close(PCD_HandleTypeDef *hpcd, uint8_t ep_addr)
 760:Drivers/STM32F0xx_HAL_Driver/Src/stm32f0xx_hal_pcd.c **** {  
 1416              		.loc 1 760 0
 1417              		.cfi_startproc
 1418              		@ args = 0, pretend = 0, frame = 0
 1419              		@ frame_needed = 0, uses_anonymous_args = 0
 1420              	.LVL98:
ARM GAS  /tmp/ccVfu67b.s 			page 40


 1421 0000 10B5     		push	{r4, lr}
 1422              	.LCFI6:
 1423              		.cfi_def_cfa_offset 8
 1424              		.cfi_offset 4, -8
 1425              		.cfi_offset 14, -4
 761:Drivers/STM32F0xx_HAL_Driver/Src/stm32f0xx_hal_pcd.c ****   PCD_EPTypeDef *ep;
 762:Drivers/STM32F0xx_HAL_Driver/Src/stm32f0xx_hal_pcd.c ****   
 763:Drivers/STM32F0xx_HAL_Driver/Src/stm32f0xx_hal_pcd.c ****   if ((ep_addr & 0x80U) == 0x80U)
 1426              		.loc 1 763 0
 1427 0002 4AB2     		sxtb	r2, r1
 1428 0004 002A     		cmp	r2, #0
 1429 0006 3ADB     		blt	.L89
 764:Drivers/STM32F0xx_HAL_Driver/Src/stm32f0xx_hal_pcd.c ****   {
 765:Drivers/STM32F0xx_HAL_Driver/Src/stm32f0xx_hal_pcd.c ****     ep = &hpcd->IN_ep[ep_addr & 0x7FU];
 766:Drivers/STM32F0xx_HAL_Driver/Src/stm32f0xx_hal_pcd.c ****   }
 767:Drivers/STM32F0xx_HAL_Driver/Src/stm32f0xx_hal_pcd.c ****   else
 768:Drivers/STM32F0xx_HAL_Driver/Src/stm32f0xx_hal_pcd.c ****   {
 769:Drivers/STM32F0xx_HAL_Driver/Src/stm32f0xx_hal_pcd.c ****     ep = &hpcd->OUT_ep[ep_addr & 0x7FU];
 1430              		.loc 1 769 0
 1431 0008 7F23     		movs	r3, #127
 1432 000a 0B40     		ands	r3, r1
 1433 000c DC00     		lsls	r4, r3, #3
 1434 000e E41A     		subs	r4, r4, r3
 1435 0010 A300     		lsls	r3, r4, #2
 1436 0012 0933     		adds	r3, r3, #9
 1437 0014 FF33     		adds	r3, r3, #255
 1438 0016 C318     		adds	r3, r0, r3
 1439              	.LVL99:
 1440              	.L76:
 770:Drivers/STM32F0xx_HAL_Driver/Src/stm32f0xx_hal_pcd.c ****   }
 771:Drivers/STM32F0xx_HAL_Driver/Src/stm32f0xx_hal_pcd.c ****   ep->num   = ep_addr & 0x7FU;
 1441              		.loc 1 771 0
 1442 0018 7F24     		movs	r4, #127
 1443 001a 2140     		ands	r1, r4
 1444              	.LVL100:
 1445 001c 1970     		strb	r1, [r3]
 772:Drivers/STM32F0xx_HAL_Driver/Src/stm32f0xx_hal_pcd.c ****   
 773:Drivers/STM32F0xx_HAL_Driver/Src/stm32f0xx_hal_pcd.c ****   ep->is_in = (0x80U & ep_addr) != 0U;
 1446              		.loc 1 773 0
 1447 001e D20F     		lsrs	r2, r2, #31
 1448              	.LVL101:
 1449 0020 5A70     		strb	r2, [r3, #1]
 774:Drivers/STM32F0xx_HAL_Driver/Src/stm32f0xx_hal_pcd.c ****   
 775:Drivers/STM32F0xx_HAL_Driver/Src/stm32f0xx_hal_pcd.c ****   __HAL_LOCK(hpcd); 
 1450              		.loc 1 775 0
 1451 0022 F422     		movs	r2, #244
 1452 0024 5200     		lsls	r2, r2, #1
 1453 0026 825C     		ldrb	r2, [r0, r2]
 1454 0028 012A     		cmp	r2, #1
 1455 002a 00D1     		bne	.LCB1369
 1456 002c C1E0     		b	.L88	@long jump
 1457              	.LCB1369:
 1458              		.loc 1 775 0 is_stmt 0 discriminator 2
 1459 002e F422     		movs	r2, #244
 1460 0030 5200     		lsls	r2, r2, #1
 1461 0032 0121     		movs	r1, #1
 1462 0034 8154     		strb	r1, [r0, r2]
ARM GAS  /tmp/ccVfu67b.s 			page 41


 776:Drivers/STM32F0xx_HAL_Driver/Src/stm32f0xx_hal_pcd.c **** 
 777:Drivers/STM32F0xx_HAL_Driver/Src/stm32f0xx_hal_pcd.c ****   if (ep->doublebuffer == 0U) 
 1463              		.loc 1 777 0 is_stmt 1 discriminator 2
 1464 0036 9A7A     		ldrb	r2, [r3, #10]
 1465 0038 002A     		cmp	r2, #0
 1466 003a 41D1     		bne	.L78
 778:Drivers/STM32F0xx_HAL_Driver/Src/stm32f0xx_hal_pcd.c ****   {
 779:Drivers/STM32F0xx_HAL_Driver/Src/stm32f0xx_hal_pcd.c ****     if (ep->is_in)
 1467              		.loc 1 779 0
 1468 003c 5A78     		ldrb	r2, [r3, #1]
 1469 003e 002A     		cmp	r2, #0
 1470 0040 25D0     		beq	.L79
 780:Drivers/STM32F0xx_HAL_Driver/Src/stm32f0xx_hal_pcd.c ****     {
 781:Drivers/STM32F0xx_HAL_Driver/Src/stm32f0xx_hal_pcd.c ****       PCD_CLEAR_TX_DTOG(hpcd->Instance, ep->num)
 1471              		.loc 1 781 0
 1472 0042 1A78     		ldrb	r2, [r3]
 1473 0044 9200     		lsls	r2, r2, #2
 1474 0046 0168     		ldr	r1, [r0]
 1475 0048 8C46     		mov	ip, r1
 1476 004a 6244     		add	r2, r2, ip
 1477 004c 1188     		ldrh	r1, [r2]
 1478 004e 4C06     		lsls	r4, r1, #25
 1479 0050 04D5     		bpl	.L80
 1480              		.loc 1 781 0 is_stmt 0 discriminator 1
 1481 0052 594C     		ldr	r4, .L90
 1482 0054 2140     		ands	r1, r4
 1483 0056 594C     		ldr	r4, .L90+4
 1484 0058 2143     		orrs	r1, r4
 1485 005a 1180     		strh	r1, [r2]
 1486              	.L80:
 1487              	.LBB12:
 782:Drivers/STM32F0xx_HAL_Driver/Src/stm32f0xx_hal_pcd.c ****       /* Configure DISABLE status for the Endpoint*/
 783:Drivers/STM32F0xx_HAL_Driver/Src/stm32f0xx_hal_pcd.c ****       PCD_SET_EP_TX_STATUS(hpcd->Instance, ep->num, USB_EP_TX_DIS)
 1488              		.loc 1 783 0 is_stmt 1
 1489 005c 1B78     		ldrb	r3, [r3]
 1490              	.LVL102:
 1491 005e 9B00     		lsls	r3, r3, #2
 1492 0060 0268     		ldr	r2, [r0]
 1493 0062 9446     		mov	ip, r2
 1494 0064 6344     		add	r3, r3, ip
 1495 0066 1A88     		ldrh	r2, [r3]
 1496 0068 5549     		ldr	r1, .L90+8
 1497 006a 1140     		ands	r1, r2
 1498              	.LVL103:
 1499 006c 554A     		ldr	r2, .L90+12
 1500 006e 0A43     		orrs	r2, r1
 1501 0070 1A80     		strh	r2, [r3]
 1502              	.LVL104:
 1503              	.L81:
 1504              	.LBE12:
 784:Drivers/STM32F0xx_HAL_Driver/Src/stm32f0xx_hal_pcd.c ****     }
 785:Drivers/STM32F0xx_HAL_Driver/Src/stm32f0xx_hal_pcd.c ****     else
 786:Drivers/STM32F0xx_HAL_Driver/Src/stm32f0xx_hal_pcd.c ****     {
 787:Drivers/STM32F0xx_HAL_Driver/Src/stm32f0xx_hal_pcd.c ****       PCD_CLEAR_RX_DTOG(hpcd->Instance, ep->num)
 788:Drivers/STM32F0xx_HAL_Driver/Src/stm32f0xx_hal_pcd.c ****       /* Configure DISABLE status for the Endpoint*/
 789:Drivers/STM32F0xx_HAL_Driver/Src/stm32f0xx_hal_pcd.c ****       PCD_SET_EP_RX_STATUS(hpcd->Instance, ep->num, USB_EP_RX_DIS)
 790:Drivers/STM32F0xx_HAL_Driver/Src/stm32f0xx_hal_pcd.c ****     }
ARM GAS  /tmp/ccVfu67b.s 			page 42


 791:Drivers/STM32F0xx_HAL_Driver/Src/stm32f0xx_hal_pcd.c ****   }
 792:Drivers/STM32F0xx_HAL_Driver/Src/stm32f0xx_hal_pcd.c ****   /*Double Buffer*/
 793:Drivers/STM32F0xx_HAL_Driver/Src/stm32f0xx_hal_pcd.c ****   else
 794:Drivers/STM32F0xx_HAL_Driver/Src/stm32f0xx_hal_pcd.c ****   { 
 795:Drivers/STM32F0xx_HAL_Driver/Src/stm32f0xx_hal_pcd.c ****     if (ep->is_in==0U)
 796:Drivers/STM32F0xx_HAL_Driver/Src/stm32f0xx_hal_pcd.c ****     {
 797:Drivers/STM32F0xx_HAL_Driver/Src/stm32f0xx_hal_pcd.c ****       /* Clear the data toggle bits for the endpoint IN/OUT*/
 798:Drivers/STM32F0xx_HAL_Driver/Src/stm32f0xx_hal_pcd.c ****       PCD_CLEAR_RX_DTOG(hpcd->Instance, ep->num)
 799:Drivers/STM32F0xx_HAL_Driver/Src/stm32f0xx_hal_pcd.c ****       PCD_CLEAR_TX_DTOG(hpcd->Instance, ep->num)
 800:Drivers/STM32F0xx_HAL_Driver/Src/stm32f0xx_hal_pcd.c ****       
 801:Drivers/STM32F0xx_HAL_Driver/Src/stm32f0xx_hal_pcd.c ****       /* Reset value of the data toggle bits for the endpoint out*/
 802:Drivers/STM32F0xx_HAL_Driver/Src/stm32f0xx_hal_pcd.c ****       PCD_TX_DTOG(hpcd->Instance, ep->num);
 803:Drivers/STM32F0xx_HAL_Driver/Src/stm32f0xx_hal_pcd.c ****       
 804:Drivers/STM32F0xx_HAL_Driver/Src/stm32f0xx_hal_pcd.c ****       PCD_SET_EP_RX_STATUS(hpcd->Instance, ep->num, USB_EP_RX_DIS)
 805:Drivers/STM32F0xx_HAL_Driver/Src/stm32f0xx_hal_pcd.c ****       PCD_SET_EP_TX_STATUS(hpcd->Instance, ep->num, USB_EP_TX_DIS)
 806:Drivers/STM32F0xx_HAL_Driver/Src/stm32f0xx_hal_pcd.c ****     }
 807:Drivers/STM32F0xx_HAL_Driver/Src/stm32f0xx_hal_pcd.c ****     else
 808:Drivers/STM32F0xx_HAL_Driver/Src/stm32f0xx_hal_pcd.c ****     {
 809:Drivers/STM32F0xx_HAL_Driver/Src/stm32f0xx_hal_pcd.c ****       /* Clear the data toggle bits for the endpoint IN/OUT*/
 810:Drivers/STM32F0xx_HAL_Driver/Src/stm32f0xx_hal_pcd.c ****       PCD_CLEAR_RX_DTOG(hpcd->Instance, ep->num)
 811:Drivers/STM32F0xx_HAL_Driver/Src/stm32f0xx_hal_pcd.c ****       PCD_CLEAR_TX_DTOG(hpcd->Instance, ep->num)
 812:Drivers/STM32F0xx_HAL_Driver/Src/stm32f0xx_hal_pcd.c ****       PCD_RX_DTOG(hpcd->Instance, ep->num);
 813:Drivers/STM32F0xx_HAL_Driver/Src/stm32f0xx_hal_pcd.c ****       /* Configure DISABLE status for the Endpoint*/
 814:Drivers/STM32F0xx_HAL_Driver/Src/stm32f0xx_hal_pcd.c ****       PCD_SET_EP_TX_STATUS(hpcd->Instance, ep->num, USB_EP_TX_DIS)
 815:Drivers/STM32F0xx_HAL_Driver/Src/stm32f0xx_hal_pcd.c ****       PCD_SET_EP_RX_STATUS(hpcd->Instance, ep->num, USB_EP_RX_DIS)
 816:Drivers/STM32F0xx_HAL_Driver/Src/stm32f0xx_hal_pcd.c ****     }
 817:Drivers/STM32F0xx_HAL_Driver/Src/stm32f0xx_hal_pcd.c ****   } 
 818:Drivers/STM32F0xx_HAL_Driver/Src/stm32f0xx_hal_pcd.c ****   
 819:Drivers/STM32F0xx_HAL_Driver/Src/stm32f0xx_hal_pcd.c ****   __HAL_UNLOCK(hpcd);   
 1505              		.loc 1 819 0
 1506 0072 F423     		movs	r3, #244
 1507 0074 5B00     		lsls	r3, r3, #1
 1508 0076 0022     		movs	r2, #0
 1509 0078 C254     		strb	r2, [r0, r3]
 820:Drivers/STM32F0xx_HAL_Driver/Src/stm32f0xx_hal_pcd.c ****   return HAL_OK;
 1510              		.loc 1 820 0
 1511 007a 0020     		movs	r0, #0
 1512              	.LVL105:
 1513              	.L77:
 821:Drivers/STM32F0xx_HAL_Driver/Src/stm32f0xx_hal_pcd.c **** }
 1514              		.loc 1 821 0
 1515              		@ sp needed
 1516 007c 10BD     		pop	{r4, pc}
 1517              	.LVL106:
 1518              	.L89:
 765:Drivers/STM32F0xx_HAL_Driver/Src/stm32f0xx_hal_pcd.c ****   }
 1519              		.loc 1 765 0
 1520 007e 7F23     		movs	r3, #127
 1521 0080 0B40     		ands	r3, r1
 1522 0082 DC00     		lsls	r4, r3, #3
 1523 0084 E41A     		subs	r4, r4, r3
 1524 0086 A300     		lsls	r3, r4, #2
 1525 0088 2833     		adds	r3, r3, #40
 1526 008a C318     		adds	r3, r0, r3
 1527              	.LVL107:
 1528 008c C4E7     		b	.L76
 1529              	.LVL108:
ARM GAS  /tmp/ccVfu67b.s 			page 43


 1530              	.L79:
 787:Drivers/STM32F0xx_HAL_Driver/Src/stm32f0xx_hal_pcd.c ****       /* Configure DISABLE status for the Endpoint*/
 1531              		.loc 1 787 0
 1532 008e 1A78     		ldrb	r2, [r3]
 1533 0090 9200     		lsls	r2, r2, #2
 1534 0092 0168     		ldr	r1, [r0]
 1535 0094 8C46     		mov	ip, r1
 1536 0096 6244     		add	r2, r2, ip
 1537 0098 1188     		ldrh	r1, [r2]
 1538 009a 4C04     		lsls	r4, r1, #17
 1539 009c 04D5     		bpl	.L82
 787:Drivers/STM32F0xx_HAL_Driver/Src/stm32f0xx_hal_pcd.c ****       /* Configure DISABLE status for the Endpoint*/
 1540              		.loc 1 787 0 is_stmt 0 discriminator 1
 1541 009e 464C     		ldr	r4, .L90
 1542 00a0 2140     		ands	r1, r4
 1543 00a2 494C     		ldr	r4, .L90+16
 1544 00a4 2143     		orrs	r1, r4
 1545 00a6 1180     		strh	r1, [r2]
 1546              	.L82:
 1547              	.LBB13:
 789:Drivers/STM32F0xx_HAL_Driver/Src/stm32f0xx_hal_pcd.c ****     }
 1548              		.loc 1 789 0 is_stmt 1
 1549 00a8 1B78     		ldrb	r3, [r3]
 1550              	.LVL109:
 1551 00aa 9B00     		lsls	r3, r3, #2
 1552 00ac 0268     		ldr	r2, [r0]
 1553 00ae 9446     		mov	ip, r2
 1554 00b0 6344     		add	r3, r3, ip
 1555 00b2 1A88     		ldrh	r2, [r3]
 1556 00b4 4549     		ldr	r1, .L90+20
 1557 00b6 1140     		ands	r1, r2
 1558              	.LVL110:
 1559 00b8 424A     		ldr	r2, .L90+12
 1560 00ba 0A43     		orrs	r2, r1
 1561 00bc 1A80     		strh	r2, [r3]
 1562 00be D8E7     		b	.L81
 1563              	.LVL111:
 1564              	.L78:
 1565              	.LBE13:
 795:Drivers/STM32F0xx_HAL_Driver/Src/stm32f0xx_hal_pcd.c ****     {
 1566              		.loc 1 795 0
 1567 00c0 5A78     		ldrb	r2, [r3, #1]
 1568 00c2 002A     		cmp	r2, #0
 1569 00c4 3AD1     		bne	.L83
 798:Drivers/STM32F0xx_HAL_Driver/Src/stm32f0xx_hal_pcd.c ****       PCD_CLEAR_TX_DTOG(hpcd->Instance, ep->num)
 1570              		.loc 1 798 0
 1571 00c6 1A78     		ldrb	r2, [r3]
 1572 00c8 9200     		lsls	r2, r2, #2
 1573 00ca 0168     		ldr	r1, [r0]
 1574 00cc 8C46     		mov	ip, r1
 1575 00ce 6244     		add	r2, r2, ip
 1576 00d0 1188     		ldrh	r1, [r2]
 1577 00d2 4C04     		lsls	r4, r1, #17
 1578 00d4 04D5     		bpl	.L84
 798:Drivers/STM32F0xx_HAL_Driver/Src/stm32f0xx_hal_pcd.c ****       PCD_CLEAR_TX_DTOG(hpcd->Instance, ep->num)
 1579              		.loc 1 798 0 is_stmt 0 discriminator 1
 1580 00d6 384C     		ldr	r4, .L90
ARM GAS  /tmp/ccVfu67b.s 			page 44


 1581 00d8 2140     		ands	r1, r4
 1582 00da 3B4C     		ldr	r4, .L90+16
 1583 00dc 2143     		orrs	r1, r4
 1584 00de 1180     		strh	r1, [r2]
 1585              	.L84:
 799:Drivers/STM32F0xx_HAL_Driver/Src/stm32f0xx_hal_pcd.c ****       
 1586              		.loc 1 799 0 is_stmt 1
 1587 00e0 1A78     		ldrb	r2, [r3]
 1588 00e2 9200     		lsls	r2, r2, #2
 1589 00e4 0168     		ldr	r1, [r0]
 1590 00e6 8C46     		mov	ip, r1
 1591 00e8 6244     		add	r2, r2, ip
 1592 00ea 1188     		ldrh	r1, [r2]
 1593 00ec 4C06     		lsls	r4, r1, #25
 1594 00ee 04D5     		bpl	.L85
 799:Drivers/STM32F0xx_HAL_Driver/Src/stm32f0xx_hal_pcd.c ****       
 1595              		.loc 1 799 0 is_stmt 0 discriminator 1
 1596 00f0 314C     		ldr	r4, .L90
 1597 00f2 2140     		ands	r1, r4
 1598 00f4 314C     		ldr	r4, .L90+4
 1599 00f6 2143     		orrs	r1, r4
 1600 00f8 1180     		strh	r1, [r2]
 1601              	.L85:
 802:Drivers/STM32F0xx_HAL_Driver/Src/stm32f0xx_hal_pcd.c ****       
 1602              		.loc 1 802 0 is_stmt 1
 1603 00fa 1A78     		ldrb	r2, [r3]
 1604 00fc 9200     		lsls	r2, r2, #2
 1605 00fe 0168     		ldr	r1, [r0]
 1606 0100 8C46     		mov	ip, r1
 1607 0102 6244     		add	r2, r2, ip
 1608 0104 1188     		ldrh	r1, [r2]
 1609 0106 2C4C     		ldr	r4, .L90
 1610 0108 0C40     		ands	r4, r1
 1611 010a 2C49     		ldr	r1, .L90+4
 1612 010c 2143     		orrs	r1, r4
 1613 010e 1180     		strh	r1, [r2]
 1614              	.LBB14:
 804:Drivers/STM32F0xx_HAL_Driver/Src/stm32f0xx_hal_pcd.c ****       PCD_SET_EP_TX_STATUS(hpcd->Instance, ep->num, USB_EP_TX_DIS)
 1615              		.loc 1 804 0
 1616 0110 1C78     		ldrb	r4, [r3]
 1617 0112 A400     		lsls	r4, r4, #2
 1618 0114 0268     		ldr	r2, [r0]
 1619 0116 9446     		mov	ip, r2
 1620 0118 6444     		add	r4, r4, ip
 1621 011a 2288     		ldrh	r2, [r4]
 1622 011c 2B49     		ldr	r1, .L90+20
 1623 011e 0A40     		ands	r2, r1
 1624              	.LVL112:
 1625 0120 2849     		ldr	r1, .L90+12
 1626 0122 0A43     		orrs	r2, r1
 1627              	.LVL113:
 1628 0124 2280     		strh	r2, [r4]
 1629              	.LVL114:
 1630              	.LBE14:
 1631              	.LBB15:
 805:Drivers/STM32F0xx_HAL_Driver/Src/stm32f0xx_hal_pcd.c ****     }
 1632              		.loc 1 805 0
ARM GAS  /tmp/ccVfu67b.s 			page 45


 1633 0126 1B78     		ldrb	r3, [r3]
 1634              	.LVL115:
 1635 0128 9B00     		lsls	r3, r3, #2
 1636 012a 0268     		ldr	r2, [r0]
 1637 012c 9446     		mov	ip, r2
 1638 012e 6344     		add	r3, r3, ip
 1639 0130 1A88     		ldrh	r2, [r3]
 1640 0132 234C     		ldr	r4, .L90+8
 1641 0134 2240     		ands	r2, r4
 1642              	.LVL116:
 1643 0136 1143     		orrs	r1, r2
 1644 0138 1980     		strh	r1, [r3]
 1645              	.LBE15:
 1646 013a 9AE7     		b	.L81
 1647              	.LVL117:
 1648              	.L83:
 810:Drivers/STM32F0xx_HAL_Driver/Src/stm32f0xx_hal_pcd.c ****       PCD_CLEAR_TX_DTOG(hpcd->Instance, ep->num)
 1649              		.loc 1 810 0
 1650 013c 1A78     		ldrb	r2, [r3]
 1651 013e 9200     		lsls	r2, r2, #2
 1652 0140 0168     		ldr	r1, [r0]
 1653 0142 8C46     		mov	ip, r1
 1654 0144 6244     		add	r2, r2, ip
 1655 0146 1188     		ldrh	r1, [r2]
 1656 0148 4C04     		lsls	r4, r1, #17
 1657 014a 04D5     		bpl	.L86
 810:Drivers/STM32F0xx_HAL_Driver/Src/stm32f0xx_hal_pcd.c ****       PCD_CLEAR_TX_DTOG(hpcd->Instance, ep->num)
 1658              		.loc 1 810 0 is_stmt 0 discriminator 1
 1659 014c 1A4C     		ldr	r4, .L90
 1660 014e 2140     		ands	r1, r4
 1661 0150 1D4C     		ldr	r4, .L90+16
 1662 0152 2143     		orrs	r1, r4
 1663 0154 1180     		strh	r1, [r2]
 1664              	.L86:
 811:Drivers/STM32F0xx_HAL_Driver/Src/stm32f0xx_hal_pcd.c ****       PCD_RX_DTOG(hpcd->Instance, ep->num);
 1665              		.loc 1 811 0 is_stmt 1
 1666 0156 1A78     		ldrb	r2, [r3]
 1667 0158 9200     		lsls	r2, r2, #2
 1668 015a 0168     		ldr	r1, [r0]
 1669 015c 8C46     		mov	ip, r1
 1670 015e 6244     		add	r2, r2, ip
 1671 0160 1188     		ldrh	r1, [r2]
 1672 0162 4C06     		lsls	r4, r1, #25
 1673 0164 04D5     		bpl	.L87
 811:Drivers/STM32F0xx_HAL_Driver/Src/stm32f0xx_hal_pcd.c ****       PCD_RX_DTOG(hpcd->Instance, ep->num);
 1674              		.loc 1 811 0 is_stmt 0 discriminator 1
 1675 0166 144C     		ldr	r4, .L90
 1676 0168 2140     		ands	r1, r4
 1677 016a 144C     		ldr	r4, .L90+4
 1678 016c 2143     		orrs	r1, r4
 1679 016e 1180     		strh	r1, [r2]
 1680              	.L87:
 812:Drivers/STM32F0xx_HAL_Driver/Src/stm32f0xx_hal_pcd.c ****       /* Configure DISABLE status for the Endpoint*/
 1681              		.loc 1 812 0 is_stmt 1
 1682 0170 1A78     		ldrb	r2, [r3]
 1683 0172 9200     		lsls	r2, r2, #2
 1684 0174 0168     		ldr	r1, [r0]
ARM GAS  /tmp/ccVfu67b.s 			page 46


 1685 0176 8C46     		mov	ip, r1
 1686 0178 6244     		add	r2, r2, ip
 1687 017a 1188     		ldrh	r1, [r2]
 1688 017c 0E4C     		ldr	r4, .L90
 1689 017e 0C40     		ands	r4, r1
 1690 0180 1149     		ldr	r1, .L90+16
 1691 0182 2143     		orrs	r1, r4
 1692 0184 1180     		strh	r1, [r2]
 1693              	.LBB16:
 814:Drivers/STM32F0xx_HAL_Driver/Src/stm32f0xx_hal_pcd.c ****       PCD_SET_EP_RX_STATUS(hpcd->Instance, ep->num, USB_EP_RX_DIS)
 1694              		.loc 1 814 0
 1695 0186 1C78     		ldrb	r4, [r3]
 1696 0188 A400     		lsls	r4, r4, #2
 1697 018a 0268     		ldr	r2, [r0]
 1698 018c 9446     		mov	ip, r2
 1699 018e 6444     		add	r4, r4, ip
 1700 0190 2288     		ldrh	r2, [r4]
 1701 0192 0B49     		ldr	r1, .L90+8
 1702 0194 0A40     		ands	r2, r1
 1703              	.LVL118:
 1704 0196 0B49     		ldr	r1, .L90+12
 1705 0198 0A43     		orrs	r2, r1
 1706              	.LVL119:
 1707 019a 2280     		strh	r2, [r4]
 1708              	.LVL120:
 1709              	.LBE16:
 1710              	.LBB17:
 815:Drivers/STM32F0xx_HAL_Driver/Src/stm32f0xx_hal_pcd.c ****     }
 1711              		.loc 1 815 0
 1712 019c 1B78     		ldrb	r3, [r3]
 1713              	.LVL121:
 1714 019e 9B00     		lsls	r3, r3, #2
 1715 01a0 0268     		ldr	r2, [r0]
 1716 01a2 9446     		mov	ip, r2
 1717 01a4 6344     		add	r3, r3, ip
 1718 01a6 1A88     		ldrh	r2, [r3]
 1719 01a8 084C     		ldr	r4, .L90+20
 1720 01aa 2240     		ands	r2, r4
 1721              	.LVL122:
 1722 01ac 1143     		orrs	r1, r2
 1723 01ae 1980     		strh	r1, [r3]
 1724 01b0 5FE7     		b	.L81
 1725              	.LVL123:
 1726              	.L88:
 1727              	.LBE17:
 775:Drivers/STM32F0xx_HAL_Driver/Src/stm32f0xx_hal_pcd.c **** 
 1728              		.loc 1 775 0
 1729 01b2 0220     		movs	r0, #2
 1730              	.LVL124:
 1731 01b4 62E7     		b	.L77
 1732              	.L91:
 1733 01b6 C046     		.align	2
 1734              	.L90:
 1735 01b8 0F0F0000 		.word	3855
 1736 01bc C080FFFF 		.word	-32576
 1737 01c0 BF8FFFFF 		.word	-28737
 1738 01c4 8080FFFF 		.word	-32640
ARM GAS  /tmp/ccVfu67b.s 			page 47


 1739 01c8 80C0FFFF 		.word	-16256
 1740 01cc 8FBFFFFF 		.word	-16497
 1741              		.cfi_endproc
 1742              	.LFE59:
 1744              		.section	.text.HAL_PCD_EP_Receive,"ax",%progbits
 1745              		.align	1
 1746              		.global	HAL_PCD_EP_Receive
 1747              		.syntax unified
 1748              		.code	16
 1749              		.thumb_func
 1750              		.fpu softvfp
 1752              	HAL_PCD_EP_Receive:
 1753              	.LFB60:
 822:Drivers/STM32F0xx_HAL_Driver/Src/stm32f0xx_hal_pcd.c **** 
 823:Drivers/STM32F0xx_HAL_Driver/Src/stm32f0xx_hal_pcd.c **** 
 824:Drivers/STM32F0xx_HAL_Driver/Src/stm32f0xx_hal_pcd.c **** /**
 825:Drivers/STM32F0xx_HAL_Driver/Src/stm32f0xx_hal_pcd.c ****   * @brief  Receive an amount of data  
 826:Drivers/STM32F0xx_HAL_Driver/Src/stm32f0xx_hal_pcd.c ****   * @param  hpcd PCD handle
 827:Drivers/STM32F0xx_HAL_Driver/Src/stm32f0xx_hal_pcd.c ****   * @param  ep_addr endpoint address
 828:Drivers/STM32F0xx_HAL_Driver/Src/stm32f0xx_hal_pcd.c ****   * @param  pBuf pointer to the reception buffer   
 829:Drivers/STM32F0xx_HAL_Driver/Src/stm32f0xx_hal_pcd.c ****   * @param  len amount of data to be received
 830:Drivers/STM32F0xx_HAL_Driver/Src/stm32f0xx_hal_pcd.c ****   * @retval HAL status
 831:Drivers/STM32F0xx_HAL_Driver/Src/stm32f0xx_hal_pcd.c ****   */
 832:Drivers/STM32F0xx_HAL_Driver/Src/stm32f0xx_hal_pcd.c **** HAL_StatusTypeDef HAL_PCD_EP_Receive(PCD_HandleTypeDef *hpcd, uint8_t ep_addr, uint8_t *pBuf, uint3
 833:Drivers/STM32F0xx_HAL_Driver/Src/stm32f0xx_hal_pcd.c **** {
 1754              		.loc 1 833 0
 1755              		.cfi_startproc
 1756              		@ args = 0, pretend = 0, frame = 0
 1757              		@ frame_needed = 0, uses_anonymous_args = 0
 1758              	.LVL125:
 1759 0000 70B5     		push	{r4, r5, r6, lr}
 1760              	.LCFI7:
 1761              		.cfi_def_cfa_offset 16
 1762              		.cfi_offset 4, -16
 1763              		.cfi_offset 5, -12
 1764              		.cfi_offset 6, -8
 1765              		.cfi_offset 14, -4
 1766 0002 7F24     		movs	r4, #127
 1767 0004 2140     		ands	r1, r4
 1768              	.LVL126:
 834:Drivers/STM32F0xx_HAL_Driver/Src/stm32f0xx_hal_pcd.c ****   
 835:Drivers/STM32F0xx_HAL_Driver/Src/stm32f0xx_hal_pcd.c ****  PCD_EPTypeDef *ep;
 836:Drivers/STM32F0xx_HAL_Driver/Src/stm32f0xx_hal_pcd.c ****   
 837:Drivers/STM32F0xx_HAL_Driver/Src/stm32f0xx_hal_pcd.c ****   ep = &hpcd->OUT_ep[ep_addr & 0x7FU];
 838:Drivers/STM32F0xx_HAL_Driver/Src/stm32f0xx_hal_pcd.c ****   
 839:Drivers/STM32F0xx_HAL_Driver/Src/stm32f0xx_hal_pcd.c ****   /*setup and start the Xfer */
 840:Drivers/STM32F0xx_HAL_Driver/Src/stm32f0xx_hal_pcd.c ****   ep->xfer_buff = pBuf;  
 1769              		.loc 1 840 0
 1770 0006 CD00     		lsls	r5, r1, #3
 1771 0008 6D1A     		subs	r5, r5, r1
 1772 000a AC00     		lsls	r4, r5, #2
 1773 000c 0419     		adds	r4, r0, r4
 1774 000e 2500     		movs	r5, r4
 1775 0010 1935     		adds	r5, r5, #25
 1776 0012 FF35     		adds	r5, r5, #255
 1777 0014 2A60     		str	r2, [r5]
 841:Drivers/STM32F0xx_HAL_Driver/Src/stm32f0xx_hal_pcd.c ****   ep->xfer_len = len;
ARM GAS  /tmp/ccVfu67b.s 			page 48


 1778              		.loc 1 841 0
 1779 0016 2200     		movs	r2, r4
 1780              	.LVL127:
 1781 0018 1D32     		adds	r2, r2, #29
 1782 001a FF32     		adds	r2, r2, #255
 1783 001c 1360     		str	r3, [r2]
 842:Drivers/STM32F0xx_HAL_Driver/Src/stm32f0xx_hal_pcd.c ****   ep->xfer_count = 0U;
 1784              		.loc 1 842 0
 1785 001e 0835     		adds	r5, r5, #8
 1786              	.LVL128:
 1787 0020 0022     		movs	r2, #0
 1788 0022 2A60     		str	r2, [r5]
 843:Drivers/STM32F0xx_HAL_Driver/Src/stm32f0xx_hal_pcd.c ****   ep->is_in = 0U;
 1789              		.loc 1 843 0
 1790 0024 173D     		subs	r5, r5, #23
 1791              	.LVL129:
 1792 0026 2A70     		strb	r2, [r5]
 844:Drivers/STM32F0xx_HAL_Driver/Src/stm32f0xx_hal_pcd.c ****   ep->num = ep_addr & 0x7FU;
 1793              		.loc 1 844 0
 1794 0028 2200     		movs	r2, r4
 1795 002a 0932     		adds	r2, r2, #9
 1796 002c FF32     		adds	r2, r2, #255
 1797 002e 1170     		strb	r1, [r2]
 845:Drivers/STM32F0xx_HAL_Driver/Src/stm32f0xx_hal_pcd.c ****    
 846:Drivers/STM32F0xx_HAL_Driver/Src/stm32f0xx_hal_pcd.c ****   /* Multi packet transfer*/
 847:Drivers/STM32F0xx_HAL_Driver/Src/stm32f0xx_hal_pcd.c ****   if (ep->xfer_len > ep->maxpacket)
 1798              		.loc 1 847 0
 1799 0030 1534     		adds	r4, r4, #21
 1800 0032 FF34     		adds	r4, r4, #255
 1801 0034 2268     		ldr	r2, [r4]
 1802 0036 9342     		cmp	r3, r2
 1803 0038 40D9     		bls	.L93
 1804              	.LVL130:
 848:Drivers/STM32F0xx_HAL_Driver/Src/stm32f0xx_hal_pcd.c ****   {
 849:Drivers/STM32F0xx_HAL_Driver/Src/stm32f0xx_hal_pcd.c ****     len=ep->maxpacket;
 850:Drivers/STM32F0xx_HAL_Driver/Src/stm32f0xx_hal_pcd.c ****     ep->xfer_len-=len; 
 1805              		.loc 1 850 0
 1806 003a CD00     		lsls	r5, r1, #3
 1807              	.LVL131:
 1808 003c 6D1A     		subs	r5, r5, r1
 1809 003e AC00     		lsls	r4, r5, #2
 1810              	.LVL132:
 1811 0040 0419     		adds	r4, r0, r4
 1812              	.LVL133:
 1813 0042 1D34     		adds	r4, r4, #29
 1814              	.LVL134:
 1815 0044 FF34     		adds	r4, r4, #255
 1816              	.LVL135:
 1817 0046 9B1A     		subs	r3, r3, r2
 1818 0048 2360     		str	r3, [r4]
 1819              	.LVL136:
 1820              	.L94:
 851:Drivers/STM32F0xx_HAL_Driver/Src/stm32f0xx_hal_pcd.c ****   }
 852:Drivers/STM32F0xx_HAL_Driver/Src/stm32f0xx_hal_pcd.c ****   else
 853:Drivers/STM32F0xx_HAL_Driver/Src/stm32f0xx_hal_pcd.c ****   {
 854:Drivers/STM32F0xx_HAL_Driver/Src/stm32f0xx_hal_pcd.c ****     len=ep->xfer_len;
 855:Drivers/STM32F0xx_HAL_Driver/Src/stm32f0xx_hal_pcd.c ****     ep->xfer_len =0U;
ARM GAS  /tmp/ccVfu67b.s 			page 49


 856:Drivers/STM32F0xx_HAL_Driver/Src/stm32f0xx_hal_pcd.c ****   }
 857:Drivers/STM32F0xx_HAL_Driver/Src/stm32f0xx_hal_pcd.c ****   
 858:Drivers/STM32F0xx_HAL_Driver/Src/stm32f0xx_hal_pcd.c ****   /* configure and validate Rx endpoint */
 859:Drivers/STM32F0xx_HAL_Driver/Src/stm32f0xx_hal_pcd.c ****   if (ep->doublebuffer == 0) 
 1821              		.loc 1 859 0
 1822 004a CC00     		lsls	r4, r1, #3
 1823 004c 641A     		subs	r4, r4, r1
 1824 004e A300     		lsls	r3, r4, #2
 1825 0050 1C00     		movs	r4, r3
 1826 0052 C318     		adds	r3, r0, r3
 1827 0054 1333     		adds	r3, r3, #19
 1828 0056 FF33     		adds	r3, r3, #255
 1829 0058 1B78     		ldrb	r3, [r3]
 1830 005a 002B     		cmp	r3, #0
 1831 005c 41D1     		bne	.L95
 1832              	.LBB18:
 860:Drivers/STM32F0xx_HAL_Driver/Src/stm32f0xx_hal_pcd.c ****   {
 861:Drivers/STM32F0xx_HAL_Driver/Src/stm32f0xx_hal_pcd.c ****     /*Set RX buffer count*/
 862:Drivers/STM32F0xx_HAL_Driver/Src/stm32f0xx_hal_pcd.c ****     PCD_SET_EP_RX_CNT(hpcd->Instance, ep->num, len)
 1833              		.loc 1 862 0
 1834 005e 0568     		ldr	r5, [r0]
 1835 0060 5033     		adds	r3, r3, #80
 1836 0062 EB5A     		ldrh	r3, [r5, r3]
 1837 0064 0419     		adds	r4, r0, r4
 1838 0066 0934     		adds	r4, r4, #9
 1839 0068 FF34     		adds	r4, r4, #255
 1840 006a 2478     		ldrb	r4, [r4]
 1841 006c E400     		lsls	r4, r4, #3
 1842 006e 1B19     		adds	r3, r3, r4
 1843 0070 5B19     		adds	r3, r3, r5
 1844 0072 5E4C     		ldr	r4, .L110
 1845 0074 A446     		mov	ip, r4
 1846 0076 6344     		add	r3, r3, ip
 1847              	.LVL137:
 1848              	.LBB19:
 1849 0078 3E2A     		cmp	r2, #62
 1850 007a 29D9     		bls	.L96
 1851              		.loc 1 862 0 is_stmt 0 discriminator 1
 1852 007c 5409     		lsrs	r4, r2, #5
 1853 007e A4B2     		uxth	r4, r4
 1854              	.LVL138:
 1855 0080 D206     		lsls	r2, r2, #27
 1856 0082 01D1     		bne	.L97
 1857              	.LVL139:
 1858              		.loc 1 862 0 discriminator 3
 1859 0084 013C     		subs	r4, r4, #1
 1860              	.LVL140:
 1861 0086 A4B2     		uxth	r4, r4
 1862              	.LVL141:
 1863              	.L97:
 1864              		.loc 1 862 0 discriminator 5
 1865 0088 A402     		lsls	r4, r4, #10
 1866              	.LVL142:
 1867 008a A4B2     		uxth	r4, r4
 1868 008c 584A     		ldr	r2, .L110+4
 1869 008e 1443     		orrs	r4, r2
 1870 0090 1C80     		strh	r4, [r3]
ARM GAS  /tmp/ccVfu67b.s 			page 50


 1871              	.LVL143:
 1872              	.L98:
 1873              	.LBE19:
 1874              	.LBE18:
 1875              	.LBB21:
 863:Drivers/STM32F0xx_HAL_Driver/Src/stm32f0xx_hal_pcd.c ****   }
 864:Drivers/STM32F0xx_HAL_Driver/Src/stm32f0xx_hal_pcd.c ****   else
 865:Drivers/STM32F0xx_HAL_Driver/Src/stm32f0xx_hal_pcd.c ****   {
 866:Drivers/STM32F0xx_HAL_Driver/Src/stm32f0xx_hal_pcd.c ****     /*Set the Double buffer counter*/
 867:Drivers/STM32F0xx_HAL_Driver/Src/stm32f0xx_hal_pcd.c ****     PCD_SET_EP_DBUF_CNT(hpcd->Instance, ep->num, ep->is_in, len)
 868:Drivers/STM32F0xx_HAL_Driver/Src/stm32f0xx_hal_pcd.c ****   } 
 869:Drivers/STM32F0xx_HAL_Driver/Src/stm32f0xx_hal_pcd.c ****   
 870:Drivers/STM32F0xx_HAL_Driver/Src/stm32f0xx_hal_pcd.c ****   PCD_SET_EP_RX_STATUS(hpcd->Instance, ep->num, USB_EP_RX_VALID)
 1876              		.loc 1 870 0 is_stmt 1
 1877 0092 0368     		ldr	r3, [r0]
 1878 0094 CA00     		lsls	r2, r1, #3
 1879 0096 511A     		subs	r1, r2, r1
 1880              	.LVL144:
 1881 0098 8A00     		lsls	r2, r1, #2
 1882 009a 8018     		adds	r0, r0, r2
 1883              	.LVL145:
 1884 009c 0930     		adds	r0, r0, #9
 1885 009e FF30     		adds	r0, r0, #255
 1886 00a0 0278     		ldrb	r2, [r0]
 1887 00a2 9200     		lsls	r2, r2, #2
 1888 00a4 9B18     		adds	r3, r3, r2
 1889 00a6 1988     		ldrh	r1, [r3]
 1890 00a8 524A     		ldr	r2, .L110+8
 1891 00aa 1140     		ands	r1, r2
 1892              	.LVL146:
 1893 00ac C022     		movs	r2, #192
 1894 00ae 9201     		lsls	r2, r2, #6
 1895 00b0 5140     		eors	r1, r2
 1896              	.LVL147:
 1897 00b2 514A     		ldr	r2, .L110+12
 1898 00b4 0A43     		orrs	r2, r1
 1899 00b6 1A80     		strh	r2, [r3]
 1900              	.LBE21:
 871:Drivers/STM32F0xx_HAL_Driver/Src/stm32f0xx_hal_pcd.c ****   
 872:Drivers/STM32F0xx_HAL_Driver/Src/stm32f0xx_hal_pcd.c ****   return HAL_OK;
 873:Drivers/STM32F0xx_HAL_Driver/Src/stm32f0xx_hal_pcd.c **** }
 1901              		.loc 1 873 0
 1902 00b8 0020     		movs	r0, #0
 1903              		@ sp needed
 1904 00ba 70BD     		pop	{r4, r5, r6, pc}
 1905              	.LVL148:
 1906              	.L93:
 855:Drivers/STM32F0xx_HAL_Driver/Src/stm32f0xx_hal_pcd.c ****   }
 1907              		.loc 1 855 0
 1908 00bc CC00     		lsls	r4, r1, #3
 1909 00be 641A     		subs	r4, r4, r1
 1910 00c0 A200     		lsls	r2, r4, #2
 1911 00c2 8218     		adds	r2, r0, r2
 1912 00c4 1D32     		adds	r2, r2, #29
 1913 00c6 FF32     		adds	r2, r2, #255
 1914 00c8 0024     		movs	r4, #0
 1915 00ca 1460     		str	r4, [r2]
ARM GAS  /tmp/ccVfu67b.s 			page 51


 1916              	.LVL149:
 854:Drivers/STM32F0xx_HAL_Driver/Src/stm32f0xx_hal_pcd.c ****     ep->xfer_len =0U;
 1917              		.loc 1 854 0
 1918 00cc 1A00     		movs	r2, r3
 1919 00ce BCE7     		b	.L94
 1920              	.LVL150:
 1921              	.L96:
 1922              	.LBB22:
 1923              	.LBB20:
 862:Drivers/STM32F0xx_HAL_Driver/Src/stm32f0xx_hal_pcd.c ****   }
 1924              		.loc 1 862 0 discriminator 2
 1925 00d0 5408     		lsrs	r4, r2, #1
 1926 00d2 A4B2     		uxth	r4, r4
 1927              	.LVL151:
 1928 00d4 D207     		lsls	r2, r2, #31
 1929 00d6 01D5     		bpl	.L99
 1930              	.LVL152:
 862:Drivers/STM32F0xx_HAL_Driver/Src/stm32f0xx_hal_pcd.c ****   }
 1931              		.loc 1 862 0 is_stmt 0 discriminator 6
 1932 00d8 0134     		adds	r4, r4, #1
 1933              	.LVL153:
 1934 00da A4B2     		uxth	r4, r4
 1935              	.LVL154:
 1936              	.L99:
 862:Drivers/STM32F0xx_HAL_Driver/Src/stm32f0xx_hal_pcd.c ****   }
 1937              		.loc 1 862 0 discriminator 8
 1938 00dc A402     		lsls	r4, r4, #10
 1939              	.LVL155:
 1940 00de 1C80     		strh	r4, [r3]
 1941 00e0 D7E7     		b	.L98
 1942              	.LVL156:
 1943              	.L95:
 1944              	.LBE20:
 1945              	.LBE22:
 867:Drivers/STM32F0xx_HAL_Driver/Src/stm32f0xx_hal_pcd.c ****   } 
 1946              		.loc 1 867 0 is_stmt 1
 1947 00e2 CC00     		lsls	r4, r1, #3
 1948 00e4 641A     		subs	r4, r4, r1
 1949 00e6 A300     		lsls	r3, r4, #2
 1950 00e8 1C00     		movs	r4, r3
 1951 00ea C318     		adds	r3, r0, r3
 1952 00ec 0A33     		adds	r3, r3, #10
 1953 00ee FF33     		adds	r3, r3, #255
 1954 00f0 1B78     		ldrb	r3, [r3]
 1955 00f2 002B     		cmp	r3, #0
 1956 00f4 23D1     		bne	.L100
 1957              	.LBB23:
 867:Drivers/STM32F0xx_HAL_Driver/Src/stm32f0xx_hal_pcd.c ****   } 
 1958              		.loc 1 867 0 is_stmt 0 discriminator 1
 1959 00f6 0568     		ldr	r5, [r0]
 1960 00f8 5033     		adds	r3, r3, #80
 1961 00fa EB5A     		ldrh	r3, [r5, r3]
 1962 00fc 0419     		adds	r4, r0, r4
 1963 00fe 0934     		adds	r4, r4, #9
 1964 0100 FF34     		adds	r4, r4, #255
 1965 0102 2478     		ldrb	r4, [r4]
 1966 0104 E400     		lsls	r4, r4, #3
ARM GAS  /tmp/ccVfu67b.s 			page 52


 1967 0106 1B19     		adds	r3, r3, r4
 1968 0108 5B19     		adds	r3, r3, r5
 1969 010a 3C4C     		ldr	r4, .L110+16
 1970 010c A446     		mov	ip, r4
 1971 010e 6344     		add	r3, r3, ip
 1972              	.LVL157:
 1973              	.LBB24:
 1974 0110 3E2A     		cmp	r2, #62
 1975 0112 0BD9     		bls	.L101
 867:Drivers/STM32F0xx_HAL_Driver/Src/stm32f0xx_hal_pcd.c ****   } 
 1976              		.loc 1 867 0 discriminator 3
 1977 0114 5409     		lsrs	r4, r2, #5
 1978 0116 A4B2     		uxth	r4, r4
 1979              	.LVL158:
 1980 0118 D506     		lsls	r5, r2, #27
 1981 011a 01D1     		bne	.L102
 867:Drivers/STM32F0xx_HAL_Driver/Src/stm32f0xx_hal_pcd.c ****   } 
 1982              		.loc 1 867 0 discriminator 5
 1983 011c 013C     		subs	r4, r4, #1
 1984              	.LVL159:
 1985 011e A4B2     		uxth	r4, r4
 1986              	.LVL160:
 1987              	.L102:
 867:Drivers/STM32F0xx_HAL_Driver/Src/stm32f0xx_hal_pcd.c ****   } 
 1988              		.loc 1 867 0 discriminator 7
 1989 0120 A402     		lsls	r4, r4, #10
 1990              	.LVL161:
 1991 0122 A4B2     		uxth	r4, r4
 1992 0124 324D     		ldr	r5, .L110+4
 1993 0126 2C43     		orrs	r4, r5
 1994 0128 1C80     		strh	r4, [r3]
 1995 012a 0AE0     		b	.L103
 1996              	.L101:
 867:Drivers/STM32F0xx_HAL_Driver/Src/stm32f0xx_hal_pcd.c ****   } 
 1997              		.loc 1 867 0 discriminator 4
 1998 012c 5408     		lsrs	r4, r2, #1
 1999 012e A4B2     		uxth	r4, r4
 2000              	.LVL162:
 2001 0130 D507     		lsls	r5, r2, #31
 2002 0132 01D5     		bpl	.L104
 867:Drivers/STM32F0xx_HAL_Driver/Src/stm32f0xx_hal_pcd.c ****   } 
 2003              		.loc 1 867 0 discriminator 8
 2004 0134 0134     		adds	r4, r4, #1
 2005              	.LVL163:
 2006 0136 A4B2     		uxth	r4, r4
 2007              	.LVL164:
 2008              	.L104:
 867:Drivers/STM32F0xx_HAL_Driver/Src/stm32f0xx_hal_pcd.c ****   } 
 2009              		.loc 1 867 0 discriminator 10
 2010 0138 A402     		lsls	r4, r4, #10
 2011              	.LVL165:
 2012 013a 1C80     		strh	r4, [r3]
 2013 013c 01E0     		b	.L103
 2014              	.LVL166:
 2015              	.L100:
 2016              	.LBE24:
 2017              	.LBE23:
ARM GAS  /tmp/ccVfu67b.s 			page 53


 867:Drivers/STM32F0xx_HAL_Driver/Src/stm32f0xx_hal_pcd.c ****   } 
 2018              		.loc 1 867 0 discriminator 2
 2019 013e 012B     		cmp	r3, #1
 2020 0140 24D0     		beq	.L109
 2021              	.L103:
 867:Drivers/STM32F0xx_HAL_Driver/Src/stm32f0xx_hal_pcd.c ****   } 
 2022              		.loc 1 867 0 discriminator 13
 2023 0142 CC00     		lsls	r4, r1, #3
 2024 0144 641A     		subs	r4, r4, r1
 2025 0146 A300     		lsls	r3, r4, #2
 2026 0148 1C00     		movs	r4, r3
 2027 014a C318     		adds	r3, r0, r3
 2028 014c 0A33     		adds	r3, r3, #10
 2029 014e FF33     		adds	r3, r3, #255
 2030 0150 1B78     		ldrb	r3, [r3]
 2031 0152 002B     		cmp	r3, #0
 2032 0154 35D1     		bne	.L105
 2033              	.LBB25:
 867:Drivers/STM32F0xx_HAL_Driver/Src/stm32f0xx_hal_pcd.c ****   } 
 2034              		.loc 1 867 0 discriminator 14
 2035 0156 0568     		ldr	r5, [r0]
 2036 0158 5033     		adds	r3, r3, #80
 2037 015a EB5A     		ldrh	r3, [r5, r3]
 2038 015c 0419     		adds	r4, r0, r4
 2039 015e 0934     		adds	r4, r4, #9
 2040 0160 FF34     		adds	r4, r4, #255
 2041 0162 2478     		ldrb	r4, [r4]
 2042 0164 E400     		lsls	r4, r4, #3
 2043 0166 1B19     		adds	r3, r3, r4
 2044 0168 5B19     		adds	r3, r3, r5
 2045 016a 204C     		ldr	r4, .L110
 2046 016c A446     		mov	ip, r4
 2047 016e 6344     		add	r3, r3, ip
 2048              	.LVL167:
 2049              	.LBB26:
 2050 0170 3E2A     		cmp	r2, #62
 2051 0172 1DD9     		bls	.L106
 867:Drivers/STM32F0xx_HAL_Driver/Src/stm32f0xx_hal_pcd.c ****   } 
 2052              		.loc 1 867 0 discriminator 16
 2053 0174 5409     		lsrs	r4, r2, #5
 2054 0176 A4B2     		uxth	r4, r4
 2055              	.LVL168:
 2056 0178 D206     		lsls	r2, r2, #27
 2057 017a 01D1     		bne	.L107
 2058              	.LVL169:
 867:Drivers/STM32F0xx_HAL_Driver/Src/stm32f0xx_hal_pcd.c ****   } 
 2059              		.loc 1 867 0 discriminator 18
 2060 017c 013C     		subs	r4, r4, #1
 2061              	.LVL170:
 2062 017e A4B2     		uxth	r4, r4
 2063              	.LVL171:
 2064              	.L107:
 867:Drivers/STM32F0xx_HAL_Driver/Src/stm32f0xx_hal_pcd.c ****   } 
 2065              		.loc 1 867 0 discriminator 20
 2066 0180 A402     		lsls	r4, r4, #10
 2067              	.LVL172:
 2068 0182 A4B2     		uxth	r4, r4
ARM GAS  /tmp/ccVfu67b.s 			page 54


 2069 0184 1A4A     		ldr	r2, .L110+4
 2070 0186 1443     		orrs	r4, r2
 2071 0188 1C80     		strh	r4, [r3]
 2072 018a 82E7     		b	.L98
 2073              	.LVL173:
 2074              	.L109:
 2075              	.LBE26:
 2076              	.LBE25:
 867:Drivers/STM32F0xx_HAL_Driver/Src/stm32f0xx_hal_pcd.c ****   } 
 2077              		.loc 1 867 0 discriminator 11
 2078 018c 0568     		ldr	r5, [r0]
 2079 018e 4F33     		adds	r3, r3, #79
 2080 0190 EB5A     		ldrh	r3, [r5, r3]
 2081 0192 CE00     		lsls	r6, r1, #3
 2082 0194 761A     		subs	r6, r6, r1
 2083 0196 B400     		lsls	r4, r6, #2
 2084 0198 0419     		adds	r4, r0, r4
 2085 019a 0934     		adds	r4, r4, #9
 2086 019c FF34     		adds	r4, r4, #255
 2087 019e 2478     		ldrb	r4, [r4]
 2088 01a0 E400     		lsls	r4, r4, #3
 2089 01a2 1B19     		adds	r3, r3, r4
 2090 01a4 5B19     		adds	r3, r3, r5
 2091 01a6 154C     		ldr	r4, .L110+16
 2092 01a8 A446     		mov	ip, r4
 2093 01aa 6344     		add	r3, r3, ip
 2094 01ac 1A80     		strh	r2, [r3]
 2095 01ae C8E7     		b	.L103
 2096              	.LVL174:
 2097              	.L106:
 2098              	.LBB28:
 2099              	.LBB27:
 867:Drivers/STM32F0xx_HAL_Driver/Src/stm32f0xx_hal_pcd.c ****   } 
 2100              		.loc 1 867 0 discriminator 17
 2101 01b0 5408     		lsrs	r4, r2, #1
 2102 01b2 A4B2     		uxth	r4, r4
 2103              	.LVL175:
 2104 01b4 D207     		lsls	r2, r2, #31
 2105 01b6 01D5     		bpl	.L108
 2106              	.LVL176:
 867:Drivers/STM32F0xx_HAL_Driver/Src/stm32f0xx_hal_pcd.c ****   } 
 2107              		.loc 1 867 0 discriminator 21
 2108 01b8 0134     		adds	r4, r4, #1
 2109              	.LVL177:
 2110 01ba A4B2     		uxth	r4, r4
 2111              	.LVL178:
 2112              	.L108:
 867:Drivers/STM32F0xx_HAL_Driver/Src/stm32f0xx_hal_pcd.c ****   } 
 2113              		.loc 1 867 0 discriminator 23
 2114 01bc A402     		lsls	r4, r4, #10
 2115              	.LVL179:
 2116 01be 1C80     		strh	r4, [r3]
 2117 01c0 67E7     		b	.L98
 2118              	.LVL180:
 2119              	.L105:
 2120              	.LBE27:
 2121              	.LBE28:
ARM GAS  /tmp/ccVfu67b.s 			page 55


 867:Drivers/STM32F0xx_HAL_Driver/Src/stm32f0xx_hal_pcd.c ****   } 
 2122              		.loc 1 867 0 discriminator 15
 2123 01c2 012B     		cmp	r3, #1
 2124 01c4 00D0     		beq	.LCB2172
 2125 01c6 64E7     		b	.L98	@long jump
 2126              	.LCB2172:
 867:Drivers/STM32F0xx_HAL_Driver/Src/stm32f0xx_hal_pcd.c ****   } 
 2127              		.loc 1 867 0 discriminator 24
 2128 01c8 0568     		ldr	r5, [r0]
 2129 01ca 4F33     		adds	r3, r3, #79
 2130 01cc EB5A     		ldrh	r3, [r5, r3]
 2131 01ce CE00     		lsls	r6, r1, #3
 2132 01d0 761A     		subs	r6, r6, r1
 2133 01d2 B400     		lsls	r4, r6, #2
 2134 01d4 0419     		adds	r4, r0, r4
 2135 01d6 0934     		adds	r4, r4, #9
 2136 01d8 FF34     		adds	r4, r4, #255
 2137 01da 2478     		ldrb	r4, [r4]
 2138 01dc E400     		lsls	r4, r4, #3
 2139 01de 1B19     		adds	r3, r3, r4
 2140 01e0 5B19     		adds	r3, r3, r5
 2141 01e2 024C     		ldr	r4, .L110
 2142 01e4 A446     		mov	ip, r4
 2143 01e6 6344     		add	r3, r3, ip
 2144 01e8 1A80     		strh	r2, [r3]
 2145 01ea 52E7     		b	.L98
 2146              	.L111:
 2147              		.align	2
 2148              	.L110:
 2149 01ec 06040000 		.word	1030
 2150 01f0 0080FFFF 		.word	-32768
 2151 01f4 8FBFFFFF 		.word	-16497
 2152 01f8 8080FFFF 		.word	-32640
 2153 01fc 02040000 		.word	1026
 2154              		.cfi_endproc
 2155              	.LFE60:
 2157              		.section	.text.HAL_PCD_EP_GetRxCount,"ax",%progbits
 2158              		.align	1
 2159              		.global	HAL_PCD_EP_GetRxCount
 2160              		.syntax unified
 2161              		.code	16
 2162              		.thumb_func
 2163              		.fpu softvfp
 2165              	HAL_PCD_EP_GetRxCount:
 2166              	.LFB61:
 874:Drivers/STM32F0xx_HAL_Driver/Src/stm32f0xx_hal_pcd.c **** 
 875:Drivers/STM32F0xx_HAL_Driver/Src/stm32f0xx_hal_pcd.c **** /**
 876:Drivers/STM32F0xx_HAL_Driver/Src/stm32f0xx_hal_pcd.c ****   * @brief  Get Received Data Size
 877:Drivers/STM32F0xx_HAL_Driver/Src/stm32f0xx_hal_pcd.c ****   * @param  hpcd PCD handle
 878:Drivers/STM32F0xx_HAL_Driver/Src/stm32f0xx_hal_pcd.c ****   * @param  ep_addr endpoint address
 879:Drivers/STM32F0xx_HAL_Driver/Src/stm32f0xx_hal_pcd.c ****   * @retval Data Size
 880:Drivers/STM32F0xx_HAL_Driver/Src/stm32f0xx_hal_pcd.c ****   */
 881:Drivers/STM32F0xx_HAL_Driver/Src/stm32f0xx_hal_pcd.c **** uint16_t HAL_PCD_EP_GetRxCount(PCD_HandleTypeDef *hpcd, uint8_t ep_addr)
 882:Drivers/STM32F0xx_HAL_Driver/Src/stm32f0xx_hal_pcd.c **** {
 2167              		.loc 1 882 0 is_stmt 1
 2168              		.cfi_startproc
 2169              		@ args = 0, pretend = 0, frame = 0
ARM GAS  /tmp/ccVfu67b.s 			page 56


 2170              		@ frame_needed = 0, uses_anonymous_args = 0
 2171              		@ link register save eliminated.
 2172              	.LVL181:
 883:Drivers/STM32F0xx_HAL_Driver/Src/stm32f0xx_hal_pcd.c ****   return hpcd->OUT_ep[ep_addr & 0x7FU].xfer_count;
 2173              		.loc 1 883 0
 2174 0000 7F23     		movs	r3, #127
 2175 0002 1940     		ands	r1, r3
 2176              	.LVL182:
 2177 0004 CB00     		lsls	r3, r1, #3
 2178 0006 591A     		subs	r1, r3, r1
 2179 0008 8B00     		lsls	r3, r1, #2
 2180 000a C018     		adds	r0, r0, r3
 2181              	.LVL183:
 2182 000c 2130     		adds	r0, r0, #33
 2183 000e FF30     		adds	r0, r0, #255
 2184 0010 0088     		ldrh	r0, [r0]
 884:Drivers/STM32F0xx_HAL_Driver/Src/stm32f0xx_hal_pcd.c **** }
 2185              		.loc 1 884 0
 2186              		@ sp needed
 2187 0012 7047     		bx	lr
 2188              		.cfi_endproc
 2189              	.LFE61:
 2191              		.section	.text.HAL_PCD_EP_SetStall,"ax",%progbits
 2192              		.align	1
 2193              		.global	HAL_PCD_EP_SetStall
 2194              		.syntax unified
 2195              		.code	16
 2196              		.thumb_func
 2197              		.fpu softvfp
 2199              	HAL_PCD_EP_SetStall:
 2200              	.LFB63:
 885:Drivers/STM32F0xx_HAL_Driver/Src/stm32f0xx_hal_pcd.c **** /**
 886:Drivers/STM32F0xx_HAL_Driver/Src/stm32f0xx_hal_pcd.c ****   * @brief  Send an amount of data  
 887:Drivers/STM32F0xx_HAL_Driver/Src/stm32f0xx_hal_pcd.c ****   * @param  hpcd PCD handle
 888:Drivers/STM32F0xx_HAL_Driver/Src/stm32f0xx_hal_pcd.c ****   * @param  ep_addr endpoint address
 889:Drivers/STM32F0xx_HAL_Driver/Src/stm32f0xx_hal_pcd.c ****   * @param  pBuf pointer to the transmission buffer   
 890:Drivers/STM32F0xx_HAL_Driver/Src/stm32f0xx_hal_pcd.c ****   * @param  len amount of data to be sent
 891:Drivers/STM32F0xx_HAL_Driver/Src/stm32f0xx_hal_pcd.c ****   * @retval HAL status
 892:Drivers/STM32F0xx_HAL_Driver/Src/stm32f0xx_hal_pcd.c ****   */
 893:Drivers/STM32F0xx_HAL_Driver/Src/stm32f0xx_hal_pcd.c **** HAL_StatusTypeDef HAL_PCD_EP_Transmit(PCD_HandleTypeDef *hpcd, uint8_t ep_addr, uint8_t *pBuf, uint
 894:Drivers/STM32F0xx_HAL_Driver/Src/stm32f0xx_hal_pcd.c **** {
 895:Drivers/STM32F0xx_HAL_Driver/Src/stm32f0xx_hal_pcd.c ****   PCD_EPTypeDef *ep;
 896:Drivers/STM32F0xx_HAL_Driver/Src/stm32f0xx_hal_pcd.c ****   uint16_t pmabuffer = 0U;
 897:Drivers/STM32F0xx_HAL_Driver/Src/stm32f0xx_hal_pcd.c ****     
 898:Drivers/STM32F0xx_HAL_Driver/Src/stm32f0xx_hal_pcd.c ****   ep = &hpcd->IN_ep[ep_addr & 0x7FU];
 899:Drivers/STM32F0xx_HAL_Driver/Src/stm32f0xx_hal_pcd.c ****   
 900:Drivers/STM32F0xx_HAL_Driver/Src/stm32f0xx_hal_pcd.c ****   /*setup and start the Xfer */
 901:Drivers/STM32F0xx_HAL_Driver/Src/stm32f0xx_hal_pcd.c ****   ep->xfer_buff = pBuf;  
 902:Drivers/STM32F0xx_HAL_Driver/Src/stm32f0xx_hal_pcd.c ****   ep->xfer_len = len;
 903:Drivers/STM32F0xx_HAL_Driver/Src/stm32f0xx_hal_pcd.c ****   ep->xfer_count = 0U;
 904:Drivers/STM32F0xx_HAL_Driver/Src/stm32f0xx_hal_pcd.c ****   ep->is_in = 1U;
 905:Drivers/STM32F0xx_HAL_Driver/Src/stm32f0xx_hal_pcd.c ****   ep->num = ep_addr & 0x7FU;
 906:Drivers/STM32F0xx_HAL_Driver/Src/stm32f0xx_hal_pcd.c ****   
 907:Drivers/STM32F0xx_HAL_Driver/Src/stm32f0xx_hal_pcd.c ****   /*Multi packet transfer*/
 908:Drivers/STM32F0xx_HAL_Driver/Src/stm32f0xx_hal_pcd.c ****   if (ep->xfer_len > ep->maxpacket)
 909:Drivers/STM32F0xx_HAL_Driver/Src/stm32f0xx_hal_pcd.c ****   {
 910:Drivers/STM32F0xx_HAL_Driver/Src/stm32f0xx_hal_pcd.c ****     len=ep->maxpacket;
ARM GAS  /tmp/ccVfu67b.s 			page 57


 911:Drivers/STM32F0xx_HAL_Driver/Src/stm32f0xx_hal_pcd.c ****     ep->xfer_len-=len; 
 912:Drivers/STM32F0xx_HAL_Driver/Src/stm32f0xx_hal_pcd.c ****   }
 913:Drivers/STM32F0xx_HAL_Driver/Src/stm32f0xx_hal_pcd.c ****   else
 914:Drivers/STM32F0xx_HAL_Driver/Src/stm32f0xx_hal_pcd.c ****   {  
 915:Drivers/STM32F0xx_HAL_Driver/Src/stm32f0xx_hal_pcd.c ****     len=ep->xfer_len;
 916:Drivers/STM32F0xx_HAL_Driver/Src/stm32f0xx_hal_pcd.c ****     ep->xfer_len =0U;
 917:Drivers/STM32F0xx_HAL_Driver/Src/stm32f0xx_hal_pcd.c ****   }
 918:Drivers/STM32F0xx_HAL_Driver/Src/stm32f0xx_hal_pcd.c ****   
 919:Drivers/STM32F0xx_HAL_Driver/Src/stm32f0xx_hal_pcd.c ****   /* configure and validate Tx endpoint */
 920:Drivers/STM32F0xx_HAL_Driver/Src/stm32f0xx_hal_pcd.c ****   if (ep->doublebuffer == 0U) 
 921:Drivers/STM32F0xx_HAL_Driver/Src/stm32f0xx_hal_pcd.c ****   {
 922:Drivers/STM32F0xx_HAL_Driver/Src/stm32f0xx_hal_pcd.c ****     PCD_WritePMA(hpcd->Instance, ep->xfer_buff, ep->pmaadress, len);
 923:Drivers/STM32F0xx_HAL_Driver/Src/stm32f0xx_hal_pcd.c ****     PCD_SET_EP_TX_CNT(hpcd->Instance, ep->num, len);
 924:Drivers/STM32F0xx_HAL_Driver/Src/stm32f0xx_hal_pcd.c ****   }
 925:Drivers/STM32F0xx_HAL_Driver/Src/stm32f0xx_hal_pcd.c ****   else
 926:Drivers/STM32F0xx_HAL_Driver/Src/stm32f0xx_hal_pcd.c ****   {
 927:Drivers/STM32F0xx_HAL_Driver/Src/stm32f0xx_hal_pcd.c ****     /*Write the data to the USB endpoint*/
 928:Drivers/STM32F0xx_HAL_Driver/Src/stm32f0xx_hal_pcd.c ****     if ((PCD_GET_ENDPOINT(hpcd->Instance, ep->num)& USB_EP_DTOG_TX) == USB_EP_DTOG_TX)
 929:Drivers/STM32F0xx_HAL_Driver/Src/stm32f0xx_hal_pcd.c ****     {
 930:Drivers/STM32F0xx_HAL_Driver/Src/stm32f0xx_hal_pcd.c ****       /*Set the Double buffer counter for pmabuffer1*/
 931:Drivers/STM32F0xx_HAL_Driver/Src/stm32f0xx_hal_pcd.c ****       PCD_SET_EP_DBUF1_CNT(hpcd->Instance, ep->num, ep->is_in, len)
 932:Drivers/STM32F0xx_HAL_Driver/Src/stm32f0xx_hal_pcd.c ****       pmabuffer = ep->pmaaddr1;
 933:Drivers/STM32F0xx_HAL_Driver/Src/stm32f0xx_hal_pcd.c ****     }
 934:Drivers/STM32F0xx_HAL_Driver/Src/stm32f0xx_hal_pcd.c ****     else
 935:Drivers/STM32F0xx_HAL_Driver/Src/stm32f0xx_hal_pcd.c ****     {
 936:Drivers/STM32F0xx_HAL_Driver/Src/stm32f0xx_hal_pcd.c ****       /*Set the Double buffer counter for pmabuffer0*/
 937:Drivers/STM32F0xx_HAL_Driver/Src/stm32f0xx_hal_pcd.c ****       PCD_SET_EP_DBUF0_CNT(hpcd->Instance, ep->num, ep->is_in, len)
 938:Drivers/STM32F0xx_HAL_Driver/Src/stm32f0xx_hal_pcd.c ****       pmabuffer = ep->pmaaddr0;
 939:Drivers/STM32F0xx_HAL_Driver/Src/stm32f0xx_hal_pcd.c ****     }
 940:Drivers/STM32F0xx_HAL_Driver/Src/stm32f0xx_hal_pcd.c **** 
 941:Drivers/STM32F0xx_HAL_Driver/Src/stm32f0xx_hal_pcd.c ****     PCD_WritePMA(hpcd->Instance, ep->xfer_buff, pmabuffer, len);
 942:Drivers/STM32F0xx_HAL_Driver/Src/stm32f0xx_hal_pcd.c ****     PCD_FreeUserBuffer(hpcd->Instance, ep->num, ep->is_in)
 943:Drivers/STM32F0xx_HAL_Driver/Src/stm32f0xx_hal_pcd.c ****   }
 944:Drivers/STM32F0xx_HAL_Driver/Src/stm32f0xx_hal_pcd.c **** 
 945:Drivers/STM32F0xx_HAL_Driver/Src/stm32f0xx_hal_pcd.c ****   PCD_SET_EP_TX_STATUS(hpcd->Instance, ep->num, USB_EP_TX_VALID)
 946:Drivers/STM32F0xx_HAL_Driver/Src/stm32f0xx_hal_pcd.c ****      
 947:Drivers/STM32F0xx_HAL_Driver/Src/stm32f0xx_hal_pcd.c ****   return HAL_OK;
 948:Drivers/STM32F0xx_HAL_Driver/Src/stm32f0xx_hal_pcd.c **** }
 949:Drivers/STM32F0xx_HAL_Driver/Src/stm32f0xx_hal_pcd.c **** 
 950:Drivers/STM32F0xx_HAL_Driver/Src/stm32f0xx_hal_pcd.c **** /**
 951:Drivers/STM32F0xx_HAL_Driver/Src/stm32f0xx_hal_pcd.c ****   * @brief  Set a STALL condition over an endpoint
 952:Drivers/STM32F0xx_HAL_Driver/Src/stm32f0xx_hal_pcd.c ****   * @param  hpcd PCD handle
 953:Drivers/STM32F0xx_HAL_Driver/Src/stm32f0xx_hal_pcd.c ****   * @param  ep_addr endpoint address
 954:Drivers/STM32F0xx_HAL_Driver/Src/stm32f0xx_hal_pcd.c ****   * @retval HAL status
 955:Drivers/STM32F0xx_HAL_Driver/Src/stm32f0xx_hal_pcd.c ****   */
 956:Drivers/STM32F0xx_HAL_Driver/Src/stm32f0xx_hal_pcd.c **** HAL_StatusTypeDef HAL_PCD_EP_SetStall(PCD_HandleTypeDef *hpcd, uint8_t ep_addr)
 957:Drivers/STM32F0xx_HAL_Driver/Src/stm32f0xx_hal_pcd.c **** {
 2201              		.loc 1 957 0
 2202              		.cfi_startproc
 2203              		@ args = 0, pretend = 0, frame = 0
 2204              		@ frame_needed = 0, uses_anonymous_args = 0
 2205              	.LVL184:
 2206 0000 10B5     		push	{r4, lr}
 2207              	.LCFI8:
 2208              		.cfi_def_cfa_offset 8
 2209              		.cfi_offset 4, -8
 2210              		.cfi_offset 14, -4
ARM GAS  /tmp/ccVfu67b.s 			page 58


 958:Drivers/STM32F0xx_HAL_Driver/Src/stm32f0xx_hal_pcd.c ****   PCD_EPTypeDef *ep;
 959:Drivers/STM32F0xx_HAL_Driver/Src/stm32f0xx_hal_pcd.c ****    
 960:Drivers/STM32F0xx_HAL_Driver/Src/stm32f0xx_hal_pcd.c ****   __HAL_LOCK(hpcd); 
 2211              		.loc 1 960 0
 2212 0002 F423     		movs	r3, #244
 2213 0004 5B00     		lsls	r3, r3, #1
 2214 0006 C35C     		ldrb	r3, [r0, r3]
 2215 0008 012B     		cmp	r3, #1
 2216 000a 4DD0     		beq	.L120
 2217              		.loc 1 960 0 is_stmt 0 discriminator 2
 2218 000c F423     		movs	r3, #244
 2219 000e 5B00     		lsls	r3, r3, #1
 2220 0010 0122     		movs	r2, #1
 2221 0012 C254     		strb	r2, [r0, r3]
 961:Drivers/STM32F0xx_HAL_Driver/Src/stm32f0xx_hal_pcd.c ****    
 962:Drivers/STM32F0xx_HAL_Driver/Src/stm32f0xx_hal_pcd.c ****   if ((0x80U & ep_addr) == 0x80U)
 2222              		.loc 1 962 0 is_stmt 1 discriminator 2
 2223 0014 4CB2     		sxtb	r4, r1
 2224 0016 002C     		cmp	r4, #0
 2225 0018 20DB     		blt	.L121
 963:Drivers/STM32F0xx_HAL_Driver/Src/stm32f0xx_hal_pcd.c ****   {
 964:Drivers/STM32F0xx_HAL_Driver/Src/stm32f0xx_hal_pcd.c ****     ep = &hpcd->IN_ep[ep_addr & 0x7FU];
 965:Drivers/STM32F0xx_HAL_Driver/Src/stm32f0xx_hal_pcd.c ****   }
 966:Drivers/STM32F0xx_HAL_Driver/Src/stm32f0xx_hal_pcd.c ****   else
 967:Drivers/STM32F0xx_HAL_Driver/Src/stm32f0xx_hal_pcd.c ****   {
 968:Drivers/STM32F0xx_HAL_Driver/Src/stm32f0xx_hal_pcd.c ****     ep = &hpcd->OUT_ep[ep_addr];
 2226              		.loc 1 968 0
 2227 001a CA00     		lsls	r2, r1, #3
 2228 001c 521A     		subs	r2, r2, r1
 2229 001e 9300     		lsls	r3, r2, #2
 2230 0020 0933     		adds	r3, r3, #9
 2231 0022 FF33     		adds	r3, r3, #255
 2232 0024 C318     		adds	r3, r0, r3
 2233              	.LVL185:
 2234              	.L116:
 969:Drivers/STM32F0xx_HAL_Driver/Src/stm32f0xx_hal_pcd.c ****   }
 970:Drivers/STM32F0xx_HAL_Driver/Src/stm32f0xx_hal_pcd.c ****   
 971:Drivers/STM32F0xx_HAL_Driver/Src/stm32f0xx_hal_pcd.c ****   ep->is_stall = 1;
 2235              		.loc 1 971 0
 2236 0026 0122     		movs	r2, #1
 2237 0028 9A70     		strb	r2, [r3, #2]
 972:Drivers/STM32F0xx_HAL_Driver/Src/stm32f0xx_hal_pcd.c ****   ep->num   = ep_addr & 0x7FU;
 2238              		.loc 1 972 0
 2239 002a 7E32     		adds	r2, r2, #126
 2240 002c 1140     		ands	r1, r2
 2241              	.LVL186:
 2242 002e 1970     		strb	r1, [r3]
 973:Drivers/STM32F0xx_HAL_Driver/Src/stm32f0xx_hal_pcd.c ****   ep->is_in = ((ep_addr & 0x80U) == 0x80U);
 2243              		.loc 1 973 0
 2244 0030 E40F     		lsrs	r4, r4, #31
 2245              	.LVL187:
 2246 0032 5C70     		strb	r4, [r3, #1]
 974:Drivers/STM32F0xx_HAL_Driver/Src/stm32f0xx_hal_pcd.c ****   
 975:Drivers/STM32F0xx_HAL_Driver/Src/stm32f0xx_hal_pcd.c ****   if (ep->num == 0U)
 2247              		.loc 1 975 0
 2248 0034 0029     		cmp	r1, #0
 2249 0036 1AD1     		bne	.L117
ARM GAS  /tmp/ccVfu67b.s 			page 59


 2250              	.LBB29:
 976:Drivers/STM32F0xx_HAL_Driver/Src/stm32f0xx_hal_pcd.c ****   {
 977:Drivers/STM32F0xx_HAL_Driver/Src/stm32f0xx_hal_pcd.c ****     /* This macro sets STALL status for RX & TX*/ 
 978:Drivers/STM32F0xx_HAL_Driver/Src/stm32f0xx_hal_pcd.c ****     PCD_SET_EP_TXRX_STATUS(hpcd->Instance, ep->num, USB_EP_RX_STALL, USB_EP_TX_STALL)
 2251              		.loc 1 978 0
 2252 0038 8900     		lsls	r1, r1, #2
 2253 003a 0368     		ldr	r3, [r0]
 2254              	.LVL188:
 2255 003c 9C46     		mov	ip, r3
 2256 003e 6144     		add	r1, r1, ip
 2257 0040 0A88     		ldrh	r2, [r1]
 2258              	.LVL189:
 2259 0042 1A4B     		ldr	r3, .L122
 2260 0044 1A40     		ands	r2, r3
 2261              	.LVL190:
 2262 0046 1A4B     		ldr	r3, .L122+4
 2263 0048 5A40     		eors	r2, r3
 2264 004a 1A4B     		ldr	r3, .L122+8
 2265 004c 1343     		orrs	r3, r2
 2266 004e 0B80     		strh	r3, [r1]
 2267              	.LVL191:
 2268              	.L118:
 2269              	.LBE29:
 979:Drivers/STM32F0xx_HAL_Driver/Src/stm32f0xx_hal_pcd.c ****   }
 980:Drivers/STM32F0xx_HAL_Driver/Src/stm32f0xx_hal_pcd.c ****   else
 981:Drivers/STM32F0xx_HAL_Driver/Src/stm32f0xx_hal_pcd.c ****   {
 982:Drivers/STM32F0xx_HAL_Driver/Src/stm32f0xx_hal_pcd.c ****     if (ep->is_in)
 983:Drivers/STM32F0xx_HAL_Driver/Src/stm32f0xx_hal_pcd.c ****     {
 984:Drivers/STM32F0xx_HAL_Driver/Src/stm32f0xx_hal_pcd.c ****       PCD_SET_EP_TX_STATUS(hpcd->Instance, ep->num , USB_EP_TX_STALL)
 985:Drivers/STM32F0xx_HAL_Driver/Src/stm32f0xx_hal_pcd.c ****     }
 986:Drivers/STM32F0xx_HAL_Driver/Src/stm32f0xx_hal_pcd.c ****     else
 987:Drivers/STM32F0xx_HAL_Driver/Src/stm32f0xx_hal_pcd.c ****     {
 988:Drivers/STM32F0xx_HAL_Driver/Src/stm32f0xx_hal_pcd.c ****       PCD_SET_EP_RX_STATUS(hpcd->Instance, ep->num , USB_EP_RX_STALL)
 989:Drivers/STM32F0xx_HAL_Driver/Src/stm32f0xx_hal_pcd.c ****     }
 990:Drivers/STM32F0xx_HAL_Driver/Src/stm32f0xx_hal_pcd.c ****   }
 991:Drivers/STM32F0xx_HAL_Driver/Src/stm32f0xx_hal_pcd.c ****   __HAL_UNLOCK(hpcd); 
 2270              		.loc 1 991 0
 2271 0050 F423     		movs	r3, #244
 2272 0052 5B00     		lsls	r3, r3, #1
 2273 0054 0022     		movs	r2, #0
 2274 0056 C254     		strb	r2, [r0, r3]
 992:Drivers/STM32F0xx_HAL_Driver/Src/stm32f0xx_hal_pcd.c ****   
 993:Drivers/STM32F0xx_HAL_Driver/Src/stm32f0xx_hal_pcd.c ****   return HAL_OK;
 2275              		.loc 1 993 0
 2276 0058 0020     		movs	r0, #0
 2277              	.LVL192:
 2278              	.L114:
 994:Drivers/STM32F0xx_HAL_Driver/Src/stm32f0xx_hal_pcd.c **** }
 2279              		.loc 1 994 0
 2280              		@ sp needed
 2281 005a 10BD     		pop	{r4, pc}
 2282              	.LVL193:
 2283              	.L121:
 964:Drivers/STM32F0xx_HAL_Driver/Src/stm32f0xx_hal_pcd.c ****   }
 2284              		.loc 1 964 0
 2285 005c 6A3B     		subs	r3, r3, #106
 2286 005e FF3B     		subs	r3, r3, #255
ARM GAS  /tmp/ccVfu67b.s 			page 60


 2287 0060 0B40     		ands	r3, r1
 2288 0062 DA00     		lsls	r2, r3, #3
 2289 0064 D21A     		subs	r2, r2, r3
 2290 0066 9300     		lsls	r3, r2, #2
 2291 0068 2833     		adds	r3, r3, #40
 2292 006a C318     		adds	r3, r0, r3
 2293              	.LVL194:
 2294 006c DBE7     		b	.L116
 2295              	.LVL195:
 2296              	.L117:
 982:Drivers/STM32F0xx_HAL_Driver/Src/stm32f0xx_hal_pcd.c ****     {
 2297              		.loc 1 982 0
 2298 006e 002C     		cmp	r4, #0
 2299 0070 0CD0     		beq	.L119
 2300              	.LBB30:
 984:Drivers/STM32F0xx_HAL_Driver/Src/stm32f0xx_hal_pcd.c ****     }
 2301              		.loc 1 984 0
 2302 0072 8900     		lsls	r1, r1, #2
 2303 0074 0368     		ldr	r3, [r0]
 2304              	.LVL196:
 2305 0076 9C46     		mov	ip, r3
 2306 0078 6144     		add	r1, r1, ip
 2307 007a 0B88     		ldrh	r3, [r1]
 2308 007c 0E4A     		ldr	r2, .L122+12
 2309 007e 1340     		ands	r3, r2
 2310              	.LVL197:
 2311 0080 1022     		movs	r2, #16
 2312 0082 5340     		eors	r3, r2
 2313              	.LVL198:
 2314 0084 0B4A     		ldr	r2, .L122+8
 2315 0086 1343     		orrs	r3, r2
 2316              	.LVL199:
 2317 0088 0B80     		strh	r3, [r1]
 2318              	.LBE30:
 2319 008a E1E7     		b	.L118
 2320              	.LVL200:
 2321              	.L119:
 2322              	.LBB31:
 988:Drivers/STM32F0xx_HAL_Driver/Src/stm32f0xx_hal_pcd.c ****     }
 2323              		.loc 1 988 0
 2324 008c 8900     		lsls	r1, r1, #2
 2325 008e 0368     		ldr	r3, [r0]
 2326              	.LVL201:
 2327 0090 9C46     		mov	ip, r3
 2328 0092 6144     		add	r1, r1, ip
 2329 0094 0A88     		ldrh	r2, [r1]
 2330 0096 094B     		ldr	r3, .L122+16
 2331 0098 1A40     		ands	r2, r3
 2332              	.LVL202:
 2333 009a 8023     		movs	r3, #128
 2334 009c 5B01     		lsls	r3, r3, #5
 2335 009e 5A40     		eors	r2, r3
 2336              	.LVL203:
 2337 00a0 044B     		ldr	r3, .L122+8
 2338 00a2 1343     		orrs	r3, r2
 2339 00a4 0B80     		strh	r3, [r1]
 2340 00a6 D3E7     		b	.L118
ARM GAS  /tmp/ccVfu67b.s 			page 61


 2341              	.LVL204:
 2342              	.L120:
 2343              	.LBE31:
 960:Drivers/STM32F0xx_HAL_Driver/Src/stm32f0xx_hal_pcd.c ****    
 2344              		.loc 1 960 0
 2345 00a8 0220     		movs	r0, #2
 2346              	.LVL205:
 2347 00aa D6E7     		b	.L114
 2348              	.L123:
 2349              		.align	2
 2350              	.L122:
 2351 00ac BFBFFFFF 		.word	-16449
 2352 00b0 10100000 		.word	4112
 2353 00b4 8080FFFF 		.word	-32640
 2354 00b8 BF8FFFFF 		.word	-28737
 2355 00bc 8FBFFFFF 		.word	-16497
 2356              		.cfi_endproc
 2357              	.LFE63:
 2359              		.section	.text.HAL_PCD_EP_ClrStall,"ax",%progbits
 2360              		.align	1
 2361              		.global	HAL_PCD_EP_ClrStall
 2362              		.syntax unified
 2363              		.code	16
 2364              		.thumb_func
 2365              		.fpu softvfp
 2367              	HAL_PCD_EP_ClrStall:
 2368              	.LFB64:
 995:Drivers/STM32F0xx_HAL_Driver/Src/stm32f0xx_hal_pcd.c **** 
 996:Drivers/STM32F0xx_HAL_Driver/Src/stm32f0xx_hal_pcd.c **** /**
 997:Drivers/STM32F0xx_HAL_Driver/Src/stm32f0xx_hal_pcd.c ****   * @brief  Clear a STALL condition over in an endpoint
 998:Drivers/STM32F0xx_HAL_Driver/Src/stm32f0xx_hal_pcd.c ****   * @param  hpcd PCD handle
 999:Drivers/STM32F0xx_HAL_Driver/Src/stm32f0xx_hal_pcd.c ****   * @param  ep_addr endpoint address
1000:Drivers/STM32F0xx_HAL_Driver/Src/stm32f0xx_hal_pcd.c ****   * @retval HAL status
1001:Drivers/STM32F0xx_HAL_Driver/Src/stm32f0xx_hal_pcd.c ****   */
1002:Drivers/STM32F0xx_HAL_Driver/Src/stm32f0xx_hal_pcd.c **** HAL_StatusTypeDef HAL_PCD_EP_ClrStall(PCD_HandleTypeDef *hpcd, uint8_t ep_addr)
1003:Drivers/STM32F0xx_HAL_Driver/Src/stm32f0xx_hal_pcd.c **** {
 2369              		.loc 1 1003 0
 2370              		.cfi_startproc
 2371              		@ args = 0, pretend = 0, frame = 0
 2372              		@ frame_needed = 0, uses_anonymous_args = 0
 2373              	.LVL206:
 2374 0000 10B5     		push	{r4, lr}
 2375              	.LCFI9:
 2376              		.cfi_def_cfa_offset 8
 2377              		.cfi_offset 4, -8
 2378              		.cfi_offset 14, -4
1004:Drivers/STM32F0xx_HAL_Driver/Src/stm32f0xx_hal_pcd.c ****   PCD_EPTypeDef *ep;
1005:Drivers/STM32F0xx_HAL_Driver/Src/stm32f0xx_hal_pcd.c ****   
1006:Drivers/STM32F0xx_HAL_Driver/Src/stm32f0xx_hal_pcd.c ****   if ((0x80U & ep_addr) == 0x80U)
 2379              		.loc 1 1006 0
 2380 0002 4AB2     		sxtb	r2, r1
 2381 0004 002A     		cmp	r2, #0
 2382 0006 38DB     		blt	.L133
1007:Drivers/STM32F0xx_HAL_Driver/Src/stm32f0xx_hal_pcd.c ****   {
1008:Drivers/STM32F0xx_HAL_Driver/Src/stm32f0xx_hal_pcd.c ****     ep = &hpcd->IN_ep[ep_addr & 0x7FU];
1009:Drivers/STM32F0xx_HAL_Driver/Src/stm32f0xx_hal_pcd.c ****   }
1010:Drivers/STM32F0xx_HAL_Driver/Src/stm32f0xx_hal_pcd.c ****   else
ARM GAS  /tmp/ccVfu67b.s 			page 62


1011:Drivers/STM32F0xx_HAL_Driver/Src/stm32f0xx_hal_pcd.c ****   {
1012:Drivers/STM32F0xx_HAL_Driver/Src/stm32f0xx_hal_pcd.c ****     ep = &hpcd->OUT_ep[ep_addr];
 2383              		.loc 1 1012 0
 2384 0008 CC00     		lsls	r4, r1, #3
 2385 000a 641A     		subs	r4, r4, r1
 2386 000c A300     		lsls	r3, r4, #2
 2387 000e 0933     		adds	r3, r3, #9
 2388 0010 FF33     		adds	r3, r3, #255
 2389 0012 C318     		adds	r3, r0, r3
 2390              	.LVL207:
 2391              	.L126:
1013:Drivers/STM32F0xx_HAL_Driver/Src/stm32f0xx_hal_pcd.c ****   }
1014:Drivers/STM32F0xx_HAL_Driver/Src/stm32f0xx_hal_pcd.c ****   
1015:Drivers/STM32F0xx_HAL_Driver/Src/stm32f0xx_hal_pcd.c ****   ep->is_stall = 0U;
 2392              		.loc 1 1015 0
 2393 0014 0024     		movs	r4, #0
 2394 0016 9C70     		strb	r4, [r3, #2]
1016:Drivers/STM32F0xx_HAL_Driver/Src/stm32f0xx_hal_pcd.c ****   ep->num   = ep_addr & 0x7FU;
 2395              		.loc 1 1016 0
 2396 0018 7F34     		adds	r4, r4, #127
 2397 001a 2140     		ands	r1, r4
 2398              	.LVL208:
 2399 001c 1970     		strb	r1, [r3]
1017:Drivers/STM32F0xx_HAL_Driver/Src/stm32f0xx_hal_pcd.c ****   ep->is_in = ((ep_addr & 0x80U) == 0x80U);
 2400              		.loc 1 1017 0
 2401 001e D20F     		lsrs	r2, r2, #31
 2402              	.LVL209:
 2403 0020 5A70     		strb	r2, [r3, #1]
1018:Drivers/STM32F0xx_HAL_Driver/Src/stm32f0xx_hal_pcd.c ****   
1019:Drivers/STM32F0xx_HAL_Driver/Src/stm32f0xx_hal_pcd.c ****   __HAL_LOCK(hpcd); 
 2404              		.loc 1 1019 0
 2405 0022 F422     		movs	r2, #244
 2406 0024 5200     		lsls	r2, r2, #1
 2407 0026 825C     		ldrb	r2, [r0, r2]
 2408 0028 012A     		cmp	r2, #1
 2409 002a 4AD0     		beq	.L132
 2410              		.loc 1 1019 0 is_stmt 0 discriminator 2
 2411 002c F422     		movs	r2, #244
 2412 002e 5200     		lsls	r2, r2, #1
 2413 0030 0121     		movs	r1, #1
 2414 0032 8154     		strb	r1, [r0, r2]
1020:Drivers/STM32F0xx_HAL_Driver/Src/stm32f0xx_hal_pcd.c ****   
1021:Drivers/STM32F0xx_HAL_Driver/Src/stm32f0xx_hal_pcd.c ****   if (ep->is_in)
 2415              		.loc 1 1021 0 is_stmt 1 discriminator 2
 2416 0034 5A78     		ldrb	r2, [r3, #1]
 2417 0036 002A     		cmp	r2, #0
 2418 0038 27D0     		beq	.L128
1022:Drivers/STM32F0xx_HAL_Driver/Src/stm32f0xx_hal_pcd.c ****   {
1023:Drivers/STM32F0xx_HAL_Driver/Src/stm32f0xx_hal_pcd.c ****     PCD_CLEAR_TX_DTOG(hpcd->Instance, ep->num)
 2419              		.loc 1 1023 0
 2420 003a 1A78     		ldrb	r2, [r3]
 2421 003c 9200     		lsls	r2, r2, #2
 2422 003e 0168     		ldr	r1, [r0]
 2423 0040 8C46     		mov	ip, r1
 2424 0042 6244     		add	r2, r2, ip
 2425 0044 1188     		ldrh	r1, [r2]
 2426 0046 4C06     		lsls	r4, r1, #25
ARM GAS  /tmp/ccVfu67b.s 			page 63


 2427 0048 04D5     		bpl	.L129
 2428              		.loc 1 1023 0 is_stmt 0 discriminator 1
 2429 004a 1F4C     		ldr	r4, .L134
 2430 004c 2140     		ands	r1, r4
 2431 004e 1F4C     		ldr	r4, .L134+4
 2432 0050 2143     		orrs	r1, r4
 2433 0052 1180     		strh	r1, [r2]
 2434              	.L129:
 2435              	.LBB32:
1024:Drivers/STM32F0xx_HAL_Driver/Src/stm32f0xx_hal_pcd.c ****     PCD_SET_EP_TX_STATUS(hpcd->Instance, ep->num, USB_EP_TX_VALID)
 2436              		.loc 1 1024 0 is_stmt 1
 2437 0054 1A78     		ldrb	r2, [r3]
 2438 0056 9200     		lsls	r2, r2, #2
 2439 0058 0368     		ldr	r3, [r0]
 2440              	.LVL210:
 2441 005a 9C46     		mov	ip, r3
 2442 005c 6244     		add	r2, r2, ip
 2443 005e 1388     		ldrh	r3, [r2]
 2444 0060 1B49     		ldr	r1, .L134+8
 2445 0062 0B40     		ands	r3, r1
 2446              	.LVL211:
 2447 0064 3021     		movs	r1, #48
 2448 0066 4B40     		eors	r3, r1
 2449              	.LVL212:
 2450 0068 1A49     		ldr	r1, .L134+12
 2451 006a 0B43     		orrs	r3, r1
 2452              	.LVL213:
 2453 006c 1380     		strh	r3, [r2]
 2454              	.L130:
 2455              	.LBE32:
1025:Drivers/STM32F0xx_HAL_Driver/Src/stm32f0xx_hal_pcd.c ****   }
1026:Drivers/STM32F0xx_HAL_Driver/Src/stm32f0xx_hal_pcd.c ****   else
1027:Drivers/STM32F0xx_HAL_Driver/Src/stm32f0xx_hal_pcd.c ****   {
1028:Drivers/STM32F0xx_HAL_Driver/Src/stm32f0xx_hal_pcd.c ****     PCD_CLEAR_RX_DTOG(hpcd->Instance, ep->num)
1029:Drivers/STM32F0xx_HAL_Driver/Src/stm32f0xx_hal_pcd.c ****     PCD_SET_EP_RX_STATUS(hpcd->Instance, ep->num, USB_EP_RX_VALID)
1030:Drivers/STM32F0xx_HAL_Driver/Src/stm32f0xx_hal_pcd.c ****   }
1031:Drivers/STM32F0xx_HAL_Driver/Src/stm32f0xx_hal_pcd.c ****   __HAL_UNLOCK(hpcd); 
 2456              		.loc 1 1031 0
 2457 006e F423     		movs	r3, #244
 2458 0070 5B00     		lsls	r3, r3, #1
 2459 0072 0022     		movs	r2, #0
 2460 0074 C254     		strb	r2, [r0, r3]
1032:Drivers/STM32F0xx_HAL_Driver/Src/stm32f0xx_hal_pcd.c ****     
1033:Drivers/STM32F0xx_HAL_Driver/Src/stm32f0xx_hal_pcd.c ****   return HAL_OK;
 2461              		.loc 1 1033 0
 2462 0076 0020     		movs	r0, #0
 2463              	.LVL214:
 2464              	.L127:
1034:Drivers/STM32F0xx_HAL_Driver/Src/stm32f0xx_hal_pcd.c **** }
 2465              		.loc 1 1034 0
 2466              		@ sp needed
 2467 0078 10BD     		pop	{r4, pc}
 2468              	.LVL215:
 2469              	.L133:
1008:Drivers/STM32F0xx_HAL_Driver/Src/stm32f0xx_hal_pcd.c ****   }
 2470              		.loc 1 1008 0
 2471 007a 7F23     		movs	r3, #127
ARM GAS  /tmp/ccVfu67b.s 			page 64


 2472 007c 0B40     		ands	r3, r1
 2473 007e DC00     		lsls	r4, r3, #3
 2474 0080 E41A     		subs	r4, r4, r3
 2475 0082 A300     		lsls	r3, r4, #2
 2476 0084 2833     		adds	r3, r3, #40
 2477 0086 C318     		adds	r3, r0, r3
 2478              	.LVL216:
 2479 0088 C4E7     		b	.L126
 2480              	.LVL217:
 2481              	.L128:
1028:Drivers/STM32F0xx_HAL_Driver/Src/stm32f0xx_hal_pcd.c ****     PCD_SET_EP_RX_STATUS(hpcd->Instance, ep->num, USB_EP_RX_VALID)
 2482              		.loc 1 1028 0
 2483 008a 1A78     		ldrb	r2, [r3]
 2484 008c 9200     		lsls	r2, r2, #2
 2485 008e 0168     		ldr	r1, [r0]
 2486 0090 8C46     		mov	ip, r1
 2487 0092 6244     		add	r2, r2, ip
 2488 0094 1188     		ldrh	r1, [r2]
 2489 0096 4C04     		lsls	r4, r1, #17
 2490 0098 04D5     		bpl	.L131
1028:Drivers/STM32F0xx_HAL_Driver/Src/stm32f0xx_hal_pcd.c ****     PCD_SET_EP_RX_STATUS(hpcd->Instance, ep->num, USB_EP_RX_VALID)
 2491              		.loc 1 1028 0 is_stmt 0 discriminator 1
 2492 009a 0B4C     		ldr	r4, .L134
 2493 009c 2140     		ands	r1, r4
 2494 009e 0E4C     		ldr	r4, .L134+16
 2495 00a0 2143     		orrs	r1, r4
 2496 00a2 1180     		strh	r1, [r2]
 2497              	.L131:
 2498              	.LBB33:
1029:Drivers/STM32F0xx_HAL_Driver/Src/stm32f0xx_hal_pcd.c ****   }
 2499              		.loc 1 1029 0 is_stmt 1
 2500 00a4 1B78     		ldrb	r3, [r3]
 2501              	.LVL218:
 2502 00a6 9B00     		lsls	r3, r3, #2
 2503 00a8 0268     		ldr	r2, [r0]
 2504 00aa 9446     		mov	ip, r2
 2505 00ac 6344     		add	r3, r3, ip
 2506 00ae 1988     		ldrh	r1, [r3]
 2507 00b0 0A4A     		ldr	r2, .L134+20
 2508 00b2 1140     		ands	r1, r2
 2509              	.LVL219:
 2510 00b4 C022     		movs	r2, #192
 2511 00b6 9201     		lsls	r2, r2, #6
 2512 00b8 5140     		eors	r1, r2
 2513              	.LVL220:
 2514 00ba 064A     		ldr	r2, .L134+12
 2515 00bc 0A43     		orrs	r2, r1
 2516 00be 1A80     		strh	r2, [r3]
 2517 00c0 D5E7     		b	.L130
 2518              	.LVL221:
 2519              	.L132:
 2520              	.LBE33:
1019:Drivers/STM32F0xx_HAL_Driver/Src/stm32f0xx_hal_pcd.c ****   
 2521              		.loc 1 1019 0
 2522 00c2 0220     		movs	r0, #2
 2523              	.LVL222:
 2524 00c4 D8E7     		b	.L127
ARM GAS  /tmp/ccVfu67b.s 			page 65


 2525              	.L135:
 2526 00c6 C046     		.align	2
 2527              	.L134:
 2528 00c8 0F0F0000 		.word	3855
 2529 00cc C080FFFF 		.word	-32576
 2530 00d0 BF8FFFFF 		.word	-28737
 2531 00d4 8080FFFF 		.word	-32640
 2532 00d8 80C0FFFF 		.word	-16256
 2533 00dc 8FBFFFFF 		.word	-16497
 2534              		.cfi_endproc
 2535              	.LFE64:
 2537              		.section	.text.HAL_PCD_EP_Flush,"ax",%progbits
 2538              		.align	1
 2539              		.global	HAL_PCD_EP_Flush
 2540              		.syntax unified
 2541              		.code	16
 2542              		.thumb_func
 2543              		.fpu softvfp
 2545              	HAL_PCD_EP_Flush:
 2546              	.LFB65:
1035:Drivers/STM32F0xx_HAL_Driver/Src/stm32f0xx_hal_pcd.c **** 
1036:Drivers/STM32F0xx_HAL_Driver/Src/stm32f0xx_hal_pcd.c **** /**
1037:Drivers/STM32F0xx_HAL_Driver/Src/stm32f0xx_hal_pcd.c ****   * @brief  Flush an endpoint
1038:Drivers/STM32F0xx_HAL_Driver/Src/stm32f0xx_hal_pcd.c ****   * @param  hpcd PCD handle
1039:Drivers/STM32F0xx_HAL_Driver/Src/stm32f0xx_hal_pcd.c ****   * @param  ep_addr endpoint address
1040:Drivers/STM32F0xx_HAL_Driver/Src/stm32f0xx_hal_pcd.c ****   * @retval HAL status
1041:Drivers/STM32F0xx_HAL_Driver/Src/stm32f0xx_hal_pcd.c ****   */
1042:Drivers/STM32F0xx_HAL_Driver/Src/stm32f0xx_hal_pcd.c **** HAL_StatusTypeDef HAL_PCD_EP_Flush(PCD_HandleTypeDef *hpcd, uint8_t ep_addr)
1043:Drivers/STM32F0xx_HAL_Driver/Src/stm32f0xx_hal_pcd.c **** { 
 2547              		.loc 1 1043 0
 2548              		.cfi_startproc
 2549              		@ args = 0, pretend = 0, frame = 0
 2550              		@ frame_needed = 0, uses_anonymous_args = 0
 2551              		@ link register save eliminated.
 2552              	.LVL223:
1044:Drivers/STM32F0xx_HAL_Driver/Src/stm32f0xx_hal_pcd.c ****   return HAL_OK;
1045:Drivers/STM32F0xx_HAL_Driver/Src/stm32f0xx_hal_pcd.c **** }
 2553              		.loc 1 1045 0
 2554 0000 0020     		movs	r0, #0
 2555              	.LVL224:
 2556              		@ sp needed
 2557 0002 7047     		bx	lr
 2558              		.cfi_endproc
 2559              	.LFE65:
 2561              		.section	.text.HAL_PCD_ActivateRemoteWakeup,"ax",%progbits
 2562              		.align	1
 2563              		.global	HAL_PCD_ActivateRemoteWakeup
 2564              		.syntax unified
 2565              		.code	16
 2566              		.thumb_func
 2567              		.fpu softvfp
 2569              	HAL_PCD_ActivateRemoteWakeup:
 2570              	.LFB66:
1046:Drivers/STM32F0xx_HAL_Driver/Src/stm32f0xx_hal_pcd.c **** 
1047:Drivers/STM32F0xx_HAL_Driver/Src/stm32f0xx_hal_pcd.c **** /**
1048:Drivers/STM32F0xx_HAL_Driver/Src/stm32f0xx_hal_pcd.c ****   * @brief  HAL_PCD_ActivateRemoteWakeup : active remote wakeup signalling
1049:Drivers/STM32F0xx_HAL_Driver/Src/stm32f0xx_hal_pcd.c **** * @param  hpcd PCD handle
ARM GAS  /tmp/ccVfu67b.s 			page 66


1050:Drivers/STM32F0xx_HAL_Driver/Src/stm32f0xx_hal_pcd.c **** * @retval HAL status
1051:Drivers/STM32F0xx_HAL_Driver/Src/stm32f0xx_hal_pcd.c **** */
1052:Drivers/STM32F0xx_HAL_Driver/Src/stm32f0xx_hal_pcd.c **** HAL_StatusTypeDef HAL_PCD_ActivateRemoteWakeup(PCD_HandleTypeDef *hpcd)
1053:Drivers/STM32F0xx_HAL_Driver/Src/stm32f0xx_hal_pcd.c **** {
 2571              		.loc 1 1053 0
 2572              		.cfi_startproc
 2573              		@ args = 0, pretend = 0, frame = 0
 2574              		@ frame_needed = 0, uses_anonymous_args = 0
 2575              		@ link register save eliminated.
 2576              	.LVL225:
1054:Drivers/STM32F0xx_HAL_Driver/Src/stm32f0xx_hal_pcd.c ****   if (hpcd->Init.lpm_enable ==1)
 2577              		.loc 1 1054 0
 2578 0000 C369     		ldr	r3, [r0, #28]
 2579 0002 012B     		cmp	r3, #1
 2580 0004 07D0     		beq	.L140
1055:Drivers/STM32F0xx_HAL_Driver/Src/stm32f0xx_hal_pcd.c ****   {
1056:Drivers/STM32F0xx_HAL_Driver/Src/stm32f0xx_hal_pcd.c ****     /* Apply L1 Resume */
1057:Drivers/STM32F0xx_HAL_Driver/Src/stm32f0xx_hal_pcd.c ****     hpcd->Instance->CNTR |= USB_CNTR_L1RESUME;
1058:Drivers/STM32F0xx_HAL_Driver/Src/stm32f0xx_hal_pcd.c ****   }
1059:Drivers/STM32F0xx_HAL_Driver/Src/stm32f0xx_hal_pcd.c ****   else
1060:Drivers/STM32F0xx_HAL_Driver/Src/stm32f0xx_hal_pcd.c ****   {
1061:Drivers/STM32F0xx_HAL_Driver/Src/stm32f0xx_hal_pcd.c ****     /* Apply L2 Resume */
1062:Drivers/STM32F0xx_HAL_Driver/Src/stm32f0xx_hal_pcd.c ****     hpcd->Instance->CNTR |= USB_CNTR_RESUME;
 2581              		.loc 1 1062 0
 2582 0006 0168     		ldr	r1, [r0]
 2583 0008 4022     		movs	r2, #64
 2584 000a 8B5A     		ldrh	r3, [r1, r2]
 2585 000c 1020     		movs	r0, #16
 2586              	.LVL226:
 2587 000e 0343     		orrs	r3, r0
 2588 0010 8B52     		strh	r3, [r1, r2]
 2589              	.L139:
1063:Drivers/STM32F0xx_HAL_Driver/Src/stm32f0xx_hal_pcd.c ****   }
1064:Drivers/STM32F0xx_HAL_Driver/Src/stm32f0xx_hal_pcd.c ****   
1065:Drivers/STM32F0xx_HAL_Driver/Src/stm32f0xx_hal_pcd.c ****   return (HAL_OK);
1066:Drivers/STM32F0xx_HAL_Driver/Src/stm32f0xx_hal_pcd.c **** }
 2590              		.loc 1 1066 0
 2591 0012 0020     		movs	r0, #0
 2592              		@ sp needed
 2593 0014 7047     		bx	lr
 2594              	.LVL227:
 2595              	.L140:
1057:Drivers/STM32F0xx_HAL_Driver/Src/stm32f0xx_hal_pcd.c ****   }
 2596              		.loc 1 1057 0
 2597 0016 0168     		ldr	r1, [r0]
 2598 0018 4022     		movs	r2, #64
 2599 001a 8B5A     		ldrh	r3, [r1, r2]
 2600 001c 2020     		movs	r0, #32
 2601              	.LVL228:
 2602 001e 0343     		orrs	r3, r0
 2603 0020 8B52     		strh	r3, [r1, r2]
 2604 0022 F6E7     		b	.L139
 2605              		.cfi_endproc
 2606              	.LFE66:
 2608              		.section	.text.HAL_PCD_DeActivateRemoteWakeup,"ax",%progbits
 2609              		.align	1
 2610              		.global	HAL_PCD_DeActivateRemoteWakeup
ARM GAS  /tmp/ccVfu67b.s 			page 67


 2611              		.syntax unified
 2612              		.code	16
 2613              		.thumb_func
 2614              		.fpu softvfp
 2616              	HAL_PCD_DeActivateRemoteWakeup:
 2617              	.LFB67:
1067:Drivers/STM32F0xx_HAL_Driver/Src/stm32f0xx_hal_pcd.c **** 
1068:Drivers/STM32F0xx_HAL_Driver/Src/stm32f0xx_hal_pcd.c **** /**
1069:Drivers/STM32F0xx_HAL_Driver/Src/stm32f0xx_hal_pcd.c **** * @brief  HAL_PCD_DeActivateRemoteWakeup : de-active remote wakeup signalling
1070:Drivers/STM32F0xx_HAL_Driver/Src/stm32f0xx_hal_pcd.c **** * @param  hpcd PCD handle
1071:Drivers/STM32F0xx_HAL_Driver/Src/stm32f0xx_hal_pcd.c **** * @retval HAL status
1072:Drivers/STM32F0xx_HAL_Driver/Src/stm32f0xx_hal_pcd.c **** */
1073:Drivers/STM32F0xx_HAL_Driver/Src/stm32f0xx_hal_pcd.c **** HAL_StatusTypeDef HAL_PCD_DeActivateRemoteWakeup(PCD_HandleTypeDef *hpcd)
1074:Drivers/STM32F0xx_HAL_Driver/Src/stm32f0xx_hal_pcd.c **** {
 2618              		.loc 1 1074 0
 2619              		.cfi_startproc
 2620              		@ args = 0, pretend = 0, frame = 0
 2621              		@ frame_needed = 0, uses_anonymous_args = 0
 2622              		@ link register save eliminated.
 2623              	.LVL229:
1075:Drivers/STM32F0xx_HAL_Driver/Src/stm32f0xx_hal_pcd.c ****   if (hpcd->Init.lpm_enable ==1)
 2624              		.loc 1 1075 0
 2625 0000 C369     		ldr	r3, [r0, #28]
 2626 0002 012B     		cmp	r3, #1
 2627 0004 07D0     		beq	.L144
1076:Drivers/STM32F0xx_HAL_Driver/Src/stm32f0xx_hal_pcd.c ****   {
1077:Drivers/STM32F0xx_HAL_Driver/Src/stm32f0xx_hal_pcd.c ****     /* Release L1 Resume */
1078:Drivers/STM32F0xx_HAL_Driver/Src/stm32f0xx_hal_pcd.c ****     hpcd->Instance->CNTR &= ((uint16_t)(~ USB_CNTR_L1RESUME));
1079:Drivers/STM32F0xx_HAL_Driver/Src/stm32f0xx_hal_pcd.c ****   }
1080:Drivers/STM32F0xx_HAL_Driver/Src/stm32f0xx_hal_pcd.c ****   else
1081:Drivers/STM32F0xx_HAL_Driver/Src/stm32f0xx_hal_pcd.c ****   {
1082:Drivers/STM32F0xx_HAL_Driver/Src/stm32f0xx_hal_pcd.c ****     /* Release L2 Resume */
1083:Drivers/STM32F0xx_HAL_Driver/Src/stm32f0xx_hal_pcd.c ****     hpcd->Instance->CNTR &= ((uint16_t)(~ USB_CNTR_RESUME)) ;
 2628              		.loc 1 1083 0
 2629 0006 0168     		ldr	r1, [r0]
 2630 0008 4022     		movs	r2, #64
 2631 000a 8B5A     		ldrh	r3, [r1, r2]
 2632 000c 1020     		movs	r0, #16
 2633              	.LVL230:
 2634 000e 8343     		bics	r3, r0
 2635 0010 8B52     		strh	r3, [r1, r2]
 2636              	.L143:
1084:Drivers/STM32F0xx_HAL_Driver/Src/stm32f0xx_hal_pcd.c ****   }
1085:Drivers/STM32F0xx_HAL_Driver/Src/stm32f0xx_hal_pcd.c ****   
1086:Drivers/STM32F0xx_HAL_Driver/Src/stm32f0xx_hal_pcd.c ****   return (HAL_OK);
1087:Drivers/STM32F0xx_HAL_Driver/Src/stm32f0xx_hal_pcd.c **** }
 2637              		.loc 1 1087 0
 2638 0012 0020     		movs	r0, #0
 2639              		@ sp needed
 2640 0014 7047     		bx	lr
 2641              	.LVL231:
 2642              	.L144:
1078:Drivers/STM32F0xx_HAL_Driver/Src/stm32f0xx_hal_pcd.c ****   }
 2643              		.loc 1 1078 0
 2644 0016 0168     		ldr	r1, [r0]
 2645 0018 4022     		movs	r2, #64
 2646 001a 8B5A     		ldrh	r3, [r1, r2]
ARM GAS  /tmp/ccVfu67b.s 			page 68


 2647 001c 2020     		movs	r0, #32
 2648              	.LVL232:
 2649 001e 8343     		bics	r3, r0
 2650 0020 8B52     		strh	r3, [r1, r2]
 2651 0022 F6E7     		b	.L143
 2652              		.cfi_endproc
 2653              	.LFE67:
 2655              		.section	.text.HAL_PCD_GetState,"ax",%progbits
 2656              		.align	1
 2657              		.global	HAL_PCD_GetState
 2658              		.syntax unified
 2659              		.code	16
 2660              		.thumb_func
 2661              		.fpu softvfp
 2663              	HAL_PCD_GetState:
 2664              	.LFB68:
1088:Drivers/STM32F0xx_HAL_Driver/Src/stm32f0xx_hal_pcd.c **** /**
1089:Drivers/STM32F0xx_HAL_Driver/Src/stm32f0xx_hal_pcd.c ****   * @}
1090:Drivers/STM32F0xx_HAL_Driver/Src/stm32f0xx_hal_pcd.c ****   */
1091:Drivers/STM32F0xx_HAL_Driver/Src/stm32f0xx_hal_pcd.c **** 
1092:Drivers/STM32F0xx_HAL_Driver/Src/stm32f0xx_hal_pcd.c **** /** @defgroup PCD_Exported_Functions_Group4 Peripheral State functions 
1093:Drivers/STM32F0xx_HAL_Driver/Src/stm32f0xx_hal_pcd.c ****  *  @brief   Peripheral State functions 
1094:Drivers/STM32F0xx_HAL_Driver/Src/stm32f0xx_hal_pcd.c ****  *
1095:Drivers/STM32F0xx_HAL_Driver/Src/stm32f0xx_hal_pcd.c **** @verbatim   
1096:Drivers/STM32F0xx_HAL_Driver/Src/stm32f0xx_hal_pcd.c ****  ===============================================================================
1097:Drivers/STM32F0xx_HAL_Driver/Src/stm32f0xx_hal_pcd.c ****                       ##### Peripheral State functions #####
1098:Drivers/STM32F0xx_HAL_Driver/Src/stm32f0xx_hal_pcd.c ****  ===============================================================================  
1099:Drivers/STM32F0xx_HAL_Driver/Src/stm32f0xx_hal_pcd.c ****     [..]
1100:Drivers/STM32F0xx_HAL_Driver/Src/stm32f0xx_hal_pcd.c ****     This subsection permits to get in run-time the status of the peripheral 
1101:Drivers/STM32F0xx_HAL_Driver/Src/stm32f0xx_hal_pcd.c ****     and the data flow.
1102:Drivers/STM32F0xx_HAL_Driver/Src/stm32f0xx_hal_pcd.c **** 
1103:Drivers/STM32F0xx_HAL_Driver/Src/stm32f0xx_hal_pcd.c **** @endverbatim
1104:Drivers/STM32F0xx_HAL_Driver/Src/stm32f0xx_hal_pcd.c ****   * @{
1105:Drivers/STM32F0xx_HAL_Driver/Src/stm32f0xx_hal_pcd.c ****   */
1106:Drivers/STM32F0xx_HAL_Driver/Src/stm32f0xx_hal_pcd.c **** 
1107:Drivers/STM32F0xx_HAL_Driver/Src/stm32f0xx_hal_pcd.c **** /**
1108:Drivers/STM32F0xx_HAL_Driver/Src/stm32f0xx_hal_pcd.c ****   * @brief  Return the PCD state
1109:Drivers/STM32F0xx_HAL_Driver/Src/stm32f0xx_hal_pcd.c ****   * @param  hpcd PCD handle
1110:Drivers/STM32F0xx_HAL_Driver/Src/stm32f0xx_hal_pcd.c ****   * @retval HAL state
1111:Drivers/STM32F0xx_HAL_Driver/Src/stm32f0xx_hal_pcd.c ****   */
1112:Drivers/STM32F0xx_HAL_Driver/Src/stm32f0xx_hal_pcd.c **** PCD_StateTypeDef HAL_PCD_GetState(PCD_HandleTypeDef *hpcd)
1113:Drivers/STM32F0xx_HAL_Driver/Src/stm32f0xx_hal_pcd.c **** {
 2665              		.loc 1 1113 0
 2666              		.cfi_startproc
 2667              		@ args = 0, pretend = 0, frame = 0
 2668              		@ frame_needed = 0, uses_anonymous_args = 0
 2669              		@ link register save eliminated.
 2670              	.LVL233:
1114:Drivers/STM32F0xx_HAL_Driver/Src/stm32f0xx_hal_pcd.c ****   return hpcd->State;
 2671              		.loc 1 1114 0
 2672 0000 EA23     		movs	r3, #234
 2673 0002 FF33     		adds	r3, r3, #255
 2674 0004 C05C     		ldrb	r0, [r0, r3]
 2675              	.LVL234:
 2676 0006 C0B2     		uxtb	r0, r0
1115:Drivers/STM32F0xx_HAL_Driver/Src/stm32f0xx_hal_pcd.c **** }
 2677              		.loc 1 1115 0
ARM GAS  /tmp/ccVfu67b.s 			page 69


 2678              		@ sp needed
 2679 0008 7047     		bx	lr
 2680              		.cfi_endproc
 2681              	.LFE68:
 2683              		.section	.text.PCD_WritePMA,"ax",%progbits
 2684              		.align	1
 2685              		.global	PCD_WritePMA
 2686              		.syntax unified
 2687              		.code	16
 2688              		.thumb_func
 2689              		.fpu softvfp
 2691              	PCD_WritePMA:
 2692              	.LFB69:
1116:Drivers/STM32F0xx_HAL_Driver/Src/stm32f0xx_hal_pcd.c **** /**
1117:Drivers/STM32F0xx_HAL_Driver/Src/stm32f0xx_hal_pcd.c ****   * @}
1118:Drivers/STM32F0xx_HAL_Driver/Src/stm32f0xx_hal_pcd.c ****   */
1119:Drivers/STM32F0xx_HAL_Driver/Src/stm32f0xx_hal_pcd.c ****   
1120:Drivers/STM32F0xx_HAL_Driver/Src/stm32f0xx_hal_pcd.c **** /**
1121:Drivers/STM32F0xx_HAL_Driver/Src/stm32f0xx_hal_pcd.c ****   * @}
1122:Drivers/STM32F0xx_HAL_Driver/Src/stm32f0xx_hal_pcd.c ****   */
1123:Drivers/STM32F0xx_HAL_Driver/Src/stm32f0xx_hal_pcd.c **** 
1124:Drivers/STM32F0xx_HAL_Driver/Src/stm32f0xx_hal_pcd.c **** /** @addtogroup PCD_Private_Functions
1125:Drivers/STM32F0xx_HAL_Driver/Src/stm32f0xx_hal_pcd.c ****   * @{
1126:Drivers/STM32F0xx_HAL_Driver/Src/stm32f0xx_hal_pcd.c ****   */
1127:Drivers/STM32F0xx_HAL_Driver/Src/stm32f0xx_hal_pcd.c **** /**
1128:Drivers/STM32F0xx_HAL_Driver/Src/stm32f0xx_hal_pcd.c ****   * @brief Copy a buffer from user memory area to packet memory area (PMA)
1129:Drivers/STM32F0xx_HAL_Driver/Src/stm32f0xx_hal_pcd.c ****   * @param   USBx USB peripheral instance register address.
1130:Drivers/STM32F0xx_HAL_Driver/Src/stm32f0xx_hal_pcd.c ****   * @param   pbUsrBuf pointer to user memory area.
1131:Drivers/STM32F0xx_HAL_Driver/Src/stm32f0xx_hal_pcd.c ****   * @param   wPMABufAddr address into PMA.
1132:Drivers/STM32F0xx_HAL_Driver/Src/stm32f0xx_hal_pcd.c ****   * @param   wNBytes no. of bytes to be copied.
1133:Drivers/STM32F0xx_HAL_Driver/Src/stm32f0xx_hal_pcd.c ****   * @retval None
1134:Drivers/STM32F0xx_HAL_Driver/Src/stm32f0xx_hal_pcd.c ****   */
1135:Drivers/STM32F0xx_HAL_Driver/Src/stm32f0xx_hal_pcd.c **** void PCD_WritePMA(USB_TypeDef  *USBx, uint8_t *pbUsrBuf, uint16_t wPMABufAddr, uint16_t wNBytes)
1136:Drivers/STM32F0xx_HAL_Driver/Src/stm32f0xx_hal_pcd.c **** {
 2693              		.loc 1 1136 0
 2694              		.cfi_startproc
 2695              		@ args = 0, pretend = 0, frame = 0
 2696              		@ frame_needed = 0, uses_anonymous_args = 0
 2697              	.LVL235:
 2698 0000 10B5     		push	{r4, lr}
 2699              	.LCFI10:
 2700              		.cfi_def_cfa_offset 8
 2701              		.cfi_offset 4, -8
 2702              		.cfi_offset 14, -4
1137:Drivers/STM32F0xx_HAL_Driver/Src/stm32f0xx_hal_pcd.c ****   uint32_t n =  ((uint32_t)((uint32_t)wNBytes + 1U)) >> 1U;
 2703              		.loc 1 1137 0
 2704 0002 0133     		adds	r3, r3, #1
 2705              	.LVL236:
 2706 0004 5B08     		lsrs	r3, r3, #1
 2707              	.LVL237:
1138:Drivers/STM32F0xx_HAL_Driver/Src/stm32f0xx_hal_pcd.c ****   uint32_t i;
1139:Drivers/STM32F0xx_HAL_Driver/Src/stm32f0xx_hal_pcd.c ****   uint16_t temp1, temp2;
1140:Drivers/STM32F0xx_HAL_Driver/Src/stm32f0xx_hal_pcd.c ****   uint16_t *pdwVal;
1141:Drivers/STM32F0xx_HAL_Driver/Src/stm32f0xx_hal_pcd.c ****   pdwVal = (uint16_t *)((uint32_t)(wPMABufAddr + (uint32_t)USBx + 0x400U));
 2708              		.loc 1 1141 0
 2709 0006 1218     		adds	r2, r2, r0
 2710              	.LVL238:
ARM GAS  /tmp/ccVfu67b.s 			page 70


 2711 0008 8020     		movs	r0, #128
 2712              	.LVL239:
 2713 000a C000     		lsls	r0, r0, #3
 2714 000c 8446     		mov	ip, r0
 2715 000e 6244     		add	r2, r2, ip
 2716              	.LVL240:
1142:Drivers/STM32F0xx_HAL_Driver/Src/stm32f0xx_hal_pcd.c ****   
1143:Drivers/STM32F0xx_HAL_Driver/Src/stm32f0xx_hal_pcd.c ****   for (i = n; i != 0; i--)
 2717              		.loc 1 1143 0
 2718 0010 07E0     		b	.L147
 2719              	.LVL241:
 2720              	.L148:
1144:Drivers/STM32F0xx_HAL_Driver/Src/stm32f0xx_hal_pcd.c ****   {
1145:Drivers/STM32F0xx_HAL_Driver/Src/stm32f0xx_hal_pcd.c ****     temp1 = (uint16_t) * pbUsrBuf;
 2721              		.loc 1 1145 0 discriminator 3
 2722 0012 0878     		ldrb	r0, [r1]
 2723              	.LVL242:
1146:Drivers/STM32F0xx_HAL_Driver/Src/stm32f0xx_hal_pcd.c ****     pbUsrBuf++;
1147:Drivers/STM32F0xx_HAL_Driver/Src/stm32f0xx_hal_pcd.c ****     temp2 = temp1 | ((uint16_t)((uint16_t)  * pbUsrBuf << 8U)) ;
 2724              		.loc 1 1147 0 discriminator 3
 2725 0014 4C78     		ldrb	r4, [r1, #1]
 2726 0016 2402     		lsls	r4, r4, #8
 2727 0018 0443     		orrs	r4, r0
 2728              	.LVL243:
1148:Drivers/STM32F0xx_HAL_Driver/Src/stm32f0xx_hal_pcd.c ****     *pdwVal++ = temp2;
 2729              		.loc 1 1148 0 discriminator 3
 2730 001a 1480     		strh	r4, [r2]
1149:Drivers/STM32F0xx_HAL_Driver/Src/stm32f0xx_hal_pcd.c ****     pbUsrBuf++;
 2731              		.loc 1 1149 0 discriminator 3
 2732 001c 0231     		adds	r1, r1, #2
 2733              	.LVL244:
1143:Drivers/STM32F0xx_HAL_Driver/Src/stm32f0xx_hal_pcd.c ****   {
 2734              		.loc 1 1143 0 discriminator 3
 2735 001e 013B     		subs	r3, r3, #1
 2736              	.LVL245:
1148:Drivers/STM32F0xx_HAL_Driver/Src/stm32f0xx_hal_pcd.c ****     *pdwVal++ = temp2;
 2737              		.loc 1 1148 0 discriminator 3
 2738 0020 0232     		adds	r2, r2, #2
 2739              	.LVL246:
 2740              	.L147:
1143:Drivers/STM32F0xx_HAL_Driver/Src/stm32f0xx_hal_pcd.c ****   {
 2741              		.loc 1 1143 0 discriminator 1
 2742 0022 002B     		cmp	r3, #0
 2743 0024 F5D1     		bne	.L148
1150:Drivers/STM32F0xx_HAL_Driver/Src/stm32f0xx_hal_pcd.c ****   }
1151:Drivers/STM32F0xx_HAL_Driver/Src/stm32f0xx_hal_pcd.c **** }
 2744              		.loc 1 1151 0
 2745              		@ sp needed
 2746 0026 10BD     		pop	{r4, pc}
 2747              		.cfi_endproc
 2748              	.LFE69:
 2750              		.section	.text.HAL_PCD_EP_Transmit,"ax",%progbits
 2751              		.align	1
 2752              		.global	HAL_PCD_EP_Transmit
 2753              		.syntax unified
 2754              		.code	16
 2755              		.thumb_func
ARM GAS  /tmp/ccVfu67b.s 			page 71


 2756              		.fpu softvfp
 2758              	HAL_PCD_EP_Transmit:
 2759              	.LFB62:
 894:Drivers/STM32F0xx_HAL_Driver/Src/stm32f0xx_hal_pcd.c ****   PCD_EPTypeDef *ep;
 2760              		.loc 1 894 0
 2761              		.cfi_startproc
 2762              		@ args = 0, pretend = 0, frame = 0
 2763              		@ frame_needed = 0, uses_anonymous_args = 0
 2764              	.LVL247:
 2765 0000 F8B5     		push	{r3, r4, r5, r6, r7, lr}
 2766              	.LCFI11:
 2767              		.cfi_def_cfa_offset 24
 2768              		.cfi_offset 3, -24
 2769              		.cfi_offset 4, -20
 2770              		.cfi_offset 5, -16
 2771              		.cfi_offset 6, -12
 2772              		.cfi_offset 7, -8
 2773              		.cfi_offset 14, -4
 2774 0002 0500     		movs	r5, r0
 2775              	.LVL248:
 2776 0004 7F24     		movs	r4, #127
 2777 0006 0C40     		ands	r4, r1
 2778              	.LVL249:
 901:Drivers/STM32F0xx_HAL_Driver/Src/stm32f0xx_hal_pcd.c ****   ep->xfer_len = len;
 2779              		.loc 1 901 0
 2780 0008 E000     		lsls	r0, r4, #3
 2781              	.LVL250:
 2782 000a 001B     		subs	r0, r0, r4
 2783 000c 8100     		lsls	r1, r0, #2
 2784              	.LVL251:
 2785 000e 6918     		adds	r1, r5, r1
 2786 0010 8A63     		str	r2, [r1, #56]
 902:Drivers/STM32F0xx_HAL_Driver/Src/stm32f0xx_hal_pcd.c ****   ep->xfer_count = 0U;
 2787              		.loc 1 902 0
 2788 0012 CB63     		str	r3, [r1, #60]
 903:Drivers/STM32F0xx_HAL_Driver/Src/stm32f0xx_hal_pcd.c ****   ep->is_in = 1U;
 2789              		.loc 1 903 0
 2790 0014 0022     		movs	r2, #0
 2791              	.LVL252:
 2792 0016 0A64     		str	r2, [r1, #64]
 904:Drivers/STM32F0xx_HAL_Driver/Src/stm32f0xx_hal_pcd.c ****   ep->num = ep_addr & 0x7FU;
 2793              		.loc 1 904 0
 2794 0018 0A00     		movs	r2, r1
 2795 001a 2932     		adds	r2, r2, #41
 2796 001c 0120     		movs	r0, #1
 2797 001e 1070     		strb	r0, [r2]
 905:Drivers/STM32F0xx_HAL_Driver/Src/stm32f0xx_hal_pcd.c ****   
 2798              		.loc 1 905 0
 2799 0020 013A     		subs	r2, r2, #1
 2800 0022 1470     		strb	r4, [r2]
 908:Drivers/STM32F0xx_HAL_Driver/Src/stm32f0xx_hal_pcd.c ****   {
 2801              		.loc 1 908 0
 2802 0024 4F6B     		ldr	r7, [r1, #52]
 2803 0026 BB42     		cmp	r3, r7
 2804 0028 33D9     		bls	.L150
 2805              	.LVL253:
 911:Drivers/STM32F0xx_HAL_Driver/Src/stm32f0xx_hal_pcd.c ****   }
ARM GAS  /tmp/ccVfu67b.s 			page 72


 2806              		.loc 1 911 0
 2807 002a DB1B     		subs	r3, r3, r7
 2808 002c CB63     		str	r3, [r1, #60]
 2809              	.LVL254:
 2810              	.L151:
 920:Drivers/STM32F0xx_HAL_Driver/Src/stm32f0xx_hal_pcd.c ****   {
 2811              		.loc 1 920 0
 2812 002e E200     		lsls	r2, r4, #3
 2813 0030 121B     		subs	r2, r2, r4
 2814 0032 9300     		lsls	r3, r2, #2
 2815 0034 1A00     		movs	r2, r3
 2816 0036 EB18     		adds	r3, r5, r3
 2817 0038 3233     		adds	r3, r3, #50
 2818 003a 1B78     		ldrb	r3, [r3]
 2819 003c 002B     		cmp	r3, #0
 2820 003e 30D0     		beq	.L167
 928:Drivers/STM32F0xx_HAL_Driver/Src/stm32f0xx_hal_pcd.c ****     {
 2821              		.loc 1 928 0
 2822 0040 2868     		ldr	r0, [r5]
 2823 0042 E200     		lsls	r2, r4, #3
 2824 0044 121B     		subs	r2, r2, r4
 2825 0046 9300     		lsls	r3, r2, #2
 2826 0048 EB18     		adds	r3, r5, r3
 2827 004a 2833     		adds	r3, r3, #40
 2828 004c 1B78     		ldrb	r3, [r3]
 2829 004e 9A00     		lsls	r2, r3, #2
 2830 0050 825A     		ldrh	r2, [r0, r2]
 2831 0052 5206     		lsls	r2, r2, #25
 2832 0054 74D5     		bpl	.L154
 931:Drivers/STM32F0xx_HAL_Driver/Src/stm32f0xx_hal_pcd.c ****       pmabuffer = ep->pmaaddr1;
 2833              		.loc 1 931 0
 2834 0056 E600     		lsls	r6, r4, #3
 2835 0058 361B     		subs	r6, r6, r4
 2836 005a B200     		lsls	r2, r6, #2
 2837 005c AA18     		adds	r2, r5, r2
 2838 005e 2932     		adds	r2, r2, #41
 2839 0060 1278     		ldrb	r2, [r2]
 2840 0062 002A     		cmp	r2, #0
 2841 0064 3BD1     		bne	.L155
 2842              	.LBB34:
 931:Drivers/STM32F0xx_HAL_Driver/Src/stm32f0xx_hal_pcd.c ****       pmabuffer = ep->pmaaddr1;
 2843              		.loc 1 931 0 is_stmt 0 discriminator 1
 2844 0066 5032     		adds	r2, r2, #80
 2845 0068 825A     		ldrh	r2, [r0, r2]
 2846 006a DB00     		lsls	r3, r3, #3
 2847 006c D318     		adds	r3, r2, r3
 2848 006e 1818     		adds	r0, r3, r0
 2849 0070 614B     		ldr	r3, .L171
 2850 0072 9C46     		mov	ip, r3
 2851 0074 6044     		add	r0, r0, ip
 2852              	.LVL255:
 2853              	.LBB35:
 2854 0076 3E2F     		cmp	r7, #62
 2855 0078 28D9     		bls	.L156
 931:Drivers/STM32F0xx_HAL_Driver/Src/stm32f0xx_hal_pcd.c ****       pmabuffer = ep->pmaaddr1;
 2856              		.loc 1 931 0 discriminator 3
 2857 007a 7B09     		lsrs	r3, r7, #5
ARM GAS  /tmp/ccVfu67b.s 			page 73


 2858 007c 9BB2     		uxth	r3, r3
 2859              	.LVL256:
 2860 007e FA06     		lsls	r2, r7, #27
 2861 0080 01D1     		bne	.L157
 931:Drivers/STM32F0xx_HAL_Driver/Src/stm32f0xx_hal_pcd.c ****       pmabuffer = ep->pmaaddr1;
 2862              		.loc 1 931 0 discriminator 5
 2863 0082 013B     		subs	r3, r3, #1
 2864              	.LVL257:
 2865 0084 9BB2     		uxth	r3, r3
 2866              	.LVL258:
 2867              	.L157:
 931:Drivers/STM32F0xx_HAL_Driver/Src/stm32f0xx_hal_pcd.c ****       pmabuffer = ep->pmaaddr1;
 2868              		.loc 1 931 0 discriminator 7
 2869 0086 9B02     		lsls	r3, r3, #10
 2870              	.LVL259:
 2871 0088 9BB2     		uxth	r3, r3
 2872 008a 5C4A     		ldr	r2, .L171+4
 2873 008c 1343     		orrs	r3, r2
 2874 008e 0380     		strh	r3, [r0]
 2875 0090 27E0     		b	.L158
 2876              	.LVL260:
 2877              	.L150:
 2878              	.LBE35:
 2879              	.LBE34:
 916:Drivers/STM32F0xx_HAL_Driver/Src/stm32f0xx_hal_pcd.c ****   }
 2880              		.loc 1 916 0 is_stmt 1
 2881 0092 E100     		lsls	r1, r4, #3
 2882              	.LVL261:
 2883 0094 091B     		subs	r1, r1, r4
 2884 0096 8A00     		lsls	r2, r1, #2
 2885              	.LVL262:
 2886 0098 AA18     		adds	r2, r5, r2
 2887 009a 0021     		movs	r1, #0
 2888 009c D163     		str	r1, [r2, #60]
 2889              	.LVL263:
 915:Drivers/STM32F0xx_HAL_Driver/Src/stm32f0xx_hal_pcd.c ****     ep->xfer_len =0U;
 2890              		.loc 1 915 0
 2891 009e 1F00     		movs	r7, r3
 2892 00a0 C5E7     		b	.L151
 2893              	.LVL264:
 2894              	.L167:
 922:Drivers/STM32F0xx_HAL_Driver/Src/stm32f0xx_hal_pcd.c ****     PCD_SET_EP_TX_CNT(hpcd->Instance, ep->num, len);
 2895              		.loc 1 922 0
 2896 00a2 BFB2     		uxth	r7, r7
 2897              	.LVL265:
 2898 00a4 AE18     		adds	r6, r5, r2
 2899 00a6 B28D     		ldrh	r2, [r6, #44]
 2900 00a8 3B00     		movs	r3, r7
 2901 00aa B16B     		ldr	r1, [r6, #56]
 2902 00ac 2868     		ldr	r0, [r5]
 2903 00ae FFF7FEFF 		bl	PCD_WritePMA
 2904              	.LVL266:
 923:Drivers/STM32F0xx_HAL_Driver/Src/stm32f0xx_hal_pcd.c ****   }
 2905              		.loc 1 923 0
 2906 00b2 2A68     		ldr	r2, [r5]
 2907 00b4 5023     		movs	r3, #80
 2908 00b6 D35A     		ldrh	r3, [r2, r3]
ARM GAS  /tmp/ccVfu67b.s 			page 74


 2909 00b8 2836     		adds	r6, r6, #40
 2910 00ba 3178     		ldrb	r1, [r6]
 2911 00bc C900     		lsls	r1, r1, #3
 2912 00be 5B18     		adds	r3, r3, r1
 2913 00c0 9B18     		adds	r3, r3, r2
 2914 00c2 4F4A     		ldr	r2, .L171+8
 2915 00c4 9446     		mov	ip, r2
 2916 00c6 6344     		add	r3, r3, ip
 2917 00c8 1F80     		strh	r7, [r3]
 2918 00ca 82E0     		b	.L153
 2919              	.LVL267:
 2920              	.L156:
 2921              	.LBB37:
 2922              	.LBB36:
 931:Drivers/STM32F0xx_HAL_Driver/Src/stm32f0xx_hal_pcd.c ****       pmabuffer = ep->pmaaddr1;
 2923              		.loc 1 931 0 discriminator 4
 2924 00cc 7B08     		lsrs	r3, r7, #1
 2925 00ce 9BB2     		uxth	r3, r3
 2926              	.LVL268:
 2927 00d0 FA07     		lsls	r2, r7, #31
 2928 00d2 01D5     		bpl	.L159
 931:Drivers/STM32F0xx_HAL_Driver/Src/stm32f0xx_hal_pcd.c ****       pmabuffer = ep->pmaaddr1;
 2929              		.loc 1 931 0 is_stmt 0 discriminator 8
 2930 00d4 0133     		adds	r3, r3, #1
 2931              	.LVL269:
 2932 00d6 9BB2     		uxth	r3, r3
 2933              	.LVL270:
 2934              	.L159:
 931:Drivers/STM32F0xx_HAL_Driver/Src/stm32f0xx_hal_pcd.c ****       pmabuffer = ep->pmaaddr1;
 2935              		.loc 1 931 0 discriminator 10
 2936 00d8 9B02     		lsls	r3, r3, #10
 2937              	.LVL271:
 2938 00da 0380     		strh	r3, [r0]
 2939 00dc 01E0     		b	.L158
 2940              	.LVL272:
 2941              	.L155:
 2942              	.LBE36:
 2943              	.LBE37:
 931:Drivers/STM32F0xx_HAL_Driver/Src/stm32f0xx_hal_pcd.c ****       pmabuffer = ep->pmaaddr1;
 2944              		.loc 1 931 0 discriminator 2
 2945 00de 012A     		cmp	r2, #1
 2946 00e0 24D0     		beq	.L168
 2947              	.L158:
 932:Drivers/STM32F0xx_HAL_Driver/Src/stm32f0xx_hal_pcd.c ****     }
 2948              		.loc 1 932 0 is_stmt 1
 2949 00e2 E200     		lsls	r2, r4, #3
 2950 00e4 121B     		subs	r2, r2, r4
 2951 00e6 9300     		lsls	r3, r2, #2
 2952 00e8 EB18     		adds	r3, r5, r3
 2953 00ea 1A8E     		ldrh	r2, [r3, #48]
 2954              	.LVL273:
 2955              	.L160:
 941:Drivers/STM32F0xx_HAL_Driver/Src/stm32f0xx_hal_pcd.c ****     PCD_FreeUserBuffer(hpcd->Instance, ep->num, ep->is_in)
 2956              		.loc 1 941 0
 2957 00ec BBB2     		uxth	r3, r7
 2958 00ee E100     		lsls	r1, r4, #3
 2959 00f0 091B     		subs	r1, r1, r4
ARM GAS  /tmp/ccVfu67b.s 			page 75


 2960 00f2 8E00     		lsls	r6, r1, #2
 2961 00f4 AE19     		adds	r6, r5, r6
 2962 00f6 B16B     		ldr	r1, [r6, #56]
 2963 00f8 2868     		ldr	r0, [r5]
 2964 00fa FFF7FEFF 		bl	PCD_WritePMA
 2965              	.LVL274:
 942:Drivers/STM32F0xx_HAL_Driver/Src/stm32f0xx_hal_pcd.c ****   }
 2966              		.loc 1 942 0
 2967 00fe 2936     		adds	r6, r6, #41
 2968 0100 3378     		ldrb	r3, [r6]
 2969 0102 002B     		cmp	r3, #0
 2970 0104 55D0     		beq	.L169
 942:Drivers/STM32F0xx_HAL_Driver/Src/stm32f0xx_hal_pcd.c ****   }
 2971              		.loc 1 942 0 is_stmt 0 discriminator 2
 2972 0106 012B     		cmp	r3, #1
 2973 0108 63D1     		bne	.L153
 942:Drivers/STM32F0xx_HAL_Driver/Src/stm32f0xx_hal_pcd.c ****   }
 2974              		.loc 1 942 0 discriminator 3
 2975 010a E200     		lsls	r2, r4, #3
 2976 010c 121B     		subs	r2, r2, r4
 2977 010e 9300     		lsls	r3, r2, #2
 2978 0110 EB18     		adds	r3, r5, r3
 2979 0112 2833     		adds	r3, r3, #40
 2980 0114 1B78     		ldrb	r3, [r3]
 2981 0116 9B00     		lsls	r3, r3, #2
 2982 0118 2A68     		ldr	r2, [r5]
 2983 011a 9446     		mov	ip, r2
 2984 011c 6344     		add	r3, r3, ip
 2985 011e 1A88     		ldrh	r2, [r3]
 2986 0120 3849     		ldr	r1, .L171+12
 2987 0122 1140     		ands	r1, r2
 2988 0124 384A     		ldr	r2, .L171+16
 2989 0126 0A43     		orrs	r2, r1
 2990 0128 1A80     		strh	r2, [r3]
 2991 012a 52E0     		b	.L153
 2992              	.LVL275:
 2993              	.L168:
 931:Drivers/STM32F0xx_HAL_Driver/Src/stm32f0xx_hal_pcd.c ****       pmabuffer = ep->pmaaddr1;
 2994              		.loc 1 931 0 is_stmt 1 discriminator 11
 2995 012c 4F32     		adds	r2, r2, #79
 2996 012e 825A     		ldrh	r2, [r0, r2]
 2997 0130 DB00     		lsls	r3, r3, #3
 2998 0132 D318     		adds	r3, r2, r3
 2999 0134 1818     		adds	r0, r3, r0
 3000 0136 304B     		ldr	r3, .L171
 3001 0138 9C46     		mov	ip, r3
 3002 013a 6044     		add	r0, r0, ip
 3003 013c 0780     		strh	r7, [r0]
 3004 013e D0E7     		b	.L158
 3005              	.L154:
 937:Drivers/STM32F0xx_HAL_Driver/Src/stm32f0xx_hal_pcd.c ****       pmabuffer = ep->pmaaddr0;
 3006              		.loc 1 937 0
 3007 0140 E600     		lsls	r6, r4, #3
 3008 0142 361B     		subs	r6, r6, r4
 3009 0144 B200     		lsls	r2, r6, #2
 3010 0146 AA18     		adds	r2, r5, r2
 3011 0148 2932     		adds	r2, r2, #41
ARM GAS  /tmp/ccVfu67b.s 			page 76


 3012 014a 1278     		ldrb	r2, [r2]
 3013 014c 002A     		cmp	r2, #0
 3014 014e 1ED1     		bne	.L161
 3015              	.LBB38:
 937:Drivers/STM32F0xx_HAL_Driver/Src/stm32f0xx_hal_pcd.c ****       pmabuffer = ep->pmaaddr0;
 3016              		.loc 1 937 0 is_stmt 0 discriminator 1
 3017 0150 5032     		adds	r2, r2, #80
 3018 0152 825A     		ldrh	r2, [r0, r2]
 3019 0154 DB00     		lsls	r3, r3, #3
 3020 0156 D318     		adds	r3, r2, r3
 3021 0158 1818     		adds	r0, r3, r0
 3022 015a 294B     		ldr	r3, .L171+8
 3023 015c 9C46     		mov	ip, r3
 3024 015e 6044     		add	r0, r0, ip
 3025              	.LVL276:
 3026              	.LBB39:
 3027 0160 3E2F     		cmp	r7, #62
 3028 0162 0BD9     		bls	.L162
 937:Drivers/STM32F0xx_HAL_Driver/Src/stm32f0xx_hal_pcd.c ****       pmabuffer = ep->pmaaddr0;
 3029              		.loc 1 937 0 discriminator 3
 3030 0164 7B09     		lsrs	r3, r7, #5
 3031 0166 9BB2     		uxth	r3, r3
 3032              	.LVL277:
 3033 0168 FA06     		lsls	r2, r7, #27
 3034 016a 01D1     		bne	.L163
 937:Drivers/STM32F0xx_HAL_Driver/Src/stm32f0xx_hal_pcd.c ****       pmabuffer = ep->pmaaddr0;
 3035              		.loc 1 937 0 discriminator 5
 3036 016c 013B     		subs	r3, r3, #1
 3037              	.LVL278:
 3038 016e 9BB2     		uxth	r3, r3
 3039              	.LVL279:
 3040              	.L163:
 937:Drivers/STM32F0xx_HAL_Driver/Src/stm32f0xx_hal_pcd.c ****       pmabuffer = ep->pmaaddr0;
 3041              		.loc 1 937 0 discriminator 7
 3042 0170 9B02     		lsls	r3, r3, #10
 3043              	.LVL280:
 3044 0172 9BB2     		uxth	r3, r3
 3045 0174 214A     		ldr	r2, .L171+4
 3046 0176 1343     		orrs	r3, r2
 3047 0178 0380     		strh	r3, [r0]
 3048 017a 0AE0     		b	.L164
 3049              	.L162:
 937:Drivers/STM32F0xx_HAL_Driver/Src/stm32f0xx_hal_pcd.c ****       pmabuffer = ep->pmaaddr0;
 3050              		.loc 1 937 0 discriminator 4
 3051 017c 7B08     		lsrs	r3, r7, #1
 3052 017e 9BB2     		uxth	r3, r3
 3053              	.LVL281:
 3054 0180 FA07     		lsls	r2, r7, #31
 3055 0182 01D5     		bpl	.L165
 937:Drivers/STM32F0xx_HAL_Driver/Src/stm32f0xx_hal_pcd.c ****       pmabuffer = ep->pmaaddr0;
 3056              		.loc 1 937 0 discriminator 8
 3057 0184 0133     		adds	r3, r3, #1
 3058              	.LVL282:
 3059 0186 9BB2     		uxth	r3, r3
 3060              	.LVL283:
 3061              	.L165:
 937:Drivers/STM32F0xx_HAL_Driver/Src/stm32f0xx_hal_pcd.c ****       pmabuffer = ep->pmaaddr0;
ARM GAS  /tmp/ccVfu67b.s 			page 77


 3062              		.loc 1 937 0 discriminator 10
 3063 0188 9B02     		lsls	r3, r3, #10
 3064              	.LVL284:
 3065 018a 0380     		strh	r3, [r0]
 3066 018c 01E0     		b	.L164
 3067              	.LVL285:
 3068              	.L161:
 3069              	.LBE39:
 3070              	.LBE38:
 937:Drivers/STM32F0xx_HAL_Driver/Src/stm32f0xx_hal_pcd.c ****       pmabuffer = ep->pmaaddr0;
 3071              		.loc 1 937 0 discriminator 2
 3072 018e 012A     		cmp	r2, #1
 3073 0190 05D0     		beq	.L170
 3074              	.L164:
 938:Drivers/STM32F0xx_HAL_Driver/Src/stm32f0xx_hal_pcd.c ****     }
 3075              		.loc 1 938 0 is_stmt 1
 3076 0192 E200     		lsls	r2, r4, #3
 3077 0194 121B     		subs	r2, r2, r4
 3078 0196 9300     		lsls	r3, r2, #2
 3079 0198 EB18     		adds	r3, r5, r3
 3080 019a DA8D     		ldrh	r2, [r3, #46]
 3081              	.LVL286:
 3082 019c A6E7     		b	.L160
 3083              	.LVL287:
 3084              	.L170:
 937:Drivers/STM32F0xx_HAL_Driver/Src/stm32f0xx_hal_pcd.c ****       pmabuffer = ep->pmaaddr0;
 3085              		.loc 1 937 0 discriminator 11
 3086 019e 4F32     		adds	r2, r2, #79
 3087 01a0 825A     		ldrh	r2, [r0, r2]
 3088 01a2 DB00     		lsls	r3, r3, #3
 3089 01a4 D318     		adds	r3, r2, r3
 3090 01a6 1818     		adds	r0, r3, r0
 3091 01a8 154B     		ldr	r3, .L171+8
 3092 01aa 9C46     		mov	ip, r3
 3093 01ac 6044     		add	r0, r0, ip
 3094 01ae 0780     		strh	r7, [r0]
 3095 01b0 EFE7     		b	.L164
 3096              	.LVL288:
 3097              	.L169:
 942:Drivers/STM32F0xx_HAL_Driver/Src/stm32f0xx_hal_pcd.c ****   }
 3098              		.loc 1 942 0 discriminator 1
 3099 01b2 E200     		lsls	r2, r4, #3
 3100 01b4 121B     		subs	r2, r2, r4
 3101 01b6 9300     		lsls	r3, r2, #2
 3102 01b8 EB18     		adds	r3, r5, r3
 3103 01ba 2833     		adds	r3, r3, #40
 3104 01bc 1B78     		ldrb	r3, [r3]
 3105 01be 9B00     		lsls	r3, r3, #2
 3106 01c0 2A68     		ldr	r2, [r5]
 3107 01c2 9446     		mov	ip, r2
 3108 01c4 6344     		add	r3, r3, ip
 3109 01c6 1A88     		ldrh	r2, [r3]
 3110 01c8 0E49     		ldr	r1, .L171+12
 3111 01ca 1140     		ands	r1, r2
 3112 01cc 0F4A     		ldr	r2, .L171+20
 3113 01ce 0A43     		orrs	r2, r1
 3114 01d0 1A80     		strh	r2, [r3]
ARM GAS  /tmp/ccVfu67b.s 			page 78


 3115              	.LVL289:
 3116              	.L153:
 3117              	.LBB40:
 945:Drivers/STM32F0xx_HAL_Driver/Src/stm32f0xx_hal_pcd.c ****      
 3118              		.loc 1 945 0
 3119 01d2 2A68     		ldr	r2, [r5]
 3120 01d4 E100     		lsls	r1, r4, #3
 3121 01d6 0C1B     		subs	r4, r1, r4
 3122              	.LVL290:
 3123 01d8 A300     		lsls	r3, r4, #2
 3124 01da ED18     		adds	r5, r5, r3
 3125              	.LVL291:
 3126 01dc 2835     		adds	r5, r5, #40
 3127 01de 2B78     		ldrb	r3, [r5]
 3128 01e0 9B00     		lsls	r3, r3, #2
 3129 01e2 D218     		adds	r2, r2, r3
 3130 01e4 1388     		ldrh	r3, [r2]
 3131 01e6 0A49     		ldr	r1, .L171+24
 3132 01e8 0B40     		ands	r3, r1
 3133              	.LVL292:
 3134 01ea 3021     		movs	r1, #48
 3135 01ec 4B40     		eors	r3, r1
 3136              	.LVL293:
 3137 01ee 0949     		ldr	r1, .L171+28
 3138 01f0 0B43     		orrs	r3, r1
 3139              	.LVL294:
 3140 01f2 1380     		strh	r3, [r2]
 3141              	.LBE40:
 948:Drivers/STM32F0xx_HAL_Driver/Src/stm32f0xx_hal_pcd.c **** 
 3142              		.loc 1 948 0
 3143 01f4 0020     		movs	r0, #0
 3144              		@ sp needed
 3145 01f6 F8BD     		pop	{r3, r4, r5, r6, r7, pc}
 3146              	.L172:
 3147              		.align	2
 3148              	.L171:
 3149 01f8 06040000 		.word	1030
 3150 01fc 0080FFFF 		.word	-32768
 3151 0200 02040000 		.word	1026
 3152 0204 0F0F0000 		.word	3855
 3153 0208 80C0FFFF 		.word	-16256
 3154 020c C080FFFF 		.word	-32576
 3155 0210 BF8FFFFF 		.word	-28737
 3156 0214 8080FFFF 		.word	-32640
 3157              		.cfi_endproc
 3158              	.LFE62:
 3160              		.section	.text.PCD_ReadPMA,"ax",%progbits
 3161              		.align	1
 3162              		.global	PCD_ReadPMA
 3163              		.syntax unified
 3164              		.code	16
 3165              		.thumb_func
 3166              		.fpu softvfp
 3168              	PCD_ReadPMA:
 3169              	.LFB70:
1152:Drivers/STM32F0xx_HAL_Driver/Src/stm32f0xx_hal_pcd.c **** 
1153:Drivers/STM32F0xx_HAL_Driver/Src/stm32f0xx_hal_pcd.c **** /**
ARM GAS  /tmp/ccVfu67b.s 			page 79


1154:Drivers/STM32F0xx_HAL_Driver/Src/stm32f0xx_hal_pcd.c ****   * @brief Copy a buffer from user memory area to packet memory area (PMA)
1155:Drivers/STM32F0xx_HAL_Driver/Src/stm32f0xx_hal_pcd.c ****   * @param   USBx USB peripheral instance register address.
1156:Drivers/STM32F0xx_HAL_Driver/Src/stm32f0xx_hal_pcd.c ****   * @param   pbUsrBuf    = pointer to user memory area.
1157:Drivers/STM32F0xx_HAL_Driver/Src/stm32f0xx_hal_pcd.c ****   * @param   wPMABufAddr address into PMA.
1158:Drivers/STM32F0xx_HAL_Driver/Src/stm32f0xx_hal_pcd.c ****   * @param   wNBytes no. of bytes to be copied.
1159:Drivers/STM32F0xx_HAL_Driver/Src/stm32f0xx_hal_pcd.c ****   * @retval None
1160:Drivers/STM32F0xx_HAL_Driver/Src/stm32f0xx_hal_pcd.c ****   */
1161:Drivers/STM32F0xx_HAL_Driver/Src/stm32f0xx_hal_pcd.c **** void PCD_ReadPMA(USB_TypeDef  *USBx, uint8_t *pbUsrBuf, uint16_t wPMABufAddr, uint16_t wNBytes)
1162:Drivers/STM32F0xx_HAL_Driver/Src/stm32f0xx_hal_pcd.c **** {
 3170              		.loc 1 1162 0
 3171              		.cfi_startproc
 3172              		@ args = 0, pretend = 0, frame = 0
 3173              		@ frame_needed = 0, uses_anonymous_args = 0
 3174              	.LVL295:
 3175 0000 30B5     		push	{r4, r5, lr}
 3176              	.LCFI12:
 3177              		.cfi_def_cfa_offset 12
 3178              		.cfi_offset 4, -12
 3179              		.cfi_offset 5, -8
 3180              		.cfi_offset 14, -4
1163:Drivers/STM32F0xx_HAL_Driver/Src/stm32f0xx_hal_pcd.c ****   uint32_t n = (uint32_t)wNBytes >> 1U;
 3181              		.loc 1 1163 0
 3182 0002 5D08     		lsrs	r5, r3, #1
 3183              	.LVL296:
1164:Drivers/STM32F0xx_HAL_Driver/Src/stm32f0xx_hal_pcd.c ****   uint32_t i;
1165:Drivers/STM32F0xx_HAL_Driver/Src/stm32f0xx_hal_pcd.c ****   uint16_t *pdwVal;
1166:Drivers/STM32F0xx_HAL_Driver/Src/stm32f0xx_hal_pcd.c ****   uint32_t temp;
1167:Drivers/STM32F0xx_HAL_Driver/Src/stm32f0xx_hal_pcd.c ****   pdwVal = (uint16_t *)((uint32_t)(wPMABufAddr + (uint32_t)USBx + 0x400U));
 3184              		.loc 1 1167 0
 3185 0004 1218     		adds	r2, r2, r0
 3186              	.LVL297:
 3187 0006 8020     		movs	r0, #128
 3188              	.LVL298:
 3189 0008 C000     		lsls	r0, r0, #3
 3190 000a 8446     		mov	ip, r0
 3191 000c 6244     		add	r2, r2, ip
 3192              	.LVL299:
1168:Drivers/STM32F0xx_HAL_Driver/Src/stm32f0xx_hal_pcd.c ****   
1169:Drivers/STM32F0xx_HAL_Driver/Src/stm32f0xx_hal_pcd.c ****   for (i = n; i != 0U; i--)
 3193              		.loc 1 1169 0
 3194 000e 06E0     		b	.L174
 3195              	.LVL300:
 3196              	.L175:
1170:Drivers/STM32F0xx_HAL_Driver/Src/stm32f0xx_hal_pcd.c ****   {
1171:Drivers/STM32F0xx_HAL_Driver/Src/stm32f0xx_hal_pcd.c ****     temp = *pdwVal++;
 3197              		.loc 1 1171 0 discriminator 3
 3198 0010 1488     		ldrh	r4, [r2]
 3199              	.LVL301:
1172:Drivers/STM32F0xx_HAL_Driver/Src/stm32f0xx_hal_pcd.c ****     *pbUsrBuf++ = ((temp >> 0) & 0xFF);
 3200              		.loc 1 1172 0 discriminator 3
 3201 0012 0C70     		strb	r4, [r1]
1173:Drivers/STM32F0xx_HAL_Driver/Src/stm32f0xx_hal_pcd.c ****     *pbUsrBuf++ = ((temp >> 8) & 0xFF);
 3202              		.loc 1 1173 0 discriminator 3
 3203 0014 240A     		lsrs	r4, r4, #8
 3204              	.LVL302:
 3205 0016 4C70     		strb	r4, [r1, #1]
1169:Drivers/STM32F0xx_HAL_Driver/Src/stm32f0xx_hal_pcd.c ****   {
ARM GAS  /tmp/ccVfu67b.s 			page 80


 3206              		.loc 1 1169 0 discriminator 3
 3207 0018 013D     		subs	r5, r5, #1
 3208              	.LVL303:
1171:Drivers/STM32F0xx_HAL_Driver/Src/stm32f0xx_hal_pcd.c ****     *pbUsrBuf++ = ((temp >> 0) & 0xFF);
 3209              		.loc 1 1171 0 discriminator 3
 3210 001a 0232     		adds	r2, r2, #2
 3211              	.LVL304:
 3212              		.loc 1 1173 0 discriminator 3
 3213 001c 0231     		adds	r1, r1, #2
 3214              	.LVL305:
 3215              	.L174:
1169:Drivers/STM32F0xx_HAL_Driver/Src/stm32f0xx_hal_pcd.c ****   {
 3216              		.loc 1 1169 0 discriminator 1
 3217 001e 002D     		cmp	r5, #0
 3218 0020 F6D1     		bne	.L175
1174:Drivers/STM32F0xx_HAL_Driver/Src/stm32f0xx_hal_pcd.c ****   }
1175:Drivers/STM32F0xx_HAL_Driver/Src/stm32f0xx_hal_pcd.c ****   
1176:Drivers/STM32F0xx_HAL_Driver/Src/stm32f0xx_hal_pcd.c ****   if (wNBytes % 2)
 3219              		.loc 1 1176 0
 3220 0022 DB07     		lsls	r3, r3, #31
 3221 0024 01D5     		bpl	.L173
 3222              	.LVL306:
1177:Drivers/STM32F0xx_HAL_Driver/Src/stm32f0xx_hal_pcd.c ****   {
1178:Drivers/STM32F0xx_HAL_Driver/Src/stm32f0xx_hal_pcd.c ****     temp = *pdwVal++;
 3223              		.loc 1 1178 0
 3224 0026 1388     		ldrh	r3, [r2]
 3225              	.LVL307:
1179:Drivers/STM32F0xx_HAL_Driver/Src/stm32f0xx_hal_pcd.c ****     *pbUsrBuf++ = ((temp >> 0) & 0xFF);
 3226              		.loc 1 1179 0
 3227 0028 0B70     		strb	r3, [r1]
 3228              	.LVL308:
 3229              	.L173:
1180:Drivers/STM32F0xx_HAL_Driver/Src/stm32f0xx_hal_pcd.c ****   }
1181:Drivers/STM32F0xx_HAL_Driver/Src/stm32f0xx_hal_pcd.c **** }
 3230              		.loc 1 1181 0
 3231              		@ sp needed
 3232              	.LVL309:
 3233 002a 30BD     		pop	{r4, r5, pc}
 3234              		.cfi_endproc
 3235              	.LFE70:
 3237              		.section	.text.PCD_EP_ISR_Handler,"ax",%progbits
 3238              		.align	1
 3239              		.syntax unified
 3240              		.code	16
 3241              		.thumb_func
 3242              		.fpu softvfp
 3244              	PCD_EP_ISR_Handler:
 3245              	.LFB71:
1182:Drivers/STM32F0xx_HAL_Driver/Src/stm32f0xx_hal_pcd.c **** 
1183:Drivers/STM32F0xx_HAL_Driver/Src/stm32f0xx_hal_pcd.c **** /**
1184:Drivers/STM32F0xx_HAL_Driver/Src/stm32f0xx_hal_pcd.c ****   * @brief  This function handles PCD Endpoint interrupt request.
1185:Drivers/STM32F0xx_HAL_Driver/Src/stm32f0xx_hal_pcd.c ****   * @param  hpcd PCD handle
1186:Drivers/STM32F0xx_HAL_Driver/Src/stm32f0xx_hal_pcd.c ****   * @retval HAL status
1187:Drivers/STM32F0xx_HAL_Driver/Src/stm32f0xx_hal_pcd.c ****   */
1188:Drivers/STM32F0xx_HAL_Driver/Src/stm32f0xx_hal_pcd.c **** static HAL_StatusTypeDef PCD_EP_ISR_Handler(PCD_HandleTypeDef *hpcd)
1189:Drivers/STM32F0xx_HAL_Driver/Src/stm32f0xx_hal_pcd.c **** {
 3246              		.loc 1 1189 0
ARM GAS  /tmp/ccVfu67b.s 			page 81


 3247              		.cfi_startproc
 3248              		@ args = 0, pretend = 0, frame = 8
 3249              		@ frame_needed = 0, uses_anonymous_args = 0
 3250              	.LVL310:
 3251 0000 F0B5     		push	{r4, r5, r6, r7, lr}
 3252              	.LCFI13:
 3253              		.cfi_def_cfa_offset 20
 3254              		.cfi_offset 4, -20
 3255              		.cfi_offset 5, -16
 3256              		.cfi_offset 6, -12
 3257              		.cfi_offset 7, -8
 3258              		.cfi_offset 14, -4
 3259 0002 83B0     		sub	sp, sp, #12
 3260              	.LCFI14:
 3261              		.cfi_def_cfa_offset 32
 3262 0004 0500     		movs	r5, r0
 3263              	.LVL311:
1190:Drivers/STM32F0xx_HAL_Driver/Src/stm32f0xx_hal_pcd.c ****   PCD_EPTypeDef *ep;
1191:Drivers/STM32F0xx_HAL_Driver/Src/stm32f0xx_hal_pcd.c ****   uint16_t count=0U;
1192:Drivers/STM32F0xx_HAL_Driver/Src/stm32f0xx_hal_pcd.c ****   uint8_t EPindex;
1193:Drivers/STM32F0xx_HAL_Driver/Src/stm32f0xx_hal_pcd.c ****   __IO uint16_t wIstr;  
1194:Drivers/STM32F0xx_HAL_Driver/Src/stm32f0xx_hal_pcd.c ****   __IO uint16_t wEPVal = 0U;
 3264              		.loc 1 1194 0
 3265 0006 01AB     		add	r3, sp, #4
 3266 0008 0022     		movs	r2, #0
 3267 000a 1A80     		strh	r2, [r3]
 3268              	.LVL312:
 3269              	.L178:
1195:Drivers/STM32F0xx_HAL_Driver/Src/stm32f0xx_hal_pcd.c ****   
1196:Drivers/STM32F0xx_HAL_Driver/Src/stm32f0xx_hal_pcd.c ****   /* stay in loop while pending interrupts */
1197:Drivers/STM32F0xx_HAL_Driver/Src/stm32f0xx_hal_pcd.c ****   while (((wIstr = hpcd->Instance->ISTR) & USB_ISTR_CTR) != 0U)
 3270              		.loc 1 1197 0
 3271 000c 2868     		ldr	r0, [r5]
 3272 000e 4423     		movs	r3, #68
 3273 0010 C35A     		ldrh	r3, [r0, r3]
 3274 0012 9BB2     		uxth	r3, r3
 3275 0014 6A46     		mov	r2, sp
 3276 0016 D380     		strh	r3, [r2, #6]
 3277 0018 1BB2     		sxth	r3, r3
 3278 001a 002B     		cmp	r3, #0
 3279 001c 00DB     		blt	.LCB3435
 3280 001e 39E2     		b	.L201	@long jump
 3281              	.LCB3435:
1198:Drivers/STM32F0xx_HAL_Driver/Src/stm32f0xx_hal_pcd.c ****   {
1199:Drivers/STM32F0xx_HAL_Driver/Src/stm32f0xx_hal_pcd.c ****     /* extract highest priority endpoint number */
1200:Drivers/STM32F0xx_HAL_Driver/Src/stm32f0xx_hal_pcd.c ****     EPindex = (uint8_t)(wIstr & USB_ISTR_EP_ID);
 3282              		.loc 1 1200 0
 3283 0020 6B46     		mov	r3, sp
 3284 0022 DC88     		ldrh	r4, [r3, #6]
 3285 0024 0F23     		movs	r3, #15
 3286 0026 1C40     		ands	r4, r3
 3287              	.LVL313:
1201:Drivers/STM32F0xx_HAL_Driver/Src/stm32f0xx_hal_pcd.c ****     
1202:Drivers/STM32F0xx_HAL_Driver/Src/stm32f0xx_hal_pcd.c ****     if (EPindex == 0U)
 3288              		.loc 1 1202 0
 3289 0028 00D0     		beq	.LCB3445
 3290 002a B5E0     		b	.L179	@long jump
ARM GAS  /tmp/ccVfu67b.s 			page 82


 3291              	.LCB3445:
1203:Drivers/STM32F0xx_HAL_Driver/Src/stm32f0xx_hal_pcd.c ****     {
1204:Drivers/STM32F0xx_HAL_Driver/Src/stm32f0xx_hal_pcd.c ****       /* Decode and service control endpoint interrupt */
1205:Drivers/STM32F0xx_HAL_Driver/Src/stm32f0xx_hal_pcd.c ****       
1206:Drivers/STM32F0xx_HAL_Driver/Src/stm32f0xx_hal_pcd.c ****       /* DIR bit = origin of the interrupt */   
1207:Drivers/STM32F0xx_HAL_Driver/Src/stm32f0xx_hal_pcd.c ****       if ((wIstr & USB_ISTR_DIR) == 0U)
 3292              		.loc 1 1207 0
 3293 002c 6B46     		mov	r3, sp
 3294 002e 0633     		adds	r3, r3, #6
 3295 0030 1B88     		ldrh	r3, [r3]
 3296 0032 DB06     		lsls	r3, r3, #27
 3297 0034 4BD5     		bpl	.L202
 3298              	.LVL314:
1208:Drivers/STM32F0xx_HAL_Driver/Src/stm32f0xx_hal_pcd.c ****       {
1209:Drivers/STM32F0xx_HAL_Driver/Src/stm32f0xx_hal_pcd.c ****         /* DIR = 0 */
1210:Drivers/STM32F0xx_HAL_Driver/Src/stm32f0xx_hal_pcd.c ****         
1211:Drivers/STM32F0xx_HAL_Driver/Src/stm32f0xx_hal_pcd.c ****         /* DIR = 0      => IN  int */
1212:Drivers/STM32F0xx_HAL_Driver/Src/stm32f0xx_hal_pcd.c ****         /* DIR = 0 implies that (EP_CTR_TX = 1) always  */
1213:Drivers/STM32F0xx_HAL_Driver/Src/stm32f0xx_hal_pcd.c ****         PCD_CLEAR_TX_EP_CTR(hpcd->Instance, PCD_ENDP0);
1214:Drivers/STM32F0xx_HAL_Driver/Src/stm32f0xx_hal_pcd.c ****         ep = &hpcd->IN_ep[0];
1215:Drivers/STM32F0xx_HAL_Driver/Src/stm32f0xx_hal_pcd.c ****         
1216:Drivers/STM32F0xx_HAL_Driver/Src/stm32f0xx_hal_pcd.c ****         ep->xfer_count = PCD_GET_EP_TX_CNT(hpcd->Instance, ep->num);
1217:Drivers/STM32F0xx_HAL_Driver/Src/stm32f0xx_hal_pcd.c ****         ep->xfer_buff += ep->xfer_count;
1218:Drivers/STM32F0xx_HAL_Driver/Src/stm32f0xx_hal_pcd.c ****  
1219:Drivers/STM32F0xx_HAL_Driver/Src/stm32f0xx_hal_pcd.c ****         /* TX COMPLETE */
1220:Drivers/STM32F0xx_HAL_Driver/Src/stm32f0xx_hal_pcd.c ****         HAL_PCD_DataInStageCallback(hpcd, 0U);
1221:Drivers/STM32F0xx_HAL_Driver/Src/stm32f0xx_hal_pcd.c ****         
1222:Drivers/STM32F0xx_HAL_Driver/Src/stm32f0xx_hal_pcd.c ****         
1223:Drivers/STM32F0xx_HAL_Driver/Src/stm32f0xx_hal_pcd.c ****         if((hpcd->USB_Address > 0U)&& ( ep->xfer_len == 0U))
1224:Drivers/STM32F0xx_HAL_Driver/Src/stm32f0xx_hal_pcd.c ****         {
1225:Drivers/STM32F0xx_HAL_Driver/Src/stm32f0xx_hal_pcd.c ****           hpcd->Instance->DADDR = (hpcd->USB_Address | USB_DADDR_EF);
1226:Drivers/STM32F0xx_HAL_Driver/Src/stm32f0xx_hal_pcd.c ****           hpcd->USB_Address = 0U;
1227:Drivers/STM32F0xx_HAL_Driver/Src/stm32f0xx_hal_pcd.c ****         }
1228:Drivers/STM32F0xx_HAL_Driver/Src/stm32f0xx_hal_pcd.c ****         
1229:Drivers/STM32F0xx_HAL_Driver/Src/stm32f0xx_hal_pcd.c ****       }
1230:Drivers/STM32F0xx_HAL_Driver/Src/stm32f0xx_hal_pcd.c ****       else
1231:Drivers/STM32F0xx_HAL_Driver/Src/stm32f0xx_hal_pcd.c ****       {
1232:Drivers/STM32F0xx_HAL_Driver/Src/stm32f0xx_hal_pcd.c ****         /* DIR = 1 */
1233:Drivers/STM32F0xx_HAL_Driver/Src/stm32f0xx_hal_pcd.c ****         
1234:Drivers/STM32F0xx_HAL_Driver/Src/stm32f0xx_hal_pcd.c ****         /* DIR = 1 & CTR_RX       => SETUP or OUT int */
1235:Drivers/STM32F0xx_HAL_Driver/Src/stm32f0xx_hal_pcd.c ****         /* DIR = 1 & (CTR_TX | CTR_RX) => 2 int pending */
1236:Drivers/STM32F0xx_HAL_Driver/Src/stm32f0xx_hal_pcd.c ****         ep = &hpcd->OUT_ep[0];
1237:Drivers/STM32F0xx_HAL_Driver/Src/stm32f0xx_hal_pcd.c ****         wEPVal = PCD_GET_ENDPOINT(hpcd->Instance, PCD_ENDP0);
 3299              		.loc 1 1237 0
 3300 0036 0288     		ldrh	r2, [r0]
 3301 0038 01AB     		add	r3, sp, #4
 3302 003a 1A80     		strh	r2, [r3]
1238:Drivers/STM32F0xx_HAL_Driver/Src/stm32f0xx_hal_pcd.c ****         
1239:Drivers/STM32F0xx_HAL_Driver/Src/stm32f0xx_hal_pcd.c ****         if ((wEPVal & USB_EP_SETUP) != 0U)
 3303              		.loc 1 1239 0
 3304 003c 1B88     		ldrh	r3, [r3]
 3305 003e 1B05     		lsls	r3, r3, #20
 3306 0040 75D4     		bmi	.L203
1240:Drivers/STM32F0xx_HAL_Driver/Src/stm32f0xx_hal_pcd.c ****         {
1241:Drivers/STM32F0xx_HAL_Driver/Src/stm32f0xx_hal_pcd.c ****           /* Get SETUP Packet*/
1242:Drivers/STM32F0xx_HAL_Driver/Src/stm32f0xx_hal_pcd.c ****           ep->xfer_count = PCD_GET_EP_RX_CNT(hpcd->Instance, ep->num);
1243:Drivers/STM32F0xx_HAL_Driver/Src/stm32f0xx_hal_pcd.c ****           PCD_ReadPMA(hpcd->Instance, (uint8_t*)(void*)hpcd->Setup ,ep->pmaadress , ep->xfer_count)
ARM GAS  /tmp/ccVfu67b.s 			page 83


1244:Drivers/STM32F0xx_HAL_Driver/Src/stm32f0xx_hal_pcd.c ****           /* SETUP bit kept frozen while CTR_RX = 1*/ 
1245:Drivers/STM32F0xx_HAL_Driver/Src/stm32f0xx_hal_pcd.c ****           PCD_CLEAR_RX_EP_CTR(hpcd->Instance, PCD_ENDP0); 
1246:Drivers/STM32F0xx_HAL_Driver/Src/stm32f0xx_hal_pcd.c ****           
1247:Drivers/STM32F0xx_HAL_Driver/Src/stm32f0xx_hal_pcd.c ****           /* Process SETUP Packet*/
1248:Drivers/STM32F0xx_HAL_Driver/Src/stm32f0xx_hal_pcd.c ****           HAL_PCD_SetupStageCallback(hpcd);
1249:Drivers/STM32F0xx_HAL_Driver/Src/stm32f0xx_hal_pcd.c ****         }
1250:Drivers/STM32F0xx_HAL_Driver/Src/stm32f0xx_hal_pcd.c ****         
1251:Drivers/STM32F0xx_HAL_Driver/Src/stm32f0xx_hal_pcd.c ****         else if ((wEPVal & USB_EP_CTR_RX) != 0U)
 3307              		.loc 1 1251 0
 3308 0042 01AB     		add	r3, sp, #4
 3309 0044 1B88     		ldrh	r3, [r3]
 3310 0046 1BB2     		sxth	r3, r3
 3311 0048 002B     		cmp	r3, #0
 3312 004a DFDA     		bge	.L178
1252:Drivers/STM32F0xx_HAL_Driver/Src/stm32f0xx_hal_pcd.c ****         {
1253:Drivers/STM32F0xx_HAL_Driver/Src/stm32f0xx_hal_pcd.c ****           PCD_CLEAR_RX_EP_CTR(hpcd->Instance, PCD_ENDP0);
 3313              		.loc 1 1253 0
 3314 004c 0388     		ldrh	r3, [r0]
 3315 004e CA4A     		ldr	r2, .L208
 3316 0050 1340     		ands	r3, r2
 3317 0052 0380     		strh	r3, [r0]
1254:Drivers/STM32F0xx_HAL_Driver/Src/stm32f0xx_hal_pcd.c ****           /* Get Control Data OUT Packet*/
1255:Drivers/STM32F0xx_HAL_Driver/Src/stm32f0xx_hal_pcd.c ****           ep->xfer_count = PCD_GET_EP_RX_CNT(hpcd->Instance, ep->num);
 3318              		.loc 1 1255 0
 3319 0054 2868     		ldr	r0, [r5]
 3320 0056 5023     		movs	r3, #80
 3321 0058 C35A     		ldrh	r3, [r0, r3]
 3322 005a 8422     		movs	r2, #132
 3323 005c 5200     		lsls	r2, r2, #1
 3324 005e AA5C     		ldrb	r2, [r5, r2]
 3325 0060 D200     		lsls	r2, r2, #3
 3326 0062 9B18     		adds	r3, r3, r2
 3327 0064 1B18     		adds	r3, r3, r0
 3328 0066 C54A     		ldr	r2, .L208+4
 3329 0068 9446     		mov	ip, r2
 3330 006a 6344     		add	r3, r3, ip
 3331 006c 1B88     		ldrh	r3, [r3]
 3332 006e 9B05     		lsls	r3, r3, #22
 3333 0070 9B0D     		lsrs	r3, r3, #22
 3334 0072 2A00     		movs	r2, r5
 3335 0074 0932     		adds	r2, r2, #9
 3336 0076 FF32     		adds	r2, r2, #255
 3337 0078 9361     		str	r3, [r2, #24]
1256:Drivers/STM32F0xx_HAL_Driver/Src/stm32f0xx_hal_pcd.c ****           
1257:Drivers/STM32F0xx_HAL_Driver/Src/stm32f0xx_hal_pcd.c ****           if (ep->xfer_count != 0U)
 3338              		.loc 1 1257 0
 3339 007a 002B     		cmp	r3, #0
 3340 007c 00D0     		beq	.LCB3499
 3341 007e 77E0     		b	.L204	@long jump
 3342              	.LCB3499:
 3343              	.LVL315:
 3344              	.L183:
1258:Drivers/STM32F0xx_HAL_Driver/Src/stm32f0xx_hal_pcd.c ****           {
1259:Drivers/STM32F0xx_HAL_Driver/Src/stm32f0xx_hal_pcd.c ****             PCD_ReadPMA(hpcd->Instance, ep->xfer_buff, ep->pmaadress, ep->xfer_count);
1260:Drivers/STM32F0xx_HAL_Driver/Src/stm32f0xx_hal_pcd.c ****             ep->xfer_buff+=ep->xfer_count;
1261:Drivers/STM32F0xx_HAL_Driver/Src/stm32f0xx_hal_pcd.c ****           }
1262:Drivers/STM32F0xx_HAL_Driver/Src/stm32f0xx_hal_pcd.c ****           
ARM GAS  /tmp/ccVfu67b.s 			page 84


