ARM GAS  /tmp/ccWvVg6G.s 			page 1


   1              		.cpu cortex-m0
   2              		.eabi_attribute 20, 1
   3              		.eabi_attribute 21, 1
   4              		.eabi_attribute 23, 3
   5              		.eabi_attribute 24, 1
   6              		.eabi_attribute 25, 1
   7              		.eabi_attribute 26, 1
   8              		.eabi_attribute 30, 1
   9              		.eabi_attribute 34, 0
  10              		.eabi_attribute 18, 4
  11              		.file	"usb_pd_protocol.c"
  12              		.text
  13              	.Ltext0:
  14              		.cfi_sections	.debug_frame
  15              		.section	.text.inc_id,"ax",%progbits
  16              		.align	1
  17              		.syntax unified
  18              		.code	16
  19              		.thumb_func
  20              		.fpu softvfp
  22              	inc_id:
  23              	.LFB25:
  24              		.file 1 "Src/usb_pd_protocol.c"
   1:Src/usb_pd_protocol.c **** /* Copyright (c) 2014 The Chromium OS Authors. All rights reserved.
   2:Src/usb_pd_protocol.c ****  * Use of this source code is governed by a BSD-style license that can be
   3:Src/usb_pd_protocol.c ****  * found in the LICENSE file.
   4:Src/usb_pd_protocol.c ****  */
   5:Src/usb_pd_protocol.c **** 
   6:Src/usb_pd_protocol.c **** //#include "battery.h"
   7:Src/usb_pd_protocol.c **** //#include "battery_smart.h"
   8:Src/usb_pd_protocol.c **** //#include "board.h"
   9:Src/usb_pd_protocol.c **** //#include "charge_manager.h"
  10:Src/usb_pd_protocol.c **** //#include "charge_state.h"
  11:Src/usb_pd_protocol.c **** //#include "chipset.h"
  12:Src/usb_pd_protocol.c **** //#include "common.h"
  13:Src/usb_pd_protocol.c **** //#include "console.h"
  14:Src/usb_pd_protocol.c **** //#include "ec_commands.h"
  15:Src/usb_pd_protocol.c **** //#include "gpio.h"
  16:Src/usb_pd_protocol.c **** //#include "hooks.h"
  17:Src/usb_pd_protocol.c **** //#include "host_command.h"
  18:Src/usb_pd_protocol.c **** //#include "registers.h"
  19:Src/usb_pd_protocol.c **** //#include "system.h"
  20:Src/usb_pd_protocol.c **** //#include "task.h"
  21:Src/usb_pd_protocol.c **** //#include "timer.h"
  22:Src/usb_pd_protocol.c **** //#include "util.h"
  23:Src/usb_pd_protocol.c **** //#include "usb_charge.h"
  24:Src/usb_pd_protocol.c **** //#include "usb_mux.h"
  25:Src/usb_pd_protocol.c **** #include "usb_pd.h"
  26:Src/usb_pd_protocol.c **** #include "usb_pd_tcpm.h"
  27:Src/usb_pd_protocol.c **** #include "tcpm.h"
  28:Src/usb_pd_protocol.c **** #include "usb_pd_driver.h"
  29:Src/usb_pd_protocol.c **** //#include "version.h"
  30:Src/usb_pd_protocol.c **** 
  31:Src/usb_pd_protocol.c **** #ifdef CONFIG_COMMON_RUNTIME
  32:Src/usb_pd_protocol.c **** #define CPRINTF(format, args...) cprintf(CC_USBPD, format, ## args)
  33:Src/usb_pd_protocol.c **** #define CPRINTS(format, args...) cprints(CC_USBPD, format, ## args)
  34:Src/usb_pd_protocol.c **** 
ARM GAS  /tmp/ccWvVg6G.s 			page 2


  35:Src/usb_pd_protocol.c **** BUILD_ASSERT(CONFIG_USB_PD_PORT_COUNT <= EC_USB_PD_MAX_PORTS);
  36:Src/usb_pd_protocol.c **** 
  37:Src/usb_pd_protocol.c **** /*
  38:Src/usb_pd_protocol.c ****  * Debug log level - higher number == more log
  39:Src/usb_pd_protocol.c ****  *   Level 0: Log state transitions
  40:Src/usb_pd_protocol.c ****  *   Level 1: Level 0, plus state name
  41:Src/usb_pd_protocol.c ****  *   Level 2: Level 1, plus packet info
  42:Src/usb_pd_protocol.c ****  *   Level 3: Level 2, plus ping packet and packet dump on error
  43:Src/usb_pd_protocol.c ****  *
  44:Src/usb_pd_protocol.c ****  * Note that higher log level causes timing changes and thus may affect
  45:Src/usb_pd_protocol.c ****  * performance.
  46:Src/usb_pd_protocol.c ****  *
  47:Src/usb_pd_protocol.c ****  * Can be limited to constant debug_level by CONFIG_USB_PD_DEBUG_LEVEL
  48:Src/usb_pd_protocol.c ****  */
  49:Src/usb_pd_protocol.c **** #ifdef CONFIG_USB_PD_DEBUG_LEVEL
  50:Src/usb_pd_protocol.c **** static const int debug_level = CONFIG_USB_PD_DEBUG_LEVEL;
  51:Src/usb_pd_protocol.c **** #else
  52:Src/usb_pd_protocol.c **** static int debug_level;
  53:Src/usb_pd_protocol.c **** #endif
  54:Src/usb_pd_protocol.c **** 
  55:Src/usb_pd_protocol.c **** /*
  56:Src/usb_pd_protocol.c ****  * PD communication enabled flag. When false, PD state machine still
  57:Src/usb_pd_protocol.c ****  * detects source/sink connection and disconnection, and will still
  58:Src/usb_pd_protocol.c ****  * provide VBUS, but never sends any PD communication.
  59:Src/usb_pd_protocol.c ****  */
  60:Src/usb_pd_protocol.c **** static uint8_t pd_comm_enabled[CONFIG_USB_PD_PORT_COUNT];
  61:Src/usb_pd_protocol.c **** #else /* CONFIG_COMMON_RUNTIME */
  62:Src/usb_pd_protocol.c **** #define CPRINTF(format, args...)
  63:Src/usb_pd_protocol.c **** #define CPRINTS(format, args...)
  64:Src/usb_pd_protocol.c **** static const int debug_level;
  65:Src/usb_pd_protocol.c **** #endif
  66:Src/usb_pd_protocol.c **** 
  67:Src/usb_pd_protocol.c **** #ifdef CONFIG_USB_PD_DUAL_ROLE
  68:Src/usb_pd_protocol.c **** #define DUAL_ROLE_IF_ELSE(port, sink_clause, src_clause) \
  69:Src/usb_pd_protocol.c **** 	(pd[port].power_role == PD_ROLE_SINK ? (sink_clause) : (src_clause))
  70:Src/usb_pd_protocol.c **** #else
  71:Src/usb_pd_protocol.c **** #define DUAL_ROLE_IF_ELSE(port, sink_clause, src_clause) (src_clause)
  72:Src/usb_pd_protocol.c **** #endif
  73:Src/usb_pd_protocol.c **** 
  74:Src/usb_pd_protocol.c **** #define READY_RETURN_STATE(port) DUAL_ROLE_IF_ELSE(port, PD_STATE_SNK_READY, \
  75:Src/usb_pd_protocol.c **** 							 PD_STATE_SRC_READY)
  76:Src/usb_pd_protocol.c **** 
  77:Src/usb_pd_protocol.c **** /* Type C supply voltage (mV) */
  78:Src/usb_pd_protocol.c **** #define TYPE_C_VOLTAGE	5000 /* mV */
  79:Src/usb_pd_protocol.c **** 
  80:Src/usb_pd_protocol.c **** /* PD counter definitions */
  81:Src/usb_pd_protocol.c **** #define PD_MESSAGE_ID_COUNT 7
  82:Src/usb_pd_protocol.c **** #define PD_HARD_RESET_COUNT 2
  83:Src/usb_pd_protocol.c **** #define PD_CAPS_COUNT 50
  84:Src/usb_pd_protocol.c **** #define PD_SNK_CAP_RETRIES 3
  85:Src/usb_pd_protocol.c **** 
  86:Src/usb_pd_protocol.c **** enum vdm_states {
  87:Src/usb_pd_protocol.c **** 	VDM_STATE_ERR_BUSY = -3,
  88:Src/usb_pd_protocol.c **** 	VDM_STATE_ERR_SEND = -2,
  89:Src/usb_pd_protocol.c **** 	VDM_STATE_ERR_TMOUT = -1,
  90:Src/usb_pd_protocol.c **** 	VDM_STATE_DONE = 0,
  91:Src/usb_pd_protocol.c **** 	/* Anything >0 represents an active state */
ARM GAS  /tmp/ccWvVg6G.s 			page 3


  92:Src/usb_pd_protocol.c **** 	VDM_STATE_READY = 1,
  93:Src/usb_pd_protocol.c **** 	VDM_STATE_BUSY = 2,
  94:Src/usb_pd_protocol.c **** 	VDM_STATE_WAIT_RSP_BUSY = 3,
  95:Src/usb_pd_protocol.c **** };
  96:Src/usb_pd_protocol.c **** 
  97:Src/usb_pd_protocol.c **** #ifdef CONFIG_USB_PD_DUAL_ROLE
  98:Src/usb_pd_protocol.c **** /* Port dual-role state */
  99:Src/usb_pd_protocol.c **** enum pd_dual_role_states drp_state = CONFIG_USB_PD_INITIAL_DRP_STATE;
 100:Src/usb_pd_protocol.c **** 
 101:Src/usb_pd_protocol.c **** /* Enable variable for Try.SRC states */
 102:Src/usb_pd_protocol.c **** static uint8_t pd_try_src_enable;
 103:Src/usb_pd_protocol.c **** #endif
 104:Src/usb_pd_protocol.c **** 
 105:Src/usb_pd_protocol.c **** #ifdef CONFIG_USB_PD_REV30
 106:Src/usb_pd_protocol.c **** /*
 107:Src/usb_pd_protocol.c ****  * The spec. revision is used to index into this array.
 108:Src/usb_pd_protocol.c ****  *  Rev 0 (PD 1.0) - return PD_CTRL_REJECT
 109:Src/usb_pd_protocol.c ****  *  Rev 1 (PD 2.0) - return PD_CTRL_REJECT
 110:Src/usb_pd_protocol.c ****  *  Rev 2 (PD 3.0) - return PD_CTRL_NOT_SUPPORTED
 111:Src/usb_pd_protocol.c ****  */
 112:Src/usb_pd_protocol.c **** static const uint8_t refuse[] = {
 113:Src/usb_pd_protocol.c **** 	PD_CTRL_REJECT, PD_CTRL_REJECT, PD_CTRL_NOT_SUPPORTED};
 114:Src/usb_pd_protocol.c **** #define REFUSE(r) refuse[r]
 115:Src/usb_pd_protocol.c **** #else
 116:Src/usb_pd_protocol.c **** #define REFUSE(r) PD_CTRL_REJECT
 117:Src/usb_pd_protocol.c **** #endif
 118:Src/usb_pd_protocol.c **** 
 119:Src/usb_pd_protocol.c **** #ifdef CONFIG_USB_PD_REV30
 120:Src/usb_pd_protocol.c **** /*
 121:Src/usb_pd_protocol.c ****  * The spec. revision is used to index into this array.
 122:Src/usb_pd_protocol.c ****  *  Rev 0 (VDO 1.0) - return VDM_VER10
 123:Src/usb_pd_protocol.c ****  *  Rev 1 (VDO 1.0) - return VDM_VER10
 124:Src/usb_pd_protocol.c ****  *  Rev 2 (VDO 2.0) - return VDM_VER20
 125:Src/usb_pd_protocol.c ****  */
 126:Src/usb_pd_protocol.c **** static const uint8_t vdo_ver[] = {
 127:Src/usb_pd_protocol.c **** 	VDM_VER10, VDM_VER10, VDM_VER20};
 128:Src/usb_pd_protocol.c **** #define VDO_VER(v) vdo_ver[v]
 129:Src/usb_pd_protocol.c **** #else
 130:Src/usb_pd_protocol.c **** #define VDO_VER(v) VDM_VER10
 131:Src/usb_pd_protocol.c **** #endif
 132:Src/usb_pd_protocol.c **** 
 133:Src/usb_pd_protocol.c **** // variables that used to be pd_task, but had to be promoted 
 134:Src/usb_pd_protocol.c **** // so both pd_init and pd_run_state_machine can see them
 135:Src/usb_pd_protocol.c **** static int head;
 136:Src/usb_pd_protocol.c **** static int port = TASK_ID_TO_PD_PORT(task_get_current());
 137:Src/usb_pd_protocol.c **** static uint32_t payload[7];
 138:Src/usb_pd_protocol.c **** static int timeout = 10*MSEC;
 139:Src/usb_pd_protocol.c **** static int cc1, cc2;
 140:Src/usb_pd_protocol.c **** static int res, incoming_packet = 0;
 141:Src/usb_pd_protocol.c **** static int hard_reset_count = 0;
 142:Src/usb_pd_protocol.c **** #ifdef CONFIG_USB_PD_DUAL_ROLE
 143:Src/usb_pd_protocol.c **** static uint64_t next_role_swap = PD_T_DRP_SNK;
 144:Src/usb_pd_protocol.c **** #ifndef CONFIG_USB_PD_VBUS_DETECT_NONE
 145:Src/usb_pd_protocol.c **** static int snk_hard_reset_vbus_off = 0;
 146:Src/usb_pd_protocol.c **** #endif
 147:Src/usb_pd_protocol.c **** #ifdef CONFIG_USB_PD_DUAL_ROLE_AUTO_TOGGLE
 148:Src/usb_pd_protocol.c **** static const int auto_toggle_supported = tcpm_auto_toggle_supported(port);
ARM GAS  /tmp/ccWvVg6G.s 			page 4


 149:Src/usb_pd_protocol.c **** #endif
 150:Src/usb_pd_protocol.c **** #if defined(CONFIG_CHARGE_MANAGER)
 151:Src/usb_pd_protocol.c **** static typec_current_t typec_curr = 0, typec_curr_change = 0;
 152:Src/usb_pd_protocol.c **** #endif /* CONFIG_CHARGE_MANAGER */
 153:Src/usb_pd_protocol.c **** #endif /* CONFIG_USB_PD_DUAL_ROLE */
 154:Src/usb_pd_protocol.c **** static enum pd_states this_state;
 155:Src/usb_pd_protocol.c **** static enum pd_cc_states new_cc_state;
 156:Src/usb_pd_protocol.c **** static timestamp_t now;
 157:Src/usb_pd_protocol.c **** static int caps_count = 0, hard_reset_sent = 0;
 158:Src/usb_pd_protocol.c **** static int snk_cap_count = 0;
 159:Src/usb_pd_protocol.c **** static int evt;
 160:Src/usb_pd_protocol.c **** 
 161:Src/usb_pd_protocol.c **** static struct pd_protocol {
 162:Src/usb_pd_protocol.c **** 	/* current port power role (SOURCE or SINK) */
 163:Src/usb_pd_protocol.c **** 	uint8_t power_role;
 164:Src/usb_pd_protocol.c **** 	/* current port data role (DFP or UFP) */
 165:Src/usb_pd_protocol.c **** 	uint8_t data_role;
 166:Src/usb_pd_protocol.c **** 	/* 3-bit rolling message ID counter */
 167:Src/usb_pd_protocol.c **** 	uint8_t msg_id;
 168:Src/usb_pd_protocol.c **** 	/* Port polarity : 0 => CC1 is CC line, 1 => CC2 is CC line */
 169:Src/usb_pd_protocol.c **** 	uint8_t polarity;
 170:Src/usb_pd_protocol.c **** 	/* PD state for port */
 171:Src/usb_pd_protocol.c **** 	enum pd_states task_state;
 172:Src/usb_pd_protocol.c **** 	/* PD state when we run state handler the last time */
 173:Src/usb_pd_protocol.c **** 	enum pd_states last_state;
 174:Src/usb_pd_protocol.c **** 	/* bool: request state change to SUSPENDED */
 175:Src/usb_pd_protocol.c **** 	uint8_t req_suspend_state;
 176:Src/usb_pd_protocol.c **** 	/* The state to go to after timeout */
 177:Src/usb_pd_protocol.c **** 	enum pd_states timeout_state;
 178:Src/usb_pd_protocol.c **** 	/* port flags, see PD_FLAGS_* */
 179:Src/usb_pd_protocol.c **** 	uint32_t flags;
 180:Src/usb_pd_protocol.c **** 	/* Timeout for the current state. Set to 0 for no timeout. */
 181:Src/usb_pd_protocol.c **** 	uint64_t timeout;
 182:Src/usb_pd_protocol.c **** 	/* Time for source recovery after hard reset */
 183:Src/usb_pd_protocol.c **** 	uint64_t src_recover;
 184:Src/usb_pd_protocol.c **** 	/* Time for CC debounce end */
 185:Src/usb_pd_protocol.c **** 	uint64_t cc_debounce;
 186:Src/usb_pd_protocol.c **** 	/* The cc state */
 187:Src/usb_pd_protocol.c **** 	enum pd_cc_states cc_state;
 188:Src/usb_pd_protocol.c **** 	/* status of last transmit */
 189:Src/usb_pd_protocol.c **** 	uint8_t tx_status;
 190:Src/usb_pd_protocol.c **** 
 191:Src/usb_pd_protocol.c **** 	/* last requested voltage PDO index */
 192:Src/usb_pd_protocol.c **** 	int requested_idx;
 193:Src/usb_pd_protocol.c **** #ifdef CONFIG_USB_PD_DUAL_ROLE
 194:Src/usb_pd_protocol.c **** 	/* Current limit / voltage based on the last request message */
 195:Src/usb_pd_protocol.c **** 	uint32_t curr_limit;
 196:Src/usb_pd_protocol.c **** 	uint32_t supply_voltage;
 197:Src/usb_pd_protocol.c **** 	/* Signal charging update that affects the port */
 198:Src/usb_pd_protocol.c **** 	int new_power_request;
 199:Src/usb_pd_protocol.c **** 	/* Store previously requested voltage request */
 200:Src/usb_pd_protocol.c **** 	int prev_request_mv;
 201:Src/usb_pd_protocol.c **** 	/* Time for Try.SRC states */
 202:Src/usb_pd_protocol.c **** 	uint64_t try_src_marker;
 203:Src/usb_pd_protocol.c **** #endif
 204:Src/usb_pd_protocol.c **** 
 205:Src/usb_pd_protocol.c **** 	/* PD state for Vendor Defined Messages */
ARM GAS  /tmp/ccWvVg6G.s 			page 5


 206:Src/usb_pd_protocol.c **** 	enum vdm_states vdm_state;
 207:Src/usb_pd_protocol.c **** 	/* Timeout for the current vdm state.  Set to 0 for no timeout. */
 208:Src/usb_pd_protocol.c **** 	timestamp_t vdm_timeout;
 209:Src/usb_pd_protocol.c **** 	/* next Vendor Defined Message to send */
 210:Src/usb_pd_protocol.c **** 	uint32_t vdo_data[VDO_MAX_SIZE];
 211:Src/usb_pd_protocol.c **** 	uint8_t vdo_count;
 212:Src/usb_pd_protocol.c **** 	/* VDO to retry if UFP responder replied busy. */
 213:Src/usb_pd_protocol.c **** 	uint32_t vdo_retry;
 214:Src/usb_pd_protocol.c **** 
 215:Src/usb_pd_protocol.c **** #ifdef CONFIG_USB_PD_CHROMEOS
 216:Src/usb_pd_protocol.c **** 	/* Attached ChromeOS device id, RW hash, and current RO / RW image */
 217:Src/usb_pd_protocol.c **** 	uint16_t dev_id;
 218:Src/usb_pd_protocol.c **** 	uint32_t dev_rw_hash[PD_RW_HASH_SIZE/4];
 219:Src/usb_pd_protocol.c **** 	enum ec_current_image current_image;
 220:Src/usb_pd_protocol.c **** #endif
 221:Src/usb_pd_protocol.c **** #ifdef CONFIG_USB_PD_REV30
 222:Src/usb_pd_protocol.c **** 	/* PD Collision avoidance buffer */
 223:Src/usb_pd_protocol.c **** 	uint16_t ca_buffered;
 224:Src/usb_pd_protocol.c **** 	uint16_t ca_header;
 225:Src/usb_pd_protocol.c **** 	uint32_t ca_buffer[PDO_MAX_OBJECTS];
 226:Src/usb_pd_protocol.c **** 	enum tcpm_transmit_type ca_type;
 227:Src/usb_pd_protocol.c **** 	/* protocol revision */
 228:Src/usb_pd_protocol.c **** 	uint8_t rev;
 229:Src/usb_pd_protocol.c **** #endif
 230:Src/usb_pd_protocol.c **** } pd[CONFIG_USB_PD_PORT_COUNT];
 231:Src/usb_pd_protocol.c **** 
 232:Src/usb_pd_protocol.c **** #ifdef CONFIG_COMMON_RUNTIME
 233:Src/usb_pd_protocol.c **** static const char * const pd_state_names[] = {
 234:Src/usb_pd_protocol.c **** 	"DISABLED", "SUSPENDED",
 235:Src/usb_pd_protocol.c **** #ifdef CONFIG_USB_PD_DUAL_ROLE
 236:Src/usb_pd_protocol.c **** 	"SNK_DISCONNECTED", "SNK_DISCONNECTED_DEBOUNCE",
 237:Src/usb_pd_protocol.c **** 	"SNK_HARD_RESET_RECOVER",
 238:Src/usb_pd_protocol.c **** 	"SNK_DISCOVERY", "SNK_REQUESTED", "SNK_TRANSITION", "SNK_READY",
 239:Src/usb_pd_protocol.c **** 	"SNK_SWAP_INIT", "SNK_SWAP_SNK_DISABLE",
 240:Src/usb_pd_protocol.c **** 	"SNK_SWAP_SRC_DISABLE", "SNK_SWAP_STANDBY", "SNK_SWAP_COMPLETE",
 241:Src/usb_pd_protocol.c **** #endif /* CONFIG_USB_PD_DUAL_ROLE */
 242:Src/usb_pd_protocol.c **** 	"SRC_DISCONNECTED", "SRC_DISCONNECTED_DEBOUNCE",
 243:Src/usb_pd_protocol.c **** 	"SRC_HARD_RESET_RECOVER", "SRC_STARTUP",
 244:Src/usb_pd_protocol.c **** 	"SRC_DISCOVERY", "SRC_NEGOCIATE", "SRC_ACCEPTED", "SRC_POWERED",
 245:Src/usb_pd_protocol.c **** 	"SRC_TRANSITION", "SRC_READY", "SRC_GET_SNK_CAP", "DR_SWAP",
 246:Src/usb_pd_protocol.c **** #ifdef CONFIG_USB_PD_DUAL_ROLE
 247:Src/usb_pd_protocol.c **** 	"SRC_SWAP_INIT", "SRC_SWAP_SNK_DISABLE", "SRC_SWAP_SRC_DISABLE",
 248:Src/usb_pd_protocol.c **** 	"SRC_SWAP_STANDBY",
 249:Src/usb_pd_protocol.c **** #ifdef CONFIG_USBC_VCONN_SWAP
 250:Src/usb_pd_protocol.c **** 	"VCONN_SWAP_SEND", "VCONN_SWAP_INIT", "VCONN_SWAP_READY",
 251:Src/usb_pd_protocol.c **** #endif /* CONFIG_USBC_VCONN_SWAP */
 252:Src/usb_pd_protocol.c **** #endif /* CONFIG_USB_PD_DUAL_ROLE */
 253:Src/usb_pd_protocol.c **** 	"SOFT_RESET", "HARD_RESET_SEND", "HARD_RESET_EXECUTE", "BIST_RX",
 254:Src/usb_pd_protocol.c **** 	"BIST_TX",
 255:Src/usb_pd_protocol.c **** #ifdef CONFIG_USB_PD_DUAL_ROLE_AUTO_TOGGLE
 256:Src/usb_pd_protocol.c **** 	"DRP_AUTO_TOGGLE",
 257:Src/usb_pd_protocol.c **** #endif
 258:Src/usb_pd_protocol.c **** };
 259:Src/usb_pd_protocol.c **** BUILD_ASSERT(ARRAY_SIZE(pd_state_names) == PD_STATE_COUNT);
 260:Src/usb_pd_protocol.c **** #endif
 261:Src/usb_pd_protocol.c **** 
 262:Src/usb_pd_protocol.c **** /*
ARM GAS  /tmp/ccWvVg6G.s 			page 6


 263:Src/usb_pd_protocol.c ****  * 4 entry rw_hash table of type-C devices that AP has firmware updates for.
 264:Src/usb_pd_protocol.c ****  */
 265:Src/usb_pd_protocol.c **** #ifdef CONFIG_COMMON_RUNTIME
 266:Src/usb_pd_protocol.c **** #define RW_HASH_ENTRIES 4
 267:Src/usb_pd_protocol.c **** static struct ec_params_usb_pd_rw_hash_entry rw_hash_table[RW_HASH_ENTRIES];
 268:Src/usb_pd_protocol.c **** #endif
 269:Src/usb_pd_protocol.c **** 
 270:Src/usb_pd_protocol.c **** int pd_comm_is_enabled(int port)
 271:Src/usb_pd_protocol.c **** {
 272:Src/usb_pd_protocol.c **** #ifdef CONFIG_COMMON_RUNTIME
 273:Src/usb_pd_protocol.c **** 	return pd_comm_enabled[port];
 274:Src/usb_pd_protocol.c **** #else
 275:Src/usb_pd_protocol.c **** 	return 1;
 276:Src/usb_pd_protocol.c **** #endif
 277:Src/usb_pd_protocol.c **** }
 278:Src/usb_pd_protocol.c **** 
 279:Src/usb_pd_protocol.c **** static inline void set_state_timeout(int port,
 280:Src/usb_pd_protocol.c **** 				     uint64_t timeout,
 281:Src/usb_pd_protocol.c **** 				     enum pd_states timeout_state)
 282:Src/usb_pd_protocol.c **** {
 283:Src/usb_pd_protocol.c **** 	pd[port].timeout = timeout;
 284:Src/usb_pd_protocol.c **** 	pd[port].timeout_state = timeout_state;
 285:Src/usb_pd_protocol.c **** }
 286:Src/usb_pd_protocol.c **** 
 287:Src/usb_pd_protocol.c **** #ifdef CONFIG_USB_PD_REV30
 288:Src/usb_pd_protocol.c **** int pd_get_rev(int port)
 289:Src/usb_pd_protocol.c **** {
 290:Src/usb_pd_protocol.c **** 	return pd[port].rev;
 291:Src/usb_pd_protocol.c **** }
 292:Src/usb_pd_protocol.c **** 
 293:Src/usb_pd_protocol.c **** int pd_get_vdo_ver(int port)
 294:Src/usb_pd_protocol.c **** {
 295:Src/usb_pd_protocol.c **** 	return vdo_ver[pd[port].rev];
 296:Src/usb_pd_protocol.c **** }
 297:Src/usb_pd_protocol.c **** #endif
 298:Src/usb_pd_protocol.c **** 
 299:Src/usb_pd_protocol.c **** /* Return flag for pd state is connected */
 300:Src/usb_pd_protocol.c **** int pd_is_connected(int port)
 301:Src/usb_pd_protocol.c **** {
 302:Src/usb_pd_protocol.c **** 	if (pd[port].task_state == PD_STATE_DISABLED)
 303:Src/usb_pd_protocol.c **** 		return 0;
 304:Src/usb_pd_protocol.c **** 
 305:Src/usb_pd_protocol.c **** #ifdef CONFIG_USB_PD_DUAL_ROLE_AUTO_TOGGLE
 306:Src/usb_pd_protocol.c **** 	if (pd[port].task_state == PD_STATE_DRP_AUTO_TOGGLE)
 307:Src/usb_pd_protocol.c **** 		return 0;
 308:Src/usb_pd_protocol.c **** #endif
 309:Src/usb_pd_protocol.c **** 
 310:Src/usb_pd_protocol.c **** 	return DUAL_ROLE_IF_ELSE(port,
 311:Src/usb_pd_protocol.c **** 		/* sink */
 312:Src/usb_pd_protocol.c **** 		pd[port].task_state != PD_STATE_SNK_DISCONNECTED &&
 313:Src/usb_pd_protocol.c **** 		pd[port].task_state != PD_STATE_SNK_DISCONNECTED_DEBOUNCE,
 314:Src/usb_pd_protocol.c **** 		/* source */
 315:Src/usb_pd_protocol.c **** 		pd[port].task_state != PD_STATE_SRC_DISCONNECTED &&
 316:Src/usb_pd_protocol.c **** 		pd[port].task_state != PD_STATE_SRC_DISCONNECTED_DEBOUNCE);
 317:Src/usb_pd_protocol.c **** }
 318:Src/usb_pd_protocol.c **** 
 319:Src/usb_pd_protocol.c **** /*
ARM GAS  /tmp/ccWvVg6G.s 			page 7


 320:Src/usb_pd_protocol.c ****  * Return true if partner port is a DTS or TS capable of entering debug
 321:Src/usb_pd_protocol.c ****  * mode (eg. is presenting Rp/Rp or Rd/Rd).
 322:Src/usb_pd_protocol.c ****  */
 323:Src/usb_pd_protocol.c **** int pd_ts_dts_plugged(int port)
 324:Src/usb_pd_protocol.c **** {
 325:Src/usb_pd_protocol.c **** 	return pd[port].flags & PD_FLAGS_TS_DTS_PARTNER;
 326:Src/usb_pd_protocol.c **** }
 327:Src/usb_pd_protocol.c **** 
 328:Src/usb_pd_protocol.c **** #ifdef CONFIG_USB_PD_DUAL_ROLE
 329:Src/usb_pd_protocol.c **** void pd_vbus_low(int port)
 330:Src/usb_pd_protocol.c **** {
 331:Src/usb_pd_protocol.c **** 	pd[port].flags &= ~PD_FLAGS_VBUS_NEVER_LOW;
 332:Src/usb_pd_protocol.c **** }
 333:Src/usb_pd_protocol.c **** 
 334:Src/usb_pd_protocol.c **** static inline int pd_is_vbus_present(int port)
 335:Src/usb_pd_protocol.c **** {
 336:Src/usb_pd_protocol.c **** #ifdef CONFIG_USB_PD_VBUS_DETECT_TCPC
 337:Src/usb_pd_protocol.c **** 	return tcpm_get_vbus_level(port);
 338:Src/usb_pd_protocol.c **** #else
 339:Src/usb_pd_protocol.c **** 	return pd_snk_is_vbus_provided(port);
 340:Src/usb_pd_protocol.c **** #endif
 341:Src/usb_pd_protocol.c **** }
 342:Src/usb_pd_protocol.c **** #endif
 343:Src/usb_pd_protocol.c **** 
 344:Src/usb_pd_protocol.c **** static inline void set_state(int port, enum pd_states next_state)
 345:Src/usb_pd_protocol.c **** {
 346:Src/usb_pd_protocol.c **** 	enum pd_states last_state = pd[port].task_state;
 347:Src/usb_pd_protocol.c **** #ifdef CONFIG_LOW_POWER_IDLE
 348:Src/usb_pd_protocol.c **** 	int i;
 349:Src/usb_pd_protocol.c **** #endif
 350:Src/usb_pd_protocol.c **** 
 351:Src/usb_pd_protocol.c **** 	set_state_timeout(port, 0, 0);
 352:Src/usb_pd_protocol.c **** 	pd[port].task_state = next_state;
 353:Src/usb_pd_protocol.c **** 
 354:Src/usb_pd_protocol.c **** 	if (last_state == next_state)
 355:Src/usb_pd_protocol.c **** 		return;
 356:Src/usb_pd_protocol.c **** 
 357:Src/usb_pd_protocol.c **** #ifdef CONFIG_USB_PD_DUAL_ROLE
 358:Src/usb_pd_protocol.c **** #ifdef CONFIG_USB_PD_DUAL_ROLE_AUTO_TOGGLE
 359:Src/usb_pd_protocol.c **** 	/* Clear flag to allow DRP auto toggle when possible */
 360:Src/usb_pd_protocol.c **** 	if (last_state != PD_STATE_DRP_AUTO_TOGGLE)
 361:Src/usb_pd_protocol.c **** 		pd[port].flags &= ~PD_FLAGS_TCPC_DRP_TOGGLE;
 362:Src/usb_pd_protocol.c **** #endif
 363:Src/usb_pd_protocol.c **** 
 364:Src/usb_pd_protocol.c **** 	/* Ignore dual-role toggling between sink and source */
 365:Src/usb_pd_protocol.c **** 	if ((last_state == PD_STATE_SNK_DISCONNECTED &&
 366:Src/usb_pd_protocol.c **** 	     next_state == PD_STATE_SRC_DISCONNECTED) ||
 367:Src/usb_pd_protocol.c **** 	    (last_state == PD_STATE_SRC_DISCONNECTED &&
 368:Src/usb_pd_protocol.c **** 	     next_state == PD_STATE_SNK_DISCONNECTED))
 369:Src/usb_pd_protocol.c **** 		return;
 370:Src/usb_pd_protocol.c **** 
 371:Src/usb_pd_protocol.c **** 	if (next_state == PD_STATE_SRC_DISCONNECTED ||
 372:Src/usb_pd_protocol.c **** 	    next_state == PD_STATE_SNK_DISCONNECTED) {
 373:Src/usb_pd_protocol.c **** 		/* Clear the input current limit */
 374:Src/usb_pd_protocol.c **** 		pd_set_input_current_limit(port, 0, 0);
 375:Src/usb_pd_protocol.c **** #ifdef CONFIG_CHARGE_MANAGER
 376:Src/usb_pd_protocol.c **** 		//typec_set_input_current_limit(port, 0, 0);
ARM GAS  /tmp/ccWvVg6G.s 			page 8


 377:Src/usb_pd_protocol.c **** 		//charge_manager_set_ceil(port,
 378:Src/usb_pd_protocol.c **** 		//			CEIL_REQUESTOR_PD,
 379:Src/usb_pd_protocol.c **** 		//			CHARGE_CEIL_NONE);
 380:Src/usb_pd_protocol.c **** #endif
 381:Src/usb_pd_protocol.c **** #ifdef CONFIG_USBC_VCONN
 382:Src/usb_pd_protocol.c **** 		tcpm_set_vconn(port, 0);
 383:Src/usb_pd_protocol.c **** #endif
 384:Src/usb_pd_protocol.c **** #else /* CONFIG_USB_PD_DUAL_ROLE */
 385:Src/usb_pd_protocol.c **** 	if (next_state == PD_STATE_SRC_DISCONNECTED) {
 386:Src/usb_pd_protocol.c **** #endif
 387:Src/usb_pd_protocol.c **** 		/*
 388:Src/usb_pd_protocol.c **** 		 * If we are source, make sure VBUS is off and
 389:Src/usb_pd_protocol.c **** 		 * if PD REV3.0, restore RP.
 390:Src/usb_pd_protocol.c **** 		 */
 391:Src/usb_pd_protocol.c **** 		if (pd[port].power_role == PD_ROLE_SOURCE) {
 392:Src/usb_pd_protocol.c **** 			/*
 393:Src/usb_pd_protocol.c **** 			 * Rp is restored by pd_power_supply_reset if
 394:Src/usb_pd_protocol.c **** 			 * CONFIG_USB_PD_MAX_SINGLE_SOURCE_CURRENT is defined.
 395:Src/usb_pd_protocol.c **** 			 */
 396:Src/usb_pd_protocol.c **** 			pd_power_supply_reset(port);
 397:Src/usb_pd_protocol.c **** #if !defined(CONFIG_USB_PD_MAX_SINGLE_SOURCE_CURRENT) && \
 398:Src/usb_pd_protocol.c **** 		defined(CONFIG_USB_PD_REV30)
 399:Src/usb_pd_protocol.c **** 			/* Restore Rp */
 400:Src/usb_pd_protocol.c **** 			tcpm_select_rp_value(port, CONFIG_USB_PD_PULLUP);
 401:Src/usb_pd_protocol.c **** 			tcpm_set_cc(port, TYPEC_CC_RP);
 402:Src/usb_pd_protocol.c **** #endif
 403:Src/usb_pd_protocol.c **** 		}
 404:Src/usb_pd_protocol.c **** #ifdef CONFIG_USB_PD_REV30
 405:Src/usb_pd_protocol.c **** 		/* Adjust rev to highest level*/
 406:Src/usb_pd_protocol.c **** 		pd[port].rev = PD_REV30;
 407:Src/usb_pd_protocol.c **** #endif
 408:Src/usb_pd_protocol.c **** #ifdef CONFIG_USB_PD_CHROMEOS
 409:Src/usb_pd_protocol.c **** 		pd[port].dev_id = 0;
 410:Src/usb_pd_protocol.c **** 		pd[port].flags &= ~PD_FLAGS_RESET_ON_DISCONNECT_MASK;
 411:Src/usb_pd_protocol.c **** #endif
 412:Src/usb_pd_protocol.c **** #ifdef CONFIG_CHARGE_MANAGER
 413:Src/usb_pd_protocol.c **** 		//charge_manager_update_dualrole(port, CAP_UNKNOWN);
 414:Src/usb_pd_protocol.c **** #endif
 415:Src/usb_pd_protocol.c **** #ifdef CONFIG_USB_PD_ALT_MODE_DFP
 416:Src/usb_pd_protocol.c **** 		pd_dfp_exit_mode(port, 0, 0);
 417:Src/usb_pd_protocol.c **** #endif
 418:Src/usb_pd_protocol.c **** #ifdef CONFIG_USBC_SS_MUX
 419:Src/usb_pd_protocol.c **** 		usb_mux_set(port, TYPEC_MUX_NONE, USB_SWITCH_DISCONNECT,
 420:Src/usb_pd_protocol.c **** 			    pd[port].polarity);
 421:Src/usb_pd_protocol.c **** #endif
 422:Src/usb_pd_protocol.c **** 		/* Disable TCPC RX */
 423:Src/usb_pd_protocol.c **** 		tcpm_set_rx_enable(port, 0);
 424:Src/usb_pd_protocol.c **** 	}
 425:Src/usb_pd_protocol.c **** 
 426:Src/usb_pd_protocol.c **** #ifdef CONFIG_LOW_POWER_IDLE
 427:Src/usb_pd_protocol.c **** 	/* If a PD device is attached then disable deep sleep */
 428:Src/usb_pd_protocol.c **** 	for (i = 0; i < CONFIG_USB_PD_PORT_COUNT; i++) {
 429:Src/usb_pd_protocol.c **** 		if (pd[i].flags & PD_FLAGS_PREVIOUS_PD_CONN)
 430:Src/usb_pd_protocol.c **** 			break;
 431:Src/usb_pd_protocol.c **** 	}
 432:Src/usb_pd_protocol.c **** 	if (i == CONFIG_USB_PD_PORT_COUNT)
 433:Src/usb_pd_protocol.c **** 		enable_sleep(SLEEP_MASK_USB_PD);
ARM GAS  /tmp/ccWvVg6G.s 			page 9


 434:Src/usb_pd_protocol.c **** 	else
 435:Src/usb_pd_protocol.c **** 		disable_sleep(SLEEP_MASK_USB_PD);
 436:Src/usb_pd_protocol.c **** #endif
 437:Src/usb_pd_protocol.c **** 
 438:Src/usb_pd_protocol.c **** 	if (debug_level >= 1)
 439:Src/usb_pd_protocol.c **** 		CPRINTF("C%d st%d %s\n", port, next_state,
 440:Src/usb_pd_protocol.c **** 					 pd_state_names[next_state]);
 441:Src/usb_pd_protocol.c **** 	else
 442:Src/usb_pd_protocol.c **** 		CPRINTF("C%d st%d\n", port, next_state);
 443:Src/usb_pd_protocol.c **** }
 444:Src/usb_pd_protocol.c **** 
 445:Src/usb_pd_protocol.c **** /* increment message ID counter */
 446:Src/usb_pd_protocol.c **** static void inc_id(int port)
 447:Src/usb_pd_protocol.c **** {
  25              		.loc 1 447 0
  26              		.cfi_startproc
  27              		@ args = 0, pretend = 0, frame = 0
  28              		@ frame_needed = 0, uses_anonymous_args = 0
  29              		@ link register save eliminated.
  30              	.LVL0:
 448:Src/usb_pd_protocol.c **** 	pd[port].msg_id = (pd[port].msg_id + 1) & PD_MESSAGE_ID_COUNT;
  31              		.loc 1 448 0
  32 0000 C301     		lsls	r3, r0, #7
  33 0002 0448     		ldr	r0, .L2
  34              	.LVL1:
  35 0004 C018     		adds	r0, r0, r3
  36 0006 8378     		ldrb	r3, [r0, #2]
  37 0008 0133     		adds	r3, r3, #1
  38 000a 0722     		movs	r2, #7
  39 000c 1340     		ands	r3, r2
  40 000e 8370     		strb	r3, [r0, #2]
 449:Src/usb_pd_protocol.c **** }
  41              		.loc 1 449 0
  42              		@ sp needed
  43 0010 7047     		bx	lr
  44              	.L3:
  45 0012 C046     		.align	2
  46              	.L2:
  47 0014 00000000 		.word	pd
  48              		.cfi_endproc
  49              	.LFE25:
  51              		.section	.text.pd_update_roles,"ax",%progbits
  52              		.align	1
  53              		.syntax unified
  54              		.code	16
  55              		.thumb_func
  56              		.fpu softvfp
  58              	pd_update_roles:
  59              	.LFB28:
 450:Src/usb_pd_protocol.c **** 
 451:Src/usb_pd_protocol.c **** #ifdef CONFIG_USB_PD_REV30
 452:Src/usb_pd_protocol.c **** static void sink_can_xmit(int port, int rp)
 453:Src/usb_pd_protocol.c **** {
 454:Src/usb_pd_protocol.c **** 	tcpm_select_rp_value(port, rp);
 455:Src/usb_pd_protocol.c **** 	tcpm_set_cc(port, TYPEC_CC_RP);
 456:Src/usb_pd_protocol.c **** }
 457:Src/usb_pd_protocol.c **** 
ARM GAS  /tmp/ccWvVg6G.s 			page 10


 458:Src/usb_pd_protocol.c **** static inline void pd_ca_reset(int port)
 459:Src/usb_pd_protocol.c **** {
 460:Src/usb_pd_protocol.c **** 	pd[port].ca_buffered = 0;
 461:Src/usb_pd_protocol.c **** }
 462:Src/usb_pd_protocol.c **** #endif
 463:Src/usb_pd_protocol.c **** 
 464:Src/usb_pd_protocol.c **** void pd_transmit_complete(int port, int status)
 465:Src/usb_pd_protocol.c **** {
 466:Src/usb_pd_protocol.c **** 	if (status == TCPC_TX_COMPLETE_SUCCESS)
 467:Src/usb_pd_protocol.c **** 		inc_id(port);
 468:Src/usb_pd_protocol.c **** 
 469:Src/usb_pd_protocol.c **** 	pd[port].tx_status = status;
 470:Src/usb_pd_protocol.c **** 	//task_set_event(PD_PORT_TO_TASK_ID(port), PD_EVENT_TX, 0);
 471:Src/usb_pd_protocol.c **** 	pd_task_set_event(PD_EVENT_TX, 0);
 472:Src/usb_pd_protocol.c **** }
 473:Src/usb_pd_protocol.c **** 
 474:Src/usb_pd_protocol.c **** static int pd_transmit(int port, enum tcpm_transmit_type type,
 475:Src/usb_pd_protocol.c **** 		       uint16_t header, const uint32_t *data)
 476:Src/usb_pd_protocol.c **** {
 477:Src/usb_pd_protocol.c **** 	int evt;
 478:Src/usb_pd_protocol.c **** 
 479:Src/usb_pd_protocol.c **** 	/* If comms are disabled, do not transmit, return error */
 480:Src/usb_pd_protocol.c **** 	if (!pd_comm_is_enabled(port))
 481:Src/usb_pd_protocol.c **** 		return -1;
 482:Src/usb_pd_protocol.c **** #ifdef CONFIG_USB_PD_REV30
 483:Src/usb_pd_protocol.c **** 	/* Source-coordinated collision avoidance */
 484:Src/usb_pd_protocol.c **** 	/*
 485:Src/usb_pd_protocol.c **** 	 * In order to avoid message collisions due to asynchronous Messaging
 486:Src/usb_pd_protocol.c **** 	 * sent from the Sink, the Source sets Rp to SinkTxOk to indicate to
 487:Src/usb_pd_protocol.c **** 	 * the Sink that it is ok to initiate an AMS. When the Source wishes
 488:Src/usb_pd_protocol.c **** 	 * to initiate an AMS it sets Rp to SinkTxNG. When the Sink detects
 489:Src/usb_pd_protocol.c **** 	 * that Rp is set to SinkTxOk it May initiate an AMS. When the Sink
 490:Src/usb_pd_protocol.c **** 	 * detects that Rp is set to SinkTxNG it Shall Not initiate an AMS
 491:Src/usb_pd_protocol.c **** 	 * and Shall only send Messages that are part of an AMS the Source has
 492:Src/usb_pd_protocol.c **** 	 * initiated. Note that this restriction applies to SOP* AMS’s i.e.
 493:Src/usb_pd_protocol.c **** 	 * for both Port to Port and Port to Cable Plug communications.
 494:Src/usb_pd_protocol.c **** 	 *
 495:Src/usb_pd_protocol.c **** 	 * This starts after an Explicit Contract is in place
 496:Src/usb_pd_protocol.c **** 	 * PD R3 V1.1 Section 2.5.2.
 497:Src/usb_pd_protocol.c **** 	 *
 498:Src/usb_pd_protocol.c **** 	 * Note: a Sink can still send Hard Reset signaling at any time.
 499:Src/usb_pd_protocol.c **** 	 */
 500:Src/usb_pd_protocol.c **** 	if ((pd[port].rev == PD_REV30) &&
 501:Src/usb_pd_protocol.c **** 		(pd[port].flags & PD_FLAGS_EXPLICIT_CONTRACT)) {
 502:Src/usb_pd_protocol.c **** 		if (pd[port].power_role == PD_ROLE_SOURCE) {
 503:Src/usb_pd_protocol.c **** 			/*
 504:Src/usb_pd_protocol.c **** 			 * Inform Sink that it can't transmit. If a sink
 505:Src/usb_pd_protocol.c **** 			 * transmition is in progress and a collsion occurs,
 506:Src/usb_pd_protocol.c **** 			 * a reset is generated. This should be rare because
 507:Src/usb_pd_protocol.c **** 			 * all extended messages are chunked. This effectively
 508:Src/usb_pd_protocol.c **** 			 * defaults to PD REV 2.0 collision avoidance.
 509:Src/usb_pd_protocol.c **** 			 */
 510:Src/usb_pd_protocol.c **** 			sink_can_xmit(port, SINK_TX_NG);
 511:Src/usb_pd_protocol.c **** 		} else if (type != TCPC_TX_HARD_RESET) {
 512:Src/usb_pd_protocol.c **** 			int cc1;
 513:Src/usb_pd_protocol.c **** 			int cc2;
 514:Src/usb_pd_protocol.c **** 
ARM GAS  /tmp/ccWvVg6G.s 			page 11


 515:Src/usb_pd_protocol.c **** 			tcpm_get_cc(port, &cc1, &cc2);
 516:Src/usb_pd_protocol.c **** 			if (cc1 == TYPEC_CC_VOLT_SNK_1_5 ||
 517:Src/usb_pd_protocol.c **** 				cc2 == TYPEC_CC_VOLT_SNK_1_5) {
 518:Src/usb_pd_protocol.c **** 				/* Sink can't transmit now. */
 519:Src/usb_pd_protocol.c **** 				/* Check if message is already buffered. */
 520:Src/usb_pd_protocol.c **** 				if (pd[port].ca_buffered)
 521:Src/usb_pd_protocol.c **** 					return -1;
 522:Src/usb_pd_protocol.c **** 
 523:Src/usb_pd_protocol.c **** 				/* Buffer message and send later. */
 524:Src/usb_pd_protocol.c **** 				pd[port].ca_type = type;
 525:Src/usb_pd_protocol.c **** 				pd[port].ca_header = header;
 526:Src/usb_pd_protocol.c **** 				memcpy(pd[port].ca_buffer,
 527:Src/usb_pd_protocol.c **** 					data, sizeof(uint32_t) *
 528:Src/usb_pd_protocol.c **** 					PD_HEADER_CNT(header));
 529:Src/usb_pd_protocol.c **** 				pd[port].ca_buffered = 1;
 530:Src/usb_pd_protocol.c **** 				return 1;
 531:Src/usb_pd_protocol.c **** 			}
 532:Src/usb_pd_protocol.c **** 		}
 533:Src/usb_pd_protocol.c **** 	}
 534:Src/usb_pd_protocol.c **** #endif
 535:Src/usb_pd_protocol.c **** 	tcpm_transmit(port, type, header, data);
 536:Src/usb_pd_protocol.c **** 
 537:Src/usb_pd_protocol.c **** 	/* Wait until TX is complete */
 538:Src/usb_pd_protocol.c **** 	// Would wait, except that we're making tcpm_transmit blocking
 539:Src/usb_pd_protocol.c **** 	//evt = task_wait_event_mask(PD_EVENT_TX, PD_T_TCPC_TX_TIMEOUT);
 540:Src/usb_pd_protocol.c **** 
 541:Src/usb_pd_protocol.c **** #ifdef CONFIG_USB_PD_REV30
 542:Src/usb_pd_protocol.c **** 	/*
 543:Src/usb_pd_protocol.c **** 	 * If the source just completed a transmit, tell
 544:Src/usb_pd_protocol.c **** 	 * the sink it can transmit if it wants to.
 545:Src/usb_pd_protocol.c **** 	 */
 546:Src/usb_pd_protocol.c **** 	if ((pd[port].rev == PD_REV30) &&
 547:Src/usb_pd_protocol.c **** 			(pd[port].power_role == PD_ROLE_SOURCE) &&
 548:Src/usb_pd_protocol.c **** 			(pd[port].flags & PD_FLAGS_EXPLICIT_CONTRACT)) {
 549:Src/usb_pd_protocol.c **** 		sink_can_xmit(port, SINK_TX_OK);
 550:Src/usb_pd_protocol.c **** 	}
 551:Src/usb_pd_protocol.c **** #endif
 552:Src/usb_pd_protocol.c **** 
 553:Src/usb_pd_protocol.c **** 	// removing task-based stuff from the library
 554:Src/usb_pd_protocol.c **** 	//if (evt & TASK_EVENT_TIMER)
 555:Src/usb_pd_protocol.c ****     //		return -1;
 556:Src/usb_pd_protocol.c **** 
 557:Src/usb_pd_protocol.c **** 	/* TODO: give different error condition for failed vs discarded */
 558:Src/usb_pd_protocol.c **** 	return pd[port].tx_status == TCPC_TX_COMPLETE_SUCCESS ? 1 : -1;
 559:Src/usb_pd_protocol.c **** }
 560:Src/usb_pd_protocol.c **** 
 561:Src/usb_pd_protocol.c **** #ifdef CONFIG_USB_PD_REV30
 562:Src/usb_pd_protocol.c **** static void pd_ca_send_pending(int port)
 563:Src/usb_pd_protocol.c **** {
 564:Src/usb_pd_protocol.c **** 	int cc1;
 565:Src/usb_pd_protocol.c **** 	int cc2;
 566:Src/usb_pd_protocol.c **** 
 567:Src/usb_pd_protocol.c **** 	/* Check if a message has been buffered. */
 568:Src/usb_pd_protocol.c **** 	if (!pd[port].ca_buffered)
 569:Src/usb_pd_protocol.c **** 		return;
 570:Src/usb_pd_protocol.c **** 
 571:Src/usb_pd_protocol.c **** 	tcpm_get_cc(port, &cc1, &cc2);
ARM GAS  /tmp/ccWvVg6G.s 			page 12


 572:Src/usb_pd_protocol.c **** 	if ((cc1 != TYPEC_CC_VOLT_SNK_1_5) &&
 573:Src/usb_pd_protocol.c **** 			(cc2 != TYPEC_CC_VOLT_SNK_1_5))
 574:Src/usb_pd_protocol.c **** 		if (pd_transmit(port, pd[port].ca_type,
 575:Src/usb_pd_protocol.c **** 				pd[port].ca_header,
 576:Src/usb_pd_protocol.c **** 				pd[port].ca_buffer) < 0)
 577:Src/usb_pd_protocol.c **** 			return;
 578:Src/usb_pd_protocol.c **** 
 579:Src/usb_pd_protocol.c **** 	/* Message was sent, so free up the buffer. */
 580:Src/usb_pd_protocol.c **** 	pd[port].ca_buffered = 0;
 581:Src/usb_pd_protocol.c **** }
 582:Src/usb_pd_protocol.c **** #endif
 583:Src/usb_pd_protocol.c **** 
 584:Src/usb_pd_protocol.c **** static void pd_update_roles(int port)
 585:Src/usb_pd_protocol.c **** {
  60              		.loc 1 585 0
  61              		.cfi_startproc
  62              		@ args = 0, pretend = 0, frame = 0
  63              		@ frame_needed = 0, uses_anonymous_args = 0
  64              	.LVL2:
  65 0000 10B5     		push	{r4, lr}
  66              	.LCFI0:
  67              		.cfi_def_cfa_offset 8
  68              		.cfi_offset 4, -8
  69              		.cfi_offset 14, -4
 586:Src/usb_pd_protocol.c **** 	/* Notify TCPC of role update */
 587:Src/usb_pd_protocol.c **** 	tcpm_set_msg_header(port, pd[port].power_role, pd[port].data_role);
  70              		.loc 1 587 0
  71 0002 064B     		ldr	r3, .L5
  72 0004 C201     		lsls	r2, r0, #7
  73 0006 D15C     		ldrb	r1, [r2, r3]
  74 0008 9B18     		adds	r3, r3, r2
  75 000a 5A78     		ldrb	r2, [r3, #1]
  76              	.LVL3:
  77              	.LBB146:
  78              	.LBB147:
  79              		.file 2 "Inc/tcpm.h"
   1:Inc/tcpm.h    **** /* Copyright 2015 The Chromium OS Authors. All rights reserved.
   2:Inc/tcpm.h    ****  * Use of this source code is governed by a BSD-style license that can be
   3:Inc/tcpm.h    ****  * found in the LICENSE file.
   4:Inc/tcpm.h    ****  */
   5:Inc/tcpm.h    **** 
   6:Inc/tcpm.h    **** /* USB Power delivery port management - common header for TCPM drivers */
   7:Inc/tcpm.h    **** 
   8:Inc/tcpm.h    **** #ifndef __CROS_EC_USB_PD_TCPM_TCPM_H
   9:Inc/tcpm.h    **** #define __CROS_EC_USB_PD_TCPM_TCPM_H
  10:Inc/tcpm.h    **** 
  11:Inc/tcpm.h    **** #include "tcpm_driver.h"
  12:Inc/tcpm.h    **** #include "usb_pd_tcpm.h"
  13:Inc/tcpm.h    **** 
  14:Inc/tcpm.h    **** #if defined(CONFIG_USB_PD_DUAL_ROLE_AUTO_TOGGLE) && \
  15:Inc/tcpm.h    **** 	!defined(CONFIG_USB_PD_DUAL_ROLE)
  16:Inc/tcpm.h    **** #error "DRP auto toggle requires board to have DRP support"
  17:Inc/tcpm.h    **** #error "Please upgrade your board configuration"
  18:Inc/tcpm.h    **** #endif
  19:Inc/tcpm.h    **** 
  20:Inc/tcpm.h    **** #ifndef CONFIG_USB_PD_TCPC
  21:Inc/tcpm.h    **** extern const struct tcpc_config_t tcpc_config[];
ARM GAS  /tmp/ccWvVg6G.s 			page 13


  22:Inc/tcpm.h    **** 
  23:Inc/tcpm.h    **** /* I2C wrapper functions - get I2C port / slave addr from config struct. */
  24:Inc/tcpm.h    **** int tcpc_write(int port, int reg, int val);
  25:Inc/tcpm.h    **** int tcpc_write16(int port, int reg, int val);
  26:Inc/tcpm.h    **** int tcpc_read(int port, int reg, int *val);
  27:Inc/tcpm.h    **** int tcpc_read16(int port, int reg, int *val);
  28:Inc/tcpm.h    **** int tcpc_xfer(int port,
  29:Inc/tcpm.h    **** 		uint8_t *out, int out_size,
  30:Inc/tcpm.h    **** 		uint8_t *in, int in_size,
  31:Inc/tcpm.h    **** 		int flags);
  32:Inc/tcpm.h    **** 
  33:Inc/tcpm.h    **** /* TCPM driver wrapper function */
  34:Inc/tcpm.h    **** static inline int tcpm_init(int port)
  35:Inc/tcpm.h    **** {
  36:Inc/tcpm.h    **** 	int rv;
  37:Inc/tcpm.h    **** 
  38:Inc/tcpm.h    **** 	rv = tcpc_config[port].drv->init(port);
  39:Inc/tcpm.h    **** 	if (rv)
  40:Inc/tcpm.h    **** 		return rv;
  41:Inc/tcpm.h    **** 
  42:Inc/tcpm.h    **** 	/* Board specific post TCPC init */
  43:Inc/tcpm.h    **** 	if (board_tcpc_post_init)
  44:Inc/tcpm.h    **** 		rv = board_tcpc_post_init(port);
  45:Inc/tcpm.h    **** 
  46:Inc/tcpm.h    **** 	return rv;
  47:Inc/tcpm.h    **** }
  48:Inc/tcpm.h    **** 
  49:Inc/tcpm.h    **** static inline int tcpm_release(int port)
  50:Inc/tcpm.h    **** {
  51:Inc/tcpm.h    **** 	return tcpc_config[port].drv->release(port);
  52:Inc/tcpm.h    **** }
  53:Inc/tcpm.h    **** 
  54:Inc/tcpm.h    **** static inline int tcpm_get_cc(int port, int *cc1, int *cc2)
  55:Inc/tcpm.h    **** {
  56:Inc/tcpm.h    **** 	return tcpc_config[port].drv->get_cc(port, cc1, cc2);
  57:Inc/tcpm.h    **** }
  58:Inc/tcpm.h    **** 
  59:Inc/tcpm.h    **** static inline int tcpm_get_vbus_level(int port)
  60:Inc/tcpm.h    **** {
  61:Inc/tcpm.h    **** 	return tcpc_config[port].drv->get_vbus_level(port);
  62:Inc/tcpm.h    **** }
  63:Inc/tcpm.h    **** 
  64:Inc/tcpm.h    **** static inline int tcpm_select_rp_value(int port, int rp)
  65:Inc/tcpm.h    **** {
  66:Inc/tcpm.h    **** 	return tcpc_config[port].drv->select_rp_value(port, rp);
  67:Inc/tcpm.h    **** }
  68:Inc/tcpm.h    **** 
  69:Inc/tcpm.h    **** static inline int tcpm_set_cc(int port, int pull)
  70:Inc/tcpm.h    **** {
  71:Inc/tcpm.h    **** 	return tcpc_config[port].drv->set_cc(port, pull);
  72:Inc/tcpm.h    **** }
  73:Inc/tcpm.h    **** 
  74:Inc/tcpm.h    **** static inline int tcpm_set_polarity(int port, int polarity)
  75:Inc/tcpm.h    **** {
  76:Inc/tcpm.h    **** 	return tcpc_config[port].drv->set_polarity(port, polarity);
  77:Inc/tcpm.h    **** }
  78:Inc/tcpm.h    **** 
ARM GAS  /tmp/ccWvVg6G.s 			page 14


  79:Inc/tcpm.h    **** static inline int tcpm_set_vconn(int port, int enable)
  80:Inc/tcpm.h    **** {
  81:Inc/tcpm.h    **** 	return tcpc_config[port].drv->set_vconn(port, enable);
  82:Inc/tcpm.h    **** }
  83:Inc/tcpm.h    **** 
  84:Inc/tcpm.h    **** static inline int tcpm_set_msg_header(int port, int power_role, int data_role)
  85:Inc/tcpm.h    **** {
  86:Inc/tcpm.h    **** 	return tcpc_config[port].drv->set_msg_header(port, power_role,
  80              		.loc 2 86 0
  81 000c 0401     		lsls	r4, r0, #4
  82 000e 044B     		ldr	r3, .L5+4
  83 0010 1B19     		adds	r3, r3, r4
  84 0012 9B68     		ldr	r3, [r3, #8]
  85 0014 1B6A     		ldr	r3, [r3, #32]
  86 0016 9847     		blx	r3
  87              	.LVL4:
  88              	.LBE147:
  89              	.LBE146:
 588:Src/usb_pd_protocol.c **** }
  90              		.loc 1 588 0
  91              		@ sp needed
  92 0018 10BD     		pop	{r4, pc}
  93              	.L6:
  94 001a C046     		.align	2
  95              	.L5:
  96 001c 00000000 		.word	pd
  97 0020 00000000 		.word	tcpc_config
  98              		.cfi_endproc
  99              	.LFE28:
 101              		.section	.text.pd_update_pdo_flags,"ax",%progbits
 102              		.align	1
 103              		.syntax unified
 104              		.code	16
 105              		.thumb_func
 106              		.fpu softvfp
 108              	pd_update_pdo_flags:
 109              	.LFB39:
 589:Src/usb_pd_protocol.c **** 
 590:Src/usb_pd_protocol.c **** static int send_control(int port, int type)
 591:Src/usb_pd_protocol.c **** {
 592:Src/usb_pd_protocol.c **** 	int bit_len;
 593:Src/usb_pd_protocol.c **** 	uint16_t header = PD_HEADER(type, pd[port].power_role,
 594:Src/usb_pd_protocol.c **** 				pd[port].data_role, pd[port].msg_id, 0,
 595:Src/usb_pd_protocol.c **** 				pd_get_rev(port), 0);
 596:Src/usb_pd_protocol.c **** 
 597:Src/usb_pd_protocol.c **** 	bit_len = pd_transmit(port, TCPC_TX_SOP, header, NULL);
 598:Src/usb_pd_protocol.c **** 	if (debug_level >= 2)
 599:Src/usb_pd_protocol.c **** 		CPRINTF("CTRL[%d]>%d\n", type, bit_len);
 600:Src/usb_pd_protocol.c **** 
 601:Src/usb_pd_protocol.c **** 	return bit_len;
 602:Src/usb_pd_protocol.c **** }
 603:Src/usb_pd_protocol.c **** 
 604:Src/usb_pd_protocol.c **** static int send_source_cap(int port)
 605:Src/usb_pd_protocol.c **** {
 606:Src/usb_pd_protocol.c **** 	int bit_len;
 607:Src/usb_pd_protocol.c **** #if defined(CONFIG_USB_PD_DYNAMIC_SRC_CAP) || \
 608:Src/usb_pd_protocol.c **** 		defined(CONFIG_USB_PD_MAX_SINGLE_SOURCE_CURRENT)
ARM GAS  /tmp/ccWvVg6G.s 			page 15


 609:Src/usb_pd_protocol.c **** 	const uint32_t *src_pdo;
 610:Src/usb_pd_protocol.c **** 	const int src_pdo_cnt = charge_manager_get_source_pdo(&src_pdo, port);
 611:Src/usb_pd_protocol.c **** #else
 612:Src/usb_pd_protocol.c **** 	const uint32_t *src_pdo = pd_src_pdo;
 613:Src/usb_pd_protocol.c **** 	const int src_pdo_cnt = pd_src_pdo_cnt;
 614:Src/usb_pd_protocol.c **** #endif
 615:Src/usb_pd_protocol.c **** 	uint16_t header;
 616:Src/usb_pd_protocol.c **** 
 617:Src/usb_pd_protocol.c **** 	if (src_pdo_cnt == 0)
 618:Src/usb_pd_protocol.c **** 		/* No source capabilities defined, sink only */
 619:Src/usb_pd_protocol.c **** 		header = PD_HEADER(PD_CTRL_REJECT, pd[port].power_role,
 620:Src/usb_pd_protocol.c **** 			pd[port].data_role, pd[port].msg_id, 0,
 621:Src/usb_pd_protocol.c **** 			pd_get_rev(port), 0);
 622:Src/usb_pd_protocol.c **** 	else
 623:Src/usb_pd_protocol.c **** 		header = PD_HEADER(PD_DATA_SOURCE_CAP, pd[port].power_role,
 624:Src/usb_pd_protocol.c **** 			pd[port].data_role, pd[port].msg_id, src_pdo_cnt,
 625:Src/usb_pd_protocol.c **** 			pd_get_rev(port), 0);
 626:Src/usb_pd_protocol.c **** 
 627:Src/usb_pd_protocol.c **** 	bit_len = pd_transmit(port, TCPC_TX_SOP, header, src_pdo);
 628:Src/usb_pd_protocol.c **** 	if (debug_level >= 2)
 629:Src/usb_pd_protocol.c **** 		CPRINTF("srcCAP>%d\n", bit_len);
 630:Src/usb_pd_protocol.c **** 
 631:Src/usb_pd_protocol.c **** 	return bit_len;
 632:Src/usb_pd_protocol.c **** }
 633:Src/usb_pd_protocol.c **** 
 634:Src/usb_pd_protocol.c **** #ifdef CONFIG_USB_PD_REV30
 635:Src/usb_pd_protocol.c **** static int send_battery_cap(int port, uint32_t *payload)
 636:Src/usb_pd_protocol.c **** {
 637:Src/usb_pd_protocol.c **** 	int bit_len;
 638:Src/usb_pd_protocol.c **** 	uint16_t msg[6] = {0, 0, 0, 0, 0, 0};
 639:Src/usb_pd_protocol.c **** 	uint16_t header = PD_HEADER(PD_EXT_BATTERY_CAP,
 640:Src/usb_pd_protocol.c **** 				    pd[port].power_role,
 641:Src/usb_pd_protocol.c **** 				    pd[port].data_role,
 642:Src/usb_pd_protocol.c **** 				    pd[port].msg_id,
 643:Src/usb_pd_protocol.c **** 				    3, /* Number of Data Objects */
 644:Src/usb_pd_protocol.c **** 				    pd[port].rev,
 645:Src/usb_pd_protocol.c **** 				    1  /* This is an exteded message */
 646:Src/usb_pd_protocol.c **** 				   );
 647:Src/usb_pd_protocol.c **** 
 648:Src/usb_pd_protocol.c **** 	/* Set extended header */
 649:Src/usb_pd_protocol.c **** 	msg[0] = PD_EXT_HEADER(0, /* Chunk Number */
 650:Src/usb_pd_protocol.c **** 			       0, /* Request Chunk */
 651:Src/usb_pd_protocol.c **** 			       9  /* Data Size in bytes */
 652:Src/usb_pd_protocol.c **** 			      );
 653:Src/usb_pd_protocol.c **** 	/* Set VID */
 654:Src/usb_pd_protocol.c **** 	msg[1] = USB_VID_GOOGLE;
 655:Src/usb_pd_protocol.c **** 
 656:Src/usb_pd_protocol.c **** 	/* Set PID */
 657:Src/usb_pd_protocol.c **** 	msg[2] = CONFIG_USB_PID;
 658:Src/usb_pd_protocol.c **** 
 659:Src/usb_pd_protocol.c **** 	if (battery_is_present()) {
 660:Src/usb_pd_protocol.c **** 		/*
 661:Src/usb_pd_protocol.c **** 		 * We only have one fixed battery,
 662:Src/usb_pd_protocol.c **** 		 * so make sure batt cap ref is 0.
 663:Src/usb_pd_protocol.c **** 		 */
 664:Src/usb_pd_protocol.c **** 		if (BATT_CAP_REF(payload[0]) != 0) {
 665:Src/usb_pd_protocol.c **** 			/* Invalid battery reference */
ARM GAS  /tmp/ccWvVg6G.s 			page 16


 666:Src/usb_pd_protocol.c **** 			msg[5] = 1;
 667:Src/usb_pd_protocol.c **** 		} else {
 668:Src/usb_pd_protocol.c **** 			uint32_t v;
 669:Src/usb_pd_protocol.c **** 			uint32_t c;
 670:Src/usb_pd_protocol.c **** 
 671:Src/usb_pd_protocol.c **** 			/*
 672:Src/usb_pd_protocol.c **** 			 * The Battery Design Capacity field shall return the
 673:Src/usb_pd_protocol.c **** 			 * Battery’s design capacity in tenths of Wh. If the
 674:Src/usb_pd_protocol.c **** 			 * Battery is Hot Swappable and is not present, the
 675:Src/usb_pd_protocol.c **** 			 * Battery Design Capacity field shall be set to 0. If
 676:Src/usb_pd_protocol.c **** 			 * the Battery is unable to report its Design Capacity,
 677:Src/usb_pd_protocol.c **** 			 * it shall return 0xFFFF
 678:Src/usb_pd_protocol.c **** 			 */
 679:Src/usb_pd_protocol.c **** 			msg[3] = 0xffff;
 680:Src/usb_pd_protocol.c **** 
 681:Src/usb_pd_protocol.c **** 			/*
 682:Src/usb_pd_protocol.c **** 			 * The Battery Last Full Charge Capacity field shall
 683:Src/usb_pd_protocol.c **** 			 * return the Battery’s last full charge capacity in
 684:Src/usb_pd_protocol.c **** 			 * tenths of Wh. If the Battery is Hot Swappable and
 685:Src/usb_pd_protocol.c **** 			 * is not present, the Battery Last Full Charge Capacity
 686:Src/usb_pd_protocol.c **** 			 * field shall be set to 0. If the Battery is unable to
 687:Src/usb_pd_protocol.c **** 			 * report its Design Capacity, the Battery Last Full
 688:Src/usb_pd_protocol.c **** 			 * Charge Capacity field shall be set to 0xFFFF.
 689:Src/usb_pd_protocol.c **** 			 */
 690:Src/usb_pd_protocol.c **** 			msg[4] = 0xffff;
 691:Src/usb_pd_protocol.c **** 
 692:Src/usb_pd_protocol.c **** 			if (battery_design_voltage(&v) == 0) {
 693:Src/usb_pd_protocol.c **** 				if (battery_design_capacity(&c) == 0) {
 694:Src/usb_pd_protocol.c **** 					/*
 695:Src/usb_pd_protocol.c **** 					 * Wh = (c * v) / 1000000
 696:Src/usb_pd_protocol.c **** 					 * 10th of a Wh = Wh * 10
 697:Src/usb_pd_protocol.c **** 					 */
 698:Src/usb_pd_protocol.c **** 					msg[3] = DIV_ROUND_NEAREST((c * v),
 699:Src/usb_pd_protocol.c **** 								100000);
 700:Src/usb_pd_protocol.c **** 				}
 701:Src/usb_pd_protocol.c **** 
 702:Src/usb_pd_protocol.c **** 				if (battery_full_charge_capacity(&c) == 0) {
 703:Src/usb_pd_protocol.c **** 					/*
 704:Src/usb_pd_protocol.c **** 					 * Wh = (c * v) / 1000000
 705:Src/usb_pd_protocol.c **** 					 * 10th of a Wh = Wh * 10
 706:Src/usb_pd_protocol.c **** 					 */
 707:Src/usb_pd_protocol.c **** 					msg[4] = DIV_ROUND_NEAREST((c * v),
 708:Src/usb_pd_protocol.c **** 								100000);
 709:Src/usb_pd_protocol.c **** 				}
 710:Src/usb_pd_protocol.c **** 			}
 711:Src/usb_pd_protocol.c **** 		}
 712:Src/usb_pd_protocol.c **** 	}
 713:Src/usb_pd_protocol.c **** 
 714:Src/usb_pd_protocol.c **** 	bit_len = pd_transmit(port, TCPC_TX_SOP, header, (uint32_t *)msg);
 715:Src/usb_pd_protocol.c **** 	if (debug_level >= 2)
 716:Src/usb_pd_protocol.c **** 		CPRINTF("batCap>%d\n", bit_len);
 717:Src/usb_pd_protocol.c **** 	return bit_len;
 718:Src/usb_pd_protocol.c **** }
 719:Src/usb_pd_protocol.c **** 
 720:Src/usb_pd_protocol.c **** static int send_battery_status(int port,  uint32_t *payload)
 721:Src/usb_pd_protocol.c **** {
 722:Src/usb_pd_protocol.c **** 	int bit_len;
ARM GAS  /tmp/ccWvVg6G.s 			page 17


 723:Src/usb_pd_protocol.c **** 	uint32_t msg = 0;
 724:Src/usb_pd_protocol.c **** 	uint16_t header = PD_HEADER(PD_DATA_BATTERY_STATUS,
 725:Src/usb_pd_protocol.c **** 				    pd[port].power_role,
 726:Src/usb_pd_protocol.c **** 				    pd[port].data_role,
 727:Src/usb_pd_protocol.c **** 				    pd[port].msg_id,
 728:Src/usb_pd_protocol.c **** 				    1, /* Number of Data Objects */
 729:Src/usb_pd_protocol.c **** 				    pd[port].rev,
 730:Src/usb_pd_protocol.c **** 				    0 /* This is NOT an extended message */
 731:Src/usb_pd_protocol.c **** 				  );
 732:Src/usb_pd_protocol.c **** 
 733:Src/usb_pd_protocol.c **** 	if (battery_is_present()) {
 734:Src/usb_pd_protocol.c **** 		/*
 735:Src/usb_pd_protocol.c **** 		 * We only have one fixed battery,
 736:Src/usb_pd_protocol.c **** 		 * so make sure batt cap ref is 0.
 737:Src/usb_pd_protocol.c **** 		 */
 738:Src/usb_pd_protocol.c **** 		if (BATT_CAP_REF(payload[0]) != 0) {
 739:Src/usb_pd_protocol.c **** 			/* Invalid battery reference */
 740:Src/usb_pd_protocol.c **** 			msg |= BSDO_INVALID;
 741:Src/usb_pd_protocol.c **** 		} else {
 742:Src/usb_pd_protocol.c **** 			uint32_t v;
 743:Src/usb_pd_protocol.c **** 			uint32_t c;
 744:Src/usb_pd_protocol.c **** 
 745:Src/usb_pd_protocol.c **** 			if (battery_design_voltage(&v) != 0 ||
 746:Src/usb_pd_protocol.c **** 					battery_remaining_capacity(&c) != 0) {
 747:Src/usb_pd_protocol.c **** 				msg |= BSDO_CAP(BSDO_CAP_UNKNOWN);
 748:Src/usb_pd_protocol.c **** 			} else {
 749:Src/usb_pd_protocol.c **** 				/*
 750:Src/usb_pd_protocol.c **** 				 * Wh = (c * v) / 1000000
 751:Src/usb_pd_protocol.c **** 				 * 10th of a Wh = Wh * 10
 752:Src/usb_pd_protocol.c **** 				 */
 753:Src/usb_pd_protocol.c **** 				msg |= BSDO_CAP(DIV_ROUND_NEAREST((c * v),
 754:Src/usb_pd_protocol.c **** 								100000));
 755:Src/usb_pd_protocol.c **** 			}
 756:Src/usb_pd_protocol.c **** 
 757:Src/usb_pd_protocol.c **** 			/* Battery is present */
 758:Src/usb_pd_protocol.c **** 			msg |= BSDO_PRESENT;
 759:Src/usb_pd_protocol.c **** 
 760:Src/usb_pd_protocol.c **** 			/*
 761:Src/usb_pd_protocol.c **** 			 * For drivers that are not smart battery compliant,
 762:Src/usb_pd_protocol.c **** 			 * battery_status() returns EC_ERROR_UNIMPLEMENTED and
 763:Src/usb_pd_protocol.c **** 			 * the battery is assumed to be idle.
 764:Src/usb_pd_protocol.c **** 			 */
 765:Src/usb_pd_protocol.c **** 			if (battery_status(&c) != 0) {
 766:Src/usb_pd_protocol.c **** 				msg |= BSDO_IDLE; /* assume idle */
 767:Src/usb_pd_protocol.c **** 			} else {
 768:Src/usb_pd_protocol.c **** 				if (c & STATUS_FULLY_CHARGED)
 769:Src/usb_pd_protocol.c **** 					/* Fully charged */
 770:Src/usb_pd_protocol.c **** 					msg |= BSDO_IDLE;
 771:Src/usb_pd_protocol.c **** 				else if (c & STATUS_DISCHARGING)
 772:Src/usb_pd_protocol.c **** 					/* Discharging */
 773:Src/usb_pd_protocol.c **** 					msg |= BSDO_DISCHARGING;
 774:Src/usb_pd_protocol.c **** 				/* else battery is charging.*/
 775:Src/usb_pd_protocol.c **** 			}
 776:Src/usb_pd_protocol.c **** 		}
 777:Src/usb_pd_protocol.c **** 	} else {
 778:Src/usb_pd_protocol.c **** 		msg = BSDO_CAP(BSDO_CAP_UNKNOWN);
 779:Src/usb_pd_protocol.c **** 	}
ARM GAS  /tmp/ccWvVg6G.s 			page 18


 780:Src/usb_pd_protocol.c **** 
 781:Src/usb_pd_protocol.c **** 	bit_len = pd_transmit(port, TCPC_TX_SOP, header, &msg);
 782:Src/usb_pd_protocol.c **** 	if (debug_level >= 2)
 783:Src/usb_pd_protocol.c **** 		CPRINTF("batStat>%d\n", bit_len);
 784:Src/usb_pd_protocol.c **** 
 785:Src/usb_pd_protocol.c **** 	return bit_len;
 786:Src/usb_pd_protocol.c **** }
 787:Src/usb_pd_protocol.c **** #endif
 788:Src/usb_pd_protocol.c **** 
 789:Src/usb_pd_protocol.c **** #ifdef CONFIG_USB_PD_DUAL_ROLE
 790:Src/usb_pd_protocol.c **** static void send_sink_cap(int port)
 791:Src/usb_pd_protocol.c **** {
 792:Src/usb_pd_protocol.c **** 	int bit_len;
 793:Src/usb_pd_protocol.c **** 	uint16_t header = PD_HEADER(PD_DATA_SINK_CAP, pd[port].power_role,
 794:Src/usb_pd_protocol.c **** 			pd[port].data_role, pd[port].msg_id, pd_snk_pdo_cnt,
 795:Src/usb_pd_protocol.c **** 			pd_get_rev(port), 0);
 796:Src/usb_pd_protocol.c **** 
 797:Src/usb_pd_protocol.c **** 	bit_len = pd_transmit(port, TCPC_TX_SOP, header, pd_snk_pdo);
 798:Src/usb_pd_protocol.c **** 	if (debug_level >= 2)
 799:Src/usb_pd_protocol.c **** 		CPRINTF("snkCAP>%d\n", bit_len);
 800:Src/usb_pd_protocol.c **** }
 801:Src/usb_pd_protocol.c **** 
 802:Src/usb_pd_protocol.c **** static int send_request(int port, uint32_t rdo)
 803:Src/usb_pd_protocol.c **** {
 804:Src/usb_pd_protocol.c **** 	int bit_len;
 805:Src/usb_pd_protocol.c **** 	uint16_t header = PD_HEADER(PD_DATA_REQUEST, pd[port].power_role,
 806:Src/usb_pd_protocol.c **** 			pd[port].data_role, pd[port].msg_id, 1,
 807:Src/usb_pd_protocol.c **** 			pd_get_rev(port), 0);
 808:Src/usb_pd_protocol.c **** 
 809:Src/usb_pd_protocol.c **** 	bit_len = pd_transmit(port, TCPC_TX_SOP, header, &rdo);
 810:Src/usb_pd_protocol.c **** 	if (debug_level >= 2)
 811:Src/usb_pd_protocol.c **** 		CPRINTF("REQ%d>\n", bit_len);
 812:Src/usb_pd_protocol.c **** 
 813:Src/usb_pd_protocol.c **** 	return bit_len;
 814:Src/usb_pd_protocol.c **** }
 815:Src/usb_pd_protocol.c **** #ifdef CONFIG_BBRAM
 816:Src/usb_pd_protocol.c **** static int pd_get_saved_active(int port)
 817:Src/usb_pd_protocol.c **** {
 818:Src/usb_pd_protocol.c **** 	uint8_t val;
 819:Src/usb_pd_protocol.c **** 
 820:Src/usb_pd_protocol.c **** 	if (system_get_bbram(port ? SYSTEM_BBRAM_IDX_PD1 :
 821:Src/usb_pd_protocol.c **** 				    SYSTEM_BBRAM_IDX_PD0, &val)) {
 822:Src/usb_pd_protocol.c **** 		CPRINTS("PD NVRAM FAIL");
 823:Src/usb_pd_protocol.c **** 		return 0;
 824:Src/usb_pd_protocol.c **** 	}
 825:Src/usb_pd_protocol.c **** 	return !!val;
 826:Src/usb_pd_protocol.c **** }
 827:Src/usb_pd_protocol.c **** 
 828:Src/usb_pd_protocol.c **** static void pd_set_saved_active(int port, int val)
 829:Src/usb_pd_protocol.c **** {
 830:Src/usb_pd_protocol.c **** 	if (system_set_bbram(port ? SYSTEM_BBRAM_IDX_PD1 :
 831:Src/usb_pd_protocol.c **** 				    SYSTEM_BBRAM_IDX_PD0, val))
 832:Src/usb_pd_protocol.c **** 		CPRINTS("PD NVRAM FAIL");
 833:Src/usb_pd_protocol.c **** }
 834:Src/usb_pd_protocol.c **** #endif // CONFIG_BBRAM
 835:Src/usb_pd_protocol.c **** #endif /* CONFIG_USB_PD_DUAL_ROLE */
 836:Src/usb_pd_protocol.c **** 
ARM GAS  /tmp/ccWvVg6G.s 			page 19


 837:Src/usb_pd_protocol.c **** #ifdef CONFIG_COMMON_RUNTIME
 838:Src/usb_pd_protocol.c **** static int send_bist_cmd(int port)
 839:Src/usb_pd_protocol.c **** {
 840:Src/usb_pd_protocol.c **** 	/* currently only support sending bist carrier 2 */
 841:Src/usb_pd_protocol.c **** 	uint32_t bdo = BDO(BDO_MODE_CARRIER2, 0);
 842:Src/usb_pd_protocol.c **** 	int bit_len;
 843:Src/usb_pd_protocol.c **** 	uint16_t header = PD_HEADER(PD_DATA_BIST, pd[port].power_role,
 844:Src/usb_pd_protocol.c **** 			pd[port].data_role, pd[port].msg_id, 1,
 845:Src/usb_pd_protocol.c **** 			pd_get_rev(port), 0);
 846:Src/usb_pd_protocol.c **** 
 847:Src/usb_pd_protocol.c **** 	bit_len = pd_transmit(port, TCPC_TX_SOP, header, &bdo);
 848:Src/usb_pd_protocol.c **** 	CPRINTF("BIST>%d\n", bit_len);
 849:Src/usb_pd_protocol.c **** 
 850:Src/usb_pd_protocol.c **** 	return bit_len;
 851:Src/usb_pd_protocol.c **** }
 852:Src/usb_pd_protocol.c **** #endif
 853:Src/usb_pd_protocol.c **** 
 854:Src/usb_pd_protocol.c **** static void queue_vdm(int port, uint32_t *header, const uint32_t *data,
 855:Src/usb_pd_protocol.c **** 			     int data_cnt)
 856:Src/usb_pd_protocol.c **** {
 857:Src/usb_pd_protocol.c **** 	pd[port].vdo_count = data_cnt + 1;
 858:Src/usb_pd_protocol.c **** 	pd[port].vdo_data[0] = header[0];
 859:Src/usb_pd_protocol.c **** 	memcpy(&pd[port].vdo_data[1], data, sizeof(uint32_t) * data_cnt);
 860:Src/usb_pd_protocol.c **** 	/* Set ready, pd task will actually send */
 861:Src/usb_pd_protocol.c **** 	pd[port].vdm_state = VDM_STATE_READY;
 862:Src/usb_pd_protocol.c **** }
 863:Src/usb_pd_protocol.c **** 
 864:Src/usb_pd_protocol.c **** static void handle_vdm_request(int port, int cnt, uint32_t *payload)
 865:Src/usb_pd_protocol.c **** {
 866:Src/usb_pd_protocol.c **** 	int rlen = 0;
 867:Src/usb_pd_protocol.c **** 	uint32_t *rdata;
 868:Src/usb_pd_protocol.c **** 
 869:Src/usb_pd_protocol.c **** 	if (pd[port].vdm_state == VDM_STATE_BUSY) {
 870:Src/usb_pd_protocol.c **** 		/* If UFP responded busy retry after timeout */
 871:Src/usb_pd_protocol.c **** 		if (PD_VDO_CMDT(payload[0]) == CMDT_RSP_BUSY) {
 872:Src/usb_pd_protocol.c **** 			pd[port].vdm_timeout.val = get_time().val +
 873:Src/usb_pd_protocol.c **** 				PD_T_VDM_BUSY;
 874:Src/usb_pd_protocol.c **** 			pd[port].vdm_state = VDM_STATE_WAIT_RSP_BUSY;
 875:Src/usb_pd_protocol.c **** 			pd[port].vdo_retry = (payload[0] & ~VDO_CMDT_MASK) |
 876:Src/usb_pd_protocol.c **** 				CMDT_INIT;
 877:Src/usb_pd_protocol.c **** 			return;
 878:Src/usb_pd_protocol.c **** 		} else {
 879:Src/usb_pd_protocol.c **** 			pd[port].vdm_state = VDM_STATE_DONE;
 880:Src/usb_pd_protocol.c **** 		}
 881:Src/usb_pd_protocol.c **** 	}
 882:Src/usb_pd_protocol.c **** 
 883:Src/usb_pd_protocol.c **** 	if (PD_VDO_SVDM(payload[0]))
 884:Src/usb_pd_protocol.c **** 		rlen = pd_svdm(port, cnt, payload, &rdata);
 885:Src/usb_pd_protocol.c **** 	else
 886:Src/usb_pd_protocol.c **** 		rlen = pd_custom_vdm(port, cnt, payload, &rdata);
 887:Src/usb_pd_protocol.c **** 
 888:Src/usb_pd_protocol.c **** 	if (rlen > 0) {
 889:Src/usb_pd_protocol.c **** 		queue_vdm(port, rdata, &rdata[1], rlen - 1);
 890:Src/usb_pd_protocol.c **** 		return;
 891:Src/usb_pd_protocol.c **** 	}
 892:Src/usb_pd_protocol.c **** 	if (debug_level >= 2)
 893:Src/usb_pd_protocol.c **** 		CPRINTF("Unhandled VDM VID %04x CMD %04x\n",
ARM GAS  /tmp/ccWvVg6G.s 			page 20


 894:Src/usb_pd_protocol.c **** 			PD_VDO_VID(payload[0]), payload[0] & 0xFFFF);
 895:Src/usb_pd_protocol.c **** }
 896:Src/usb_pd_protocol.c **** 
 897:Src/usb_pd_protocol.c **** void pd_execute_hard_reset(int port)
 898:Src/usb_pd_protocol.c **** {
 899:Src/usb_pd_protocol.c **** 	if (pd[port].last_state == PD_STATE_HARD_RESET_SEND)
 900:Src/usb_pd_protocol.c **** 		CPRINTF("C%d HARD RST TX\n", port);
 901:Src/usb_pd_protocol.c **** 	else
 902:Src/usb_pd_protocol.c **** 		CPRINTF("C%d HARD RST RX\n", port);
 903:Src/usb_pd_protocol.c **** 
 904:Src/usb_pd_protocol.c **** 	pd[port].msg_id = 0;
 905:Src/usb_pd_protocol.c **** #ifdef CONFIG_USB_PD_ALT_MODE_DFP
 906:Src/usb_pd_protocol.c **** 	pd_dfp_exit_mode(port, 0, 0);
 907:Src/usb_pd_protocol.c **** #endif
 908:Src/usb_pd_protocol.c **** 
 909:Src/usb_pd_protocol.c **** #ifdef CONFIG_USB_PD_REV30
 910:Src/usb_pd_protocol.c **** 	pd[port].rev = PD_REV30;
 911:Src/usb_pd_protocol.c **** 	pd_ca_reset(port);
 912:Src/usb_pd_protocol.c **** #endif
 913:Src/usb_pd_protocol.c **** 	/*
 914:Src/usb_pd_protocol.c **** 	 * Fake set last state to hard reset to make sure that the next
 915:Src/usb_pd_protocol.c **** 	 * state to run knows that we just did a hard reset.
 916:Src/usb_pd_protocol.c **** 	 */
 917:Src/usb_pd_protocol.c **** 	pd[port].last_state = PD_STATE_HARD_RESET_EXECUTE;
 918:Src/usb_pd_protocol.c **** 
 919:Src/usb_pd_protocol.c **** #ifdef CONFIG_USB_PD_DUAL_ROLE
 920:Src/usb_pd_protocol.c **** 	/*
 921:Src/usb_pd_protocol.c **** 	 * If we are swapping to a source and have changed to Rp, restore back
 922:Src/usb_pd_protocol.c **** 	 * to Rd and turn off vbus to match our power_role.
 923:Src/usb_pd_protocol.c **** 	 */
 924:Src/usb_pd_protocol.c **** 	if (pd[port].task_state == PD_STATE_SNK_SWAP_STANDBY ||
 925:Src/usb_pd_protocol.c **** 	    pd[port].task_state == PD_STATE_SNK_SWAP_COMPLETE) {
 926:Src/usb_pd_protocol.c **** 		tcpm_set_cc(port, TYPEC_CC_RD);
 927:Src/usb_pd_protocol.c **** 		pd_power_supply_reset(port);
 928:Src/usb_pd_protocol.c **** 	}
 929:Src/usb_pd_protocol.c **** 
 930:Src/usb_pd_protocol.c **** 	if (pd[port].power_role == PD_ROLE_SINK) {
 931:Src/usb_pd_protocol.c **** 		/* Clear the input current limit */
 932:Src/usb_pd_protocol.c **** 		pd_set_input_current_limit(port, 0, 0);
 933:Src/usb_pd_protocol.c **** #ifdef CONFIG_CHARGE_MANAGER
 934:Src/usb_pd_protocol.c **** 		//charge_manager_set_ceil(port,
 935:Src/usb_pd_protocol.c **** 		//			CEIL_REQUESTOR_PD,
 936:Src/usb_pd_protocol.c **** 		//			CHARGE_CEIL_NONE);
 937:Src/usb_pd_protocol.c **** #endif /* CONFIG_CHARGE_MANAGER */
 938:Src/usb_pd_protocol.c **** 
 939:Src/usb_pd_protocol.c **** 		set_state(port, PD_STATE_SNK_HARD_RESET_RECOVER);
 940:Src/usb_pd_protocol.c **** 		return;
 941:Src/usb_pd_protocol.c **** 	}
 942:Src/usb_pd_protocol.c **** #endif /* CONFIG_USB_PD_DUAL_ROLE */
 943:Src/usb_pd_protocol.c **** 
 944:Src/usb_pd_protocol.c **** 	/* We are a source, cut power */
 945:Src/usb_pd_protocol.c **** 	pd_power_supply_reset(port);
 946:Src/usb_pd_protocol.c **** 	pd[port].src_recover = get_time().val + PD_T_SRC_RECOVER;
 947:Src/usb_pd_protocol.c **** 	set_state(port, PD_STATE_SRC_HARD_RESET_RECOVER);
 948:Src/usb_pd_protocol.c **** }
 949:Src/usb_pd_protocol.c **** 
 950:Src/usb_pd_protocol.c **** static void execute_soft_reset(int port)
ARM GAS  /tmp/ccWvVg6G.s 			page 21


 951:Src/usb_pd_protocol.c **** {
 952:Src/usb_pd_protocol.c **** 	pd[port].msg_id = 0;
 953:Src/usb_pd_protocol.c **** 	set_state(port, DUAL_ROLE_IF_ELSE(port, PD_STATE_SNK_DISCOVERY,
 954:Src/usb_pd_protocol.c **** 						PD_STATE_SRC_DISCOVERY));
 955:Src/usb_pd_protocol.c **** 	CPRINTF("C%d Soft Rst\n", port);
 956:Src/usb_pd_protocol.c **** }
 957:Src/usb_pd_protocol.c **** 
 958:Src/usb_pd_protocol.c **** void pd_soft_reset(void)
 959:Src/usb_pd_protocol.c **** {
 960:Src/usb_pd_protocol.c **** 	int i;
 961:Src/usb_pd_protocol.c **** 
 962:Src/usb_pd_protocol.c **** 	for (i = 0; i < CONFIG_USB_PD_PORT_COUNT; ++i)
 963:Src/usb_pd_protocol.c **** 		if (pd_is_connected(i)) {
 964:Src/usb_pd_protocol.c **** 			set_state(i, PD_STATE_SOFT_RESET);
 965:Src/usb_pd_protocol.c **** 			// getting rid of task stuff
 966:Src/usb_pd_protocol.c **** 			//task_wake(PD_PORT_TO_TASK_ID(i));
 967:Src/usb_pd_protocol.c **** 		}
 968:Src/usb_pd_protocol.c **** }
 969:Src/usb_pd_protocol.c **** 
 970:Src/usb_pd_protocol.c **** #ifdef CONFIG_USB_PD_DUAL_ROLE
 971:Src/usb_pd_protocol.c **** /*
 972:Src/usb_pd_protocol.c ****  * Request desired charge voltage from source.
 973:Src/usb_pd_protocol.c ****  * Returns EC_SUCCESS on success or non-zero on failure.
 974:Src/usb_pd_protocol.c ****  */
 975:Src/usb_pd_protocol.c **** static int pd_send_request_msg(int port, int always_send_request)
 976:Src/usb_pd_protocol.c **** {
 977:Src/usb_pd_protocol.c **** 	uint32_t rdo, curr_limit, supply_voltage;
 978:Src/usb_pd_protocol.c **** 	int res;
 979:Src/usb_pd_protocol.c **** 
 980:Src/usb_pd_protocol.c **** #ifdef CONFIG_CHARGE_MANAGER
 981:Src/usb_pd_protocol.c **** 	//int charging = (charge_manager_get_active_charge_port() == port);
 982:Src/usb_pd_protocol.c **** 	const int charging = 1;
 983:Src/usb_pd_protocol.c **** #else
 984:Src/usb_pd_protocol.c **** 	const int charging = 1;
 985:Src/usb_pd_protocol.c **** #endif
 986:Src/usb_pd_protocol.c **** 
 987:Src/usb_pd_protocol.c **** #ifdef CONFIG_USB_PD_CHECK_MAX_REQUEST_ALLOWED
 988:Src/usb_pd_protocol.c **** 	int max_request_allowed = pd_is_max_request_allowed();
 989:Src/usb_pd_protocol.c **** #else
 990:Src/usb_pd_protocol.c **** 	const int max_request_allowed = 1;
 991:Src/usb_pd_protocol.c **** #endif
 992:Src/usb_pd_protocol.c **** 
 993:Src/usb_pd_protocol.c **** 	/* Clear new power request */
 994:Src/usb_pd_protocol.c **** 	pd[port].new_power_request = 0;
 995:Src/usb_pd_protocol.c **** 
 996:Src/usb_pd_protocol.c **** 	/* Build and send request RDO */
 997:Src/usb_pd_protocol.c **** 	/*
 998:Src/usb_pd_protocol.c **** 	 * If this port is not actively charging or we are not allowed to
 999:Src/usb_pd_protocol.c **** 	 * request the max voltage, then select vSafe5V
1000:Src/usb_pd_protocol.c **** 	 */
1001:Src/usb_pd_protocol.c **** 	res = pd_build_request(port, &rdo, &curr_limit, &supply_voltage,
1002:Src/usb_pd_protocol.c **** 			       charging && max_request_allowed ?
1003:Src/usb_pd_protocol.c **** 					PD_REQUEST_MAX : PD_REQUEST_VSAFE5V);
1004:Src/usb_pd_protocol.c **** 
1005:Src/usb_pd_protocol.c **** 	if (res != EC_SUCCESS)
1006:Src/usb_pd_protocol.c **** 		/*
1007:Src/usb_pd_protocol.c **** 		 * If fail to choose voltage, do nothing, let source re-send
ARM GAS  /tmp/ccWvVg6G.s 			page 22


1008:Src/usb_pd_protocol.c **** 		 * source cap
1009:Src/usb_pd_protocol.c **** 		 */
1010:Src/usb_pd_protocol.c **** 		return -1;
1011:Src/usb_pd_protocol.c **** 
1012:Src/usb_pd_protocol.c **** 	if (!always_send_request) {
1013:Src/usb_pd_protocol.c **** 		/* Don't re-request the same voltage */
1014:Src/usb_pd_protocol.c **** 		if (pd[port].prev_request_mv == supply_voltage)
1015:Src/usb_pd_protocol.c **** 			return EC_SUCCESS;
1016:Src/usb_pd_protocol.c **** #ifdef CONFIG_CHARGE_MANAGER
1017:Src/usb_pd_protocol.c **** 		/* Limit current to PD_MIN_MA during transition */
1018:Src/usb_pd_protocol.c **** 		//else
1019:Src/usb_pd_protocol.c **** 		//	charge_manager_force_ceil(port, PD_MIN_MA);
1020:Src/usb_pd_protocol.c **** #endif
1021:Src/usb_pd_protocol.c **** 	}
1022:Src/usb_pd_protocol.c **** 
1023:Src/usb_pd_protocol.c **** 	CPRINTF("Req C%d [%d] %dmV %dmA", port, RDO_POS(rdo),
1024:Src/usb_pd_protocol.c **** 		supply_voltage, curr_limit);
1025:Src/usb_pd_protocol.c **** 	if (rdo & RDO_CAP_MISMATCH)
1026:Src/usb_pd_protocol.c **** 		CPRINTF(" Mismatch");
1027:Src/usb_pd_protocol.c **** 	CPRINTF("\n");
1028:Src/usb_pd_protocol.c **** 
1029:Src/usb_pd_protocol.c **** 	pd[port].curr_limit = curr_limit;
1030:Src/usb_pd_protocol.c **** 	pd[port].supply_voltage = supply_voltage;
1031:Src/usb_pd_protocol.c **** 	pd[port].prev_request_mv = supply_voltage;
1032:Src/usb_pd_protocol.c **** 	res = send_request(port, rdo);
1033:Src/usb_pd_protocol.c **** 	if (res < 0)
1034:Src/usb_pd_protocol.c **** 		return res;
1035:Src/usb_pd_protocol.c **** 	set_state(port, PD_STATE_SNK_REQUESTED);
1036:Src/usb_pd_protocol.c **** 	return EC_SUCCESS;
1037:Src/usb_pd_protocol.c **** }
1038:Src/usb_pd_protocol.c **** #endif
1039:Src/usb_pd_protocol.c **** 
1040:Src/usb_pd_protocol.c **** static void pd_update_pdo_flags(int port, uint32_t pdo)
1041:Src/usb_pd_protocol.c **** {
 110              		.loc 1 1041 0
 111              		.cfi_startproc
 112              		@ args = 0, pretend = 0, frame = 0
 113              		@ frame_needed = 0, uses_anonymous_args = 0
 114              	.LVL5:
 115 0000 10B5     		push	{r4, lr}
 116              	.LCFI1:
 117              		.cfi_def_cfa_offset 8
 118              		.cfi_offset 4, -8
 119              		.cfi_offset 14, -4
 120              	.LVL6:
1042:Src/usb_pd_protocol.c **** #ifdef CONFIG_CHARGE_MANAGER
1043:Src/usb_pd_protocol.c **** #ifdef CONFIG_USB_PD_ALT_MODE_DFP
1044:Src/usb_pd_protocol.c **** 	int charge_whitelisted =
1045:Src/usb_pd_protocol.c **** 		(pd[port].power_role == PD_ROLE_SINK &&
1046:Src/usb_pd_protocol.c **** 		 pd_charge_from_device(pd_get_identity_vid(port),
1047:Src/usb_pd_protocol.c **** 				       pd_get_identity_pid(port)));
1048:Src/usb_pd_protocol.c **** #else
1049:Src/usb_pd_protocol.c **** 	const int charge_whitelisted = 0;
1050:Src/usb_pd_protocol.c **** #endif
1051:Src/usb_pd_protocol.c **** #endif
1052:Src/usb_pd_protocol.c **** 
1053:Src/usb_pd_protocol.c **** 	/* can only parse PDO flags if type is fixed */
ARM GAS  /tmp/ccWvVg6G.s 			page 23


1054:Src/usb_pd_protocol.c **** 	if ((pdo & PDO_TYPE_MASK) != PDO_TYPE_FIXED)
 121              		.loc 1 1054 0
 122 0002 8B0F     		lsrs	r3, r1, #30
 123 0004 25D1     		bne	.L7
1055:Src/usb_pd_protocol.c **** 		return;
1056:Src/usb_pd_protocol.c **** 
1057:Src/usb_pd_protocol.c **** #ifdef CONFIG_USB_PD_DUAL_ROLE
1058:Src/usb_pd_protocol.c **** 	if (pdo & PDO_FIXED_DUAL_ROLE)
 124              		.loc 1 1058 0
 125 0006 8B00     		lsls	r3, r1, #2
 126 0008 24D5     		bpl	.L9
1059:Src/usb_pd_protocol.c **** 		pd[port].flags |= PD_FLAGS_PARTNER_DR_POWER;
 127              		.loc 1 1059 0
 128 000a C201     		lsls	r2, r0, #7
 129 000c 214B     		ldr	r3, .L17
 130 000e 9B18     		adds	r3, r3, r2
 131 0010 0222     		movs	r2, #2
 132 0012 9C68     		ldr	r4, [r3, #8]
 133 0014 2243     		orrs	r2, r4
 134 0016 9A60     		str	r2, [r3, #8]
 135              	.L10:
1060:Src/usb_pd_protocol.c **** 	else
1061:Src/usb_pd_protocol.c **** 		pd[port].flags &= ~PD_FLAGS_PARTNER_DR_POWER;
1062:Src/usb_pd_protocol.c **** 
1063:Src/usb_pd_protocol.c **** 	if (pdo & PDO_FIXED_EXTERNAL)
 136              		.loc 1 1063 0
 137 0018 0B01     		lsls	r3, r1, #4
 138 001a 23D5     		bpl	.L11
1064:Src/usb_pd_protocol.c **** 		pd[port].flags |= PD_FLAGS_PARTNER_EXTPOWER;
 139              		.loc 1 1064 0
 140 001c C201     		lsls	r2, r0, #7
 141 001e 1D4B     		ldr	r3, .L17
 142 0020 9B18     		adds	r3, r3, r2
 143 0022 8022     		movs	r2, #128
 144 0024 1201     		lsls	r2, r2, #4
 145 0026 9C68     		ldr	r4, [r3, #8]
 146 0028 2243     		orrs	r2, r4
 147 002a 9A60     		str	r2, [r3, #8]
 148              	.L12:
1065:Src/usb_pd_protocol.c **** 	else
1066:Src/usb_pd_protocol.c **** 		pd[port].flags &= ~PD_FLAGS_PARTNER_EXTPOWER;
1067:Src/usb_pd_protocol.c **** 
1068:Src/usb_pd_protocol.c **** 	if (pdo & PDO_FIXED_COMM_CAP)
 149              		.loc 1 1068 0
 150 002c 4B01     		lsls	r3, r1, #5
 151 002e 21D5     		bpl	.L13
1069:Src/usb_pd_protocol.c **** 		pd[port].flags |= PD_FLAGS_PARTNER_USB_COMM;
 152              		.loc 1 1069 0
 153 0030 C201     		lsls	r2, r0, #7
 154 0032 184B     		ldr	r3, .L17
 155 0034 9B18     		adds	r3, r3, r2
 156 0036 8022     		movs	r2, #128
 157 0038 D201     		lsls	r2, r2, #7
 158 003a 9C68     		ldr	r4, [r3, #8]
 159 003c 2243     		orrs	r2, r4
 160 003e 9A60     		str	r2, [r3, #8]
 161              	.L14:
ARM GAS  /tmp/ccWvVg6G.s 			page 24


1070:Src/usb_pd_protocol.c **** 	else
1071:Src/usb_pd_protocol.c **** 		pd[port].flags &= ~PD_FLAGS_PARTNER_USB_COMM;
1072:Src/usb_pd_protocol.c **** #endif
1073:Src/usb_pd_protocol.c **** 
1074:Src/usb_pd_protocol.c **** 	if (pdo & PDO_FIXED_DATA_SWAP)
 162              		.loc 1 1074 0
 163 0040 8B01     		lsls	r3, r1, #6
 164 0042 1FD4     		bmi	.L16
1075:Src/usb_pd_protocol.c **** 		pd[port].flags |= PD_FLAGS_PARTNER_DR_DATA;
1076:Src/usb_pd_protocol.c **** 	else
1077:Src/usb_pd_protocol.c **** 		pd[port].flags &= ~PD_FLAGS_PARTNER_DR_DATA;
 165              		.loc 1 1077 0
 166 0044 C001     		lsls	r0, r0, #7
 167              	.LVL7:
 168 0046 134B     		ldr	r3, .L17
 169 0048 1818     		adds	r0, r3, r0
 170 004a 0423     		movs	r3, #4
 171 004c 8268     		ldr	r2, [r0, #8]
 172 004e 9A43     		bics	r2, r3
 173 0050 8260     		str	r2, [r0, #8]
 174              	.L7:
1078:Src/usb_pd_protocol.c **** 
1079:Src/usb_pd_protocol.c **** #ifdef CONFIG_CHARGE_MANAGER
1080:Src/usb_pd_protocol.c **** 	/*
1081:Src/usb_pd_protocol.c **** 	 * Treat device as a dedicated charger (meaning we should charge
1082:Src/usb_pd_protocol.c **** 	 * from it) if it does not support power swap, or if it is externally
1083:Src/usb_pd_protocol.c **** 	 * powered, or if we are a sink and the device identity matches a
1084:Src/usb_pd_protocol.c **** 	 * charging white-list.
1085:Src/usb_pd_protocol.c **** 	 */
1086:Src/usb_pd_protocol.c **** 	/*
1087:Src/usb_pd_protocol.c **** 	if (!(pd[port].flags & PD_FLAGS_PARTNER_DR_POWER) ||
1088:Src/usb_pd_protocol.c **** 	    (pd[port].flags & PD_FLAGS_PARTNER_EXTPOWER) ||
1089:Src/usb_pd_protocol.c **** 	    charge_whitelisted)
1090:Src/usb_pd_protocol.c **** 		charge_manager_update_dualrole(port, CAP_DEDICATED);
1091:Src/usb_pd_protocol.c **** 	else
1092:Src/usb_pd_protocol.c **** 		charge_manager_update_dualrole(port, CAP_DUALROLE);
1093:Src/usb_pd_protocol.c **** 	*/
1094:Src/usb_pd_protocol.c **** #endif
1095:Src/usb_pd_protocol.c **** }
 175              		.loc 1 1095 0
 176              		@ sp needed
 177 0052 10BD     		pop	{r4, pc}
 178              	.LVL8:
 179              	.L9:
1061:Src/usb_pd_protocol.c **** 
 180              		.loc 1 1061 0
 181 0054 C201     		lsls	r2, r0, #7
 182 0056 0F4B     		ldr	r3, .L17
 183 0058 9B18     		adds	r3, r3, r2
 184 005a 0222     		movs	r2, #2
 185 005c 9C68     		ldr	r4, [r3, #8]
 186 005e 9443     		bics	r4, r2
 187 0060 9C60     		str	r4, [r3, #8]
 188 0062 D9E7     		b	.L10
 189              	.L11:
1066:Src/usb_pd_protocol.c **** 
 190              		.loc 1 1066 0
ARM GAS  /tmp/ccWvVg6G.s 			page 25


 191 0064 C201     		lsls	r2, r0, #7
 192 0066 0B4B     		ldr	r3, .L17
 193 0068 9B18     		adds	r3, r3, r2
 194 006a 0B4A     		ldr	r2, .L17+4
 195 006c 9C68     		ldr	r4, [r3, #8]
 196 006e 2240     		ands	r2, r4
 197 0070 9A60     		str	r2, [r3, #8]
 198 0072 DBE7     		b	.L12
 199              	.L13:
1071:Src/usb_pd_protocol.c **** #endif
 200              		.loc 1 1071 0
 201 0074 C201     		lsls	r2, r0, #7
 202 0076 074B     		ldr	r3, .L17
 203 0078 9B18     		adds	r3, r3, r2
 204 007a 084A     		ldr	r2, .L17+8
 205 007c 9C68     		ldr	r4, [r3, #8]
 206 007e 2240     		ands	r2, r4
 207 0080 9A60     		str	r2, [r3, #8]
 208 0082 DDE7     		b	.L14
 209              	.L16:
1075:Src/usb_pd_protocol.c **** 	else
 210              		.loc 1 1075 0
 211 0084 C001     		lsls	r0, r0, #7
 212              	.LVL9:
 213 0086 034B     		ldr	r3, .L17
 214 0088 1818     		adds	r0, r3, r0
 215 008a 0423     		movs	r3, #4
 216 008c 8268     		ldr	r2, [r0, #8]
 217 008e 1343     		orrs	r3, r2
 218 0090 8360     		str	r3, [r0, #8]
 219 0092 DEE7     		b	.L7
 220              	.L18:
 221              		.align	2
 222              	.L17:
 223 0094 00000000 		.word	pd
 224 0098 FFF7FFFF 		.word	-2049
 225 009c FFBFFFFF 		.word	-16385
 226              		.cfi_endproc
 227              	.LFE39:
 229              		.section	.text.vdm_get_ready_timeout,"ax",%progbits
 230              		.align	1
 231              		.syntax unified
 232              		.code	16
 233              		.thumb_func
 234              		.fpu softvfp
 236              	vdm_get_ready_timeout:
 237              	.LFB49:
1096:Src/usb_pd_protocol.c **** 
1097:Src/usb_pd_protocol.c **** static void handle_data_request(int port, uint16_t head,
1098:Src/usb_pd_protocol.c **** 		uint32_t *payload)
1099:Src/usb_pd_protocol.c **** {
1100:Src/usb_pd_protocol.c **** 	int type = PD_HEADER_TYPE(head);
1101:Src/usb_pd_protocol.c **** 	int cnt = PD_HEADER_CNT(head);
1102:Src/usb_pd_protocol.c **** 
1103:Src/usb_pd_protocol.c **** 	switch (type) {
1104:Src/usb_pd_protocol.c **** #ifdef CONFIG_USB_PD_DUAL_ROLE
1105:Src/usb_pd_protocol.c **** 	case PD_DATA_SOURCE_CAP:
ARM GAS  /tmp/ccWvVg6G.s 			page 26


1106:Src/usb_pd_protocol.c **** 		if ((pd[port].task_state == PD_STATE_SNK_DISCOVERY)
1107:Src/usb_pd_protocol.c **** 			|| (pd[port].task_state == PD_STATE_SNK_TRANSITION)
1108:Src/usb_pd_protocol.c **** #ifdef CONFIG_USB_PD_VBUS_DETECT_NONE
1109:Src/usb_pd_protocol.c **** 			|| (pd[port].task_state ==
1110:Src/usb_pd_protocol.c **** 			    PD_STATE_SNK_HARD_RESET_RECOVER)
1111:Src/usb_pd_protocol.c **** #endif
1112:Src/usb_pd_protocol.c **** 			|| (pd[port].task_state == PD_STATE_SNK_READY)) {
1113:Src/usb_pd_protocol.c **** #ifdef CONFIG_USB_PD_REV30
1114:Src/usb_pd_protocol.c **** 			/*
1115:Src/usb_pd_protocol.c **** 			 * Only adjust sink rev if source rev is higher.
1116:Src/usb_pd_protocol.c **** 			 */
1117:Src/usb_pd_protocol.c **** 			if (PD_HEADER_REV(head) < pd[port].rev)
1118:Src/usb_pd_protocol.c **** 				pd[port].rev = PD_HEADER_REV(head);
1119:Src/usb_pd_protocol.c **** #endif
1120:Src/usb_pd_protocol.c **** 			/* Port partner is now known to be PD capable */
1121:Src/usb_pd_protocol.c **** 			pd[port].flags |= PD_FLAGS_PREVIOUS_PD_CONN;
1122:Src/usb_pd_protocol.c **** 
1123:Src/usb_pd_protocol.c **** 			/* src cap 0 should be fixed PDO */
1124:Src/usb_pd_protocol.c **** 			pd_update_pdo_flags(port, payload[0]);
1125:Src/usb_pd_protocol.c **** 
1126:Src/usb_pd_protocol.c **** 			pd_process_source_cap(port, cnt, payload);
1127:Src/usb_pd_protocol.c **** 			pd_process_source_cap_callback(port, cnt, payload);
1128:Src/usb_pd_protocol.c **** 
1129:Src/usb_pd_protocol.c **** 			/* Source will resend source cap on failure */
1130:Src/usb_pd_protocol.c **** 			pd_send_request_msg(port, 1);
1131:Src/usb_pd_protocol.c **** 		}
1132:Src/usb_pd_protocol.c **** 		break;
1133:Src/usb_pd_protocol.c **** #endif /* CONFIG_USB_PD_DUAL_ROLE */
1134:Src/usb_pd_protocol.c **** 	case PD_DATA_REQUEST:
1135:Src/usb_pd_protocol.c **** 		if ((pd[port].power_role == PD_ROLE_SOURCE) && (cnt == 1)) {
1136:Src/usb_pd_protocol.c **** #ifdef CONFIG_USB_PD_REV30
1137:Src/usb_pd_protocol.c **** 			/*
1138:Src/usb_pd_protocol.c **** 			 * Adjust the rev level to what the sink supports. If
1139:Src/usb_pd_protocol.c **** 			 * they're equal, no harm done.
1140:Src/usb_pd_protocol.c **** 			 */
1141:Src/usb_pd_protocol.c **** 			pd[port].rev = PD_HEADER_REV(head);
1142:Src/usb_pd_protocol.c **** #endif
1143:Src/usb_pd_protocol.c **** 			if (!pd_check_requested_voltage(payload[0], port)) {
1144:Src/usb_pd_protocol.c **** 				if (send_control(port, PD_CTRL_ACCEPT) < 0)
1145:Src/usb_pd_protocol.c **** 					/*
1146:Src/usb_pd_protocol.c **** 					 * if we fail to send accept, do
1147:Src/usb_pd_protocol.c **** 					 * nothing and let sink timeout and
1148:Src/usb_pd_protocol.c **** 					 * send hard reset
1149:Src/usb_pd_protocol.c **** 					 */
1150:Src/usb_pd_protocol.c **** 					return;
1151:Src/usb_pd_protocol.c **** 
1152:Src/usb_pd_protocol.c **** 				/* explicit contract is now in place */
1153:Src/usb_pd_protocol.c **** 				pd[port].flags |= PD_FLAGS_EXPLICIT_CONTRACT;
1154:Src/usb_pd_protocol.c **** #ifdef CONFIG_USB_PD_REV30
1155:Src/usb_pd_protocol.c **** 				/*
1156:Src/usb_pd_protocol.c **** 				 * Start Source-coordinated collision
1157:Src/usb_pd_protocol.c **** 				 * avoidance
1158:Src/usb_pd_protocol.c **** 				 */
1159:Src/usb_pd_protocol.c **** 				if (pd[port].rev == PD_REV30 &&
1160:Src/usb_pd_protocol.c **** 					pd[port].power_role == PD_ROLE_SOURCE)
1161:Src/usb_pd_protocol.c **** 					sink_can_xmit(port, SINK_TX_OK);
1162:Src/usb_pd_protocol.c **** #endif
ARM GAS  /tmp/ccWvVg6G.s 			page 27


1163:Src/usb_pd_protocol.c **** #ifdef CONFIG_USB_PD_DUAL_ROLE
1164:Src/usb_pd_protocol.c **** #ifdef CONFIG_BBRAM
1165:Src/usb_pd_protocol.c **** 				pd_set_saved_active(port, 1);
1166:Src/usb_pd_protocol.c **** #endif
1167:Src/usb_pd_protocol.c **** #endif
1168:Src/usb_pd_protocol.c **** 				pd[port].requested_idx = RDO_POS(payload[0]);
1169:Src/usb_pd_protocol.c **** 				set_state(port, PD_STATE_SRC_ACCEPTED);
1170:Src/usb_pd_protocol.c **** 				return;
1171:Src/usb_pd_protocol.c **** 			}
1172:Src/usb_pd_protocol.c **** 		}
1173:Src/usb_pd_protocol.c **** 		/* the message was incorrect or cannot be satisfied */
1174:Src/usb_pd_protocol.c **** 		send_control(port, PD_CTRL_REJECT);
1175:Src/usb_pd_protocol.c **** 		/* keep last contract in place (whether implicit or explicit) */
1176:Src/usb_pd_protocol.c **** 		set_state(port, PD_STATE_SRC_READY);
1177:Src/usb_pd_protocol.c **** 		break;
1178:Src/usb_pd_protocol.c **** 	case PD_DATA_BIST:
1179:Src/usb_pd_protocol.c **** 		/* If not in READY state, then don't start BIST */
1180:Src/usb_pd_protocol.c **** 		if (DUAL_ROLE_IF_ELSE(port,
1181:Src/usb_pd_protocol.c **** 				pd[port].task_state == PD_STATE_SNK_READY,
1182:Src/usb_pd_protocol.c **** 				pd[port].task_state == PD_STATE_SRC_READY)) {
1183:Src/usb_pd_protocol.c **** 			/* currently only support sending bist carrier mode 2 */
1184:Src/usb_pd_protocol.c **** 			if ((payload[0] >> 28) == 5) {
1185:Src/usb_pd_protocol.c **** 				/* bist data object mode is 2 */
1186:Src/usb_pd_protocol.c **** 				pd_transmit(port, TCPC_TX_BIST_MODE_2, 0,
1187:Src/usb_pd_protocol.c **** 					    NULL);
1188:Src/usb_pd_protocol.c **** 				/* Set to appropriate port disconnected state */
1189:Src/usb_pd_protocol.c **** 				set_state(port, DUAL_ROLE_IF_ELSE(port,
1190:Src/usb_pd_protocol.c **** 						PD_STATE_SNK_DISCONNECTED,
1191:Src/usb_pd_protocol.c **** 						PD_STATE_SRC_DISCONNECTED));
1192:Src/usb_pd_protocol.c **** 			}
1193:Src/usb_pd_protocol.c **** 		}
1194:Src/usb_pd_protocol.c **** 		break;
1195:Src/usb_pd_protocol.c **** 	case PD_DATA_SINK_CAP:
1196:Src/usb_pd_protocol.c **** 		pd[port].flags |= PD_FLAGS_SNK_CAP_RECVD;
1197:Src/usb_pd_protocol.c **** 		/* snk cap 0 should be fixed PDO */
1198:Src/usb_pd_protocol.c **** 		pd_update_pdo_flags(port, payload[0]);
1199:Src/usb_pd_protocol.c **** 		if (pd[port].task_state == PD_STATE_SRC_GET_SINK_CAP)
1200:Src/usb_pd_protocol.c **** 			set_state(port, PD_STATE_SRC_READY);
1201:Src/usb_pd_protocol.c **** 		break;
1202:Src/usb_pd_protocol.c **** #ifdef CONFIG_USB_PD_REV30
1203:Src/usb_pd_protocol.c **** 	case PD_DATA_BATTERY_STATUS:
1204:Src/usb_pd_protocol.c **** 		break;
1205:Src/usb_pd_protocol.c **** #endif
1206:Src/usb_pd_protocol.c **** 	case PD_DATA_VENDOR_DEF:
1207:Src/usb_pd_protocol.c **** 		handle_vdm_request(port, cnt, payload);
1208:Src/usb_pd_protocol.c **** 		break;
1209:Src/usb_pd_protocol.c **** 	default:
1210:Src/usb_pd_protocol.c **** 		CPRINTF("Unhandled data message type %d\n", type);
1211:Src/usb_pd_protocol.c **** 	}
1212:Src/usb_pd_protocol.c **** }
1213:Src/usb_pd_protocol.c **** 
1214:Src/usb_pd_protocol.c **** #ifdef CONFIG_USB_PD_DUAL_ROLE
1215:Src/usb_pd_protocol.c **** void pd_request_power_swap(int port)
1216:Src/usb_pd_protocol.c **** {
1217:Src/usb_pd_protocol.c **** 	if (pd[port].task_state == PD_STATE_SRC_READY)
1218:Src/usb_pd_protocol.c **** 		set_state(port, PD_STATE_SRC_SWAP_INIT);
1219:Src/usb_pd_protocol.c **** 	else if (pd[port].task_state == PD_STATE_SNK_READY)
ARM GAS  /tmp/ccWvVg6G.s 			page 28


1220:Src/usb_pd_protocol.c **** 		set_state(port, PD_STATE_SNK_SWAP_INIT);
1221:Src/usb_pd_protocol.c **** 	// getting rid of task stuff
1222:Src/usb_pd_protocol.c **** 	//task_wake(PD_PORT_TO_TASK_ID(port));
1223:Src/usb_pd_protocol.c **** }
1224:Src/usb_pd_protocol.c **** 
1225:Src/usb_pd_protocol.c **** #ifdef CONFIG_USBC_VCONN_SWAP
1226:Src/usb_pd_protocol.c **** static void pd_request_vconn_swap(int port)
1227:Src/usb_pd_protocol.c **** {
1228:Src/usb_pd_protocol.c **** 	if (pd[port].task_state == PD_STATE_SRC_READY ||
1229:Src/usb_pd_protocol.c **** 	    pd[port].task_state == PD_STATE_SNK_READY)
1230:Src/usb_pd_protocol.c **** 		set_state(port, PD_STATE_VCONN_SWAP_SEND);
1231:Src/usb_pd_protocol.c **** 	// getting rid of task stuff
1232:Src/usb_pd_protocol.c **** 	//task_wake(PD_PORT_TO_TASK_ID(port));
1233:Src/usb_pd_protocol.c **** }
1234:Src/usb_pd_protocol.c **** 
1235:Src/usb_pd_protocol.c **** void pd_try_vconn_src(int port)
1236:Src/usb_pd_protocol.c **** {
1237:Src/usb_pd_protocol.c **** 	/*
1238:Src/usb_pd_protocol.c **** 	 * If we don't currently provide vconn, and we can supply it, send
1239:Src/usb_pd_protocol.c **** 	 * a vconn swap request.
1240:Src/usb_pd_protocol.c **** 	 */
1241:Src/usb_pd_protocol.c **** 	if (!(pd[port].flags & PD_FLAGS_VCONN_ON)) {
1242:Src/usb_pd_protocol.c **** 		if (pd_check_vconn_swap(port))
1243:Src/usb_pd_protocol.c **** 			pd_request_vconn_swap(port);
1244:Src/usb_pd_protocol.c **** 	}
1245:Src/usb_pd_protocol.c **** }
1246:Src/usb_pd_protocol.c **** #endif
1247:Src/usb_pd_protocol.c **** #endif /* CONFIG_USB_PD_DUAL_ROLE */
1248:Src/usb_pd_protocol.c **** 
1249:Src/usb_pd_protocol.c **** void pd_request_data_swap(int port)
1250:Src/usb_pd_protocol.c **** {
1251:Src/usb_pd_protocol.c **** 	if (DUAL_ROLE_IF_ELSE(port,
1252:Src/usb_pd_protocol.c **** 				pd[port].task_state == PD_STATE_SNK_READY,
1253:Src/usb_pd_protocol.c **** 				pd[port].task_state == PD_STATE_SRC_READY))
1254:Src/usb_pd_protocol.c **** 		set_state(port, PD_STATE_DR_SWAP);
1255:Src/usb_pd_protocol.c **** 	// getting rid of task stuff
1256:Src/usb_pd_protocol.c **** 	//task_wake(PD_PORT_TO_TASK_ID(port));
1257:Src/usb_pd_protocol.c **** }
1258:Src/usb_pd_protocol.c **** 
1259:Src/usb_pd_protocol.c **** static void pd_set_data_role(int port, int role)
1260:Src/usb_pd_protocol.c **** {
1261:Src/usb_pd_protocol.c **** 	pd[port].data_role = role;
1262:Src/usb_pd_protocol.c **** 	pd_execute_data_swap(port, role);
1263:Src/usb_pd_protocol.c **** 
1264:Src/usb_pd_protocol.c **** #ifdef CONFIG_USBC_SS_MUX
1265:Src/usb_pd_protocol.c **** #ifdef CONFIG_USBC_SS_MUX_DFP_ONLY
1266:Src/usb_pd_protocol.c **** 	/*
1267:Src/usb_pd_protocol.c **** 	 * Need to connect SS mux for if new data role is DFP.
1268:Src/usb_pd_protocol.c **** 	 * If new data role is UFP, then disconnect the SS mux.
1269:Src/usb_pd_protocol.c **** 	 */
1270:Src/usb_pd_protocol.c **** 	if (role == PD_ROLE_DFP)
1271:Src/usb_pd_protocol.c **** 		usb_mux_set(port, TYPEC_MUX_USB, USB_SWITCH_CONNECT,
1272:Src/usb_pd_protocol.c **** 			    pd[port].polarity);
1273:Src/usb_pd_protocol.c **** 	else
1274:Src/usb_pd_protocol.c **** 		usb_mux_set(port, TYPEC_MUX_NONE, USB_SWITCH_DISCONNECT,
1275:Src/usb_pd_protocol.c **** 			    pd[port].polarity);
1276:Src/usb_pd_protocol.c **** #else
ARM GAS  /tmp/ccWvVg6G.s 			page 29


1277:Src/usb_pd_protocol.c **** 	usb_mux_set(port, TYPEC_MUX_USB, USB_SWITCH_CONNECT,
1278:Src/usb_pd_protocol.c **** 		    pd[port].polarity);
1279:Src/usb_pd_protocol.c **** #endif
1280:Src/usb_pd_protocol.c **** #endif
1281:Src/usb_pd_protocol.c **** 	pd_update_roles(port);
1282:Src/usb_pd_protocol.c **** }
1283:Src/usb_pd_protocol.c **** 
1284:Src/usb_pd_protocol.c **** static void pd_dr_swap(int port)
1285:Src/usb_pd_protocol.c **** {
1286:Src/usb_pd_protocol.c **** 	pd_set_data_role(port, !pd[port].data_role);
1287:Src/usb_pd_protocol.c **** 	pd[port].flags |= PD_FLAGS_CHECK_IDENTITY;
1288:Src/usb_pd_protocol.c **** }
1289:Src/usb_pd_protocol.c **** 
1290:Src/usb_pd_protocol.c **** static void handle_ctrl_request(int port, uint16_t head,
1291:Src/usb_pd_protocol.c **** 		uint32_t *payload)
1292:Src/usb_pd_protocol.c **** {
1293:Src/usb_pd_protocol.c **** 	int type = PD_HEADER_TYPE(head);
1294:Src/usb_pd_protocol.c **** 	int res;
1295:Src/usb_pd_protocol.c **** 
1296:Src/usb_pd_protocol.c **** 	switch (type) {
1297:Src/usb_pd_protocol.c **** 	case PD_CTRL_GOOD_CRC:
1298:Src/usb_pd_protocol.c **** 		/* should not get it */
1299:Src/usb_pd_protocol.c **** 		break;
1300:Src/usb_pd_protocol.c **** 	case PD_CTRL_PING:
1301:Src/usb_pd_protocol.c **** 		/* Nothing else to do */
1302:Src/usb_pd_protocol.c **** 		break;
1303:Src/usb_pd_protocol.c **** 	case PD_CTRL_GET_SOURCE_CAP:
1304:Src/usb_pd_protocol.c **** 		res = send_source_cap(port);
1305:Src/usb_pd_protocol.c **** 		if ((res >= 0) &&
1306:Src/usb_pd_protocol.c **** 		    (pd[port].task_state == PD_STATE_SRC_DISCOVERY))
1307:Src/usb_pd_protocol.c **** 			set_state(port, PD_STATE_SRC_NEGOCIATE);
1308:Src/usb_pd_protocol.c **** 		break;
1309:Src/usb_pd_protocol.c **** 	case PD_CTRL_GET_SINK_CAP:
1310:Src/usb_pd_protocol.c **** #ifdef CONFIG_USB_PD_DUAL_ROLE
1311:Src/usb_pd_protocol.c **** 		send_sink_cap(port);
1312:Src/usb_pd_protocol.c **** #else
1313:Src/usb_pd_protocol.c **** 		send_control(port, REFUSE(pd[port].rev));
1314:Src/usb_pd_protocol.c **** #endif
1315:Src/usb_pd_protocol.c **** 		break;
1316:Src/usb_pd_protocol.c **** #ifdef CONFIG_USB_PD_DUAL_ROLE
1317:Src/usb_pd_protocol.c **** 	case PD_CTRL_GOTO_MIN:
1318:Src/usb_pd_protocol.c **** #ifdef CONFIG_USB_PD_GIVE_BACK
1319:Src/usb_pd_protocol.c **** 		if (pd[port].task_state == PD_STATE_SNK_READY) {
1320:Src/usb_pd_protocol.c **** 			/*
1321:Src/usb_pd_protocol.c **** 			 * Reduce power consumption now!
1322:Src/usb_pd_protocol.c **** 			 *
1323:Src/usb_pd_protocol.c **** 			 * The source will restore power to this sink
1324:Src/usb_pd_protocol.c **** 			 * by sending a new source cap message at a
1325:Src/usb_pd_protocol.c **** 			 * later time.
1326:Src/usb_pd_protocol.c **** 			 */
1327:Src/usb_pd_protocol.c **** 			pd_snk_give_back(port, &pd[port].curr_limit,
1328:Src/usb_pd_protocol.c **** 				&pd[port].supply_voltage);
1329:Src/usb_pd_protocol.c **** 			set_state(port, PD_STATE_SNK_TRANSITION);
1330:Src/usb_pd_protocol.c **** 		}
1331:Src/usb_pd_protocol.c **** #endif
1332:Src/usb_pd_protocol.c **** 
1333:Src/usb_pd_protocol.c **** 		break;
ARM GAS  /tmp/ccWvVg6G.s 			page 30


1334:Src/usb_pd_protocol.c **** 	case PD_CTRL_PS_RDY:
1335:Src/usb_pd_protocol.c **** 		if (pd[port].task_state == PD_STATE_SNK_SWAP_SRC_DISABLE) {
1336:Src/usb_pd_protocol.c **** 			set_state(port, PD_STATE_SNK_SWAP_STANDBY);
1337:Src/usb_pd_protocol.c **** 		} else if (pd[port].task_state == PD_STATE_SRC_SWAP_STANDBY) {
1338:Src/usb_pd_protocol.c **** 			/* reset message ID and swap roles */
1339:Src/usb_pd_protocol.c **** 			pd[port].msg_id = 0;
1340:Src/usb_pd_protocol.c **** 			pd[port].power_role = PD_ROLE_SINK;
1341:Src/usb_pd_protocol.c **** 			pd_update_roles(port);
1342:Src/usb_pd_protocol.c **** 			set_state(port, PD_STATE_SNK_DISCOVERY);
1343:Src/usb_pd_protocol.c **** #ifdef CONFIG_USBC_VCONN_SWAP
1344:Src/usb_pd_protocol.c **** 		} else if (pd[port].task_state == PD_STATE_VCONN_SWAP_INIT) {
1345:Src/usb_pd_protocol.c **** 			/*
1346:Src/usb_pd_protocol.c **** 			 * If VCONN is on, then this PS_RDY tells us it's
1347:Src/usb_pd_protocol.c **** 			 * ok to turn VCONN off
1348:Src/usb_pd_protocol.c **** 			 */
1349:Src/usb_pd_protocol.c **** 			if (pd[port].flags & PD_FLAGS_VCONN_ON)
1350:Src/usb_pd_protocol.c **** 				set_state(port, PD_STATE_VCONN_SWAP_READY);
1351:Src/usb_pd_protocol.c **** #endif
1352:Src/usb_pd_protocol.c **** 		} else if (pd[port].task_state == PD_STATE_SNK_DISCOVERY) {
1353:Src/usb_pd_protocol.c **** 			/* Don't know what power source is ready. Reset. */
1354:Src/usb_pd_protocol.c **** 			set_state(port, PD_STATE_HARD_RESET_SEND);
1355:Src/usb_pd_protocol.c **** 		} else if (pd[port].task_state == PD_STATE_SNK_SWAP_STANDBY) {
1356:Src/usb_pd_protocol.c **** 			/* Do nothing, assume this is a redundant PD_RDY */
1357:Src/usb_pd_protocol.c **** 		} else if (pd[port].power_role == PD_ROLE_SINK) {
1358:Src/usb_pd_protocol.c **** 			set_state(port, PD_STATE_SNK_READY);
1359:Src/usb_pd_protocol.c **** 			pd_set_input_current_limit(port, pd[port].curr_limit,
1360:Src/usb_pd_protocol.c **** 						   pd[port].supply_voltage);
1361:Src/usb_pd_protocol.c **** #ifdef CONFIG_CHARGE_MANAGER
1362:Src/usb_pd_protocol.c **** 			/* Set ceiling based on what's negotiated */
1363:Src/usb_pd_protocol.c **** 			//charge_manager_set_ceil(port,
1364:Src/usb_pd_protocol.c **** 			//			CEIL_REQUESTOR_PD,
1365:Src/usb_pd_protocol.c **** 			//			pd[port].curr_limit);
1366:Src/usb_pd_protocol.c **** #endif
1367:Src/usb_pd_protocol.c **** 		}
1368:Src/usb_pd_protocol.c **** 		break;
1369:Src/usb_pd_protocol.c **** #endif
1370:Src/usb_pd_protocol.c **** 	case PD_CTRL_REJECT:
1371:Src/usb_pd_protocol.c **** 	case PD_CTRL_WAIT:
1372:Src/usb_pd_protocol.c **** 		if (pd[port].task_state == PD_STATE_DR_SWAP)
1373:Src/usb_pd_protocol.c **** 			set_state(port, READY_RETURN_STATE(port));
1374:Src/usb_pd_protocol.c **** #ifdef CONFIG_USBC_VCONN_SWAP
1375:Src/usb_pd_protocol.c **** 		else if (pd[port].task_state == PD_STATE_VCONN_SWAP_SEND)
1376:Src/usb_pd_protocol.c **** 			set_state(port, READY_RETURN_STATE(port));
1377:Src/usb_pd_protocol.c **** #endif
1378:Src/usb_pd_protocol.c **** #ifdef CONFIG_USB_PD_DUAL_ROLE
1379:Src/usb_pd_protocol.c **** 		else if (pd[port].task_state == PD_STATE_SRC_SWAP_INIT)
1380:Src/usb_pd_protocol.c **** 			set_state(port, PD_STATE_SRC_READY);
1381:Src/usb_pd_protocol.c **** 		else if (pd[port].task_state == PD_STATE_SNK_SWAP_INIT)
1382:Src/usb_pd_protocol.c **** 			set_state(port, PD_STATE_SNK_READY);
1383:Src/usb_pd_protocol.c **** 		else if (pd[port].task_state == PD_STATE_SNK_REQUESTED) {
1384:Src/usb_pd_protocol.c **** 			/*
1385:Src/usb_pd_protocol.c **** 			 * Explicit Contract in place
1386:Src/usb_pd_protocol.c **** 			 *
1387:Src/usb_pd_protocol.c **** 			 *  On reception of a WAIT message, transition to
1388:Src/usb_pd_protocol.c **** 			 *  PD_STATE_SNK_READY after PD_T_SINK_REQUEST ms to
1389:Src/usb_pd_protocol.c **** 			 *  send another reqest.
1390:Src/usb_pd_protocol.c **** 			 *
ARM GAS  /tmp/ccWvVg6G.s 			page 31


1391:Src/usb_pd_protocol.c **** 			 *  On reception of a REJECT messag, transition to
1392:Src/usb_pd_protocol.c **** 			 *  PD_STATE_SNK_READY but don't resend the request.
1393:Src/usb_pd_protocol.c **** 			 *
1394:Src/usb_pd_protocol.c **** 			 * NO Explicit Contract in place
1395:Src/usb_pd_protocol.c **** 			 *
1396:Src/usb_pd_protocol.c **** 			 *  On reception of a WAIT or REJECT message,
1397:Src/usb_pd_protocol.c **** 			 *  transition to PD_STATE_SNK_DISCOVERY
1398:Src/usb_pd_protocol.c **** 			 */
1399:Src/usb_pd_protocol.c **** 			if (pd[port].flags & PD_FLAGS_EXPLICIT_CONTRACT) {
1400:Src/usb_pd_protocol.c **** 				/* We have an explicit contract */
1401:Src/usb_pd_protocol.c **** 				if (type == PD_CTRL_WAIT) {
1402:Src/usb_pd_protocol.c **** 					/*
1403:Src/usb_pd_protocol.c **** 					 * Trigger a new power request when
1404:Src/usb_pd_protocol.c **** 					 * we enter PD_STATE_SNK_READY
1405:Src/usb_pd_protocol.c **** 					 */
1406:Src/usb_pd_protocol.c **** 					pd[port].new_power_request = 1;
1407:Src/usb_pd_protocol.c **** 
1408:Src/usb_pd_protocol.c **** 					/*
1409:Src/usb_pd_protocol.c **** 					 * After the request is triggered,
1410:Src/usb_pd_protocol.c **** 					 * make sure the request is sent.
1411:Src/usb_pd_protocol.c **** 					 */
1412:Src/usb_pd_protocol.c **** 					pd[port].prev_request_mv = 0;
1413:Src/usb_pd_protocol.c **** 
1414:Src/usb_pd_protocol.c **** 					/*
1415:Src/usb_pd_protocol.c **** 					 * Transition to PD_STATE_SNK_READY
1416:Src/usb_pd_protocol.c **** 					 * after PD_T_SINK_REQUEST ms.
1417:Src/usb_pd_protocol.c **** 					 */
1418:Src/usb_pd_protocol.c **** 					set_state_timeout(port, get_time().val +
1419:Src/usb_pd_protocol.c **** 							PD_T_SINK_REQUEST,
1420:Src/usb_pd_protocol.c **** 							PD_STATE_SNK_READY);
1421:Src/usb_pd_protocol.c **** 				} else {
1422:Src/usb_pd_protocol.c **** 					/* The request was rejected */
1423:Src/usb_pd_protocol.c **** 					set_state(port, PD_STATE_SNK_READY);
1424:Src/usb_pd_protocol.c **** 				}
1425:Src/usb_pd_protocol.c **** 			} else {
1426:Src/usb_pd_protocol.c **** 				/* No explicit contract */
1427:Src/usb_pd_protocol.c **** 				set_state(port, PD_STATE_SNK_DISCOVERY);
1428:Src/usb_pd_protocol.c **** 			}
1429:Src/usb_pd_protocol.c **** 		}
1430:Src/usb_pd_protocol.c **** #endif
1431:Src/usb_pd_protocol.c **** 		break;
1432:Src/usb_pd_protocol.c **** 	case PD_CTRL_ACCEPT:
1433:Src/usb_pd_protocol.c **** 		if (pd[port].task_state == PD_STATE_SOFT_RESET) {
1434:Src/usb_pd_protocol.c **** 			/*
1435:Src/usb_pd_protocol.c **** 			 * For the case that we sent soft reset in SNK_DISCOVERY
1436:Src/usb_pd_protocol.c **** 			 * on startup due to VBUS never low, clear the flag.
1437:Src/usb_pd_protocol.c **** 			 */
1438:Src/usb_pd_protocol.c **** 			pd[port].flags &= ~PD_FLAGS_VBUS_NEVER_LOW;
1439:Src/usb_pd_protocol.c **** 			execute_soft_reset(port);
1440:Src/usb_pd_protocol.c **** 		} else if (pd[port].task_state == PD_STATE_DR_SWAP) {
1441:Src/usb_pd_protocol.c **** 			/* switch data role */
1442:Src/usb_pd_protocol.c **** 			pd_dr_swap(port);
1443:Src/usb_pd_protocol.c **** 			set_state(port, READY_RETURN_STATE(port));
1444:Src/usb_pd_protocol.c **** #ifdef CONFIG_USB_PD_DUAL_ROLE
1445:Src/usb_pd_protocol.c **** #ifdef CONFIG_USBC_VCONN_SWAP
1446:Src/usb_pd_protocol.c **** 		} else if (pd[port].task_state == PD_STATE_VCONN_SWAP_SEND) {
1447:Src/usb_pd_protocol.c **** 			/* switch vconn */
ARM GAS  /tmp/ccWvVg6G.s 			page 32


1448:Src/usb_pd_protocol.c **** 			set_state(port, PD_STATE_VCONN_SWAP_INIT);
1449:Src/usb_pd_protocol.c **** #endif
1450:Src/usb_pd_protocol.c **** 		} else if (pd[port].task_state == PD_STATE_SRC_SWAP_INIT) {
1451:Src/usb_pd_protocol.c **** 			/* explicit contract goes away for power swap */
1452:Src/usb_pd_protocol.c **** 			pd[port].flags &= ~PD_FLAGS_EXPLICIT_CONTRACT;
1453:Src/usb_pd_protocol.c **** 			set_state(port, PD_STATE_SRC_SWAP_SNK_DISABLE);
1454:Src/usb_pd_protocol.c **** 		} else if (pd[port].task_state == PD_STATE_SNK_SWAP_INIT) {
1455:Src/usb_pd_protocol.c **** 			/* explicit contract goes away for power swap */
1456:Src/usb_pd_protocol.c **** 			pd[port].flags &= ~PD_FLAGS_EXPLICIT_CONTRACT;
1457:Src/usb_pd_protocol.c **** 			set_state(port, PD_STATE_SNK_SWAP_SNK_DISABLE);
1458:Src/usb_pd_protocol.c **** 		} else if (pd[port].task_state == PD_STATE_SNK_REQUESTED) {
1459:Src/usb_pd_protocol.c **** 			/* explicit contract is now in place */
1460:Src/usb_pd_protocol.c **** 			pd[port].flags |= PD_FLAGS_EXPLICIT_CONTRACT;
1461:Src/usb_pd_protocol.c **** #ifdef CONFIG_BBRAM
1462:Src/usb_pd_protocol.c **** 			pd_set_saved_active(port, 1);
1463:Src/usb_pd_protocol.c **** #endif
1464:Src/usb_pd_protocol.c **** 			set_state(port, PD_STATE_SNK_TRANSITION);
1465:Src/usb_pd_protocol.c **** #endif
1466:Src/usb_pd_protocol.c **** 		}
1467:Src/usb_pd_protocol.c **** 		break;
1468:Src/usb_pd_protocol.c **** 	case PD_CTRL_SOFT_RESET:
1469:Src/usb_pd_protocol.c **** 		execute_soft_reset(port);
1470:Src/usb_pd_protocol.c **** 		/* We are done, acknowledge with an Accept packet */
1471:Src/usb_pd_protocol.c **** 		send_control(port, PD_CTRL_ACCEPT);
1472:Src/usb_pd_protocol.c **** 		break;
1473:Src/usb_pd_protocol.c **** 	case PD_CTRL_PR_SWAP:
1474:Src/usb_pd_protocol.c **** #ifdef CONFIG_USB_PD_DUAL_ROLE
1475:Src/usb_pd_protocol.c **** 		if (pd_check_power_swap(port)) {
1476:Src/usb_pd_protocol.c **** 			send_control(port, PD_CTRL_ACCEPT);
1477:Src/usb_pd_protocol.c **** 			/*
1478:Src/usb_pd_protocol.c **** 			 * Clear flag for checking power role to avoid
1479:Src/usb_pd_protocol.c **** 			 * immediately requesting another swap.
1480:Src/usb_pd_protocol.c **** 			 */
1481:Src/usb_pd_protocol.c **** 			pd[port].flags &= ~PD_FLAGS_CHECK_PR_ROLE;
1482:Src/usb_pd_protocol.c **** 			set_state(port,
1483:Src/usb_pd_protocol.c **** 				  DUAL_ROLE_IF_ELSE(port,
1484:Src/usb_pd_protocol.c **** 					PD_STATE_SNK_SWAP_SNK_DISABLE,
1485:Src/usb_pd_protocol.c **** 					PD_STATE_SRC_SWAP_SNK_DISABLE));
1486:Src/usb_pd_protocol.c **** 		} else {
1487:Src/usb_pd_protocol.c **** 			send_control(port, REFUSE(pd[port].rev));
1488:Src/usb_pd_protocol.c **** 		}
1489:Src/usb_pd_protocol.c **** #else
1490:Src/usb_pd_protocol.c **** 		send_control(port, REFUSE(pd[port].rev));
1491:Src/usb_pd_protocol.c **** #endif
1492:Src/usb_pd_protocol.c **** 		break;
1493:Src/usb_pd_protocol.c **** 	case PD_CTRL_DR_SWAP:
1494:Src/usb_pd_protocol.c **** 		if (pd_check_data_swap(port, pd[port].data_role)) {
1495:Src/usb_pd_protocol.c **** 			/*
1496:Src/usb_pd_protocol.c **** 			 * Accept switch and perform data swap. Clear
1497:Src/usb_pd_protocol.c **** 			 * flag for checking data role to avoid
1498:Src/usb_pd_protocol.c **** 			 * immediately requesting another swap.
1499:Src/usb_pd_protocol.c **** 			 */
1500:Src/usb_pd_protocol.c **** 			pd[port].flags &= ~PD_FLAGS_CHECK_DR_ROLE;
1501:Src/usb_pd_protocol.c **** 			if (send_control(port, PD_CTRL_ACCEPT) >= 0)
1502:Src/usb_pd_protocol.c **** 				pd_dr_swap(port);
1503:Src/usb_pd_protocol.c **** 		} else {
1504:Src/usb_pd_protocol.c **** 			send_control(port, REFUSE(pd[port].rev));
ARM GAS  /tmp/ccWvVg6G.s 			page 33


1505:Src/usb_pd_protocol.c **** 
1506:Src/usb_pd_protocol.c **** 		}
1507:Src/usb_pd_protocol.c **** 		break;
1508:Src/usb_pd_protocol.c **** 	case PD_CTRL_VCONN_SWAP:
1509:Src/usb_pd_protocol.c **** #ifdef CONFIG_USBC_VCONN_SWAP
1510:Src/usb_pd_protocol.c **** 		if (pd[port].task_state == PD_STATE_SRC_READY ||
1511:Src/usb_pd_protocol.c **** 		    pd[port].task_state == PD_STATE_SNK_READY) {
1512:Src/usb_pd_protocol.c **** 			if (pd_check_vconn_swap(port)) {
1513:Src/usb_pd_protocol.c **** 				if (send_control(port, PD_CTRL_ACCEPT) > 0)
1514:Src/usb_pd_protocol.c **** 					set_state(port,
1515:Src/usb_pd_protocol.c **** 						  PD_STATE_VCONN_SWAP_INIT);
1516:Src/usb_pd_protocol.c **** 			} else {
1517:Src/usb_pd_protocol.c **** 				send_control(port, REFUSE(pd[port].rev));
1518:Src/usb_pd_protocol.c **** 			}
1519:Src/usb_pd_protocol.c **** 		}
1520:Src/usb_pd_protocol.c **** #else
1521:Src/usb_pd_protocol.c **** 		send_control(port, REFUSE(pd[port].rev));
1522:Src/usb_pd_protocol.c **** #endif
1523:Src/usb_pd_protocol.c **** 		break;
1524:Src/usb_pd_protocol.c **** 	default:
1525:Src/usb_pd_protocol.c **** #ifdef CONFIG_USB_PD_REV30
1526:Src/usb_pd_protocol.c **** 		send_control(port, PD_CTRL_NOT_SUPPORTED);
1527:Src/usb_pd_protocol.c **** #endif
1528:Src/usb_pd_protocol.c **** 		CPRINTF("Unhandled ctrl message type %d\n", type);
1529:Src/usb_pd_protocol.c **** 	}
1530:Src/usb_pd_protocol.c **** }
1531:Src/usb_pd_protocol.c **** 
1532:Src/usb_pd_protocol.c **** #ifdef CONFIG_USB_PD_REV30
1533:Src/usb_pd_protocol.c **** static void handle_ext_request(int port, uint16_t head, uint32_t *payload)
1534:Src/usb_pd_protocol.c **** {
1535:Src/usb_pd_protocol.c **** 	int type = PD_HEADER_TYPE(head);
1536:Src/usb_pd_protocol.c **** 
1537:Src/usb_pd_protocol.c **** 	switch (type) {
1538:Src/usb_pd_protocol.c **** 	case PD_EXT_GET_BATTERY_CAP:
1539:Src/usb_pd_protocol.c **** 		send_battery_cap(port, payload);
1540:Src/usb_pd_protocol.c **** 		break;
1541:Src/usb_pd_protocol.c **** 	case PD_EXT_GET_BATTERY_STATUS:
1542:Src/usb_pd_protocol.c **** 		send_battery_status(port, payload);
1543:Src/usb_pd_protocol.c **** 		break;
1544:Src/usb_pd_protocol.c **** 	case PD_EXT_BATTERY_CAP:
1545:Src/usb_pd_protocol.c **** 		break;
1546:Src/usb_pd_protocol.c **** 	default:
1547:Src/usb_pd_protocol.c **** 		send_control(port, PD_CTRL_NOT_SUPPORTED);
1548:Src/usb_pd_protocol.c **** 	}
1549:Src/usb_pd_protocol.c **** }
1550:Src/usb_pd_protocol.c **** #endif
1551:Src/usb_pd_protocol.c **** 
1552:Src/usb_pd_protocol.c **** static void handle_request(int port, uint16_t head,
1553:Src/usb_pd_protocol.c **** 		uint32_t *payload)
1554:Src/usb_pd_protocol.c **** {
1555:Src/usb_pd_protocol.c **** 	int cnt = PD_HEADER_CNT(head);
1556:Src/usb_pd_protocol.c **** 	int p;
1557:Src/usb_pd_protocol.c **** 
1558:Src/usb_pd_protocol.c **** 	/* dump received packet content (only dump ping at debug level 3) */
1559:Src/usb_pd_protocol.c **** 	if ((debug_level == 2 && PD_HEADER_TYPE(head) != PD_CTRL_PING) ||
1560:Src/usb_pd_protocol.c **** 	    debug_level >= 3) {
1561:Src/usb_pd_protocol.c **** 		CPRINTF("RECV %04x/%d ", head, cnt);
ARM GAS  /tmp/ccWvVg6G.s 			page 34


1562:Src/usb_pd_protocol.c **** 		for (p = 0; p < cnt; p++)
1563:Src/usb_pd_protocol.c **** 			CPRINTF("[%d]%08x ", p, payload[p]);
1564:Src/usb_pd_protocol.c **** 		CPRINTF("\n");
1565:Src/usb_pd_protocol.c **** 	}
1566:Src/usb_pd_protocol.c **** 
1567:Src/usb_pd_protocol.c **** 	/*
1568:Src/usb_pd_protocol.c **** 	 * If we are in disconnected state, we shouldn't get a request. Do
1569:Src/usb_pd_protocol.c **** 	 * a hard reset if we get one.
1570:Src/usb_pd_protocol.c **** 	 */
1571:Src/usb_pd_protocol.c **** 	if (!pd_is_connected(port))
1572:Src/usb_pd_protocol.c **** 		set_state(port, PD_STATE_HARD_RESET_SEND);
1573:Src/usb_pd_protocol.c **** 
1574:Src/usb_pd_protocol.c **** #ifdef CONFIG_USB_PD_REV30
1575:Src/usb_pd_protocol.c **** 	/* Check if this is an extended chunked data message. */
1576:Src/usb_pd_protocol.c **** 	if (pd[port].rev == PD_REV30 && PD_HEADER_EXT(head)) {
1577:Src/usb_pd_protocol.c **** 		handle_ext_request(port, head, payload);
1578:Src/usb_pd_protocol.c **** 		return;
1579:Src/usb_pd_protocol.c **** 	}
1580:Src/usb_pd_protocol.c **** #endif
1581:Src/usb_pd_protocol.c **** 	if (cnt)
1582:Src/usb_pd_protocol.c **** 		handle_data_request(port, head, payload);
1583:Src/usb_pd_protocol.c **** 	else
1584:Src/usb_pd_protocol.c **** 		handle_ctrl_request(port, head, payload);
1585:Src/usb_pd_protocol.c **** }
1586:Src/usb_pd_protocol.c **** 
1587:Src/usb_pd_protocol.c **** void pd_send_vdm(int port, uint32_t vid, int cmd, const uint32_t *data,
1588:Src/usb_pd_protocol.c **** 		 int count)
1589:Src/usb_pd_protocol.c **** {
1590:Src/usb_pd_protocol.c **** 	if (count > VDO_MAX_SIZE - 1) {
1591:Src/usb_pd_protocol.c **** 		CPRINTF("VDM over max size\n");
1592:Src/usb_pd_protocol.c **** 		return;
1593:Src/usb_pd_protocol.c **** 	}
1594:Src/usb_pd_protocol.c **** 
1595:Src/usb_pd_protocol.c **** 	/* set VDM header with VID & CMD */
1596:Src/usb_pd_protocol.c **** 	pd[port].vdo_data[0] = VDO(vid, ((vid & USB_SID_PD) == USB_SID_PD) ?
1597:Src/usb_pd_protocol.c **** 				   1 : (PD_VDO_CMD(cmd) <= CMD_ATTENTION), cmd);
1598:Src/usb_pd_protocol.c **** #ifdef CONFIG_USB_PD_REV30
1599:Src/usb_pd_protocol.c **** 	pd[port].vdo_data[0] |= VDO_SVDM_VERS(vdo_ver[pd[port].rev]);
1600:Src/usb_pd_protocol.c **** #endif
1601:Src/usb_pd_protocol.c **** 	queue_vdm(port, pd[port].vdo_data, data, count);
1602:Src/usb_pd_protocol.c **** 
1603:Src/usb_pd_protocol.c **** 	// getting rid of task stuff
1604:Src/usb_pd_protocol.c **** 	//task_wake(PD_PORT_TO_TASK_ID(port));
1605:Src/usb_pd_protocol.c **** }
1606:Src/usb_pd_protocol.c **** 
1607:Src/usb_pd_protocol.c **** static inline int pdo_busy(int port)
1608:Src/usb_pd_protocol.c **** {
1609:Src/usb_pd_protocol.c **** 	/*
1610:Src/usb_pd_protocol.c **** 	 * Note, main PDO state machine (pd_task) uses READY state exclusively
1611:Src/usb_pd_protocol.c **** 	 * to denote port partners have successfully negociated a contract.  All
1612:Src/usb_pd_protocol.c **** 	 * other protocol actions force state transitions.
1613:Src/usb_pd_protocol.c **** 	 */
1614:Src/usb_pd_protocol.c **** 	int rv = (pd[port].task_state != PD_STATE_SRC_READY);
1615:Src/usb_pd_protocol.c **** #ifdef CONFIG_USB_PD_DUAL_ROLE
1616:Src/usb_pd_protocol.c **** 	rv &= (pd[port].task_state != PD_STATE_SNK_READY);
1617:Src/usb_pd_protocol.c **** #endif
1618:Src/usb_pd_protocol.c **** 	return rv;
ARM GAS  /tmp/ccWvVg6G.s 			page 35


1619:Src/usb_pd_protocol.c **** }
1620:Src/usb_pd_protocol.c **** 
1621:Src/usb_pd_protocol.c **** static uint64_t vdm_get_ready_timeout(uint32_t vdm_hdr)
1622:Src/usb_pd_protocol.c **** {
 238              		.loc 1 1622 0
 239              		.cfi_startproc
 240              		@ args = 0, pretend = 0, frame = 0
 241              		@ frame_needed = 0, uses_anonymous_args = 0
 242              		@ link register save eliminated.
 243              	.LVL10:
1623:Src/usb_pd_protocol.c **** 	uint64_t timeout;
1624:Src/usb_pd_protocol.c **** 	int cmd = PD_VDO_CMD(vdm_hdr);
 244              		.loc 1 1624 0
 245 0000 1F23     		movs	r3, #31
 246 0002 0340     		ands	r3, r0
 247              	.LVL11:
1625:Src/usb_pd_protocol.c **** 
1626:Src/usb_pd_protocol.c **** 	/* its not a structured VDM command */
1627:Src/usb_pd_protocol.c **** 	if (!PD_VDO_SVDM(vdm_hdr))
 248              		.loc 1 1627 0
 249 0004 0204     		lsls	r2, r0, #16
 250 0006 14D5     		bpl	.L23
1628:Src/usb_pd_protocol.c **** 		return 500*MSEC;
1629:Src/usb_pd_protocol.c **** 
1630:Src/usb_pd_protocol.c **** 	switch (PD_VDO_CMDT(vdm_hdr)) {
 251              		.loc 1 1630 0
 252 0008 8009     		lsrs	r0, r0, #6
 253              	.LVL12:
 254 000a 8207     		lsls	r2, r0, #30
 255 000c 08D1     		bne	.L26
1631:Src/usb_pd_protocol.c **** 	case CMDT_INIT:
1632:Src/usb_pd_protocol.c **** 		if ((cmd == CMD_ENTER_MODE) || (cmd == CMD_EXIT_MODE))
 256              		.loc 1 1632 0
 257 000e 043B     		subs	r3, r3, #4
 258              	.LVL13:
 259 0010 012B     		cmp	r3, #1
 260 0012 02D9     		bls	.L27
1633:Src/usb_pd_protocol.c **** 			timeout = PD_T_VDM_WAIT_MODE_E;
1634:Src/usb_pd_protocol.c **** 		else
1635:Src/usb_pd_protocol.c **** 			timeout = PD_T_VDM_SNDR_RSP;
 261              		.loc 1 1635 0
 262 0014 0848     		ldr	r0, .L29
 263 0016 0021     		movs	r1, #0
 264 0018 0DE0     		b	.L19
 265              	.L27:
1633:Src/usb_pd_protocol.c **** 			timeout = PD_T_VDM_WAIT_MODE_E;
 266              		.loc 1 1633 0
 267 001a 0848     		ldr	r0, .L29+4
 268 001c 0021     		movs	r1, #0
 269 001e 0AE0     		b	.L19
 270              	.LVL14:
 271              	.L26:
1636:Src/usb_pd_protocol.c **** 		break;
1637:Src/usb_pd_protocol.c **** 	default:
1638:Src/usb_pd_protocol.c **** 		if ((cmd == CMD_ENTER_MODE) || (cmd == CMD_EXIT_MODE))
 272              		.loc 1 1638 0
 273 0020 043B     		subs	r3, r3, #4
ARM GAS  /tmp/ccWvVg6G.s 			page 36


 274              	.LVL15:
 275 0022 012B     		cmp	r3, #1
 276 0024 02D9     		bls	.L28
1639:Src/usb_pd_protocol.c **** 			timeout = PD_T_VDM_E_MODE;
1640:Src/usb_pd_protocol.c **** 		else
1641:Src/usb_pd_protocol.c **** 			timeout = PD_T_VDM_RCVR_RSP;
 277              		.loc 1 1641 0
 278 0026 0648     		ldr	r0, .L29+8
 279 0028 0021     		movs	r1, #0
 280 002a 04E0     		b	.L19
 281              	.L28:
1639:Src/usb_pd_protocol.c **** 			timeout = PD_T_VDM_E_MODE;
 282              		.loc 1 1639 0
 283 002c 0548     		ldr	r0, .L29+12
 284 002e 0021     		movs	r1, #0
 285 0030 01E0     		b	.L19
 286              	.LVL16:
 287              	.L23:
1628:Src/usb_pd_protocol.c **** 
 288              		.loc 1 1628 0
 289 0032 0548     		ldr	r0, .L29+16
 290              	.LVL17:
 291 0034 0021     		movs	r1, #0
 292              	.LVL18:
 293              	.L19:
1642:Src/usb_pd_protocol.c **** 		break;
1643:Src/usb_pd_protocol.c **** 	}
1644:Src/usb_pd_protocol.c **** 	return timeout;
1645:Src/usb_pd_protocol.c **** }
 294              		.loc 1 1645 0
 295              		@ sp needed
 296 0036 7047     		bx	lr
 297              	.L30:
 298              		.align	2
 299              	.L29:
 300 0038 30750000 		.word	30000
 301 003c A0860100 		.word	100000
 302 0040 983A0000 		.word	15000
 303 0044 A8610000 		.word	25000
 304 0048 20A10700 		.word	500000
 305              		.cfi_endproc
 306              	.LFE49:
 308              		.section	.text.pd_is_power_swapping,"ax",%progbits
 309              		.align	1
 310              		.syntax unified
 311              		.code	16
 312              		.thumb_func
 313              		.fpu softvfp
 315              	pd_is_power_swapping:
 316              	.LFB56:
1646:Src/usb_pd_protocol.c **** 
1647:Src/usb_pd_protocol.c **** static void pd_vdm_send_state_machine(int port)
1648:Src/usb_pd_protocol.c **** {
1649:Src/usb_pd_protocol.c **** 	int res;
1650:Src/usb_pd_protocol.c **** 	uint16_t header;
1651:Src/usb_pd_protocol.c **** 
1652:Src/usb_pd_protocol.c **** 	switch (pd[port].vdm_state) {
ARM GAS  /tmp/ccWvVg6G.s 			page 37


1653:Src/usb_pd_protocol.c **** 	case VDM_STATE_READY:
1654:Src/usb_pd_protocol.c **** 		/* Only transmit VDM if connected. */
1655:Src/usb_pd_protocol.c **** 		if (!pd_is_connected(port)) {
1656:Src/usb_pd_protocol.c **** 			pd[port].vdm_state = VDM_STATE_ERR_BUSY;
1657:Src/usb_pd_protocol.c **** 			break;
1658:Src/usb_pd_protocol.c **** 		}
1659:Src/usb_pd_protocol.c **** 
1660:Src/usb_pd_protocol.c **** 		/*
1661:Src/usb_pd_protocol.c **** 		 * if there's traffic or we're not in PDO ready state don't send
1662:Src/usb_pd_protocol.c **** 		 * a VDM.
1663:Src/usb_pd_protocol.c **** 		 */
1664:Src/usb_pd_protocol.c **** 		if (pdo_busy(port))
1665:Src/usb_pd_protocol.c **** 			break;
1666:Src/usb_pd_protocol.c **** 
1667:Src/usb_pd_protocol.c **** 		/* Prepare and send VDM */
1668:Src/usb_pd_protocol.c **** 		header = PD_HEADER(PD_DATA_VENDOR_DEF, pd[port].power_role,
1669:Src/usb_pd_protocol.c **** 				   pd[port].data_role, pd[port].msg_id,
1670:Src/usb_pd_protocol.c **** 				   (int)pd[port].vdo_count,
1671:Src/usb_pd_protocol.c **** 				   pd_get_rev(port), 0);
1672:Src/usb_pd_protocol.c **** 		res = pd_transmit(port, TCPC_TX_SOP, header,
1673:Src/usb_pd_protocol.c **** 				  pd[port].vdo_data);
1674:Src/usb_pd_protocol.c **** 		if (res < 0) {
1675:Src/usb_pd_protocol.c **** 			pd[port].vdm_state = VDM_STATE_ERR_SEND;
1676:Src/usb_pd_protocol.c **** 		} else {
1677:Src/usb_pd_protocol.c **** 			pd[port].vdm_state = VDM_STATE_BUSY;
1678:Src/usb_pd_protocol.c **** 			pd[port].vdm_timeout.val = get_time().val +
1679:Src/usb_pd_protocol.c **** 				vdm_get_ready_timeout(pd[port].vdo_data[0]);
1680:Src/usb_pd_protocol.c **** 		}
1681:Src/usb_pd_protocol.c **** 		break;
1682:Src/usb_pd_protocol.c **** 	case VDM_STATE_WAIT_RSP_BUSY:
1683:Src/usb_pd_protocol.c **** 		/* wait and then initiate request again */
1684:Src/usb_pd_protocol.c **** 		if (get_time().val > pd[port].vdm_timeout.val) {
1685:Src/usb_pd_protocol.c **** 			pd[port].vdo_data[0] = pd[port].vdo_retry;
1686:Src/usb_pd_protocol.c **** 			pd[port].vdo_count = 1;
1687:Src/usb_pd_protocol.c **** 			pd[port].vdm_state = VDM_STATE_READY;
1688:Src/usb_pd_protocol.c **** 		}
1689:Src/usb_pd_protocol.c **** 		break;
1690:Src/usb_pd_protocol.c **** 	case VDM_STATE_BUSY:
1691:Src/usb_pd_protocol.c **** 		/* Wait for VDM response or timeout */
1692:Src/usb_pd_protocol.c **** 		if (pd[port].vdm_timeout.val &&
1693:Src/usb_pd_protocol.c **** 		    (get_time().val > pd[port].vdm_timeout.val)) {
1694:Src/usb_pd_protocol.c **** 			pd[port].vdm_state = VDM_STATE_ERR_TMOUT;
1695:Src/usb_pd_protocol.c **** 		}
1696:Src/usb_pd_protocol.c **** 		break;
1697:Src/usb_pd_protocol.c **** 	default:
1698:Src/usb_pd_protocol.c **** 		break;
1699:Src/usb_pd_protocol.c **** 	}
1700:Src/usb_pd_protocol.c **** }
1701:Src/usb_pd_protocol.c **** 
1702:Src/usb_pd_protocol.c **** #ifdef CONFIG_CMD_PD_DEV_DUMP_INFO
1703:Src/usb_pd_protocol.c **** static inline void pd_dev_dump_info(uint16_t dev_id, uint8_t *hash)
1704:Src/usb_pd_protocol.c **** {
1705:Src/usb_pd_protocol.c **** 	int j;
1706:Src/usb_pd_protocol.c **** 	ccprintf("DevId:%d.%d Hash:", HW_DEV_ID_MAJ(dev_id),
1707:Src/usb_pd_protocol.c **** 		 HW_DEV_ID_MIN(dev_id));
1708:Src/usb_pd_protocol.c **** 	for (j = 0; j < PD_RW_HASH_SIZE; j += 4) {
1709:Src/usb_pd_protocol.c **** 		ccprintf(" 0x%02x%02x%02x%02x", hash[j + 3], hash[j + 2],
ARM GAS  /tmp/ccWvVg6G.s 			page 38


1710:Src/usb_pd_protocol.c **** 			 hash[j + 1], hash[j]);
1711:Src/usb_pd_protocol.c **** 	}
1712:Src/usb_pd_protocol.c **** 	ccprintf("\n");
1713:Src/usb_pd_protocol.c **** }
1714:Src/usb_pd_protocol.c **** #endif /* CONFIG_CMD_PD_DEV_DUMP_INFO */
1715:Src/usb_pd_protocol.c **** 
1716:Src/usb_pd_protocol.c **** int pd_dev_store_rw_hash(int port, uint16_t dev_id, uint32_t *rw_hash,
1717:Src/usb_pd_protocol.c **** 			 uint32_t current_image)
1718:Src/usb_pd_protocol.c **** {
1719:Src/usb_pd_protocol.c **** #ifdef CONFIG_COMMON_RUNTIME
1720:Src/usb_pd_protocol.c **** 	int i;
1721:Src/usb_pd_protocol.c **** #endif
1722:Src/usb_pd_protocol.c **** 
1723:Src/usb_pd_protocol.c **** #ifdef CONFIG_USB_PD_CHROMEOS
1724:Src/usb_pd_protocol.c **** 	pd[port].dev_id = dev_id;
1725:Src/usb_pd_protocol.c **** 	memcpy(pd[port].dev_rw_hash, rw_hash, PD_RW_HASH_SIZE);
1726:Src/usb_pd_protocol.c **** #endif
1727:Src/usb_pd_protocol.c **** #ifdef CONFIG_CMD_PD_DEV_DUMP_INFO
1728:Src/usb_pd_protocol.c **** 	if (debug_level >= 2)
1729:Src/usb_pd_protocol.c **** 		pd_dev_dump_info(dev_id, (uint8_t *)rw_hash);
1730:Src/usb_pd_protocol.c **** #endif
1731:Src/usb_pd_protocol.c **** #ifdef CONFIG_USB_PD_CHROMEOS
1732:Src/usb_pd_protocol.c **** 	pd[port].current_image = current_image;
1733:Src/usb_pd_protocol.c **** #endif
1734:Src/usb_pd_protocol.c **** 
1735:Src/usb_pd_protocol.c **** #ifdef CONFIG_COMMON_RUNTIME
1736:Src/usb_pd_protocol.c **** 	/* Search table for matching device / hash */
1737:Src/usb_pd_protocol.c **** 	for (i = 0; i < RW_HASH_ENTRIES; i++)
1738:Src/usb_pd_protocol.c **** 		if (dev_id == rw_hash_table[i].dev_id)
1739:Src/usb_pd_protocol.c **** 			return !memcmp(rw_hash,
1740:Src/usb_pd_protocol.c **** 				       rw_hash_table[i].dev_rw_hash,
1741:Src/usb_pd_protocol.c **** 				       PD_RW_HASH_SIZE);
1742:Src/usb_pd_protocol.c **** #endif
1743:Src/usb_pd_protocol.c **** 	return 0;
1744:Src/usb_pd_protocol.c **** }
1745:Src/usb_pd_protocol.c **** 
1746:Src/usb_pd_protocol.c **** #ifdef CONFIG_USB_PD_DUAL_ROLE
1747:Src/usb_pd_protocol.c **** enum pd_dual_role_states pd_get_dual_role(void)
1748:Src/usb_pd_protocol.c **** {
1749:Src/usb_pd_protocol.c **** 	return drp_state;
1750:Src/usb_pd_protocol.c **** }
1751:Src/usb_pd_protocol.c **** 
1752:Src/usb_pd_protocol.c **** #ifdef CONFIG_USB_PD_TRY_SRC
1753:Src/usb_pd_protocol.c **** static void pd_update_try_source(void)
1754:Src/usb_pd_protocol.c **** {
1755:Src/usb_pd_protocol.c **** 	int i;
1756:Src/usb_pd_protocol.c **** 
1757:Src/usb_pd_protocol.c **** #ifndef CONFIG_CHARGER
1758:Src/usb_pd_protocol.c **** 	int batt_soc = board_get_battery_soc();
1759:Src/usb_pd_protocol.c **** #else
1760:Src/usb_pd_protocol.c **** 	int batt_soc = charge_get_percent();
1761:Src/usb_pd_protocol.c **** #endif
1762:Src/usb_pd_protocol.c **** 
1763:Src/usb_pd_protocol.c **** 	/*
1764:Src/usb_pd_protocol.c **** 	 * Enable try source when dual-role toggling AND battery is present
1765:Src/usb_pd_protocol.c **** 	 * and at some minimum percentage.
1766:Src/usb_pd_protocol.c **** 	 */
ARM GAS  /tmp/ccWvVg6G.s 			page 39


1767:Src/usb_pd_protocol.c **** 	pd_try_src_enable = drp_state == PD_DRP_TOGGLE_ON &&
1768:Src/usb_pd_protocol.c **** 			    batt_soc >= CONFIG_USB_PD_TRY_SRC_MIN_BATT_SOC;
1769:Src/usb_pd_protocol.c **** #if defined(CONFIG_BATTERY_PRESENT_CUSTOM) || \
1770:Src/usb_pd_protocol.c **** 	defined(CONFIG_BATTERY_PRESENT_GPIO)
1771:Src/usb_pd_protocol.c **** 	/*
1772:Src/usb_pd_protocol.c **** 	 * When battery is cutoff in ship mode it may not be reliable to
1773:Src/usb_pd_protocol.c **** 	 * check if battery is present with its state of charge.
1774:Src/usb_pd_protocol.c **** 	 * Also check if battery is initialized and ready to provide power.
1775:Src/usb_pd_protocol.c **** 	 */
1776:Src/usb_pd_protocol.c **** 	pd_try_src_enable &= (battery_is_present() == BP_YES);
1777:Src/usb_pd_protocol.c **** #endif
1778:Src/usb_pd_protocol.c **** 
1779:Src/usb_pd_protocol.c **** 	/*
1780:Src/usb_pd_protocol.c **** 	 * Clear this flag to cover case where a TrySrc
1781:Src/usb_pd_protocol.c **** 	 * mode went from enabled to disabled and trying_source
1782:Src/usb_pd_protocol.c **** 	 * was active at that time.
1783:Src/usb_pd_protocol.c **** 	 */
1784:Src/usb_pd_protocol.c **** 	for (i = 0; i < CONFIG_USB_PD_PORT_COUNT; i++)
1785:Src/usb_pd_protocol.c **** 		pd[i].flags &= ~PD_FLAGS_TRY_SRC;
1786:Src/usb_pd_protocol.c **** 
1787:Src/usb_pd_protocol.c **** }
1788:Src/usb_pd_protocol.c **** DECLARE_HOOK(HOOK_BATTERY_SOC_CHANGE, pd_update_try_source, HOOK_PRIO_DEFAULT);
1789:Src/usb_pd_protocol.c **** #endif
1790:Src/usb_pd_protocol.c **** 
1791:Src/usb_pd_protocol.c **** void pd_set_dual_role(enum pd_dual_role_states state)
1792:Src/usb_pd_protocol.c **** {
1793:Src/usb_pd_protocol.c **** 	int i;
1794:Src/usb_pd_protocol.c **** 	drp_state = state;
1795:Src/usb_pd_protocol.c **** 
1796:Src/usb_pd_protocol.c **** #ifdef CONFIG_USB_PD_TRY_SRC
1797:Src/usb_pd_protocol.c **** 	pd_update_try_source();
1798:Src/usb_pd_protocol.c **** #endif
1799:Src/usb_pd_protocol.c **** 
1800:Src/usb_pd_protocol.c **** 	/* Inform PD tasks of dual role change. */
1801:Src/usb_pd_protocol.c **** 	for (i = 0; i < CONFIG_USB_PD_PORT_COUNT; i++)
1802:Src/usb_pd_protocol.c **** 		// getting rid of task stuff
1803:Src/usb_pd_protocol.c **** 		//task_set_event(PD_PORT_TO_TASK_ID(i),
1804:Src/usb_pd_protocol.c **** 		//	       PD_EVENT_UPDATE_DUAL_ROLE, 0);
1805:Src/usb_pd_protocol.c **** 		;
1806:Src/usb_pd_protocol.c **** }
1807:Src/usb_pd_protocol.c **** 
1808:Src/usb_pd_protocol.c **** void pd_update_dual_role_config(int port)
1809:Src/usb_pd_protocol.c **** {
1810:Src/usb_pd_protocol.c **** 	/*
1811:Src/usb_pd_protocol.c **** 	 * Change to sink if port is currently a source AND (new DRP
1812:Src/usb_pd_protocol.c **** 	 * state is force sink OR new DRP state is either toggle off
1813:Src/usb_pd_protocol.c **** 	 * or debug accessory toggle only and we are in the source
1814:Src/usb_pd_protocol.c **** 	 * disconnected state).
1815:Src/usb_pd_protocol.c **** 	 */
1816:Src/usb_pd_protocol.c **** 	if (pd[port].power_role == PD_ROLE_SOURCE &&
1817:Src/usb_pd_protocol.c **** 	    ((drp_state == PD_DRP_FORCE_SINK && !pd_ts_dts_plugged(port)) ||
1818:Src/usb_pd_protocol.c **** 	     (drp_state == PD_DRP_TOGGLE_OFF
1819:Src/usb_pd_protocol.c **** 	      && pd[port].task_state == PD_STATE_SRC_DISCONNECTED))) {
1820:Src/usb_pd_protocol.c **** 		pd[port].power_role = PD_ROLE_SINK;
1821:Src/usb_pd_protocol.c **** 		set_state(port, PD_STATE_SNK_DISCONNECTED);
1822:Src/usb_pd_protocol.c **** 		tcpm_set_cc(port, TYPEC_CC_RD);
1823:Src/usb_pd_protocol.c **** 		/* Make sure we're not sourcing VBUS. */
ARM GAS  /tmp/ccWvVg6G.s 			page 40


1824:Src/usb_pd_protocol.c **** 		pd_power_supply_reset(port);
1825:Src/usb_pd_protocol.c **** 	}
1826:Src/usb_pd_protocol.c **** 
1827:Src/usb_pd_protocol.c **** 	/*
1828:Src/usb_pd_protocol.c **** 	 * Change to source if port is currently a sink and the
1829:Src/usb_pd_protocol.c **** 	 * new DRP state is force source.
1830:Src/usb_pd_protocol.c **** 	 */
1831:Src/usb_pd_protocol.c **** 	if (pd[port].power_role == PD_ROLE_SINK &&
1832:Src/usb_pd_protocol.c **** 	    drp_state == PD_DRP_FORCE_SOURCE) {
1833:Src/usb_pd_protocol.c **** 		pd[port].power_role = PD_ROLE_SOURCE;
1834:Src/usb_pd_protocol.c **** 		set_state(port, PD_STATE_SRC_DISCONNECTED);
1835:Src/usb_pd_protocol.c **** 		tcpm_set_cc(port, TYPEC_CC_RP);
1836:Src/usb_pd_protocol.c **** 	}
1837:Src/usb_pd_protocol.c **** 
1838:Src/usb_pd_protocol.c **** #if defined(CONFIG_USB_PD_DUAL_ROLE_AUTO_TOGGLE) && \
1839:Src/usb_pd_protocol.c **** 	defined(CONFIG_USB_PD_TCPC_LOW_POWER)
1840:Src/usb_pd_protocol.c **** 	/* When switching drp mode, make sure tcpc is out of standby mode */
1841:Src/usb_pd_protocol.c **** 	tcpm_set_drp_toggle(port, 0);
1842:Src/usb_pd_protocol.c **** #endif
1843:Src/usb_pd_protocol.c **** }
1844:Src/usb_pd_protocol.c **** 
1845:Src/usb_pd_protocol.c **** int pd_get_role(int port)
1846:Src/usb_pd_protocol.c **** {
1847:Src/usb_pd_protocol.c **** 	return pd[port].power_role;
1848:Src/usb_pd_protocol.c **** }
1849:Src/usb_pd_protocol.c **** 
1850:Src/usb_pd_protocol.c **** static int pd_is_power_swapping(int port)
1851:Src/usb_pd_protocol.c **** {
 317              		.loc 1 1851 0
 318              		.cfi_startproc
 319              		@ args = 0, pretend = 0, frame = 0
 320              		@ frame_needed = 0, uses_anonymous_args = 0
 321              		@ link register save eliminated.
 322              	.LVL19:
1852:Src/usb_pd_protocol.c **** 	/* return true if in the act of swapping power roles */
1853:Src/usb_pd_protocol.c **** 	return  pd[port].task_state == PD_STATE_SNK_SWAP_SNK_DISABLE ||
 323              		.loc 1 1853 0
 324 0000 C301     		lsls	r3, r0, #7
 325 0002 0C48     		ldr	r0, .L38
 326              	.LVL20:
 327 0004 C018     		adds	r0, r0, r3
 328 0006 0279     		ldrb	r2, [r0, #4]
1854:Src/usb_pd_protocol.c **** 		pd[port].task_state == PD_STATE_SNK_SWAP_SRC_DISABLE ||
1855:Src/usb_pd_protocol.c **** 		pd[port].task_state == PD_STATE_SNK_SWAP_STANDBY ||
 329              		.loc 1 1855 0
 330 0008 1300     		movs	r3, r2
 331 000a 0A3B     		subs	r3, r3, #10
 332 000c DBB2     		uxtb	r3, r3
1856:Src/usb_pd_protocol.c **** 		pd[port].task_state == PD_STATE_SNK_SWAP_COMPLETE ||
1857:Src/usb_pd_protocol.c **** 		pd[port].task_state == PD_STATE_SRC_SWAP_SNK_DISABLE ||
1858:Src/usb_pd_protocol.c **** 		pd[port].task_state == PD_STATE_SRC_SWAP_SRC_DISABLE ||
 333              		.loc 1 1858 0
 334 000e 032B     		cmp	r3, #3
 335 0010 09D9     		bls	.L33
1856:Src/usb_pd_protocol.c **** 		pd[port].task_state == PD_STATE_SNK_SWAP_COMPLETE ||
 336              		.loc 1 1856 0
 337 0012 1B2A     		cmp	r2, #27
ARM GAS  /tmp/ccWvVg6G.s 			page 41


 338 0014 09D0     		beq	.L34
1857:Src/usb_pd_protocol.c **** 		pd[port].task_state == PD_STATE_SRC_SWAP_SRC_DISABLE ||
 339              		.loc 1 1857 0
 340 0016 1C2A     		cmp	r2, #28
 341 0018 09D0     		beq	.L35
 342              		.loc 1 1858 0 discriminator 2
 343 001a 1D2A     		cmp	r2, #29
 344 001c 01D0     		beq	.L37
 345              		.loc 1 1858 0 is_stmt 0
 346 001e 0020     		movs	r0, #0
 347 0020 02E0     		b	.L31
 348              	.L37:
 349 0022 0120     		movs	r0, #1
 350 0024 00E0     		b	.L31
 351              	.L33:
 352 0026 0120     		movs	r0, #1
 353              	.L31:
1859:Src/usb_pd_protocol.c **** 		pd[port].task_state == PD_STATE_SRC_SWAP_STANDBY;
1860:Src/usb_pd_protocol.c **** }
 354              		.loc 1 1860 0 is_stmt 1
 355              		@ sp needed
 356 0028 7047     		bx	lr
 357              	.L34:
1858:Src/usb_pd_protocol.c **** 		pd[port].task_state == PD_STATE_SRC_SWAP_STANDBY;
 358              		.loc 1 1858 0
 359 002a 0120     		movs	r0, #1
 360 002c FCE7     		b	.L31
 361              	.L35:
 362 002e 0120     		movs	r0, #1
 363 0030 FAE7     		b	.L31
 364              	.L39:
 365 0032 C046     		.align	2
 366              	.L38:
 367 0034 00000000 		.word	pd
 368              		.cfi_endproc
 369              	.LFE56:
 371              		.section	.text.get_typec_current_limit,"ax",%progbits
 372              		.align	1
 373              		.syntax unified
 374              		.code	16
 375              		.thumb_func
 376              		.fpu softvfp
 378              	get_typec_current_limit:
 379              	.LFB63:
1861:Src/usb_pd_protocol.c **** 
1862:Src/usb_pd_protocol.c **** /*
1863:Src/usb_pd_protocol.c ****  * Provide Rp to ensure the partner port is in a known state (eg. not
1864:Src/usb_pd_protocol.c ****  * PD negotiated, not sourcing 20V).
1865:Src/usb_pd_protocol.c ****  */
1866:Src/usb_pd_protocol.c **** static void pd_partner_port_reset(int port)
1867:Src/usb_pd_protocol.c **** {
1868:Src/usb_pd_protocol.c **** 	uint64_t timeout;
1869:Src/usb_pd_protocol.c **** 
1870:Src/usb_pd_protocol.c **** #ifdef CONFIG_BBRAM
1871:Src/usb_pd_protocol.c **** 	/*
1872:Src/usb_pd_protocol.c **** 	 * Check our battery-backed previous port state. If PD comms were
1873:Src/usb_pd_protocol.c **** 	 * active, and we didn't just lose power, make sure we
ARM GAS  /tmp/ccWvVg6G.s 			page 42


1874:Src/usb_pd_protocol.c **** 	 * don't boot into RO with a pre-existing power contract.
1875:Src/usb_pd_protocol.c **** 	 */
1876:Src/usb_pd_protocol.c **** 	if (!pd_get_saved_active(port) ||
1877:Src/usb_pd_protocol.c **** 	   system_get_image_copy() != SYSTEM_IMAGE_RO ||
1878:Src/usb_pd_protocol.c **** 	   system_get_reset_flags() &
1879:Src/usb_pd_protocol.c **** 	   (RESET_FLAG_BROWNOUT | RESET_FLAG_POWER_ON))
1880:Src/usb_pd_protocol.c **** 		return;
1881:Src/usb_pd_protocol.c **** #endif // CONFIG_BBRAM
1882:Src/usb_pd_protocol.c **** 	/* Provide Rp for 100 msec. or until we no longer have VBUS. */
1883:Src/usb_pd_protocol.c **** 	tcpm_set_cc(port, TYPEC_CC_RP);
1884:Src/usb_pd_protocol.c **** 	timeout = get_time().val + 100 * MSEC;
1885:Src/usb_pd_protocol.c **** 
1886:Src/usb_pd_protocol.c **** 	while (get_time().val < timeout && pd_is_vbus_present(port))
1887:Src/usb_pd_protocol.c **** 		msleep(10);
1888:Src/usb_pd_protocol.c **** #ifdef CONFIG_BBRAM
1889:Src/usb_pd_protocol.c **** 	pd_set_saved_active(port, 0);
1890:Src/usb_pd_protocol.c **** #endif
1891:Src/usb_pd_protocol.c **** }
1892:Src/usb_pd_protocol.c **** #endif /* CONFIG_USB_PD_DUAL_ROLE */
1893:Src/usb_pd_protocol.c **** 
1894:Src/usb_pd_protocol.c **** int pd_get_polarity(int port)
1895:Src/usb_pd_protocol.c **** {
1896:Src/usb_pd_protocol.c **** 	return pd[port].polarity;
1897:Src/usb_pd_protocol.c **** }
1898:Src/usb_pd_protocol.c **** 
1899:Src/usb_pd_protocol.c **** int pd_get_partner_data_swap_capable(int port)
1900:Src/usb_pd_protocol.c **** {
1901:Src/usb_pd_protocol.c **** 	/* return data swap capable status of port partner */
1902:Src/usb_pd_protocol.c **** 	return pd[port].flags & PD_FLAGS_PARTNER_DR_DATA;
1903:Src/usb_pd_protocol.c **** }
1904:Src/usb_pd_protocol.c **** 
1905:Src/usb_pd_protocol.c **** #ifdef CONFIG_COMMON_RUNTIME
1906:Src/usb_pd_protocol.c **** void pd_comm_enable(int port, int enable)
1907:Src/usb_pd_protocol.c **** {
1908:Src/usb_pd_protocol.c **** 	/* We don't check port >= CONFIG_USB_PD_PORT_COUNT deliberately */
1909:Src/usb_pd_protocol.c **** 	pd_comm_enabled[port] = enable;
1910:Src/usb_pd_protocol.c **** 
1911:Src/usb_pd_protocol.c **** 	/* If type-C connection, then update the TCPC RX enable */
1912:Src/usb_pd_protocol.c **** 	if (pd_is_connected(port))
1913:Src/usb_pd_protocol.c **** 		tcpm_set_rx_enable(port, enable);
1914:Src/usb_pd_protocol.c **** 
1915:Src/usb_pd_protocol.c **** #ifdef CONFIG_USB_PD_DUAL_ROLE
1916:Src/usb_pd_protocol.c **** 	/*
1917:Src/usb_pd_protocol.c **** 	 * If communications are enabled, start hard reset timer for
1918:Src/usb_pd_protocol.c **** 	 * any port in PD_SNK_DISCOVERY.
1919:Src/usb_pd_protocol.c **** 	 */
1920:Src/usb_pd_protocol.c **** 	if (enable && pd[port].task_state == PD_STATE_SNK_DISCOVERY)
1921:Src/usb_pd_protocol.c **** 		set_state_timeout(port,
1922:Src/usb_pd_protocol.c **** 				  get_time().val + PD_T_SINK_WAIT_CAP,
1923:Src/usb_pd_protocol.c **** 				  PD_STATE_HARD_RESET_SEND);
1924:Src/usb_pd_protocol.c **** #endif
1925:Src/usb_pd_protocol.c **** }
1926:Src/usb_pd_protocol.c **** #endif
1927:Src/usb_pd_protocol.c **** 
1928:Src/usb_pd_protocol.c **** void pd_ping_enable(int port, int enable)
1929:Src/usb_pd_protocol.c **** {
1930:Src/usb_pd_protocol.c **** 	if (enable)
ARM GAS  /tmp/ccWvVg6G.s 			page 43


1931:Src/usb_pd_protocol.c **** 		pd[port].flags |= PD_FLAGS_PING_ENABLED;
1932:Src/usb_pd_protocol.c **** 	else
1933:Src/usb_pd_protocol.c **** 		pd[port].flags &= ~PD_FLAGS_PING_ENABLED;
1934:Src/usb_pd_protocol.c **** }
1935:Src/usb_pd_protocol.c **** 
1936:Src/usb_pd_protocol.c **** /**
1937:Src/usb_pd_protocol.c ****  * Returns whether the sink has detected a Rp resistor on the other side.
1938:Src/usb_pd_protocol.c ****  */
1939:Src/usb_pd_protocol.c **** static inline int cc_is_rp(int cc)
1940:Src/usb_pd_protocol.c **** {
1941:Src/usb_pd_protocol.c **** 	return (cc == TYPEC_CC_VOLT_SNK_DEF) || (cc == TYPEC_CC_VOLT_SNK_1_5) ||
1942:Src/usb_pd_protocol.c **** 	       (cc == TYPEC_CC_VOLT_SNK_3_0);
1943:Src/usb_pd_protocol.c **** }
1944:Src/usb_pd_protocol.c **** 
1945:Src/usb_pd_protocol.c **** /*
1946:Src/usb_pd_protocol.c ****  * CC values for regular sources and Debug sources (aka DTS)
1947:Src/usb_pd_protocol.c ****  *
1948:Src/usb_pd_protocol.c ****  * Source type  Mode of Operation   CC1    CC2
1949:Src/usb_pd_protocol.c ****  * ---------------------------------------------
1950:Src/usb_pd_protocol.c ****  * Regular      Default USB Power   RpUSB  Open
1951:Src/usb_pd_protocol.c ****  * Regular      USB-C @ 1.5 A       Rp1A5  Open
1952:Src/usb_pd_protocol.c ****  * Regular      USB-C @ 3 A         Rp3A0  Open
1953:Src/usb_pd_protocol.c ****  * DTS          Default USB Power   Rp3A0  Rp1A5
1954:Src/usb_pd_protocol.c ****  * DTS          USB-C @ 1.5 A       Rp1A5  RpUSB
1955:Src/usb_pd_protocol.c ****  * DTS          USB-C @ 3 A         Rp3A0  RpUSB
1956:Src/usb_pd_protocol.c **** */
1957:Src/usb_pd_protocol.c **** 
1958:Src/usb_pd_protocol.c **** /**
1959:Src/usb_pd_protocol.c ****  * Returns the polarity of a Sink.
1960:Src/usb_pd_protocol.c ****  */
1961:Src/usb_pd_protocol.c **** static inline int get_snk_polarity(int cc1, int cc2)
1962:Src/usb_pd_protocol.c **** {
1963:Src/usb_pd_protocol.c **** 	/* the following assumes:
1964:Src/usb_pd_protocol.c **** 	 * TYPEC_CC_VOLT_SNK_3_0 > TYPEC_CC_VOLT_SNK_1_5
1965:Src/usb_pd_protocol.c **** 	 * TYPEC_CC_VOLT_SNK_1_5 > TYPEC_CC_VOLT_SNK_DEF
1966:Src/usb_pd_protocol.c **** 	 * TYPEC_CC_VOLT_SNK_DEF > TYPEC_CC_VOLT_OPEN
1967:Src/usb_pd_protocol.c **** 	 */
1968:Src/usb_pd_protocol.c **** 	return (cc2 > cc1);
1969:Src/usb_pd_protocol.c **** }
1970:Src/usb_pd_protocol.c **** 
1971:Src/usb_pd_protocol.c **** #if defined(CONFIG_CHARGE_MANAGER)
1972:Src/usb_pd_protocol.c **** /**
1973:Src/usb_pd_protocol.c ****  * Returns type C current limit (mA) based upon cc_voltage (mV).
1974:Src/usb_pd_protocol.c ****  */
1975:Src/usb_pd_protocol.c **** static typec_current_t get_typec_current_limit(int polarity, int cc1, int cc2)
1976:Src/usb_pd_protocol.c **** {
 380              		.loc 1 1976 0
 381              		.cfi_startproc
 382              		@ args = 0, pretend = 0, frame = 0
 383              		@ frame_needed = 0, uses_anonymous_args = 0
 384              		@ link register save eliminated.
 385              	.LVL21:
1977:Src/usb_pd_protocol.c **** 	typec_current_t charge;
1978:Src/usb_pd_protocol.c **** 	int cc = polarity ? cc2 : cc1;
 386              		.loc 1 1978 0
 387 0000 0028     		cmp	r0, #0
 388 0002 0FD0     		beq	.L46
ARM GAS  /tmp/ccWvVg6G.s 			page 44


 389 0004 1300     		movs	r3, r2
 390              	.L41:
 391              	.LVL22:
1979:Src/usb_pd_protocol.c **** 	int cc_alt = polarity ? cc1 : cc2;
 392              		.loc 1 1979 0 discriminator 4
 393 0006 0028     		cmp	r0, #0
 394 0008 00D0     		beq	.L42
 395              		.loc 1 1979 0 is_stmt 0
 396 000a 0A00     		movs	r2, r1
 397              	.LVL23:
 398              	.L42:
1980:Src/usb_pd_protocol.c **** 
1981:Src/usb_pd_protocol.c **** 	if (cc == TYPEC_CC_VOLT_SNK_3_0 && cc_alt != TYPEC_CC_VOLT_SNK_1_5)
 399              		.loc 1 1981 0 is_stmt 1 discriminator 4
 400 000c 072B     		cmp	r3, #7
 401 000e 0BD0     		beq	.L49
 402              	.L43:
1982:Src/usb_pd_protocol.c **** 		charge = 3000;
1983:Src/usb_pd_protocol.c **** 	else if (cc == TYPEC_CC_VOLT_SNK_1_5)
 403              		.loc 1 1983 0
 404 0010 062B     		cmp	r3, #6
 405 0012 0DD0     		beq	.L50
1984:Src/usb_pd_protocol.c **** 		charge = 1500;
1985:Src/usb_pd_protocol.c **** 	else
1986:Src/usb_pd_protocol.c **** 		charge = 0;
 406              		.loc 1 1986 0
 407 0014 0020     		movs	r0, #0
 408              	.LVL24:
 409              	.L44:
 410              	.LBB148:
 411              	.LBB149:
1941:Src/usb_pd_protocol.c **** 	       (cc == TYPEC_CC_VOLT_SNK_3_0);
 412              		.loc 1 1941 0
 413 0016 053A     		subs	r2, r2, #5
 414              	.LVL25:
 415              	.LBE149:
 416              	.LBE148:
1987:Src/usb_pd_protocol.c **** 
1988:Src/usb_pd_protocol.c **** 	if (cc_is_rp(cc_alt))
 417              		.loc 1 1988 0
 418 0018 022A     		cmp	r2, #2
 419 001a 02D8     		bhi	.L40
1989:Src/usb_pd_protocol.c **** 		charge |= TYPEC_CURRENT_DTS_MASK;
 420              		.loc 1 1989 0
 421 001c 8023     		movs	r3, #128
 422              	.LVL26:
 423 001e 1B06     		lsls	r3, r3, #24
 424 0020 1843     		orrs	r0, r3
 425              	.LVL27:
 426              	.L40:
1990:Src/usb_pd_protocol.c **** 
1991:Src/usb_pd_protocol.c **** 	return charge;
1992:Src/usb_pd_protocol.c **** }
 427              		.loc 1 1992 0
 428              		@ sp needed
 429 0022 7047     		bx	lr
 430              	.LVL28:
ARM GAS  /tmp/ccWvVg6G.s 			page 45


 431              	.L46:
1978:Src/usb_pd_protocol.c **** 	int cc_alt = polarity ? cc1 : cc2;
 432              		.loc 1 1978 0
 433 0024 0B00     		movs	r3, r1
 434 0026 EEE7     		b	.L41
 435              	.LVL29:
 436              	.L49:
1981:Src/usb_pd_protocol.c **** 		charge = 3000;
 437              		.loc 1 1981 0 discriminator 1
 438 0028 062A     		cmp	r2, #6
 439 002a F1D0     		beq	.L43
1982:Src/usb_pd_protocol.c **** 	else if (cc == TYPEC_CC_VOLT_SNK_1_5)
 440              		.loc 1 1982 0
 441 002c 0148     		ldr	r0, .L51
 442              	.LVL30:
 443 002e F2E7     		b	.L44
 444              	.LVL31:
 445              	.L50:
1984:Src/usb_pd_protocol.c **** 	else
 446              		.loc 1 1984 0
 447 0030 0148     		ldr	r0, .L51+4
 448              	.LVL32:
 449 0032 F0E7     		b	.L44
 450              	.L52:
 451              		.align	2
 452              	.L51:
 453 0034 B80B0000 		.word	3000
 454 0038 DC050000 		.word	1500
 455              		.cfi_endproc
 456              	.LFE63:
 458              		.section	.text.set_state,"ax",%progbits
 459              		.align	1
 460              		.syntax unified
 461              		.code	16
 462              		.thumb_func
 463              		.fpu softvfp
 465              	set_state:
 466              	.LFB24:
 345:Src/usb_pd_protocol.c **** 	enum pd_states last_state = pd[port].task_state;
 467              		.loc 1 345 0
 468              		.cfi_startproc
 469              		@ args = 0, pretend = 0, frame = 0
 470              		@ frame_needed = 0, uses_anonymous_args = 0
 471              	.LVL33:
 472 0000 70B5     		push	{r4, r5, r6, lr}
 473              	.LCFI2:
 474              		.cfi_def_cfa_offset 16
 475              		.cfi_offset 4, -16
 476              		.cfi_offset 5, -12
 477              		.cfi_offset 6, -8
 478              		.cfi_offset 14, -4
 479 0002 0600     		movs	r6, r0
 346:Src/usb_pd_protocol.c **** #ifdef CONFIG_LOW_POWER_IDLE
 480              		.loc 1 346 0
 481 0004 C201     		lsls	r2, r0, #7
 482 0006 184B     		ldr	r3, .L62
 483 0008 9B18     		adds	r3, r3, r2
ARM GAS  /tmp/ccWvVg6G.s 			page 46


 484 000a 1A79     		ldrb	r2, [r3, #4]
 485              	.LVL34:
 486              	.LBB154:
 487              	.LBB155:
 283:Src/usb_pd_protocol.c **** 	pd[port].timeout_state = timeout_state;
 488              		.loc 1 283 0
 489 000c 0024     		movs	r4, #0
 490 000e 0025     		movs	r5, #0
 491 0010 1C61     		str	r4, [r3, #16]
 492 0012 5D61     		str	r5, [r3, #20]
 284:Src/usb_pd_protocol.c **** }
 493              		.loc 1 284 0
 494 0014 0020     		movs	r0, #0
 495              	.LVL35:
 496 0016 D871     		strb	r0, [r3, #7]
 497              	.LVL36:
 498              	.LBE155:
 499              	.LBE154:
 352:Src/usb_pd_protocol.c **** 
 500              		.loc 1 352 0
 501 0018 1971     		strb	r1, [r3, #4]
 354:Src/usb_pd_protocol.c **** 		return;
 502              		.loc 1 354 0
 503 001a 8A42     		cmp	r2, r1
 504 001c 19D0     		beq	.L53
 365:Src/usb_pd_protocol.c **** 	     next_state == PD_STATE_SRC_DISCONNECTED) ||
 505              		.loc 1 365 0
 506 001e 022A     		cmp	r2, #2
 507 0020 18D0     		beq	.L59
 508              	.L55:
 366:Src/usb_pd_protocol.c **** 	    (last_state == PD_STATE_SRC_DISCONNECTED &&
 509              		.loc 1 366 0
 510 0022 0E2A     		cmp	r2, #14
 511 0024 19D0     		beq	.L60
 512              	.L56:
 371:Src/usb_pd_protocol.c **** 	    next_state == PD_STATE_SNK_DISCONNECTED) {
 513              		.loc 1 371 0
 514 0026 0E29     		cmp	r1, #14
 515 0028 01D0     		beq	.L57
 371:Src/usb_pd_protocol.c **** 	    next_state == PD_STATE_SNK_DISCONNECTED) {
 516              		.loc 1 371 0 is_stmt 0 discriminator 1
 517 002a 0229     		cmp	r1, #2
 518 002c 11D1     		bne	.L53
 519              	.L57:
 374:Src/usb_pd_protocol.c **** #ifdef CONFIG_CHARGE_MANAGER
 520              		.loc 1 374 0 is_stmt 1
 521 002e 0022     		movs	r2, #0
 522              	.LVL37:
 523 0030 0021     		movs	r1, #0
 524              	.LVL38:
 525 0032 3000     		movs	r0, r6
 526 0034 FFF7FEFF 		bl	pd_set_input_current_limit
 527              	.LVL39:
 391:Src/usb_pd_protocol.c **** 			/*
 528              		.loc 1 391 0
 529 0038 F301     		lsls	r3, r6, #7
 530 003a 0B4A     		ldr	r2, .L62
ARM GAS  /tmp/ccWvVg6G.s 			page 47


 531 003c 9B5C     		ldrb	r3, [r3, r2]
 532 003e 012B     		cmp	r3, #1
 533 0040 0ED0     		beq	.L61
 534              	.L58:
 535              	.LVL40:
 536              	.LBB156:
 537              	.LBB157:
  87:Inc/tcpm.h    **** 						     data_role);
  88:Inc/tcpm.h    **** }
  89:Inc/tcpm.h    **** 
  90:Inc/tcpm.h    **** static inline int tcpm_set_rx_enable(int port, int enable)
  91:Inc/tcpm.h    **** {
  92:Inc/tcpm.h    **** 	return tcpc_config[port].drv->set_rx_enable(port, enable);
 538              		.loc 2 92 0
 539 0042 3201     		lsls	r2, r6, #4
 540 0044 094B     		ldr	r3, .L62+4
 541 0046 9B18     		adds	r3, r3, r2
 542 0048 9B68     		ldr	r3, [r3, #8]
 543 004a 5B6A     		ldr	r3, [r3, #36]
 544 004c 0021     		movs	r1, #0
 545 004e 3000     		movs	r0, r6
 546 0050 9847     		blx	r3
 547              	.LVL41:
 548              	.L53:
 549              	.LBE157:
 550              	.LBE156:
 443:Src/usb_pd_protocol.c **** 
 551              		.loc 1 443 0
 552              		@ sp needed
 553              	.LVL42:
 554 0052 70BD     		pop	{r4, r5, r6, pc}
 555              	.LVL43:
 556              	.L59:
 365:Src/usb_pd_protocol.c **** 	     next_state == PD_STATE_SRC_DISCONNECTED) ||
 557              		.loc 1 365 0 discriminator 1
 558 0054 0E29     		cmp	r1, #14
 559 0056 E4D1     		bne	.L55
 560 0058 FBE7     		b	.L53
 561              	.L60:
 367:Src/usb_pd_protocol.c **** 	     next_state == PD_STATE_SNK_DISCONNECTED))
 562              		.loc 1 367 0
 563 005a 0229     		cmp	r1, #2
 564 005c E3D1     		bne	.L56
 565 005e F8E7     		b	.L53
 566              	.LVL44:
 567              	.L61:
 396:Src/usb_pd_protocol.c **** #if !defined(CONFIG_USB_PD_MAX_SINGLE_SOURCE_CURRENT) && \
 568              		.loc 1 396 0
 569 0060 3000     		movs	r0, r6
 570 0062 FFF7FEFF 		bl	pd_power_supply_reset
 571              	.LVL45:
 572 0066 ECE7     		b	.L58
 573              	.L63:
 574              		.align	2
 575              	.L62:
 576 0068 00000000 		.word	pd
 577 006c 00000000 		.word	tcpc_config
ARM GAS  /tmp/ccWvVg6G.s 			page 48


 578              		.cfi_endproc
 579              	.LFE24:
 581              		.section	.text.queue_vdm,"ax",%progbits
 582              		.align	1
 583              		.syntax unified
 584              		.code	16
 585              		.thumb_func
 586              		.fpu softvfp
 588              	queue_vdm:
 589              	.LFB33:
 856:Src/usb_pd_protocol.c **** 	pd[port].vdo_count = data_cnt + 1;
 590              		.loc 1 856 0
 591              		.cfi_startproc
 592              		@ args = 0, pretend = 0, frame = 0
 593              		@ frame_needed = 0, uses_anonymous_args = 0
 594              	.LVL46:
 595 0000 F8B5     		push	{r3, r4, r5, r6, r7, lr}
 596              	.LCFI3:
 597              		.cfi_def_cfa_offset 24
 598              		.cfi_offset 3, -24
 599              		.cfi_offset 4, -20
 600              		.cfi_offset 5, -16
 601              		.cfi_offset 6, -12
 602              		.cfi_offset 7, -8
 603              		.cfi_offset 14, -4
 604 0002 1500     		movs	r5, r2
 857:Src/usb_pd_protocol.c **** 	pd[port].vdo_data[0] = header[0];
 605              		.loc 1 857 0
 606 0004 5F1C     		adds	r7, r3, #1
 607 0006 094A     		ldr	r2, .L65
 608              	.LVL47:
 609 0008 C001     		lsls	r0, r0, #7
 610              	.LVL48:
 611 000a 1418     		adds	r4, r2, r0
 612 000c 2600     		movs	r6, r4
 613 000e 7436     		adds	r6, r6, #116
 614 0010 3770     		strb	r7, [r6]
 858:Src/usb_pd_protocol.c **** 	memcpy(&pd[port].vdo_data[1], data, sizeof(uint32_t) * data_cnt);
 615              		.loc 1 858 0
 616 0012 0968     		ldr	r1, [r1]
 617              	.LVL49:
 618 0014 A165     		str	r1, [r4, #88]
 859:Src/usb_pd_protocol.c **** 	/* Set ready, pd task will actually send */
 619              		.loc 1 859 0
 620 0016 5C30     		adds	r0, r0, #92
 621 0018 8018     		adds	r0, r0, r2
 622 001a 9A00     		lsls	r2, r3, #2
 623 001c 2900     		movs	r1, r5
 624 001e FFF7FEFF 		bl	memcpy
 625              	.LVL50:
 861:Src/usb_pd_protocol.c **** }
 626              		.loc 1 861 0
 627 0022 4834     		adds	r4, r4, #72
 628 0024 0123     		movs	r3, #1
 629 0026 2370     		strb	r3, [r4]
 862:Src/usb_pd_protocol.c **** 
 630              		.loc 1 862 0
ARM GAS  /tmp/ccWvVg6G.s 			page 49


 631              		@ sp needed
 632              	.LVL51:
 633              	.LVL52:
 634 0028 F8BD     		pop	{r3, r4, r5, r6, r7, pc}
 635              	.L66:
 636 002a C046     		.align	2
 637              	.L65:
 638 002c 00000000 		.word	pd
 639              		.cfi_endproc
 640              	.LFE33:
 642              		.section	.text.handle_vdm_request,"ax",%progbits
 643              		.align	1
 644              		.syntax unified
 645              		.code	16
 646              		.thumb_func
 647              		.fpu softvfp
 649              	handle_vdm_request:
 650              	.LFB34:
 865:Src/usb_pd_protocol.c **** 	int rlen = 0;
 651              		.loc 1 865 0
 652              		.cfi_startproc
 653              		@ args = 0, pretend = 0, frame = 16
 654              		@ frame_needed = 0, uses_anonymous_args = 0
 655              	.LVL53:
 656 0000 30B5     		push	{r4, r5, lr}
 657              	.LCFI4:
 658              		.cfi_def_cfa_offset 12
 659              		.cfi_offset 4, -12
 660              		.cfi_offset 5, -8
 661              		.cfi_offset 14, -4
 662 0002 85B0     		sub	sp, sp, #20
 663              	.LCFI5:
 664              		.cfi_def_cfa_offset 32
 665 0004 0400     		movs	r4, r0
 666 0006 1500     		movs	r5, r2
 667              	.LVL54:
 869:Src/usb_pd_protocol.c **** 		/* If UFP responded busy retry after timeout */
 668              		.loc 1 869 0
 669 0008 C201     		lsls	r2, r0, #7
 670              	.LVL55:
 671 000a 224B     		ldr	r3, .L77
 672 000c 9B18     		adds	r3, r3, r2
 673 000e 4833     		adds	r3, r3, #72
 674 0010 1B78     		ldrb	r3, [r3]
 675 0012 5BB2     		sxtb	r3, r3
 676 0014 022B     		cmp	r3, #2
 677 0016 12D0     		beq	.L75
 678              	.L68:
 883:Src/usb_pd_protocol.c **** 		rlen = pd_svdm(port, cnt, payload, &rdata);
 679              		.loc 1 883 0
 680 0018 2B68     		ldr	r3, [r5]
 681 001a 1B04     		lsls	r3, r3, #16
 682 001c 33D5     		bpl	.L71
 884:Src/usb_pd_protocol.c **** 	else
 683              		.loc 1 884 0
 684 001e 03AB     		add	r3, sp, #12
 685 0020 2A00     		movs	r2, r5
ARM GAS  /tmp/ccWvVg6G.s 			page 50


 686 0022 2000     		movs	r0, r4
 687              	.LVL56:
 688 0024 FFF7FEFF 		bl	pd_svdm
 689              	.LVL57:
 690              	.L72:
 888:Src/usb_pd_protocol.c **** 		queue_vdm(port, rdata, &rdata[1], rlen - 1);
 691              		.loc 1 888 0
 692 0028 0028     		cmp	r0, #0
 693 002a 06DD     		ble	.L67
 889:Src/usb_pd_protocol.c **** 		return;
 694              		.loc 1 889 0
 695 002c 039B     		ldr	r3, [sp, #12]
 696 002e 1A1D     		adds	r2, r3, #4
 697 0030 431E     		subs	r3, r0, #1
 698 0032 0399     		ldr	r1, [sp, #12]
 699 0034 2000     		movs	r0, r4
 700              	.LVL58:
 701 0036 FFF7FEFF 		bl	queue_vdm
 702              	.LVL59:
 703              	.L67:
 895:Src/usb_pd_protocol.c **** 
 704              		.loc 1 895 0
 705 003a 05B0     		add	sp, sp, #20
 706              		@ sp needed
 707              	.LVL60:
 708 003c 30BD     		pop	{r4, r5, pc}
 709              	.LVL61:
 710              	.L75:
 871:Src/usb_pd_protocol.c **** 			pd[port].vdm_timeout.val = get_time().val +
 711              		.loc 1 871 0
 712 003e 2B68     		ldr	r3, [r5]
 713 0040 9A09     		lsrs	r2, r3, #6
 714 0042 0323     		movs	r3, #3
 715 0044 1340     		ands	r3, r2
 716 0046 032B     		cmp	r3, #3
 717 0048 06D0     		beq	.L76
 879:Src/usb_pd_protocol.c **** 		}
 718              		.loc 1 879 0
 719 004a C201     		lsls	r2, r0, #7
 720 004c 114B     		ldr	r3, .L77
 721 004e 9B18     		adds	r3, r3, r2
 722 0050 4833     		adds	r3, r3, #72
 723 0052 0022     		movs	r2, #0
 724 0054 1A70     		strb	r2, [r3]
 725 0056 DFE7     		b	.L68
 726              	.L76:
 872:Src/usb_pd_protocol.c **** 				PD_T_VDM_BUSY;
 727              		.loc 1 872 0
 728 0058 6846     		mov	r0, sp
 729              	.LVL62:
 730 005a FFF7FEFF 		bl	get_time
 731              	.LVL63:
 732 005e 0E4A     		ldr	r2, .L77+4
 733 0060 0023     		movs	r3, #0
 734 0062 0098     		ldr	r0, [sp]
 735 0064 0199     		ldr	r1, [sp, #4]
 736 0066 1218     		adds	r2, r2, r0
ARM GAS  /tmp/ccWvVg6G.s 			page 51


 737 0068 4B41     		adcs	r3, r3, r1
 738 006a E401     		lsls	r4, r4, #7
 739              	.LVL64:
 740 006c 0949     		ldr	r1, .L77
 741 006e 0C19     		adds	r4, r1, r4
 742 0070 2265     		str	r2, [r4, #80]
 743 0072 6365     		str	r3, [r4, #84]
 874:Src/usb_pd_protocol.c **** 			pd[port].vdo_retry = (payload[0] & ~VDO_CMDT_MASK) |
 744              		.loc 1 874 0
 745 0074 2300     		movs	r3, r4
 746 0076 4833     		adds	r3, r3, #72
 747 0078 0322     		movs	r2, #3
 748 007a 1A70     		strb	r2, [r3]
 875:Src/usb_pd_protocol.c **** 				CMDT_INIT;
 749              		.loc 1 875 0
 750 007c 2B68     		ldr	r3, [r5]
 751 007e BD32     		adds	r2, r2, #189
 752 0080 9343     		bics	r3, r2
 753 0082 A367     		str	r3, [r4, #120]
 877:Src/usb_pd_protocol.c **** 		} else {
 754              		.loc 1 877 0
 755 0084 D9E7     		b	.L67
 756              	.LVL65:
 757              	.L71:
 886:Src/usb_pd_protocol.c **** 
 758              		.loc 1 886 0
 759 0086 03AB     		add	r3, sp, #12
 760 0088 2A00     		movs	r2, r5
 761 008a 2000     		movs	r0, r4
 762              	.LVL66:
 763 008c FFF7FEFF 		bl	pd_custom_vdm
 764              	.LVL67:
 765 0090 CAE7     		b	.L72
 766              	.L78:
 767 0092 C046     		.align	2
 768              	.L77:
 769 0094 00000000 		.word	pd
 770 0098 A0860100 		.word	100000
 771              		.cfi_endproc
 772              	.LFE34:
 774              		.section	.text.pd_set_data_role,"ax",%progbits
 775              		.align	1
 776              		.syntax unified
 777              		.code	16
 778              		.thumb_func
 779              		.fpu softvfp
 781              	pd_set_data_role:
 782              	.LFB43:
1260:Src/usb_pd_protocol.c **** 	pd[port].data_role = role;
 783              		.loc 1 1260 0
 784              		.cfi_startproc
 785              		@ args = 0, pretend = 0, frame = 0
 786              		@ frame_needed = 0, uses_anonymous_args = 0
 787              	.LVL68:
 788 0000 10B5     		push	{r4, lr}
 789              	.LCFI6:
 790              		.cfi_def_cfa_offset 8
ARM GAS  /tmp/ccWvVg6G.s 			page 52


 791              		.cfi_offset 4, -8
 792              		.cfi_offset 14, -4
 793 0002 0400     		movs	r4, r0
1261:Src/usb_pd_protocol.c **** 	pd_execute_data_swap(port, role);
 794              		.loc 1 1261 0
 795 0004 C201     		lsls	r2, r0, #7
 796 0006 044B     		ldr	r3, .L80
 797 0008 9B18     		adds	r3, r3, r2
 798 000a 5970     		strb	r1, [r3, #1]
1262:Src/usb_pd_protocol.c **** 
 799              		.loc 1 1262 0
 800 000c FFF7FEFF 		bl	pd_execute_data_swap
 801              	.LVL69:
1281:Src/usb_pd_protocol.c **** }
 802              		.loc 1 1281 0
 803 0010 2000     		movs	r0, r4
 804 0012 FFF7FEFF 		bl	pd_update_roles
 805              	.LVL70:
1282:Src/usb_pd_protocol.c **** 
 806              		.loc 1 1282 0
 807              		@ sp needed
 808              	.LVL71:
 809 0016 10BD     		pop	{r4, pc}
 810              	.L81:
 811              		.align	2
 812              	.L80:
 813 0018 00000000 		.word	pd
 814              		.cfi_endproc
 815              	.LFE43:
 817              		.section	.text.pd_dr_swap,"ax",%progbits
 818              		.align	1
 819              		.syntax unified
 820              		.code	16
 821              		.thumb_func
 822              		.fpu softvfp
 824              	pd_dr_swap:
 825              	.LFB44:
1285:Src/usb_pd_protocol.c **** 	pd_set_data_role(port, !pd[port].data_role);
 826              		.loc 1 1285 0
 827              		.cfi_startproc
 828              		@ args = 0, pretend = 0, frame = 0
 829              		@ frame_needed = 0, uses_anonymous_args = 0
 830              	.LVL72:
 831 0000 10B5     		push	{r4, lr}
 832              	.LCFI7:
 833              		.cfi_def_cfa_offset 8
 834              		.cfi_offset 4, -8
 835              		.cfi_offset 14, -4
1286:Src/usb_pd_protocol.c **** 	pd[port].flags |= PD_FLAGS_CHECK_IDENTITY;
 836              		.loc 1 1286 0
 837 0002 C301     		lsls	r3, r0, #7
 838 0004 054C     		ldr	r4, .L83
 839 0006 E418     		adds	r4, r4, r3
 840 0008 6178     		ldrb	r1, [r4, #1]
 841 000a 4B42     		rsbs	r3, r1, #0
 842 000c 5941     		adcs	r1, r1, r3
 843 000e FFF7FEFF 		bl	pd_set_data_role
ARM GAS  /tmp/ccWvVg6G.s 			page 53


 844              	.LVL73:
1287:Src/usb_pd_protocol.c **** }
 845              		.loc 1 1287 0
 846 0012 0823     		movs	r3, #8
 847 0014 A268     		ldr	r2, [r4, #8]
 848 0016 1343     		orrs	r3, r2
 849 0018 A360     		str	r3, [r4, #8]
1288:Src/usb_pd_protocol.c **** 
 850              		.loc 1 1288 0
 851              		@ sp needed
 852 001a 10BD     		pop	{r4, pc}
 853              	.L84:
 854              		.align	2
 855              	.L83:
 856 001c 00000000 		.word	pd
 857              		.cfi_endproc
 858              	.LFE44:
 860              		.section	.text.pd_restart_tcpc,"ax",%progbits
 861              		.align	1
 862              		.syntax unified
 863              		.code	16
 864              		.thumb_func
 865              		.fpu softvfp
 867              	pd_restart_tcpc:
 868              	.LFB65:
1993:Src/usb_pd_protocol.c **** 
1994:Src/usb_pd_protocol.c **** /**
1995:Src/usb_pd_protocol.c ****  * Signal power request to indicate a charger update that affects the port.
1996:Src/usb_pd_protocol.c ****  */
1997:Src/usb_pd_protocol.c **** void pd_set_new_power_request(int port)
1998:Src/usb_pd_protocol.c **** {
1999:Src/usb_pd_protocol.c **** 	pd[port].new_power_request = 1;
2000:Src/usb_pd_protocol.c **** 	// getting rid of task stuff
2001:Src/usb_pd_protocol.c **** 	//task_wake(PD_PORT_TO_TASK_ID(port));
2002:Src/usb_pd_protocol.c **** }
2003:Src/usb_pd_protocol.c **** #endif /* CONFIG_CHARGE_MANAGER */
2004:Src/usb_pd_protocol.c **** 
2005:Src/usb_pd_protocol.c **** #if defined(CONFIG_USBC_BACKWARDS_COMPATIBLE_DFP) && defined(CONFIG_USBC_SS_MUX)
2006:Src/usb_pd_protocol.c **** /*
2007:Src/usb_pd_protocol.c ****  * Backwards compatible DFP does not support USB SS because it applies VBUS
2008:Src/usb_pd_protocol.c ****  * before debouncing CC and setting USB SS muxes, but SS detection will fail
2009:Src/usb_pd_protocol.c ****  * before we are done debouncing CC.
2010:Src/usb_pd_protocol.c ****  */
2011:Src/usb_pd_protocol.c **** #error "Backwards compatible DFP does not support USB"
2012:Src/usb_pd_protocol.c **** #endif
2013:Src/usb_pd_protocol.c **** 
2014:Src/usb_pd_protocol.c **** #ifdef CONFIG_COMMON_RUNTIME
2015:Src/usb_pd_protocol.c **** 
2016:Src/usb_pd_protocol.c **** /* Initialize globals based on system state. */
2017:Src/usb_pd_protocol.c **** static void pd_init_tasks(void)
2018:Src/usb_pd_protocol.c **** {
2019:Src/usb_pd_protocol.c **** 	static int initialized;
2020:Src/usb_pd_protocol.c **** 	int enable = 1;
2021:Src/usb_pd_protocol.c **** 	int i;
2022:Src/usb_pd_protocol.c **** 
2023:Src/usb_pd_protocol.c **** 	/* Initialize globals once, for all PD tasks.  */
2024:Src/usb_pd_protocol.c **** 	if (initialized)
ARM GAS  /tmp/ccWvVg6G.s 			page 54


2025:Src/usb_pd_protocol.c **** 		return;
2026:Src/usb_pd_protocol.c **** 
2027:Src/usb_pd_protocol.c **** #if defined(HAS_TASK_CHIPSET) && defined(CONFIG_USB_PD_DUAL_ROLE)
2028:Src/usb_pd_protocol.c **** 	/* Set dual-role state based on chipset power state */
2029:Src/usb_pd_protocol.c **** 	if (chipset_in_state(CHIPSET_STATE_ANY_OFF))
2030:Src/usb_pd_protocol.c **** 		drp_state = PD_DRP_FORCE_SINK;
2031:Src/usb_pd_protocol.c **** 	else if (chipset_in_state(CHIPSET_STATE_SUSPEND))
2032:Src/usb_pd_protocol.c **** 		drp_state = PD_DRP_TOGGLE_OFF;
2033:Src/usb_pd_protocol.c **** 	else /* CHIPSET_STATE_ON */
2034:Src/usb_pd_protocol.c **** 		drp_state = PD_DRP_TOGGLE_ON;
2035:Src/usb_pd_protocol.c **** #endif
2036:Src/usb_pd_protocol.c **** 
2037:Src/usb_pd_protocol.c **** #if defined(CONFIG_USB_PD_COMM_DISABLED)
2038:Src/usb_pd_protocol.c **** 	enable = 0;
2039:Src/usb_pd_protocol.c **** #elif defined(CONFIG_USB_PD_COMM_LOCKED)
2040:Src/usb_pd_protocol.c **** 	/* Disable PD communication at init if we're in RO and locked. */
2041:Src/usb_pd_protocol.c **** 	if (!system_is_in_rw() && system_is_locked())
2042:Src/usb_pd_protocol.c **** 		enable = 0;
2043:Src/usb_pd_protocol.c **** #endif
2044:Src/usb_pd_protocol.c **** 	for (i = 0; i < CONFIG_USB_PD_PORT_COUNT; i++)
2045:Src/usb_pd_protocol.c **** 		pd_comm_enabled[i] = enable;
2046:Src/usb_pd_protocol.c **** 	CPRINTS("PD comm %sabled", enable ? "en" : "dis");
2047:Src/usb_pd_protocol.c **** 
2048:Src/usb_pd_protocol.c **** 	initialized = 1;
2049:Src/usb_pd_protocol.c **** }
2050:Src/usb_pd_protocol.c **** #endif /* CONFIG_COMMON_RUNTIME */
2051:Src/usb_pd_protocol.c **** 
2052:Src/usb_pd_protocol.c **** #ifndef CONFIG_USB_PD_TCPC
2053:Src/usb_pd_protocol.c **** static int pd_restart_tcpc(int port)
2054:Src/usb_pd_protocol.c **** {
 869              		.loc 1 2054 0
 870              		.cfi_startproc
 871              		@ args = 0, pretend = 0, frame = 0
 872              		@ frame_needed = 0, uses_anonymous_args = 0
 873              	.LVL74:
 874 0000 10B5     		push	{r4, lr}
 875              	.LCFI8:
 876              		.cfi_def_cfa_offset 8
 877              		.cfi_offset 4, -8
 878              		.cfi_offset 14, -4
 879 0002 0400     		movs	r4, r0
2055:Src/usb_pd_protocol.c **** 	if (board_set_tcpc_power_mode) {
 880              		.loc 1 2055 0
 881 0004 0A4B     		ldr	r3, .L88
 882 0006 002B     		cmp	r3, #0
 883 0008 02D0     		beq	.L86
2056:Src/usb_pd_protocol.c **** 		/* force chip reset */
2057:Src/usb_pd_protocol.c **** 		board_set_tcpc_power_mode(port, 0);
 884              		.loc 1 2057 0
 885 000a 0021     		movs	r1, #0
 886 000c FFF7FEFF 		bl	board_set_tcpc_power_mode
 887              	.LVL75:
 888              	.L86:
 889              	.LBB160:
 890              	.LBB161:
  38:Inc/tcpm.h    **** 	if (rv)
 891              		.loc 2 38 0
ARM GAS  /tmp/ccWvVg6G.s 			page 55


 892 0010 2201     		lsls	r2, r4, #4
 893 0012 084B     		ldr	r3, .L88+4
 894 0014 9B18     		adds	r3, r3, r2
 895 0016 9B68     		ldr	r3, [r3, #8]
 896 0018 1B68     		ldr	r3, [r3]
 897 001a 2000     		movs	r0, r4
 898 001c 9847     		blx	r3
 899              	.LVL76:
  39:Inc/tcpm.h    **** 		return rv;
 900              		.loc 2 39 0
 901 001e 0028     		cmp	r0, #0
 902 0020 05D1     		bne	.L85
  43:Inc/tcpm.h    **** 		rv = board_tcpc_post_init(port);
 903              		.loc 2 43 0
 904 0022 054B     		ldr	r3, .L88+8
 905 0024 002B     		cmp	r3, #0
 906 0026 02D0     		beq	.L85
  44:Inc/tcpm.h    **** 
 907              		.loc 2 44 0
 908 0028 2000     		movs	r0, r4
 909              	.LVL77:
 910 002a FFF7FEFF 		bl	board_tcpc_post_init
 911              	.LVL78:
 912              	.L85:
 913              	.LBE161:
 914              	.LBE160:
2058:Src/usb_pd_protocol.c **** 	}
2059:Src/usb_pd_protocol.c **** 	return tcpm_init(port);
2060:Src/usb_pd_protocol.c **** }
 915              		.loc 1 2060 0
 916              		@ sp needed
 917              	.LVL79:
 918 002e 10BD     		pop	{r4, pc}
 919              	.L89:
 920              		.align	2
 921              	.L88:
 922 0030 00000000 		.word	board_set_tcpc_power_mode
 923 0034 00000000 		.word	tcpc_config
 924 0038 00000000 		.word	board_tcpc_post_init
 925              		.cfi_endproc
 926              	.LFE65:
 928              		.section	.text.execute_soft_reset,"ax",%progbits
 929              		.align	1
 930              		.syntax unified
 931              		.code	16
 932              		.thumb_func
 933              		.fpu softvfp
 935              	execute_soft_reset:
 936              	.LFB36:
 951:Src/usb_pd_protocol.c **** 	pd[port].msg_id = 0;
 937              		.loc 1 951 0
 938              		.cfi_startproc
 939              		@ args = 0, pretend = 0, frame = 0
 940              		@ frame_needed = 0, uses_anonymous_args = 0
 941              	.LVL80:
 942 0000 70B5     		push	{r4, r5, r6, lr}
 943              	.LCFI9:
ARM GAS  /tmp/ccWvVg6G.s 			page 56


 944              		.cfi_def_cfa_offset 16
 945              		.cfi_offset 4, -16
 946              		.cfi_offset 5, -12
 947              		.cfi_offset 6, -8
 948              		.cfi_offset 14, -4
 949 0002 0400     		movs	r4, r0
 952:Src/usb_pd_protocol.c **** 	set_state(port, DUAL_ROLE_IF_ELSE(port, PD_STATE_SNK_DISCOVERY,
 950              		.loc 1 952 0
 951 0004 1E4B     		ldr	r3, .L102
 952 0006 C201     		lsls	r2, r0, #7
 953 0008 9918     		adds	r1, r3, r2
 954 000a 0020     		movs	r0, #0
 955              	.LVL81:
 956 000c 8870     		strb	r0, [r1, #2]
 953:Src/usb_pd_protocol.c **** 						PD_STATE_SRC_DISCOVERY));
 957              		.loc 1 953 0
 958 000e D35C     		ldrb	r3, [r2, r3]
 959 0010 002B     		cmp	r3, #0
 960 0012 28D0     		beq	.L98
 961 0014 1222     		movs	r2, #18
 962              	.L91:
 963              	.LVL82:
 964              	.LBB168:
 965              	.LBB169:
 346:Src/usb_pd_protocol.c **** #ifdef CONFIG_LOW_POWER_IDLE
 966              		.loc 1 346 0 discriminator 4
 967 0016 E101     		lsls	r1, r4, #7
 968 0018 194B     		ldr	r3, .L102
 969 001a 5B18     		adds	r3, r3, r1
 970 001c 1D79     		ldrb	r5, [r3, #4]
 971              	.LVL83:
 972              	.LBB170:
 973              	.LBB171:
 283:Src/usb_pd_protocol.c **** 	pd[port].timeout_state = timeout_state;
 974              		.loc 1 283 0 discriminator 4
 975 001e 0020     		movs	r0, #0
 976 0020 0021     		movs	r1, #0
 977 0022 1861     		str	r0, [r3, #16]
 978 0024 5961     		str	r1, [r3, #20]
 284:Src/usb_pd_protocol.c **** }
 979              		.loc 1 284 0 discriminator 4
 980 0026 0021     		movs	r1, #0
 981 0028 D971     		strb	r1, [r3, #7]
 982              	.LVL84:
 983              	.LBE171:
 984              	.LBE170:
 352:Src/usb_pd_protocol.c **** 
 985              		.loc 1 352 0 discriminator 4
 986 002a 1A71     		strb	r2, [r3, #4]
 354:Src/usb_pd_protocol.c **** 		return;
 987              		.loc 1 354 0 discriminator 4
 988 002c AA42     		cmp	r2, r5
 989 002e 19D0     		beq	.L90
 365:Src/usb_pd_protocol.c **** 	     next_state == PD_STATE_SRC_DISCONNECTED) ||
 990              		.loc 1 365 0
 991 0030 022D     		cmp	r5, #2
 992 0032 1AD0     		beq	.L99
ARM GAS  /tmp/ccWvVg6G.s 			page 57


 993              	.L93:
 366:Src/usb_pd_protocol.c **** 	    (last_state == PD_STATE_SRC_DISCONNECTED &&
 994              		.loc 1 366 0
 995 0034 0E2D     		cmp	r5, #14
 996 0036 1BD0     		beq	.L100
 997              	.L94:
 371:Src/usb_pd_protocol.c **** 	    next_state == PD_STATE_SNK_DISCONNECTED) {
 998              		.loc 1 371 0
 999 0038 0E2A     		cmp	r2, #14
 1000 003a 01D0     		beq	.L95
 1001 003c 022A     		cmp	r2, #2
 1002 003e 11D1     		bne	.L90
 1003              	.L95:
 374:Src/usb_pd_protocol.c **** #ifdef CONFIG_CHARGE_MANAGER
 1004              		.loc 1 374 0
 1005 0040 0022     		movs	r2, #0
 1006              	.LVL85:
 1007 0042 0021     		movs	r1, #0
 1008 0044 2000     		movs	r0, r4
 1009 0046 FFF7FEFF 		bl	pd_set_input_current_limit
 1010              	.LVL86:
 391:Src/usb_pd_protocol.c **** 			/*
 1011              		.loc 1 391 0
 1012 004a E301     		lsls	r3, r4, #7
 1013 004c 0C4A     		ldr	r2, .L102
 1014 004e 9B5C     		ldrb	r3, [r3, r2]
 1015 0050 012B     		cmp	r3, #1
 1016 0052 10D0     		beq	.L101
 1017              	.L96:
 1018              	.LVL87:
 1019              	.LBB172:
 1020              	.LBB173:
 1021              		.loc 2 92 0
 1022 0054 2201     		lsls	r2, r4, #4
 1023 0056 0B4B     		ldr	r3, .L102+4
 1024 0058 9B18     		adds	r3, r3, r2
 1025 005a 9B68     		ldr	r3, [r3, #8]
 1026 005c 5B6A     		ldr	r3, [r3, #36]
 1027 005e 0021     		movs	r1, #0
 1028 0060 2000     		movs	r0, r4
 1029 0062 9847     		blx	r3
 1030              	.LVL88:
 1031              	.L90:
 1032              	.LBE173:
 1033              	.LBE172:
 1034              	.LBE169:
 1035              	.LBE168:
 956:Src/usb_pd_protocol.c **** 
 1036              		.loc 1 956 0
 1037              		@ sp needed
 1038              	.LVL89:
 1039 0064 70BD     		pop	{r4, r5, r6, pc}
 1040              	.LVL90:
 1041              	.L98:
 953:Src/usb_pd_protocol.c **** 						PD_STATE_SRC_DISCOVERY));
 1042              		.loc 1 953 0
 1043 0066 0522     		movs	r2, #5
ARM GAS  /tmp/ccWvVg6G.s 			page 58


 1044 0068 D5E7     		b	.L91
 1045              	.LVL91:
 1046              	.L99:
 1047              	.LBB175:
 1048              	.LBB174:
 365:Src/usb_pd_protocol.c **** 	     next_state == PD_STATE_SRC_DISCONNECTED) ||
 1049              		.loc 1 365 0
 1050 006a 0E2A     		cmp	r2, #14
 1051 006c E2D1     		bne	.L93
 1052 006e F9E7     		b	.L90
 1053              	.L100:
 367:Src/usb_pd_protocol.c **** 	     next_state == PD_STATE_SNK_DISCONNECTED))
 1054              		.loc 1 367 0
 1055 0070 022A     		cmp	r2, #2
 1056 0072 E1D1     		bne	.L94
 1057 0074 F6E7     		b	.L90
 1058              	.LVL92:
 1059              	.L101:
 396:Src/usb_pd_protocol.c **** #if !defined(CONFIG_USB_PD_MAX_SINGLE_SOURCE_CURRENT) && \
 1060              		.loc 1 396 0
 1061 0076 2000     		movs	r0, r4
 1062 0078 FFF7FEFF 		bl	pd_power_supply_reset
 1063              	.LVL93:
 1064 007c EAE7     		b	.L96
 1065              	.L103:
 1066 007e C046     		.align	2
 1067              	.L102:
 1068 0080 00000000 		.word	pd
 1069 0084 00000000 		.word	tcpc_config
 1070              	.LBE174:
 1071              	.LBE175:
 1072              		.cfi_endproc
 1073              	.LFE36:
 1075              		.section	.text.pd_comm_is_enabled,"ax",%progbits
 1076              		.align	1
 1077              		.global	pd_comm_is_enabled
 1078              		.syntax unified
 1079              		.code	16
 1080              		.thumb_func
 1081              		.fpu softvfp
 1083              	pd_comm_is_enabled:
 1084              	.LFB18:
 271:Src/usb_pd_protocol.c **** #ifdef CONFIG_COMMON_RUNTIME
 1085              		.loc 1 271 0
 1086              		.cfi_startproc
 1087              		@ args = 0, pretend = 0, frame = 0
 1088              		@ frame_needed = 0, uses_anonymous_args = 0
 1089              		@ link register save eliminated.
 1090              	.LVL94:
 277:Src/usb_pd_protocol.c **** 
 1091              		.loc 1 277 0
 1092 0000 0120     		movs	r0, #1
 1093              	.LVL95:
 1094              		@ sp needed
 1095 0002 7047     		bx	lr
 1096              		.cfi_endproc
 1097              	.LFE18:
ARM GAS  /tmp/ccWvVg6G.s 			page 59


 1099              		.section	.text.pd_transmit,"ax",%progbits
 1100              		.align	1
 1101              		.syntax unified
 1102              		.code	16
 1103              		.thumb_func
 1104              		.fpu softvfp
 1106              	pd_transmit:
 1107              	.LFB27:
 476:Src/usb_pd_protocol.c **** 	int evt;
 1108              		.loc 1 476 0
 1109              		.cfi_startproc
 1110              		@ args = 0, pretend = 0, frame = 8
 1111              		@ frame_needed = 0, uses_anonymous_args = 0
 1112              	.LVL96:
 1113 0000 F0B5     		push	{r4, r5, r6, r7, lr}
 1114              	.LCFI10:
 1115              		.cfi_def_cfa_offset 20
 1116              		.cfi_offset 4, -20
 1117              		.cfi_offset 5, -16
 1118              		.cfi_offset 6, -12
 1119              		.cfi_offset 7, -8
 1120              		.cfi_offset 14, -4
 1121 0002 83B0     		sub	sp, sp, #12
 1122              	.LCFI11:
 1123              		.cfi_def_cfa_offset 32
 1124 0004 0400     		movs	r4, r0
 1125 0006 0191     		str	r1, [sp, #4]
 1126 0008 1600     		movs	r6, r2
 1127 000a 1F00     		movs	r7, r3
 480:Src/usb_pd_protocol.c **** 		return -1;
 1128              		.loc 1 480 0
 1129 000c FFF7FEFF 		bl	pd_comm_is_enabled
 1130              	.LVL97:
 1131 0010 0028     		cmp	r0, #0
 1132 0012 13D0     		beq	.L107
 1133              	.LVL98:
 1134              	.LBB176:
 1135              	.LBB177:
  93:Inc/tcpm.h    **** }
  94:Inc/tcpm.h    **** 
  95:Inc/tcpm.h    **** static inline int tcpm_get_message(int port, uint32_t *payload, int *head)
  96:Inc/tcpm.h    **** {
  97:Inc/tcpm.h    **** 	return tcpc_config[port].drv->get_message(port, payload, head);
  98:Inc/tcpm.h    **** }
  99:Inc/tcpm.h    **** 
 100:Inc/tcpm.h    **** static inline int tcpm_transmit(int port, enum tcpm_transmit_type type,
 101:Inc/tcpm.h    **** 		  uint16_t header, const uint32_t *data)
 102:Inc/tcpm.h    **** {
 103:Inc/tcpm.h    **** 	return tcpc_config[port].drv->transmit(port, type, header, data);
 1136              		.loc 2 103 0
 1137 0014 2201     		lsls	r2, r4, #4
 1138 0016 0C4B     		ldr	r3, .L109
 1139 0018 9B18     		adds	r3, r3, r2
 1140 001a 9B68     		ldr	r3, [r3, #8]
 1141 001c DD6A     		ldr	r5, [r3, #44]
 1142 001e 3B00     		movs	r3, r7
 1143 0020 3200     		movs	r2, r6
ARM GAS  /tmp/ccWvVg6G.s 			page 60


 1144 0022 0199     		ldr	r1, [sp, #4]
 1145 0024 2000     		movs	r0, r4
 1146 0026 A847     		blx	r5
 1147              	.LVL99:
 1148              	.LBE177:
 1149              	.LBE176:
 558:Src/usb_pd_protocol.c **** }
 1150              		.loc 1 558 0
 1151 0028 E401     		lsls	r4, r4, #7
 1152              	.LVL100:
 1153 002a 084B     		ldr	r3, .L109+4
 1154 002c 1C19     		adds	r4, r3, r4
 1155 002e 2934     		adds	r4, r4, #41
 1156 0030 2378     		ldrb	r3, [r4]
 1157 0032 002B     		cmp	r3, #0
 1158 0034 05D1     		bne	.L108
 1159 0036 0120     		movs	r0, #1
 1160              	.L105:
 559:Src/usb_pd_protocol.c **** 
 1161              		.loc 1 559 0
 1162 0038 03B0     		add	sp, sp, #12
 1163              		@ sp needed
 1164              	.LVL101:
 1165 003a F0BD     		pop	{r4, r5, r6, r7, pc}
 1166              	.LVL102:
 1167              	.L107:
 481:Src/usb_pd_protocol.c **** #ifdef CONFIG_USB_PD_REV30
 1168              		.loc 1 481 0
 1169 003c 0120     		movs	r0, #1
 1170 003e 4042     		rsbs	r0, r0, #0
 1171 0040 FAE7     		b	.L105
 1172              	.LVL103:
 1173              	.L108:
 558:Src/usb_pd_protocol.c **** }
 1174              		.loc 1 558 0
 1175 0042 0120     		movs	r0, #1
 1176 0044 4042     		rsbs	r0, r0, #0
 1177 0046 F7E7     		b	.L105
 1178              	.L110:
 1179              		.align	2
 1180              	.L109:
 1181 0048 00000000 		.word	tcpc_config
 1182 004c 00000000 		.word	pd
 1183              		.cfi_endproc
 1184              	.LFE27:
 1186              		.section	.text.send_sink_cap,"ax",%progbits
 1187              		.align	1
 1188              		.syntax unified
 1189              		.code	16
 1190              		.thumb_func
 1191              		.fpu softvfp
 1193              	send_sink_cap:
 1194              	.LFB31:
 791:Src/usb_pd_protocol.c **** 	int bit_len;
 1195              		.loc 1 791 0
 1196              		.cfi_startproc
 1197              		@ args = 0, pretend = 0, frame = 0
ARM GAS  /tmp/ccWvVg6G.s 			page 61


 1198              		@ frame_needed = 0, uses_anonymous_args = 0
 1199              	.LVL104:
 1200 0000 70B5     		push	{r4, r5, r6, lr}
 1201              	.LCFI12:
 1202              		.cfi_def_cfa_offset 16
 1203              		.cfi_offset 4, -16
 1204              		.cfi_offset 5, -12
 1205              		.cfi_offset 6, -8
 1206              		.cfi_offset 14, -4
 793:Src/usb_pd_protocol.c **** 			pd[port].data_role, pd[port].msg_id, pd_snk_pdo_cnt,
 1207              		.loc 1 793 0
 1208 0002 0D4B     		ldr	r3, .L112
 1209 0004 C401     		lsls	r4, r0, #7
 1210 0006 1919     		adds	r1, r3, r4
 1211 0008 4A78     		ldrb	r2, [r1, #1]
 1212 000a 5201     		lsls	r2, r2, #5
 1213 000c 4425     		movs	r5, #68
 1214 000e 2A43     		orrs	r2, r5
 1215 0010 E35C     		ldrb	r3, [r4, r3]
 1216 0012 1B02     		lsls	r3, r3, #8
 1217 0014 1A43     		orrs	r2, r3
 1218 0016 12B2     		sxth	r2, r2
 1219 0018 8B78     		ldrb	r3, [r1, #2]
 1220 001a 5B02     		lsls	r3, r3, #9
 1221 001c 1A43     		orrs	r2, r3
 1222 001e 12B2     		sxth	r2, r2
 1223 0020 064B     		ldr	r3, .L112+4
 1224 0022 1B68     		ldr	r3, [r3]
 1225 0024 1B03     		lsls	r3, r3, #12
 1226 0026 1A43     		orrs	r2, r3
 1227 0028 12B2     		sxth	r2, r2
 1228 002a 92B2     		uxth	r2, r2
 1229              	.LVL105:
 797:Src/usb_pd_protocol.c **** 	if (debug_level >= 2)
 1230              		.loc 1 797 0
 1231 002c 044B     		ldr	r3, .L112+8
 1232 002e 0021     		movs	r1, #0
 1233 0030 FFF7FEFF 		bl	pd_transmit
 1234              	.LVL106:
 800:Src/usb_pd_protocol.c **** 
 1235              		.loc 1 800 0
 1236              		@ sp needed
 1237 0034 70BD     		pop	{r4, r5, r6, pc}
 1238              	.L113:
 1239 0036 C046     		.align	2
 1240              	.L112:
 1241 0038 00000000 		.word	pd
 1242 003c 00000000 		.word	pd_snk_pdo_cnt
 1243 0040 00000000 		.word	pd_snk_pdo
 1244              		.cfi_endproc
 1245              	.LFE31:
 1247              		.section	.text.send_source_cap,"ax",%progbits
 1248              		.align	1
 1249              		.syntax unified
 1250              		.code	16
 1251              		.thumb_func
 1252              		.fpu softvfp
ARM GAS  /tmp/ccWvVg6G.s 			page 62


 1254              	send_source_cap:
 1255              	.LFB30:
 605:Src/usb_pd_protocol.c **** 	int bit_len;
 1256              		.loc 1 605 0
 1257              		.cfi_startproc
 1258              		@ args = 0, pretend = 0, frame = 0
 1259              		@ frame_needed = 0, uses_anonymous_args = 0
 1260              	.LVL107:
 1261 0000 70B5     		push	{r4, r5, r6, lr}
 1262              	.LCFI13:
 1263              		.cfi_def_cfa_offset 16
 1264              		.cfi_offset 4, -16
 1265              		.cfi_offset 5, -12
 1266              		.cfi_offset 6, -8
 1267              		.cfi_offset 14, -4
 1268              	.LVL108:
 613:Src/usb_pd_protocol.c **** #endif
 1269              		.loc 1 613 0
 1270 0002 164B     		ldr	r3, .L118
 1271 0004 1968     		ldr	r1, [r3]
 1272              	.LVL109:
 617:Src/usb_pd_protocol.c **** 		/* No source capabilities defined, sink only */
 1273              		.loc 1 617 0
 1274 0006 0029     		cmp	r1, #0
 1275 0008 17D0     		beq	.L117
 623:Src/usb_pd_protocol.c **** 			pd[port].data_role, pd[port].msg_id, src_pdo_cnt,
 1276              		.loc 1 623 0
 1277 000a 154D     		ldr	r5, .L118+4
 1278 000c C601     		lsls	r6, r0, #7
 1279 000e AC19     		adds	r4, r5, r6
 1280 0010 6378     		ldrb	r3, [r4, #1]
 1281 0012 5B01     		lsls	r3, r3, #5
 1282 0014 4122     		movs	r2, #65
 1283 0016 1343     		orrs	r3, r2
 1284 0018 725D     		ldrb	r2, [r6, r5]
 1285 001a 1202     		lsls	r2, r2, #8
 1286 001c 1343     		orrs	r3, r2
 1287 001e 1BB2     		sxth	r3, r3
 1288 0020 A278     		ldrb	r2, [r4, #2]
 1289 0022 5202     		lsls	r2, r2, #9
 1290 0024 1A43     		orrs	r2, r3
 1291 0026 12B2     		sxth	r2, r2
 1292 0028 0903     		lsls	r1, r1, #12
 1293              	.LVL110:
 1294 002a 0A43     		orrs	r2, r1
 1295 002c 12B2     		sxth	r2, r2
 1296 002e 92B2     		uxth	r2, r2
 1297              	.LVL111:
 1298              	.L116:
 627:Src/usb_pd_protocol.c **** 	if (debug_level >= 2)
 1299              		.loc 1 627 0
 1300 0030 0C4B     		ldr	r3, .L118+8
 1301 0032 0021     		movs	r1, #0
 1302 0034 FFF7FEFF 		bl	pd_transmit
 1303              	.LVL112:
 632:Src/usb_pd_protocol.c **** 
 1304              		.loc 1 632 0
ARM GAS  /tmp/ccWvVg6G.s 			page 63


 1305              		@ sp needed
 1306 0038 70BD     		pop	{r4, r5, r6, pc}
 1307              	.LVL113:
 1308              	.L117:
 619:Src/usb_pd_protocol.c **** 			pd[port].data_role, pd[port].msg_id, 0,
 1309              		.loc 1 619 0
 1310 003a 094B     		ldr	r3, .L118+4
 1311 003c C401     		lsls	r4, r0, #7
 1312 003e 1919     		adds	r1, r3, r4
 1313              	.LVL114:
 1314 0040 4A78     		ldrb	r2, [r1, #1]
 1315 0042 5201     		lsls	r2, r2, #5
 1316 0044 4425     		movs	r5, #68
 1317 0046 2A43     		orrs	r2, r5
 1318 0048 E35C     		ldrb	r3, [r4, r3]
 1319 004a 1B02     		lsls	r3, r3, #8
 1320 004c 1A43     		orrs	r2, r3
 1321 004e 12B2     		sxth	r2, r2
 1322 0050 8B78     		ldrb	r3, [r1, #2]
 1323 0052 5B02     		lsls	r3, r3, #9
 1324 0054 1A43     		orrs	r2, r3
 1325 0056 12B2     		sxth	r2, r2
 1326 0058 92B2     		uxth	r2, r2
 1327              	.LVL115:
 1328 005a E9E7     		b	.L116
 1329              	.L119:
 1330              		.align	2
 1331              	.L118:
 1332 005c 00000000 		.word	pd_src_pdo_cnt
 1333 0060 00000000 		.word	pd
 1334 0064 00000000 		.word	pd_src_pdo
 1335              		.cfi_endproc
 1336              	.LFE30:
 1338              		.section	.text.send_request,"ax",%progbits
 1339              		.align	1
 1340              		.syntax unified
 1341              		.code	16
 1342              		.thumb_func
 1343              		.fpu softvfp
 1345              	send_request:
 1346              	.LFB32:
 803:Src/usb_pd_protocol.c **** 	int bit_len;
 1347              		.loc 1 803 0
 1348              		.cfi_startproc
 1349              		@ args = 0, pretend = 0, frame = 8
 1350              		@ frame_needed = 0, uses_anonymous_args = 0
 1351              	.LVL116:
 1352 0000 30B5     		push	{r4, r5, lr}
 1353              	.LCFI14:
 1354              		.cfi_def_cfa_offset 12
 1355              		.cfi_offset 4, -12
 1356              		.cfi_offset 5, -8
 1357              		.cfi_offset 14, -4
 1358 0002 83B0     		sub	sp, sp, #12
 1359              	.LCFI15:
 1360              		.cfi_def_cfa_offset 24
 1361 0004 0191     		str	r1, [sp, #4]
ARM GAS  /tmp/ccWvVg6G.s 			page 64


 805:Src/usb_pd_protocol.c **** 			pd[port].data_role, pd[port].msg_id, 1,
 1362              		.loc 1 805 0
 1363 0006 0C4B     		ldr	r3, .L121
 1364 0008 C401     		lsls	r4, r0, #7
 1365 000a 1919     		adds	r1, r3, r4
 1366              	.LVL117:
 1367 000c 4A78     		ldrb	r2, [r1, #1]
 1368 000e 5201     		lsls	r2, r2, #5
 1369 0010 4225     		movs	r5, #66
 1370 0012 2A43     		orrs	r2, r5
 1371 0014 E35C     		ldrb	r3, [r4, r3]
 1372 0016 1B02     		lsls	r3, r3, #8
 1373 0018 1A43     		orrs	r2, r3
 1374 001a 12B2     		sxth	r2, r2
 1375 001c 8B78     		ldrb	r3, [r1, #2]
 1376 001e 5B02     		lsls	r3, r3, #9
 1377 0020 1A43     		orrs	r2, r3
 1378 0022 12B2     		sxth	r2, r2
 1379 0024 8023     		movs	r3, #128
 1380 0026 5B01     		lsls	r3, r3, #5
 1381 0028 1A43     		orrs	r2, r3
 1382 002a 92B2     		uxth	r2, r2
 1383              	.LVL118:
 809:Src/usb_pd_protocol.c **** 	if (debug_level >= 2)
 1384              		.loc 1 809 0
 1385 002c 01AB     		add	r3, sp, #4
 1386              	.LVL119:
 1387 002e 0021     		movs	r1, #0
 1388 0030 FFF7FEFF 		bl	pd_transmit
 1389              	.LVL120:
 814:Src/usb_pd_protocol.c **** #ifdef CONFIG_BBRAM
 1390              		.loc 1 814 0
 1391 0034 03B0     		add	sp, sp, #12
 1392              		@ sp needed
 1393 0036 30BD     		pop	{r4, r5, pc}
 1394              	.L122:
 1395              		.align	2
 1396              	.L121:
 1397 0038 00000000 		.word	pd
 1398              		.cfi_endproc
 1399              	.LFE32:
 1401              		.section	.text.pd_send_request_msg,"ax",%progbits
 1402              		.align	1
 1403              		.syntax unified
 1404              		.code	16
 1405              		.thumb_func
 1406              		.fpu softvfp
 1408              	pd_send_request_msg:
 1409              	.LFB38:
 976:Src/usb_pd_protocol.c **** 	uint32_t rdo, curr_limit, supply_voltage;
 1410              		.loc 1 976 0
 1411              		.cfi_startproc
 1412              		@ args = 0, pretend = 0, frame = 16
 1413              		@ frame_needed = 0, uses_anonymous_args = 0
 1414              	.LVL121:
 1415 0000 70B5     		push	{r4, r5, r6, lr}
 1416              	.LCFI16:
ARM GAS  /tmp/ccWvVg6G.s 			page 65


 1417              		.cfi_def_cfa_offset 16
 1418              		.cfi_offset 4, -16
 1419              		.cfi_offset 5, -12
 1420              		.cfi_offset 6, -8
 1421              		.cfi_offset 14, -4
 1422 0002 86B0     		sub	sp, sp, #24
 1423              	.LCFI17:
 1424              		.cfi_def_cfa_offset 40
 1425 0004 0400     		movs	r4, r0
 1426 0006 0E00     		movs	r6, r1
 1427              	.LVL122:
 994:Src/usb_pd_protocol.c **** 
 1428              		.loc 1 994 0
 1429 0008 C201     		lsls	r2, r0, #7
 1430 000a 1B4B     		ldr	r3, .L128
 1431 000c 9B18     		adds	r3, r3, r2
 1432 000e 0022     		movs	r2, #0
 1433 0010 9A63     		str	r2, [r3, #56]
1001:Src/usb_pd_protocol.c **** 			       charging && max_request_allowed ?
 1434              		.loc 1 1001 0
 1435 0012 0123     		movs	r3, #1
 1436 0014 0093     		str	r3, [sp]
 1437 0016 03AB     		add	r3, sp, #12
 1438 0018 04AA     		add	r2, sp, #16
 1439 001a 05A9     		add	r1, sp, #20
 1440              	.LVL123:
 1441 001c FFF7FEFF 		bl	pd_build_request
 1442              	.LVL124:
 1443 0020 051E     		subs	r5, r0, #0
 1444              	.LVL125:
1005:Src/usb_pd_protocol.c **** 		/*
 1445              		.loc 1 1005 0
 1446 0022 24D1     		bne	.L126
1012:Src/usb_pd_protocol.c **** 		/* Don't re-request the same voltage */
 1447              		.loc 1 1012 0
 1448 0024 002E     		cmp	r6, #0
 1449 0026 06D1     		bne	.L125
1014:Src/usb_pd_protocol.c **** 			return EC_SUCCESS;
 1450              		.loc 1 1014 0
 1451 0028 E201     		lsls	r2, r4, #7
 1452 002a 134B     		ldr	r3, .L128
 1453 002c 9B18     		adds	r3, r3, r2
 1454 002e DB6B     		ldr	r3, [r3, #60]
 1455 0030 039A     		ldr	r2, [sp, #12]
 1456 0032 9342     		cmp	r3, r2
 1457 0034 1ED0     		beq	.L127
 1458              	.L125:
1029:Src/usb_pd_protocol.c **** 	pd[port].supply_voltage = supply_voltage;
 1459              		.loc 1 1029 0
 1460 0036 E201     		lsls	r2, r4, #7
 1461 0038 0F4B     		ldr	r3, .L128
 1462 003a 9B18     		adds	r3, r3, r2
 1463 003c 049A     		ldr	r2, [sp, #16]
 1464 003e 1A63     		str	r2, [r3, #48]
1030:Src/usb_pd_protocol.c **** 	pd[port].prev_request_mv = supply_voltage;
 1465              		.loc 1 1030 0
 1466 0040 039A     		ldr	r2, [sp, #12]
ARM GAS  /tmp/ccWvVg6G.s 			page 66


 1467 0042 5A63     		str	r2, [r3, #52]
1031:Src/usb_pd_protocol.c **** 	res = send_request(port, rdo);
 1468              		.loc 1 1031 0
 1469 0044 DA63     		str	r2, [r3, #60]
1032:Src/usb_pd_protocol.c **** 	if (res < 0)
 1470              		.loc 1 1032 0
 1471 0046 0599     		ldr	r1, [sp, #20]
 1472 0048 2000     		movs	r0, r4
 1473              	.LVL126:
 1474 004a FFF7FEFF 		bl	send_request
 1475              	.LVL127:
1033:Src/usb_pd_protocol.c **** 		return res;
 1476              		.loc 1 1033 0
 1477 004e 0028     		cmp	r0, #0
 1478 0050 0BDB     		blt	.L123
 1479              	.LVL128:
 1480              	.LBB184:
 1481              	.LBB185:
 1482              	.LBB186:
 1483              	.LBB187:
 283:Src/usb_pd_protocol.c **** 	pd[port].timeout_state = timeout_state;
 1484              		.loc 1 283 0
 1485 0052 E401     		lsls	r4, r4, #7
 1486              	.LVL129:
 1487 0054 084B     		ldr	r3, .L128
 1488 0056 1C19     		adds	r4, r3, r4
 1489 0058 0022     		movs	r2, #0
 1490 005a 0023     		movs	r3, #0
 1491 005c 2261     		str	r2, [r4, #16]
 1492 005e 6361     		str	r3, [r4, #20]
 284:Src/usb_pd_protocol.c **** }
 1493              		.loc 1 284 0
 1494 0060 0023     		movs	r3, #0
 1495 0062 E371     		strb	r3, [r4, #7]
 1496              	.LVL130:
 1497              	.LBE187:
 1498              	.LBE186:
 352:Src/usb_pd_protocol.c **** 
 1499              		.loc 1 352 0
 1500 0064 0633     		adds	r3, r3, #6
 1501 0066 2371     		strb	r3, [r4, #4]
 1502              	.LVL131:
 1503              	.LBE185:
 1504              	.LBE184:
1036:Src/usb_pd_protocol.c **** }
 1505              		.loc 1 1036 0
 1506 0068 2800     		movs	r0, r5
 1507              	.LVL132:
 1508              	.L123:
1037:Src/usb_pd_protocol.c **** #endif
 1509              		.loc 1 1037 0
 1510 006a 06B0     		add	sp, sp, #24
 1511              		@ sp needed
 1512              	.LVL133:
 1513 006c 70BD     		pop	{r4, r5, r6, pc}
 1514              	.LVL134:
 1515              	.L126:
ARM GAS  /tmp/ccWvVg6G.s 			page 67


1010:Src/usb_pd_protocol.c **** 
 1516              		.loc 1 1010 0
 1517 006e 0120     		movs	r0, #1
 1518              	.LVL135:
 1519 0070 4042     		rsbs	r0, r0, #0
 1520 0072 FAE7     		b	.L123
 1521              	.LVL136:
 1522              	.L127:
1015:Src/usb_pd_protocol.c **** #ifdef CONFIG_CHARGE_MANAGER
 1523              		.loc 1 1015 0
 1524 0074 3000     		movs	r0, r6
 1525              	.LVL137:
 1526 0076 F8E7     		b	.L123
 1527              	.L129:
 1528              		.align	2
 1529              	.L128:
 1530 0078 00000000 		.word	pd
 1531              		.cfi_endproc
 1532              	.LFE38:
 1534              		.section	.text.send_control,"ax",%progbits
 1535              		.align	1
 1536              		.syntax unified
 1537              		.code	16
 1538              		.thumb_func
 1539              		.fpu softvfp
 1541              	send_control:
 1542              	.LFB29:
 591:Src/usb_pd_protocol.c **** 	int bit_len;
 1543              		.loc 1 591 0
 1544              		.cfi_startproc
 1545              		@ args = 0, pretend = 0, frame = 0
 1546              		@ frame_needed = 0, uses_anonymous_args = 0
 1547              	.LVL138:
 1548 0000 70B5     		push	{r4, r5, r6, lr}
 1549              	.LCFI18:
 1550              		.cfi_def_cfa_offset 16
 1551              		.cfi_offset 4, -16
 1552              		.cfi_offset 5, -12
 1553              		.cfi_offset 6, -8
 1554              		.cfi_offset 14, -4
 593:Src/usb_pd_protocol.c **** 				pd[port].data_role, pd[port].msg_id, 0,
 1555              		.loc 1 593 0
 1556 0002 4022     		movs	r2, #64
 1557 0004 0A43     		orrs	r2, r1
 1558 0006 12B2     		sxth	r2, r2
 1559 0008 094C     		ldr	r4, .L131
 1560 000a C501     		lsls	r5, r0, #7
 1561 000c 6319     		adds	r3, r4, r5
 1562 000e 5978     		ldrb	r1, [r3, #1]
 1563              	.LVL139:
 1564 0010 4901     		lsls	r1, r1, #5
 1565 0012 0A43     		orrs	r2, r1
 1566 0014 295D     		ldrb	r1, [r5, r4]
 1567 0016 0902     		lsls	r1, r1, #8
 1568 0018 0A43     		orrs	r2, r1
 1569 001a 12B2     		sxth	r2, r2
 1570 001c 9B78     		ldrb	r3, [r3, #2]
ARM GAS  /tmp/ccWvVg6G.s 			page 68


 1571 001e 5B02     		lsls	r3, r3, #9
 1572 0020 1A43     		orrs	r2, r3
 1573 0022 92B2     		uxth	r2, r2
 1574              	.LVL140:
 597:Src/usb_pd_protocol.c **** 	if (debug_level >= 2)
 1575              		.loc 1 597 0
 1576 0024 0023     		movs	r3, #0
 1577 0026 0021     		movs	r1, #0
 1578 0028 FFF7FEFF 		bl	pd_transmit
 1579              	.LVL141:
 602:Src/usb_pd_protocol.c **** 
 1580              		.loc 1 602 0
 1581              		@ sp needed
 1582 002c 70BD     		pop	{r4, r5, r6, pc}
 1583              	.L132:
 1584 002e C046     		.align	2
 1585              	.L131:
 1586 0030 00000000 		.word	pd
 1587              		.cfi_endproc
 1588              	.LFE29:
 1590              		.section	.text.handle_ctrl_request,"ax",%progbits
 1591              		.align	1
 1592              		.syntax unified
 1593              		.code	16
 1594              		.thumb_func
 1595              		.fpu softvfp
 1597              	handle_ctrl_request:
 1598              	.LFB45:
1292:Src/usb_pd_protocol.c **** 	int type = PD_HEADER_TYPE(head);
 1599              		.loc 1 1292 0
 1600              		.cfi_startproc
 1601              		@ args = 0, pretend = 0, frame = 8
 1602              		@ frame_needed = 0, uses_anonymous_args = 0
 1603              	.LVL142:
 1604 0000 70B5     		push	{r4, r5, r6, lr}
 1605              	.LCFI19:
 1606              		.cfi_def_cfa_offset 16
 1607              		.cfi_offset 4, -16
 1608              		.cfi_offset 5, -12
 1609              		.cfi_offset 6, -8
 1610              		.cfi_offset 14, -4
 1611 0002 82B0     		sub	sp, sp, #8
 1612              	.LCFI20:
 1613              		.cfi_def_cfa_offset 24
 1614 0004 0400     		movs	r4, r0
 1615 0006 0F23     		movs	r3, #15
 1616 0008 1940     		ands	r1, r3
 1617              	.LVL143:
1296:Src/usb_pd_protocol.c **** 	case PD_CTRL_GOOD_CRC:
 1618              		.loc 1 1296 0
 1619 000a CB1E     		subs	r3, r1, #3
 1620 000c 9AB2     		uxth	r2, r3
 1621              	.LVL144:
 1622 000e 0A2A     		cmp	r2, #10
 1623 0010 1AD8     		bhi	.L133
 1624 0012 9300     		lsls	r3, r2, #2
 1625 0014 C24A     		ldr	r2, .L200
ARM GAS  /tmp/ccWvVg6G.s 			page 69


 1626 0016 D358     		ldr	r3, [r2, r3]
 1627 0018 9F46     		mov	pc, r3
 1628              		.section	.rodata.handle_ctrl_request,"a",%progbits
 1629              		.align	2
 1630              	.L136:
 1631 0000 06020000 		.word	.L135
 1632 0004 DE000000 		.word	.L137
 1633 0008 48000000 		.word	.L133
 1634 000c 4C000000 		.word	.L138
 1635 0010 1A000000 		.word	.L139
 1636 0014 44000000 		.word	.L140
 1637 0018 CC030000 		.word	.L141
 1638 001c 30030000 		.word	.L142
 1639 0020 0A040000 		.word	.L143
 1640 0024 DE000000 		.word	.L137
 1641 0028 12030000 		.word	.L144
 1642              		.section	.text.handle_ctrl_request
 1643              	.L139:
1304:Src/usb_pd_protocol.c **** 		if ((res >= 0) &&
 1644              		.loc 1 1304 0
 1645 001a FFF7FEFF 		bl	send_source_cap
 1646              	.LVL145:
1305:Src/usb_pd_protocol.c **** 		    (pd[port].task_state == PD_STATE_SRC_DISCOVERY))
 1647              		.loc 1 1305 0
 1648 001e 0028     		cmp	r0, #0
 1649 0020 12DB     		blt	.L133
1306:Src/usb_pd_protocol.c **** 			set_state(port, PD_STATE_SRC_NEGOCIATE);
 1650              		.loc 1 1306 0 discriminator 1
 1651 0022 E201     		lsls	r2, r4, #7
 1652 0024 BF4B     		ldr	r3, .L200+4
 1653 0026 9B18     		adds	r3, r3, r2
 1654 0028 1B79     		ldrb	r3, [r3, #4]
1305:Src/usb_pd_protocol.c **** 		    (pd[port].task_state == PD_STATE_SRC_DISCOVERY))
 1655              		.loc 1 1305 0 discriminator 1
 1656 002a 122B     		cmp	r3, #18
 1657 002c 0CD1     		bne	.L133
 1658              	.LVL146:
 1659              	.LBB280:
 1660              	.LBB281:
 1661              	.LBB282:
 1662              	.LBB283:
 283:Src/usb_pd_protocol.c **** 	pd[port].timeout_state = timeout_state;
 1663              		.loc 1 283 0
 1664 002e BD4B     		ldr	r3, .L200+4
 1665 0030 9C18     		adds	r4, r3, r2
 1666              	.LVL147:
 1667 0032 0022     		movs	r2, #0
 1668 0034 0023     		movs	r3, #0
 1669 0036 2261     		str	r2, [r4, #16]
 1670 0038 6361     		str	r3, [r4, #20]
 284:Src/usb_pd_protocol.c **** }
 1671              		.loc 1 284 0
 1672 003a 0023     		movs	r3, #0
 1673 003c E371     		strb	r3, [r4, #7]
 1674              	.LVL148:
 1675              	.LBE283:
 1676              	.LBE282:
ARM GAS  /tmp/ccWvVg6G.s 			page 70


 352:Src/usb_pd_protocol.c **** 
 1677              		.loc 1 352 0
 1678 003e 1333     		adds	r3, r3, #19
 1679 0040 2371     		strb	r3, [r4, #4]
 1680 0042 01E0     		b	.L133
 1681              	.LVL149:
 1682              	.L140:
 1683              	.LBE281:
 1684              	.LBE280:
1311:Src/usb_pd_protocol.c **** #else
 1685              		.loc 1 1311 0
 1686 0044 FFF7FEFF 		bl	send_sink_cap
 1687              	.LVL150:
 1688              	.L133:
1530:Src/usb_pd_protocol.c **** 
 1689              		.loc 1 1530 0
 1690 0048 02B0     		add	sp, sp, #8
 1691              		@ sp needed
 1692 004a 70BD     		pop	{r4, r5, r6, pc}
 1693              	.LVL151:
 1694              	.L138:
1335:Src/usb_pd_protocol.c **** 			set_state(port, PD_STATE_SNK_SWAP_STANDBY);
 1695              		.loc 1 1335 0
 1696 004c C201     		lsls	r2, r0, #7
 1697 004e B54B     		ldr	r3, .L200+4
 1698 0050 9B18     		adds	r3, r3, r2
 1699 0052 1B79     		ldrb	r3, [r3, #4]
 1700 0054 0B2B     		cmp	r3, #11
 1701 0056 1BD0     		beq	.L177
1337:Src/usb_pd_protocol.c **** 			/* reset message ID and swap roles */
 1702              		.loc 1 1337 0
 1703 0058 1D2B     		cmp	r3, #29
 1704 005a 24D0     		beq	.L178
1352:Src/usb_pd_protocol.c **** 			/* Don't know what power source is ready. Reset. */
 1705              		.loc 1 1352 0
 1706 005c 052B     		cmp	r3, #5
 1707 005e 32D0     		beq	.L179
1355:Src/usb_pd_protocol.c **** 			/* Do nothing, assume this is a redundant PD_RDY */
 1708              		.loc 1 1355 0
 1709 0060 0C2B     		cmp	r3, #12
 1710 0062 F1D0     		beq	.L133
1357:Src/usb_pd_protocol.c **** 			set_state(port, PD_STATE_SNK_READY);
 1711              		.loc 1 1357 0
 1712 0064 C301     		lsls	r3, r0, #7
 1713 0066 AF4A     		ldr	r2, .L200+4
 1714 0068 9B5C     		ldrb	r3, [r3, r2]
 1715 006a 002B     		cmp	r3, #0
 1716 006c ECD1     		bne	.L133
 1717              	.LVL152:
 1718              	.LBB284:
 1719              	.LBB285:
 1720              	.LBB286:
 1721              	.LBB287:
 283:Src/usb_pd_protocol.c **** 	pd[port].timeout_state = timeout_state;
 1722              		.loc 1 283 0
 1723 006e C201     		lsls	r2, r0, #7
 1724 0070 AC4B     		ldr	r3, .L200+4
ARM GAS  /tmp/ccWvVg6G.s 			page 71


 1725 0072 9B18     		adds	r3, r3, r2
 1726 0074 0020     		movs	r0, #0
 1727              	.LVL153:
 1728 0076 0021     		movs	r1, #0
 1729              	.LVL154:
 1730 0078 1861     		str	r0, [r3, #16]
 1731 007a 5961     		str	r1, [r3, #20]
 284:Src/usb_pd_protocol.c **** }
 1732              		.loc 1 284 0
 1733 007c 0022     		movs	r2, #0
 1734 007e DA71     		strb	r2, [r3, #7]
 1735              	.LVL155:
 1736              	.LBE287:
 1737              	.LBE286:
 352:Src/usb_pd_protocol.c **** 
 1738              		.loc 1 352 0
 1739 0080 0832     		adds	r2, r2, #8
 1740 0082 1A71     		strb	r2, [r3, #4]
 1741              	.LVL156:
 1742              	.LBE285:
 1743              	.LBE284:
1359:Src/usb_pd_protocol.c **** 						   pd[port].supply_voltage);
 1744              		.loc 1 1359 0
 1745 0084 5A6B     		ldr	r2, [r3, #52]
 1746 0086 196B     		ldr	r1, [r3, #48]
 1747 0088 2000     		movs	r0, r4
 1748 008a FFF7FEFF 		bl	pd_set_input_current_limit
 1749              	.LVL157:
 1750 008e DBE7     		b	.L133
 1751              	.LVL158:
 1752              	.L177:
 1753              	.LBB288:
 1754              	.LBB289:
 1755              	.LBB290:
 1756              	.LBB291:
 283:Src/usb_pd_protocol.c **** 	pd[port].timeout_state = timeout_state;
 1757              		.loc 1 283 0
 1758 0090 A44B     		ldr	r3, .L200+4
 1759 0092 9C18     		adds	r4, r3, r2
 1760 0094 0022     		movs	r2, #0
 1761 0096 0023     		movs	r3, #0
 1762 0098 2261     		str	r2, [r4, #16]
 1763 009a 6361     		str	r3, [r4, #20]
 284:Src/usb_pd_protocol.c **** }
 1764              		.loc 1 284 0
 1765 009c 0023     		movs	r3, #0
 1766 009e E371     		strb	r3, [r4, #7]
 1767              	.LVL159:
 1768              	.LBE291:
 1769              	.LBE290:
 352:Src/usb_pd_protocol.c **** 
 1770              		.loc 1 352 0
 1771 00a0 0C33     		adds	r3, r3, #12
 1772 00a2 2371     		strb	r3, [r4, #4]
 1773 00a4 D0E7     		b	.L133
 1774              	.LVL160:
 1775              	.L178:
ARM GAS  /tmp/ccWvVg6G.s 			page 72


 1776              	.LBE289:
 1777              	.LBE288:
1339:Src/usb_pd_protocol.c **** 			pd[port].power_role = PD_ROLE_SINK;
 1778              		.loc 1 1339 0
 1779 00a6 9F4B     		ldr	r3, .L200+4
 1780 00a8 C201     		lsls	r2, r0, #7
 1781 00aa 9D18     		adds	r5, r3, r2
 1782 00ac 0026     		movs	r6, #0
 1783 00ae AE70     		strb	r6, [r5, #2]
1340:Src/usb_pd_protocol.c **** 			pd_update_roles(port);
 1784              		.loc 1 1340 0
 1785 00b0 D654     		strb	r6, [r2, r3]
1341:Src/usb_pd_protocol.c **** 			set_state(port, PD_STATE_SNK_DISCOVERY);
 1786              		.loc 1 1341 0
 1787 00b2 FFF7FEFF 		bl	pd_update_roles
 1788              	.LVL161:
 1789              	.LBB292:
 1790              	.LBB293:
 1791              	.LBB294:
 1792              	.LBB295:
 283:Src/usb_pd_protocol.c **** 	pd[port].timeout_state = timeout_state;
 1793              		.loc 1 283 0
 1794 00b6 0022     		movs	r2, #0
 1795 00b8 0023     		movs	r3, #0
 1796 00ba 2A61     		str	r2, [r5, #16]
 1797 00bc 6B61     		str	r3, [r5, #20]
 284:Src/usb_pd_protocol.c **** }
 1798              		.loc 1 284 0
 1799 00be EE71     		strb	r6, [r5, #7]
 1800              	.LVL162:
 1801              	.LBE295:
 1802              	.LBE294:
 352:Src/usb_pd_protocol.c **** 
 1803              		.loc 1 352 0
 1804 00c0 0523     		movs	r3, #5
 1805 00c2 2B71     		strb	r3, [r5, #4]
 1806 00c4 C0E7     		b	.L133
 1807              	.LVL163:
 1808              	.L179:
 1809              	.LBE293:
 1810              	.LBE292:
 1811              	.LBB296:
 1812              	.LBB297:
 1813              	.LBB298:
 1814              	.LBB299:
 283:Src/usb_pd_protocol.c **** 	pd[port].timeout_state = timeout_state;
 1815              		.loc 1 283 0
 1816 00c6 C401     		lsls	r4, r0, #7
 1817 00c8 964B     		ldr	r3, .L200+4
 1818 00ca 1C19     		adds	r4, r3, r4
 1819 00cc 0022     		movs	r2, #0
 1820 00ce 0023     		movs	r3, #0
 1821 00d0 2261     		str	r2, [r4, #16]
 1822 00d2 6361     		str	r3, [r4, #20]
 284:Src/usb_pd_protocol.c **** }
 1823              		.loc 1 284 0
 1824 00d4 0023     		movs	r3, #0
ARM GAS  /tmp/ccWvVg6G.s 			page 73


 1825 00d6 E371     		strb	r3, [r4, #7]
 1826              	.LVL164:
 1827              	.LBE299:
 1828              	.LBE298:
 352:Src/usb_pd_protocol.c **** 
 1829              		.loc 1 352 0
 1830 00d8 1F33     		adds	r3, r3, #31
 1831 00da 2371     		strb	r3, [r4, #4]
 1832              	.LVL165:
 1833 00dc B4E7     		b	.L133
 1834              	.LVL166:
 1835              	.L137:
 1836              	.LBE297:
 1837              	.LBE296:
1372:Src/usb_pd_protocol.c **** 			set_state(port, READY_RETURN_STATE(port));
 1838              		.loc 1 1372 0
 1839 00de C201     		lsls	r2, r0, #7
 1840 00e0 904B     		ldr	r3, .L200+4
 1841 00e2 9B18     		adds	r3, r3, r2
 1842 00e4 1B79     		ldrb	r3, [r3, #4]
 1843 00e6 192B     		cmp	r3, #25
 1844 00e8 19D0     		beq	.L180
1379:Src/usb_pd_protocol.c **** 			set_state(port, PD_STATE_SRC_READY);
 1845              		.loc 1 1379 0
 1846 00ea 1A2B     		cmp	r3, #26
 1847 00ec 53D0     		beq	.L181
1381:Src/usb_pd_protocol.c **** 			set_state(port, PD_STATE_SNK_READY);
 1848              		.loc 1 1381 0
 1849 00ee 092B     		cmp	r3, #9
 1850 00f0 5DD0     		beq	.L182
1383:Src/usb_pd_protocol.c **** 			/*
 1851              		.loc 1 1383 0
 1852 00f2 062B     		cmp	r3, #6
 1853 00f4 A8D1     		bne	.L133
1399:Src/usb_pd_protocol.c **** 				/* We have an explicit contract */
 1854              		.loc 1 1399 0
 1855 00f6 C201     		lsls	r2, r0, #7
 1856 00f8 8A4B     		ldr	r3, .L200+4
 1857 00fa 9B18     		adds	r3, r3, r2
 1858 00fc 9B68     		ldr	r3, [r3, #8]
 1859 00fe 5B06     		lsls	r3, r3, #25
 1860 0100 75D5     		bpl	.L156
1401:Src/usb_pd_protocol.c **** 					/*
 1861              		.loc 1 1401 0
 1862 0102 0C29     		cmp	r1, #12
 1863 0104 5FD0     		beq	.L183
 1864              	.LVL167:
 1865              	.LBB300:
 1866              	.LBB301:
 1867              	.LBB302:
 1868              	.LBB303:
 283:Src/usb_pd_protocol.c **** 	pd[port].timeout_state = timeout_state;
 1869              		.loc 1 283 0
 1870 0106 C401     		lsls	r4, r0, #7
 1871 0108 864B     		ldr	r3, .L200+4
 1872 010a 1C19     		adds	r4, r3, r4
 1873 010c 0022     		movs	r2, #0
ARM GAS  /tmp/ccWvVg6G.s 			page 74


 1874 010e 0023     		movs	r3, #0
 1875 0110 2261     		str	r2, [r4, #16]
 1876 0112 6361     		str	r3, [r4, #20]
 284:Src/usb_pd_protocol.c **** }
 1877              		.loc 1 284 0
 1878 0114 0023     		movs	r3, #0
 1879 0116 E371     		strb	r3, [r4, #7]
 1880              	.LVL168:
 1881              	.LBE303:
 1882              	.LBE302:
 352:Src/usb_pd_protocol.c **** 
 1883              		.loc 1 352 0
 1884 0118 0833     		adds	r3, r3, #8
 1885 011a 2371     		strb	r3, [r4, #4]
 1886              	.LVL169:
 1887 011c 94E7     		b	.L133
 1888              	.LVL170:
 1889              	.L180:
 1890              	.LBE301:
 1891              	.LBE300:
1373:Src/usb_pd_protocol.c **** #ifdef CONFIG_USBC_VCONN_SWAP
 1892              		.loc 1 1373 0
 1893 011e 1300     		movs	r3, r2
 1894 0120 804A     		ldr	r2, .L200+4
 1895 0122 9B5C     		ldrb	r3, [r3, r2]
 1896 0124 002B     		cmp	r3, #0
 1897 0126 2AD0     		beq	.L184
 1898 0128 1722     		movs	r2, #23
 1899              	.L149:
 1900              	.LVL171:
 1901              	.LBB304:
 1902              	.LBB305:
 346:Src/usb_pd_protocol.c **** #ifdef CONFIG_LOW_POWER_IDLE
 1903              		.loc 1 346 0 discriminator 4
 1904 012a E101     		lsls	r1, r4, #7
 1905              	.LVL172:
 1906 012c 7D4B     		ldr	r3, .L200+4
 1907 012e 5B18     		adds	r3, r3, r1
 1908 0130 1D79     		ldrb	r5, [r3, #4]
 1909              	.LVL173:
 1910              	.LBB306:
 1911              	.LBB307:
 283:Src/usb_pd_protocol.c **** 	pd[port].timeout_state = timeout_state;
 1912              		.loc 1 283 0 discriminator 4
 1913 0132 0020     		movs	r0, #0
 1914              	.LVL174:
 1915 0134 0021     		movs	r1, #0
 1916 0136 1861     		str	r0, [r3, #16]
 1917 0138 5961     		str	r1, [r3, #20]
 284:Src/usb_pd_protocol.c **** }
 1918              		.loc 1 284 0 discriminator 4
 1919 013a 0021     		movs	r1, #0
 1920 013c D971     		strb	r1, [r3, #7]
 1921              	.LVL175:
 1922              	.LBE307:
 1923              	.LBE306:
 352:Src/usb_pd_protocol.c **** 
ARM GAS  /tmp/ccWvVg6G.s 			page 75


 1924              		.loc 1 352 0 discriminator 4
 1925 013e 1A71     		strb	r2, [r3, #4]
 354:Src/usb_pd_protocol.c **** 		return;
 1926              		.loc 1 354 0 discriminator 4
 1927 0140 AA42     		cmp	r2, r5
 1928 0142 00D1     		bne	.LCB1973
 1929 0144 80E7     		b	.L133	@long jump
 1930              	.LCB1973:
 365:Src/usb_pd_protocol.c **** 	     next_state == PD_STATE_SRC_DISCONNECTED) ||
 1931              		.loc 1 365 0
 1932 0146 022D     		cmp	r5, #2
 1933 0148 1BD0     		beq	.L185
 1934              	.L150:
 366:Src/usb_pd_protocol.c **** 	    (last_state == PD_STATE_SRC_DISCONNECTED &&
 1935              		.loc 1 366 0
 1936 014a 0E2D     		cmp	r5, #14
 1937 014c 1CD0     		beq	.L186
 1938              	.L151:
 371:Src/usb_pd_protocol.c **** 	    next_state == PD_STATE_SNK_DISCONNECTED) {
 1939              		.loc 1 371 0
 1940 014e 0E2A     		cmp	r2, #14
 1941 0150 02D0     		beq	.L152
 1942 0152 022A     		cmp	r2, #2
 1943 0154 00D0     		beq	.LCB1984
 1944 0156 77E7     		b	.L133	@long jump
 1945              	.LCB1984:
 1946              	.L152:
 374:Src/usb_pd_protocol.c **** #ifdef CONFIG_CHARGE_MANAGER
 1947              		.loc 1 374 0
 1948 0158 0022     		movs	r2, #0
 1949              	.LVL176:
 1950 015a 0021     		movs	r1, #0
 1951 015c 2000     		movs	r0, r4
 1952 015e FFF7FEFF 		bl	pd_set_input_current_limit
 1953              	.LVL177:
 391:Src/usb_pd_protocol.c **** 			/*
 1954              		.loc 1 391 0
 1955 0162 E301     		lsls	r3, r4, #7
 1956 0164 6F4A     		ldr	r2, .L200+4
 1957 0166 9B5C     		ldrb	r3, [r3, r2]
 1958 0168 012B     		cmp	r3, #1
 1959 016a 10D0     		beq	.L187
 1960              	.L153:
 1961              	.LVL178:
 1962              	.LBB308:
 1963              	.LBB309:
  92:Inc/tcpm.h    **** }
 1964              		.loc 2 92 0
 1965 016c 2201     		lsls	r2, r4, #4
 1966 016e 6E4B     		ldr	r3, .L200+8
 1967 0170 9B18     		adds	r3, r3, r2
 1968 0172 9B68     		ldr	r3, [r3, #8]
 1969 0174 5B6A     		ldr	r3, [r3, #36]
 1970 0176 0021     		movs	r1, #0
 1971 0178 2000     		movs	r0, r4
 1972 017a 9847     		blx	r3
 1973              	.LVL179:
ARM GAS  /tmp/ccWvVg6G.s 			page 76


 1974 017c 64E7     		b	.L133
 1975              	.LVL180:
 1976              	.L184:
 1977              	.LBE309:
 1978              	.LBE308:
 1979              	.LBE305:
 1980              	.LBE304:
1373:Src/usb_pd_protocol.c **** #ifdef CONFIG_USBC_VCONN_SWAP
 1981              		.loc 1 1373 0
 1982 017e 0822     		movs	r2, #8
 1983 0180 D3E7     		b	.L149
 1984              	.LVL181:
 1985              	.L185:
 1986              	.LBB311:
 1987              	.LBB310:
 365:Src/usb_pd_protocol.c **** 	     next_state == PD_STATE_SRC_DISCONNECTED) ||
 1988              		.loc 1 365 0
 1989 0182 0E2A     		cmp	r2, #14
 1990 0184 E1D1     		bne	.L150
 1991 0186 5FE7     		b	.L133
 1992              	.L186:
 367:Src/usb_pd_protocol.c **** 	     next_state == PD_STATE_SNK_DISCONNECTED))
 1993              		.loc 1 367 0
 1994 0188 022A     		cmp	r2, #2
 1995 018a E0D1     		bne	.L151
 1996 018c 5CE7     		b	.L133
 1997              	.LVL182:
 1998              	.L187:
 396:Src/usb_pd_protocol.c **** #if !defined(CONFIG_USB_PD_MAX_SINGLE_SOURCE_CURRENT) && \
 1999              		.loc 1 396 0
 2000 018e 2000     		movs	r0, r4
 2001 0190 FFF7FEFF 		bl	pd_power_supply_reset
 2002              	.LVL183:
 2003 0194 EAE7     		b	.L153
 2004              	.LVL184:
 2005              	.L181:
 2006              	.LBE310:
 2007              	.LBE311:
 2008              	.LBB312:
 2009              	.LBB313:
 2010              	.LBB314:
 2011              	.LBB315:
 283:Src/usb_pd_protocol.c **** 	pd[port].timeout_state = timeout_state;
 2012              		.loc 1 283 0
 2013 0196 C401     		lsls	r4, r0, #7
 2014 0198 624B     		ldr	r3, .L200+4
 2015 019a 1C19     		adds	r4, r3, r4
 2016 019c 0022     		movs	r2, #0
 2017 019e 0023     		movs	r3, #0
 2018 01a0 2261     		str	r2, [r4, #16]
 2019 01a2 6361     		str	r3, [r4, #20]
 284:Src/usb_pd_protocol.c **** }
 2020              		.loc 1 284 0
 2021 01a4 0023     		movs	r3, #0
 2022 01a6 E371     		strb	r3, [r4, #7]
 2023              	.LVL185:
 2024              	.LBE315:
ARM GAS  /tmp/ccWvVg6G.s 			page 77


 2025              	.LBE314:
 352:Src/usb_pd_protocol.c **** 
 2026              		.loc 1 352 0
 2027 01a8 1733     		adds	r3, r3, #23
 2028 01aa 2371     		strb	r3, [r4, #4]
 2029              	.LVL186:
 2030 01ac 4CE7     		b	.L133
 2031              	.LVL187:
 2032              	.L182:
 2033              	.LBE313:
 2034              	.LBE312:
 2035              	.LBB316:
 2036              	.LBB317:
 2037              	.LBB318:
 2038              	.LBB319:
 283:Src/usb_pd_protocol.c **** 	pd[port].timeout_state = timeout_state;
 2039              		.loc 1 283 0
 2040 01ae C401     		lsls	r4, r0, #7
 2041 01b0 5C4B     		ldr	r3, .L200+4
 2042 01b2 1C19     		adds	r4, r3, r4
 2043 01b4 0022     		movs	r2, #0
 2044 01b6 0023     		movs	r3, #0
 2045 01b8 2261     		str	r2, [r4, #16]
 2046 01ba 6361     		str	r3, [r4, #20]
 284:Src/usb_pd_protocol.c **** }
 2047              		.loc 1 284 0
 2048 01bc 0023     		movs	r3, #0
 2049 01be E371     		strb	r3, [r4, #7]
 2050              	.LVL188:
 2051              	.LBE319:
 2052              	.LBE318:
 352:Src/usb_pd_protocol.c **** 
 2053              		.loc 1 352 0
 2054 01c0 0833     		adds	r3, r3, #8
 2055 01c2 2371     		strb	r3, [r4, #4]
 2056              	.LVL189:
 2057 01c4 40E7     		b	.L133
 2058              	.LVL190:
 2059              	.L183:
 2060              	.LBE317:
 2061              	.LBE316:
1406:Src/usb_pd_protocol.c **** 
 2062              		.loc 1 1406 0
 2063 01c6 574B     		ldr	r3, .L200+4
 2064 01c8 9C18     		adds	r4, r3, r2
 2065 01ca 0123     		movs	r3, #1
 2066 01cc A363     		str	r3, [r4, #56]
1412:Src/usb_pd_protocol.c **** 
 2067              		.loc 1 1412 0
 2068 01ce 0023     		movs	r3, #0
 2069 01d0 E363     		str	r3, [r4, #60]
1418:Src/usb_pd_protocol.c **** 							PD_T_SINK_REQUEST,
 2070              		.loc 1 1418 0
 2071 01d2 6846     		mov	r0, sp
 2072              	.LVL191:
 2073 01d4 FFF7FEFF 		bl	get_time
 2074              	.LVL192:
ARM GAS  /tmp/ccWvVg6G.s 			page 78


 2075 01d8 544A     		ldr	r2, .L200+12
 2076 01da 0023     		movs	r3, #0
 2077 01dc 0098     		ldr	r0, [sp]
 2078 01de 0199     		ldr	r1, [sp, #4]
 2079 01e0 1218     		adds	r2, r2, r0
 2080 01e2 4B41     		adcs	r3, r3, r1
 2081              	.LVL193:
 2082              	.LBB320:
 2083              	.LBB321:
 283:Src/usb_pd_protocol.c **** 	pd[port].timeout_state = timeout_state;
 2084              		.loc 1 283 0
 2085 01e4 2261     		str	r2, [r4, #16]
 2086 01e6 6361     		str	r3, [r4, #20]
 284:Src/usb_pd_protocol.c **** }
 2087              		.loc 1 284 0
 2088 01e8 0823     		movs	r3, #8
 2089 01ea E371     		strb	r3, [r4, #7]
 2090 01ec 2CE7     		b	.L133
 2091              	.LVL194:
 2092              	.L156:
 2093              	.LBE321:
 2094              	.LBE320:
 2095              	.LBB322:
 2096              	.LBB323:
 2097              	.LBB324:
 2098              	.LBB325:
 283:Src/usb_pd_protocol.c **** 	pd[port].timeout_state = timeout_state;
 2099              		.loc 1 283 0
 2100 01ee C401     		lsls	r4, r0, #7
 2101 01f0 4C4B     		ldr	r3, .L200+4
 2102 01f2 1C19     		adds	r4, r3, r4
 2103 01f4 0022     		movs	r2, #0
 2104 01f6 0023     		movs	r3, #0
 2105 01f8 2261     		str	r2, [r4, #16]
 2106 01fa 6361     		str	r3, [r4, #20]
 284:Src/usb_pd_protocol.c **** }
 2107              		.loc 1 284 0
 2108 01fc 0023     		movs	r3, #0
 2109 01fe E371     		strb	r3, [r4, #7]
 2110              	.LVL195:
 2111              	.LBE325:
 2112              	.LBE324:
 352:Src/usb_pd_protocol.c **** 
 2113              		.loc 1 352 0
 2114 0200 0533     		adds	r3, r3, #5
 2115 0202 2371     		strb	r3, [r4, #4]
 2116              	.LVL196:
 2117 0204 20E7     		b	.L133
 2118              	.LVL197:
 2119              	.L135:
 2120              	.LBE323:
 2121              	.LBE322:
1433:Src/usb_pd_protocol.c **** 			/*
 2122              		.loc 1 1433 0
 2123 0206 C201     		lsls	r2, r0, #7
 2124 0208 464B     		ldr	r3, .L200+4
 2125 020a 9B18     		adds	r3, r3, r2
ARM GAS  /tmp/ccWvVg6G.s 			page 79


 2126 020c 1B79     		ldrb	r3, [r3, #4]
 2127 020e 1E2B     		cmp	r3, #30
 2128 0210 18D0     		beq	.L188
1440:Src/usb_pd_protocol.c **** 			/* switch data role */
 2129              		.loc 1 1440 0
 2130 0212 192B     		cmp	r3, #25
 2131 0214 1FD0     		beq	.L189
1450:Src/usb_pd_protocol.c **** 			/* explicit contract goes away for power swap */
 2132              		.loc 1 1450 0
 2133 0216 1A2B     		cmp	r3, #26
 2134 0218 5BD0     		beq	.L190
1454:Src/usb_pd_protocol.c **** 			/* explicit contract goes away for power swap */
 2135              		.loc 1 1454 0
 2136 021a 092B     		cmp	r3, #9
 2137 021c 69D0     		beq	.L191
1458:Src/usb_pd_protocol.c **** 			/* explicit contract is now in place */
 2138              		.loc 1 1458 0
 2139 021e 062B     		cmp	r3, #6
 2140 0220 00D0     		beq	.LCB2225
 2141 0222 11E7     		b	.L133	@long jump
 2142              	.LCB2225:
1460:Src/usb_pd_protocol.c **** #ifdef CONFIG_BBRAM
 2143              		.loc 1 1460 0
 2144 0224 C401     		lsls	r4, r0, #7
 2145 0226 3F4B     		ldr	r3, .L200+4
 2146 0228 1C19     		adds	r4, r3, r4
 2147 022a 4023     		movs	r3, #64
 2148 022c A268     		ldr	r2, [r4, #8]
 2149 022e 1343     		orrs	r3, r2
 2150 0230 A360     		str	r3, [r4, #8]
 2151              	.LVL198:
 2152              	.LBB326:
 2153              	.LBB327:
 2154              	.LBB328:
 2155              	.LBB329:
 283:Src/usb_pd_protocol.c **** 	pd[port].timeout_state = timeout_state;
 2156              		.loc 1 283 0
 2157 0232 0022     		movs	r2, #0
 2158 0234 0023     		movs	r3, #0
 2159 0236 2261     		str	r2, [r4, #16]
 2160 0238 6361     		str	r3, [r4, #20]
 284:Src/usb_pd_protocol.c **** }
 2161              		.loc 1 284 0
 2162 023a 0023     		movs	r3, #0
 2163 023c E371     		strb	r3, [r4, #7]
 2164              	.LVL199:
 2165              	.LBE329:
 2166              	.LBE328:
 352:Src/usb_pd_protocol.c **** 
 2167              		.loc 1 352 0
 2168 023e 0733     		adds	r3, r3, #7
 2169 0240 2371     		strb	r3, [r4, #4]
 2170              	.LVL200:
 2171 0242 01E7     		b	.L133
 2172              	.LVL201:
 2173              	.L188:
 2174              	.LBE327:
ARM GAS  /tmp/ccWvVg6G.s 			page 80


 2175              	.LBE326:
1438:Src/usb_pd_protocol.c **** 			execute_soft_reset(port);
 2176              		.loc 1 1438 0
 2177 0244 374B     		ldr	r3, .L200+4
 2178 0246 9B18     		adds	r3, r3, r2
 2179 0248 8022     		movs	r2, #128
 2180 024a 9968     		ldr	r1, [r3, #8]
 2181              	.LVL202:
 2182 024c 9143     		bics	r1, r2
 2183 024e 9960     		str	r1, [r3, #8]
1439:Src/usb_pd_protocol.c **** 		} else if (pd[port].task_state == PD_STATE_DR_SWAP) {
 2184              		.loc 1 1439 0
 2185 0250 FFF7FEFF 		bl	execute_soft_reset
 2186              	.LVL203:
 2187 0254 F8E6     		b	.L133
 2188              	.LVL204:
 2189              	.L189:
1442:Src/usb_pd_protocol.c **** 			set_state(port, READY_RETURN_STATE(port));
 2190              		.loc 1 1442 0
 2191 0256 FFF7FEFF 		bl	pd_dr_swap
 2192              	.LVL205:
1443:Src/usb_pd_protocol.c **** #ifdef CONFIG_USB_PD_DUAL_ROLE
 2193              		.loc 1 1443 0
 2194 025a E301     		lsls	r3, r4, #7
 2195 025c 314A     		ldr	r2, .L200+4
 2196 025e 9B5C     		ldrb	r3, [r3, r2]
 2197 0260 002B     		cmp	r3, #0
 2198 0262 2AD0     		beq	.L192
 2199 0264 1722     		movs	r2, #23
 2200              	.L160:
 2201              	.LVL206:
 2202              	.LBB330:
 2203              	.LBB331:
 346:Src/usb_pd_protocol.c **** #ifdef CONFIG_LOW_POWER_IDLE
 2204              		.loc 1 346 0 discriminator 4
 2205 0266 E101     		lsls	r1, r4, #7
 2206 0268 2E4B     		ldr	r3, .L200+4
 2207 026a 5B18     		adds	r3, r3, r1
 2208 026c 1D79     		ldrb	r5, [r3, #4]
 2209              	.LVL207:
 2210              	.LBB332:
 2211              	.LBB333:
 283:Src/usb_pd_protocol.c **** 	pd[port].timeout_state = timeout_state;
 2212              		.loc 1 283 0 discriminator 4
 2213 026e 0020     		movs	r0, #0
 2214 0270 0021     		movs	r1, #0
 2215 0272 1861     		str	r0, [r3, #16]
 2216 0274 5961     		str	r1, [r3, #20]
 284:Src/usb_pd_protocol.c **** }
 2217              		.loc 1 284 0 discriminator 4
 2218 0276 0021     		movs	r1, #0
 2219 0278 D971     		strb	r1, [r3, #7]
 2220              	.LVL208:
 2221              	.LBE333:
 2222              	.LBE332:
 352:Src/usb_pd_protocol.c **** 
 2223              		.loc 1 352 0 discriminator 4
ARM GAS  /tmp/ccWvVg6G.s 			page 81


 2224 027a 1A71     		strb	r2, [r3, #4]
 354:Src/usb_pd_protocol.c **** 		return;
 2225              		.loc 1 354 0 discriminator 4
 2226 027c AA42     		cmp	r2, r5
 2227 027e 00D1     		bne	.LCB2322
 2228 0280 E2E6     		b	.L133	@long jump
 2229              	.LCB2322:
 365:Src/usb_pd_protocol.c **** 	     next_state == PD_STATE_SRC_DISCONNECTED) ||
 2230              		.loc 1 365 0
 2231 0282 022D     		cmp	r5, #2
 2232 0284 1BD0     		beq	.L193
 2233              	.L161:
 366:Src/usb_pd_protocol.c **** 	    (last_state == PD_STATE_SRC_DISCONNECTED &&
 2234              		.loc 1 366 0
 2235 0286 0E2D     		cmp	r5, #14
 2236 0288 1CD0     		beq	.L194
 2237              	.L162:
 371:Src/usb_pd_protocol.c **** 	    next_state == PD_STATE_SNK_DISCONNECTED) {
 2238              		.loc 1 371 0
 2239 028a 0E2A     		cmp	r2, #14
 2240 028c 02D0     		beq	.L163
 2241 028e 022A     		cmp	r2, #2
 2242 0290 00D0     		beq	.LCB2333
 2243 0292 D9E6     		b	.L133	@long jump
 2244              	.LCB2333:
 2245              	.L163:
 374:Src/usb_pd_protocol.c **** #ifdef CONFIG_CHARGE_MANAGER
 2246              		.loc 1 374 0
 2247 0294 0022     		movs	r2, #0
 2248              	.LVL209:
 2249 0296 0021     		movs	r1, #0
 2250 0298 2000     		movs	r0, r4
 2251 029a FFF7FEFF 		bl	pd_set_input_current_limit
 2252              	.LVL210:
 391:Src/usb_pd_protocol.c **** 			/*
 2253              		.loc 1 391 0
 2254 029e E301     		lsls	r3, r4, #7
 2255 02a0 204A     		ldr	r2, .L200+4
 2256 02a2 9B5C     		ldrb	r3, [r3, r2]
 2257 02a4 012B     		cmp	r3, #1
 2258 02a6 10D0     		beq	.L195
 2259              	.L164:
 2260              	.LVL211:
 2261              	.LBB334:
 2262              	.LBB335:
  92:Inc/tcpm.h    **** }
 2263              		.loc 2 92 0
 2264 02a8 2201     		lsls	r2, r4, #4
 2265 02aa 1F4B     		ldr	r3, .L200+8
 2266 02ac 9B18     		adds	r3, r3, r2
 2267 02ae 9B68     		ldr	r3, [r3, #8]
 2268 02b0 5B6A     		ldr	r3, [r3, #36]
 2269 02b2 0021     		movs	r1, #0
 2270 02b4 2000     		movs	r0, r4
 2271 02b6 9847     		blx	r3
 2272              	.LVL212:
 2273 02b8 C6E6     		b	.L133
ARM GAS  /tmp/ccWvVg6G.s 			page 82


 2274              	.LVL213:
 2275              	.L192:
 2276              	.LBE335:
 2277              	.LBE334:
 2278              	.LBE331:
 2279              	.LBE330:
1443:Src/usb_pd_protocol.c **** #ifdef CONFIG_USB_PD_DUAL_ROLE
 2280              		.loc 1 1443 0
 2281 02ba 0822     		movs	r2, #8
 2282 02bc D3E7     		b	.L160
 2283              	.LVL214:
 2284              	.L193:
 2285              	.LBB337:
 2286              	.LBB336:
 365:Src/usb_pd_protocol.c **** 	     next_state == PD_STATE_SRC_DISCONNECTED) ||
 2287              		.loc 1 365 0
 2288 02be 0E2A     		cmp	r2, #14
 2289 02c0 E1D1     		bne	.L161
 2290 02c2 C1E6     		b	.L133
 2291              	.L194:
 367:Src/usb_pd_protocol.c **** 	     next_state == PD_STATE_SNK_DISCONNECTED))
 2292              		.loc 1 367 0
 2293 02c4 022A     		cmp	r2, #2
 2294 02c6 E0D1     		bne	.L162
 2295 02c8 BEE6     		b	.L133
 2296              	.LVL215:
 2297              	.L195:
 396:Src/usb_pd_protocol.c **** #if !defined(CONFIG_USB_PD_MAX_SINGLE_SOURCE_CURRENT) && \
 2298              		.loc 1 396 0
 2299 02ca 2000     		movs	r0, r4
 2300 02cc FFF7FEFF 		bl	pd_power_supply_reset
 2301              	.LVL216:
 2302 02d0 EAE7     		b	.L164
 2303              	.LVL217:
 2304              	.L190:
 2305              	.LBE336:
 2306              	.LBE337:
1452:Src/usb_pd_protocol.c **** 			set_state(port, PD_STATE_SRC_SWAP_SNK_DISABLE);
 2307              		.loc 1 1452 0
 2308 02d2 C401     		lsls	r4, r0, #7
 2309 02d4 134B     		ldr	r3, .L200+4
 2310 02d6 1C19     		adds	r4, r3, r4
 2311 02d8 4023     		movs	r3, #64
 2312 02da A268     		ldr	r2, [r4, #8]
 2313 02dc 9A43     		bics	r2, r3
 2314 02de A260     		str	r2, [r4, #8]
 2315              	.LVL218:
 2316              	.LBB338:
 2317              	.LBB339:
 2318              	.LBB340:
 2319              	.LBB341:
 283:Src/usb_pd_protocol.c **** 	pd[port].timeout_state = timeout_state;
 2320              		.loc 1 283 0
 2321 02e0 0022     		movs	r2, #0
 2322 02e2 0023     		movs	r3, #0
 2323 02e4 2261     		str	r2, [r4, #16]
 2324 02e6 6361     		str	r3, [r4, #20]
ARM GAS  /tmp/ccWvVg6G.s 			page 83


 284:Src/usb_pd_protocol.c **** }
 2325              		.loc 1 284 0
 2326 02e8 0023     		movs	r3, #0
 2327 02ea E371     		strb	r3, [r4, #7]
 2328              	.LVL219:
 2329              	.LBE341:
 2330              	.LBE340:
 352:Src/usb_pd_protocol.c **** 
 2331              		.loc 1 352 0
 2332 02ec 1B33     		adds	r3, r3, #27
 2333 02ee 2371     		strb	r3, [r4, #4]
 2334              	.LVL220:
 2335 02f0 AAE6     		b	.L133
 2336              	.LVL221:
 2337              	.L191:
 2338              	.LBE339:
 2339              	.LBE338:
1456:Src/usb_pd_protocol.c **** 			set_state(port, PD_STATE_SNK_SWAP_SNK_DISABLE);
 2340              		.loc 1 1456 0
 2341 02f2 C401     		lsls	r4, r0, #7
 2342 02f4 0B4B     		ldr	r3, .L200+4
 2343 02f6 1C19     		adds	r4, r3, r4
 2344 02f8 4023     		movs	r3, #64
 2345 02fa A268     		ldr	r2, [r4, #8]
 2346 02fc 9A43     		bics	r2, r3
 2347 02fe A260     		str	r2, [r4, #8]
 2348              	.LVL222:
 2349              	.LBB342:
 2350              	.LBB343:
 2351              	.LBB344:
 2352              	.LBB345:
 283:Src/usb_pd_protocol.c **** 	pd[port].timeout_state = timeout_state;
 2353              		.loc 1 283 0
 2354 0300 0022     		movs	r2, #0
 2355 0302 0023     		movs	r3, #0
 2356 0304 2261     		str	r2, [r4, #16]
 2357 0306 6361     		str	r3, [r4, #20]
 284:Src/usb_pd_protocol.c **** }
 2358              		.loc 1 284 0
 2359 0308 0023     		movs	r3, #0
 2360 030a E371     		strb	r3, [r4, #7]
 2361              	.LVL223:
 2362              	.LBE345:
 2363              	.LBE344:
 352:Src/usb_pd_protocol.c **** 
 2364              		.loc 1 352 0
 2365 030c 0A33     		adds	r3, r3, #10
 2366 030e 2371     		strb	r3, [r4, #4]
 2367              	.LVL224:
 2368 0310 9AE6     		b	.L133
 2369              	.LVL225:
 2370              	.L144:
 2371              	.LBE343:
 2372              	.LBE342:
1469:Src/usb_pd_protocol.c **** 		/* We are done, acknowledge with an Accept packet */
 2373              		.loc 1 1469 0
 2374 0312 FFF7FEFF 		bl	execute_soft_reset
ARM GAS  /tmp/ccWvVg6G.s 			page 84


 2375              	.LVL226:
1471:Src/usb_pd_protocol.c **** 		break;
 2376              		.loc 1 1471 0
 2377 0316 0321     		movs	r1, #3
 2378 0318 2000     		movs	r0, r4
 2379 031a FFF7FEFF 		bl	send_control
 2380              	.LVL227:
1472:Src/usb_pd_protocol.c **** 	case PD_CTRL_PR_SWAP:
 2381              		.loc 1 1472 0
 2382 031e 93E6     		b	.L133
 2383              	.L201:
 2384              		.align	2
 2385              	.L200:
 2386 0320 00000000 		.word	.L136
 2387 0324 00000000 		.word	pd
 2388 0328 00000000 		.word	tcpc_config
 2389 032c A0860100 		.word	100000
 2390              	.LVL228:
 2391              	.L142:
1475:Src/usb_pd_protocol.c **** 			send_control(port, PD_CTRL_ACCEPT);
 2392              		.loc 1 1475 0
 2393 0330 FFF7FEFF 		bl	pd_check_power_swap
 2394              	.LVL229:
 2395 0334 0028     		cmp	r0, #0
 2396 0336 44D0     		beq	.L167
1476:Src/usb_pd_protocol.c **** 			/*
 2397              		.loc 1 1476 0
 2398 0338 0321     		movs	r1, #3
 2399 033a 2000     		movs	r0, r4
 2400 033c FFF7FEFF 		bl	send_control
 2401              	.LVL230:
1481:Src/usb_pd_protocol.c **** 			set_state(port,
 2402              		.loc 1 1481 0
 2403 0340 344A     		ldr	r2, .L202
 2404 0342 E101     		lsls	r1, r4, #7
 2405 0344 5018     		adds	r0, r2, r1
 2406 0346 344B     		ldr	r3, .L202+4
 2407 0348 8568     		ldr	r5, [r0, #8]
 2408 034a 2B40     		ands	r3, r5
 2409 034c 8360     		str	r3, [r0, #8]
1483:Src/usb_pd_protocol.c **** 					PD_STATE_SNK_SWAP_SNK_DISABLE,
 2410              		.loc 1 1483 0
 2411 034e 8B5C     		ldrb	r3, [r1, r2]
1482:Src/usb_pd_protocol.c **** 				  DUAL_ROLE_IF_ELSE(port,
 2412              		.loc 1 1482 0
 2413 0350 002B     		cmp	r3, #0
 2414 0352 2AD0     		beq	.L196
 2415 0354 1B22     		movs	r2, #27
 2416              	.L168:
 2417              	.LVL231:
 2418              	.LBB346:
 2419              	.LBB347:
 346:Src/usb_pd_protocol.c **** #ifdef CONFIG_LOW_POWER_IDLE
 2420              		.loc 1 346 0 discriminator 4
 2421 0356 E101     		lsls	r1, r4, #7
 2422 0358 2E4B     		ldr	r3, .L202
 2423 035a 5B18     		adds	r3, r3, r1
ARM GAS  /tmp/ccWvVg6G.s 			page 85


 2424 035c 1D79     		ldrb	r5, [r3, #4]
 2425              	.LVL232:
 2426              	.LBB348:
 2427              	.LBB349:
 283:Src/usb_pd_protocol.c **** 	pd[port].timeout_state = timeout_state;
 2428              		.loc 1 283 0 discriminator 4
 2429 035e 0020     		movs	r0, #0
 2430 0360 0021     		movs	r1, #0
 2431 0362 1861     		str	r0, [r3, #16]
 2432 0364 5961     		str	r1, [r3, #20]
 284:Src/usb_pd_protocol.c **** }
 2433              		.loc 1 284 0 discriminator 4
 2434 0366 0021     		movs	r1, #0
 2435 0368 D971     		strb	r1, [r3, #7]
 2436              	.LVL233:
 2437              	.LBE349:
 2438              	.LBE348:
 352:Src/usb_pd_protocol.c **** 
 2439              		.loc 1 352 0 discriminator 4
 2440 036a 1A71     		strb	r2, [r3, #4]
 354:Src/usb_pd_protocol.c **** 		return;
 2441              		.loc 1 354 0 discriminator 4
 2442 036c AA42     		cmp	r2, r5
 2443 036e 00D1     		bne	.LCB2571
 2444 0370 6AE6     		b	.L133	@long jump
 2445              	.LCB2571:
 365:Src/usb_pd_protocol.c **** 	     next_state == PD_STATE_SRC_DISCONNECTED) ||
 2446              		.loc 1 365 0
 2447 0372 022D     		cmp	r5, #2
 2448 0374 1BD0     		beq	.L197
 2449              	.L169:
 366:Src/usb_pd_protocol.c **** 	    (last_state == PD_STATE_SRC_DISCONNECTED &&
 2450              		.loc 1 366 0
 2451 0376 0E2D     		cmp	r5, #14
 2452 0378 1CD0     		beq	.L198
 2453              	.L170:
 371:Src/usb_pd_protocol.c **** 	    next_state == PD_STATE_SNK_DISCONNECTED) {
 2454              		.loc 1 371 0
 2455 037a 0E2A     		cmp	r2, #14
 2456 037c 02D0     		beq	.L171
 2457 037e 022A     		cmp	r2, #2
 2458 0380 00D0     		beq	.LCB2582
 2459 0382 61E6     		b	.L133	@long jump
 2460              	.LCB2582:
 2461              	.L171:
 374:Src/usb_pd_protocol.c **** #ifdef CONFIG_CHARGE_MANAGER
 2462              		.loc 1 374 0
 2463 0384 0022     		movs	r2, #0
 2464              	.LVL234:
 2465 0386 0021     		movs	r1, #0
 2466 0388 2000     		movs	r0, r4
 2467 038a FFF7FEFF 		bl	pd_set_input_current_limit
 2468              	.LVL235:
 391:Src/usb_pd_protocol.c **** 			/*
 2469              		.loc 1 391 0
 2470 038e E301     		lsls	r3, r4, #7
 2471 0390 204A     		ldr	r2, .L202
ARM GAS  /tmp/ccWvVg6G.s 			page 86


 2472 0392 9B5C     		ldrb	r3, [r3, r2]
 2473 0394 012B     		cmp	r3, #1
 2474 0396 10D0     		beq	.L199
 2475              	.L172:
 2476              	.LVL236:
 2477              	.LBB350:
 2478              	.LBB351:
  92:Inc/tcpm.h    **** }
 2479              		.loc 2 92 0
 2480 0398 2201     		lsls	r2, r4, #4
 2481 039a 204B     		ldr	r3, .L202+8
 2482 039c 9B18     		adds	r3, r3, r2
 2483 039e 9B68     		ldr	r3, [r3, #8]
 2484 03a0 5B6A     		ldr	r3, [r3, #36]
 2485 03a2 0021     		movs	r1, #0
 2486 03a4 2000     		movs	r0, r4
 2487 03a6 9847     		blx	r3
 2488              	.LVL237:
 2489 03a8 4EE6     		b	.L133
 2490              	.LVL238:
 2491              	.L196:
 2492              	.LBE351:
 2493              	.LBE350:
 2494              	.LBE347:
 2495              	.LBE346:
1482:Src/usb_pd_protocol.c **** 				  DUAL_ROLE_IF_ELSE(port,
 2496              		.loc 1 1482 0
 2497 03aa 0A22     		movs	r2, #10
 2498 03ac D3E7     		b	.L168
 2499              	.LVL239:
 2500              	.L197:
 2501              	.LBB353:
 2502              	.LBB352:
 365:Src/usb_pd_protocol.c **** 	     next_state == PD_STATE_SRC_DISCONNECTED) ||
 2503              		.loc 1 365 0
 2504 03ae 0E2A     		cmp	r2, #14
 2505 03b0 E1D1     		bne	.L169
 2506 03b2 49E6     		b	.L133
 2507              	.L198:
 367:Src/usb_pd_protocol.c **** 	     next_state == PD_STATE_SNK_DISCONNECTED))
 2508              		.loc 1 367 0
 2509 03b4 022A     		cmp	r2, #2
 2510 03b6 E0D1     		bne	.L170
 2511 03b8 46E6     		b	.L133
 2512              	.LVL240:
 2513              	.L199:
 396:Src/usb_pd_protocol.c **** #if !defined(CONFIG_USB_PD_MAX_SINGLE_SOURCE_CURRENT) && \
 2514              		.loc 1 396 0
 2515 03ba 2000     		movs	r0, r4
 2516 03bc FFF7FEFF 		bl	pd_power_supply_reset
 2517              	.LVL241:
 2518 03c0 EAE7     		b	.L172
 2519              	.LVL242:
 2520              	.L167:
 2521              	.LBE352:
 2522              	.LBE353:
1487:Src/usb_pd_protocol.c **** 		}
ARM GAS  /tmp/ccWvVg6G.s 			page 87


 2523              		.loc 1 1487 0
 2524 03c2 0421     		movs	r1, #4
 2525 03c4 2000     		movs	r0, r4
 2526 03c6 FFF7FEFF 		bl	send_control
 2527              	.LVL243:
 2528 03ca 3DE6     		b	.L133
 2529              	.LVL244:
 2530              	.L141:
1494:Src/usb_pd_protocol.c **** 			/*
 2531              		.loc 1 1494 0
 2532 03cc C201     		lsls	r2, r0, #7
 2533 03ce 114B     		ldr	r3, .L202
 2534 03d0 9B18     		adds	r3, r3, r2
 2535 03d2 5978     		ldrb	r1, [r3, #1]
 2536              	.LVL245:
 2537 03d4 FFF7FEFF 		bl	pd_check_data_swap
 2538              	.LVL246:
 2539 03d8 0028     		cmp	r0, #0
 2540 03da 11D0     		beq	.L173
1500:Src/usb_pd_protocol.c **** 			if (send_control(port, PD_CTRL_ACCEPT) >= 0)
 2541              		.loc 1 1500 0
 2542 03dc E201     		lsls	r2, r4, #7
 2543 03de 0D4B     		ldr	r3, .L202
 2544 03e0 9B18     		adds	r3, r3, r2
 2545 03e2 0F4A     		ldr	r2, .L202+12
 2546 03e4 9968     		ldr	r1, [r3, #8]
 2547 03e6 0A40     		ands	r2, r1
 2548 03e8 9A60     		str	r2, [r3, #8]
1501:Src/usb_pd_protocol.c **** 				pd_dr_swap(port);
 2549              		.loc 1 1501 0
 2550 03ea 0321     		movs	r1, #3
 2551 03ec 2000     		movs	r0, r4
 2552 03ee FFF7FEFF 		bl	send_control
 2553              	.LVL247:
 2554 03f2 0028     		cmp	r0, #0
 2555 03f4 00DA     		bge	.LCB2697
 2556 03f6 27E6     		b	.L133	@long jump
 2557              	.LCB2697:
1502:Src/usb_pd_protocol.c **** 		} else {
 2558              		.loc 1 1502 0
 2559 03f8 2000     		movs	r0, r4
 2560 03fa FFF7FEFF 		bl	pd_dr_swap
 2561              	.LVL248:
 2562 03fe 23E6     		b	.L133
 2563              	.L173:
1504:Src/usb_pd_protocol.c **** 
 2564              		.loc 1 1504 0
 2565 0400 0421     		movs	r1, #4
 2566 0402 2000     		movs	r0, r4
 2567 0404 FFF7FEFF 		bl	send_control
 2568              	.LVL249:
 2569 0408 1EE6     		b	.L133
 2570              	.LVL250:
 2571              	.L143:
1521:Src/usb_pd_protocol.c **** #endif
 2572              		.loc 1 1521 0
 2573 040a 0421     		movs	r1, #4
ARM GAS  /tmp/ccWvVg6G.s 			page 88


 2574              	.LVL251:
 2575 040c FFF7FEFF 		bl	send_control
 2576              	.LVL252:
1530:Src/usb_pd_protocol.c **** 
 2577              		.loc 1 1530 0
 2578 0410 1AE6     		b	.L133
 2579              	.L203:
 2580 0412 C046     		.align	2
 2581              	.L202:
 2582 0414 00000000 		.word	pd
 2583 0418 FFFDFFFF 		.word	-513
 2584 041c 00000000 		.word	tcpc_config
 2585 0420 FFFBFFFF 		.word	-1025
 2586              		.cfi_endproc
 2587              	.LFE45:
 2589              		.section	.text.handle_data_request,"ax",%progbits
 2590              		.align	1
 2591              		.syntax unified
 2592              		.code	16
 2593              		.thumb_func
 2594              		.fpu softvfp
 2596              	handle_data_request:
 2597              	.LFB40:
1099:Src/usb_pd_protocol.c **** 	int type = PD_HEADER_TYPE(head);
 2598              		.loc 1 1099 0
 2599              		.cfi_startproc
 2600              		@ args = 0, pretend = 0, frame = 0
 2601              		@ frame_needed = 0, uses_anonymous_args = 0
 2602              	.LVL253:
 2603 0000 70B5     		push	{r4, r5, r6, lr}
 2604              	.LCFI21:
 2605              		.cfi_def_cfa_offset 16
 2606              		.cfi_offset 4, -16
 2607              		.cfi_offset 5, -12
 2608              		.cfi_offset 6, -8
 2609              		.cfi_offset 14, -4
 2610 0002 0400     		movs	r4, r0
 2611 0004 1600     		movs	r6, r2
 2612              	.LVL254:
1101:Src/usb_pd_protocol.c **** 
 2613              		.loc 1 1101 0
 2614 0006 0B0B     		lsrs	r3, r1, #12
 2615 0008 0725     		movs	r5, #7
 2616 000a 1D40     		ands	r5, r3
 2617              	.LVL255:
1103:Src/usb_pd_protocol.c **** #ifdef CONFIG_USB_PD_DUAL_ROLE
 2618              		.loc 1 1103 0
 2619 000c 0F23     		movs	r3, #15
 2620 000e 1940     		ands	r1, r3
 2621              	.LVL256:
 2622 0010 8900     		lsls	r1, r1, #2
 2623 0012 6D4B     		ldr	r3, .L227
 2624 0014 5B58     		ldr	r3, [r3, r1]
 2625 0016 9F46     		mov	pc, r3
 2626              		.section	.rodata.handle_data_request,"a",%progbits
 2627              		.align	2
 2628              	.L207:
ARM GAS  /tmp/ccWvVg6G.s 			page 89


 2629 0000 C6010000 		.word	.L204
 2630 0004 18000000 		.word	.L206
 2631 0008 64000000 		.word	.L208
 2632 000c D6000000 		.word	.L209
 2633 0010 8E010000 		.word	.L210
 2634 0014 C6010000 		.word	.L204
 2635 0018 C6010000 		.word	.L204
 2636 001c C6010000 		.word	.L204
 2637 0020 C6010000 		.word	.L204
 2638 0024 C6010000 		.word	.L204
 2639 0028 C6010000 		.word	.L204
 2640 002c C6010000 		.word	.L204
 2641 0030 C6010000 		.word	.L204
 2642 0034 C6010000 		.word	.L204
 2643 0038 C6010000 		.word	.L204
 2644 003c C0010000 		.word	.L211
 2645              		.section	.text.handle_data_request
 2646              	.L206:
1106:Src/usb_pd_protocol.c **** 			|| (pd[port].task_state == PD_STATE_SNK_TRANSITION)
 2647              		.loc 1 1106 0
 2648 0018 C201     		lsls	r2, r0, #7
 2649              	.LVL257:
 2650 001a 6C4B     		ldr	r3, .L227+4
 2651 001c 9B18     		adds	r3, r3, r2
 2652 001e 1B79     		ldrb	r3, [r3, #4]
 2653 0020 052B     		cmp	r3, #5
 2654 0022 04D0     		beq	.L212
1107:Src/usb_pd_protocol.c **** #ifdef CONFIG_USB_PD_VBUS_DETECT_NONE
 2655              		.loc 1 1107 0
 2656 0024 072B     		cmp	r3, #7
 2657 0026 02D0     		beq	.L212
1112:Src/usb_pd_protocol.c **** #ifdef CONFIG_USB_PD_REV30
 2658              		.loc 1 1112 0
 2659 0028 082B     		cmp	r3, #8
 2660 002a 00D0     		beq	.LCB2783
 2661 002c CBE0     		b	.L204	@long jump
 2662              	.LCB2783:
 2663              	.L212:
1121:Src/usb_pd_protocol.c **** 
 2664              		.loc 1 1121 0
 2665 002e E201     		lsls	r2, r4, #7
 2666 0030 664B     		ldr	r3, .L227+4
 2667 0032 9B18     		adds	r3, r3, r2
 2668 0034 8022     		movs	r2, #128
 2669 0036 5200     		lsls	r2, r2, #1
 2670 0038 9968     		ldr	r1, [r3, #8]
 2671 003a 0A43     		orrs	r2, r1
 2672 003c 9A60     		str	r2, [r3, #8]
1124:Src/usb_pd_protocol.c **** 
 2673              		.loc 1 1124 0
 2674 003e 3168     		ldr	r1, [r6]
 2675 0040 2000     		movs	r0, r4
 2676              	.LVL258:
 2677 0042 FFF7FEFF 		bl	pd_update_pdo_flags
 2678              	.LVL259:
1126:Src/usb_pd_protocol.c **** 			pd_process_source_cap_callback(port, cnt, payload);
 2679              		.loc 1 1126 0
ARM GAS  /tmp/ccWvVg6G.s 			page 90


 2680 0046 3200     		movs	r2, r6
 2681 0048 2900     		movs	r1, r5
 2682 004a 2000     		movs	r0, r4
 2683 004c FFF7FEFF 		bl	pd_process_source_cap
 2684              	.LVL260:
1127:Src/usb_pd_protocol.c **** 
 2685              		.loc 1 1127 0
 2686 0050 3200     		movs	r2, r6
 2687 0052 2900     		movs	r1, r5
 2688 0054 2000     		movs	r0, r4
 2689 0056 FFF7FEFF 		bl	pd_process_source_cap_callback
 2690              	.LVL261:
1130:Src/usb_pd_protocol.c **** 		}
 2691              		.loc 1 1130 0
 2692 005a 0121     		movs	r1, #1
 2693 005c 2000     		movs	r0, r4
 2694 005e FFF7FEFF 		bl	pd_send_request_msg
 2695              	.LVL262:
 2696 0062 B0E0     		b	.L204
 2697              	.LVL263:
 2698              	.L208:
1135:Src/usb_pd_protocol.c **** #ifdef CONFIG_USB_PD_REV30
 2699              		.loc 1 1135 0
 2700 0064 C301     		lsls	r3, r0, #7
 2701 0066 594A     		ldr	r2, .L227+4
 2702              	.LVL264:
 2703 0068 9B5C     		ldrb	r3, [r3, r2]
 2704 006a 012B     		cmp	r3, #1
 2705 006c 01D1     		bne	.L213
1135:Src/usb_pd_protocol.c **** #ifdef CONFIG_USB_PD_REV30
 2706              		.loc 1 1135 0 is_stmt 0 discriminator 1
 2707 006e 012D     		cmp	r5, #1
 2708 0070 0FD0     		beq	.L222
 2709              	.LVL265:
 2710              	.L213:
1174:Src/usb_pd_protocol.c **** 		/* keep last contract in place (whether implicit or explicit) */
 2711              		.loc 1 1174 0 is_stmt 1
 2712 0072 0421     		movs	r1, #4
 2713 0074 2000     		movs	r0, r4
 2714 0076 FFF7FEFF 		bl	send_control
 2715              	.LVL266:
 2716              	.LBB378:
 2717              	.LBB379:
 2718              	.LBB380:
 2719              	.LBB381:
 283:Src/usb_pd_protocol.c **** 	pd[port].timeout_state = timeout_state;
 2720              		.loc 1 283 0
 2721 007a E401     		lsls	r4, r4, #7
 2722              	.LVL267:
 2723 007c 534B     		ldr	r3, .L227+4
 2724 007e 1C19     		adds	r4, r3, r4
 2725 0080 0022     		movs	r2, #0
 2726 0082 0023     		movs	r3, #0
 2727 0084 2261     		str	r2, [r4, #16]
 2728 0086 6361     		str	r3, [r4, #20]
 284:Src/usb_pd_protocol.c **** }
 2729              		.loc 1 284 0
ARM GAS  /tmp/ccWvVg6G.s 			page 91


 2730 0088 0023     		movs	r3, #0
 2731 008a E371     		strb	r3, [r4, #7]
 2732              	.LVL268:
 2733              	.LBE381:
 2734              	.LBE380:
 352:Src/usb_pd_protocol.c **** 
 2735              		.loc 1 352 0
 2736 008c 1733     		adds	r3, r3, #23
 2737 008e 2371     		strb	r3, [r4, #4]
 2738              	.LVL269:
 2739 0090 99E0     		b	.L204
 2740              	.LVL270:
 2741              	.L222:
 2742              	.LBE379:
 2743              	.LBE378:
1143:Src/usb_pd_protocol.c **** 				if (send_control(port, PD_CTRL_ACCEPT) < 0)
 2744              		.loc 1 1143 0
 2745 0092 0100     		movs	r1, r0
 2746 0094 3068     		ldr	r0, [r6]
 2747              	.LVL271:
 2748 0096 FFF7FEFF 		bl	pd_check_requested_voltage
 2749              	.LVL272:
 2750 009a 0028     		cmp	r0, #0
 2751 009c E9D1     		bne	.L213
1144:Src/usb_pd_protocol.c **** 					/*
 2752              		.loc 1 1144 0
 2753 009e 0321     		movs	r1, #3
 2754 00a0 2000     		movs	r0, r4
 2755 00a2 FFF7FEFF 		bl	send_control
 2756              	.LVL273:
 2757 00a6 0028     		cmp	r0, #0
 2758 00a8 00DA     		bge	.LCB2888
 2759 00aa 8CE0     		b	.L204	@long jump
 2760              	.LCB2888:
1153:Src/usb_pd_protocol.c **** #ifdef CONFIG_USB_PD_REV30
 2761              		.loc 1 1153 0
 2762 00ac E401     		lsls	r4, r4, #7
 2763              	.LVL274:
 2764 00ae 474B     		ldr	r3, .L227+4
 2765 00b0 1C19     		adds	r4, r3, r4
 2766 00b2 4023     		movs	r3, #64
 2767 00b4 A268     		ldr	r2, [r4, #8]
 2768 00b6 1343     		orrs	r3, r2
 2769 00b8 A360     		str	r3, [r4, #8]
1168:Src/usb_pd_protocol.c **** 				set_state(port, PD_STATE_SRC_ACCEPTED);
 2770              		.loc 1 1168 0
 2771 00ba 3268     		ldr	r2, [r6]
 2772 00bc 120F     		lsrs	r2, r2, #28
 2773 00be 0723     		movs	r3, #7
 2774 00c0 1340     		ands	r3, r2
 2775 00c2 E362     		str	r3, [r4, #44]
 2776              	.LVL275:
 2777              	.LBB382:
 2778              	.LBB383:
 2779              	.LBB384:
 2780              	.LBB385:
 283:Src/usb_pd_protocol.c **** 	pd[port].timeout_state = timeout_state;
ARM GAS  /tmp/ccWvVg6G.s 			page 92


 2781              		.loc 1 283 0
 2782 00c4 0022     		movs	r2, #0
 2783 00c6 0023     		movs	r3, #0
 2784 00c8 2261     		str	r2, [r4, #16]
 2785 00ca 6361     		str	r3, [r4, #20]
 284:Src/usb_pd_protocol.c **** }
 2786              		.loc 1 284 0
 2787 00cc 0023     		movs	r3, #0
 2788 00ce E371     		strb	r3, [r4, #7]
 2789              	.LVL276:
 2790              	.LBE385:
 2791              	.LBE384:
 352:Src/usb_pd_protocol.c **** 
 2792              		.loc 1 352 0
 2793 00d0 1433     		adds	r3, r3, #20
 2794 00d2 2371     		strb	r3, [r4, #4]
 2795              	.LVL277:
 2796 00d4 77E0     		b	.L204
 2797              	.LVL278:
 2798              	.L209:
 2799              	.LBE383:
 2800              	.LBE382:
1180:Src/usb_pd_protocol.c **** 				pd[port].task_state == PD_STATE_SNK_READY,
 2801              		.loc 1 1180 0
 2802 00d6 C301     		lsls	r3, r0, #7
 2803 00d8 3C4A     		ldr	r2, .L227+4
 2804              	.LVL279:
 2805 00da 9B5C     		ldrb	r3, [r3, r2]
 2806 00dc 002B     		cmp	r3, #0
 2807 00de 41D1     		bne	.L214
1180:Src/usb_pd_protocol.c **** 				pd[port].task_state == PD_STATE_SNK_READY,
 2808              		.loc 1 1180 0 is_stmt 0 discriminator 1
 2809 00e0 C201     		lsls	r2, r0, #7
 2810 00e2 3A4B     		ldr	r3, .L227+4
 2811 00e4 9B18     		adds	r3, r3, r2
 2812 00e6 1B79     		ldrb	r3, [r3, #4]
 2813 00e8 083B     		subs	r3, r3, #8
 2814 00ea 5A42     		rsbs	r2, r3, #0
 2815 00ec 5341     		adcs	r3, r3, r2
 2816 00ee DBB2     		uxtb	r3, r3
 2817              	.L215:
1180:Src/usb_pd_protocol.c **** 				pd[port].task_state == PD_STATE_SNK_READY,
 2818              		.loc 1 1180 0 discriminator 4
 2819 00f0 002B     		cmp	r3, #0
 2820 00f2 68D0     		beq	.L204
1184:Src/usb_pd_protocol.c **** 				/* bist data object mode is 2 */
 2821              		.loc 1 1184 0 is_stmt 1
 2822 00f4 3368     		ldr	r3, [r6]
 2823 00f6 1B0F     		lsrs	r3, r3, #28
 2824 00f8 052B     		cmp	r3, #5
 2825 00fa 64D1     		bne	.L204
1186:Src/usb_pd_protocol.c **** 					    NULL);
 2826              		.loc 1 1186 0
 2827 00fc 0023     		movs	r3, #0
 2828 00fe 0022     		movs	r2, #0
 2829 0100 0721     		movs	r1, #7
 2830 0102 2000     		movs	r0, r4
ARM GAS  /tmp/ccWvVg6G.s 			page 93


 2831              	.LVL280:
 2832 0104 FFF7FEFF 		bl	pd_transmit
 2833              	.LVL281:
1189:Src/usb_pd_protocol.c **** 						PD_STATE_SNK_DISCONNECTED,
 2834              		.loc 1 1189 0
 2835 0108 E301     		lsls	r3, r4, #7
 2836 010a 304A     		ldr	r2, .L227+4
 2837 010c 9B5C     		ldrb	r3, [r3, r2]
 2838 010e 002B     		cmp	r3, #0
 2839 0110 31D0     		beq	.L223
 2840 0112 0E22     		movs	r2, #14
 2841              	.L216:
 2842              	.LVL282:
 2843              	.LBB386:
 2844              	.LBB387:
 346:Src/usb_pd_protocol.c **** #ifdef CONFIG_LOW_POWER_IDLE
 2845              		.loc 1 346 0 discriminator 4
 2846 0114 E101     		lsls	r1, r4, #7
 2847 0116 2D4B     		ldr	r3, .L227+4
 2848 0118 5B18     		adds	r3, r3, r1
 2849 011a 1D79     		ldrb	r5, [r3, #4]
 2850              	.LVL283:
 2851              	.LBB388:
 2852              	.LBB389:
 283:Src/usb_pd_protocol.c **** 	pd[port].timeout_state = timeout_state;
 2853              		.loc 1 283 0 discriminator 4
 2854 011c 0020     		movs	r0, #0
 2855 011e 0021     		movs	r1, #0
 2856 0120 1861     		str	r0, [r3, #16]
 2857 0122 5961     		str	r1, [r3, #20]
 284:Src/usb_pd_protocol.c **** }
 2858              		.loc 1 284 0 discriminator 4
 2859 0124 0021     		movs	r1, #0
 2860 0126 D971     		strb	r1, [r3, #7]
 2861              	.LVL284:
 2862              	.LBE389:
 2863              	.LBE388:
 352:Src/usb_pd_protocol.c **** 
 2864              		.loc 1 352 0 discriminator 4
 2865 0128 1A71     		strb	r2, [r3, #4]
 354:Src/usb_pd_protocol.c **** 		return;
 2866              		.loc 1 354 0 discriminator 4
 2867 012a AA42     		cmp	r2, r5
 2868 012c 4BD0     		beq	.L204
 365:Src/usb_pd_protocol.c **** 	     next_state == PD_STATE_SRC_DISCONNECTED) ||
 2869              		.loc 1 365 0
 2870 012e 022D     		cmp	r5, #2
 2871 0130 23D0     		beq	.L224
 2872              	.L217:
 366:Src/usb_pd_protocol.c **** 	    (last_state == PD_STATE_SRC_DISCONNECTED &&
 2873              		.loc 1 366 0
 2874 0132 0E2D     		cmp	r5, #14
 2875 0134 24D0     		beq	.L225
 2876              	.L218:
 371:Src/usb_pd_protocol.c **** 	    next_state == PD_STATE_SNK_DISCONNECTED) {
 2877              		.loc 1 371 0
 2878 0136 0E2A     		cmp	r2, #14
ARM GAS  /tmp/ccWvVg6G.s 			page 94


 2879 0138 01D0     		beq	.L219
 2880 013a 022A     		cmp	r2, #2
 2881 013c 43D1     		bne	.L204
 2882              	.L219:
 374:Src/usb_pd_protocol.c **** #ifdef CONFIG_CHARGE_MANAGER
 2883              		.loc 1 374 0
 2884 013e 0022     		movs	r2, #0
 2885              	.LVL285:
 2886 0140 0021     		movs	r1, #0
 2887 0142 2000     		movs	r0, r4
 2888 0144 FFF7FEFF 		bl	pd_set_input_current_limit
 2889              	.LVL286:
 391:Src/usb_pd_protocol.c **** 			/*
 2890              		.loc 1 391 0
 2891 0148 E301     		lsls	r3, r4, #7
 2892 014a 204A     		ldr	r2, .L227+4
 2893 014c 9B5C     		ldrb	r3, [r3, r2]
 2894 014e 012B     		cmp	r3, #1
 2895 0150 19D0     		beq	.L226
 2896              	.L220:
 2897              	.LVL287:
 2898              	.LBB390:
 2899              	.LBB391:
  92:Inc/tcpm.h    **** }
 2900              		.loc 2 92 0
 2901 0152 2201     		lsls	r2, r4, #4
 2902 0154 1E4B     		ldr	r3, .L227+8
 2903 0156 9B18     		adds	r3, r3, r2
 2904 0158 9B68     		ldr	r3, [r3, #8]
 2905 015a 5B6A     		ldr	r3, [r3, #36]
 2906 015c 0021     		movs	r1, #0
 2907 015e 2000     		movs	r0, r4
 2908 0160 9847     		blx	r3
 2909              	.LVL288:
 2910 0162 30E0     		b	.L204
 2911              	.LVL289:
 2912              	.L214:
 2913              	.LBE391:
 2914              	.LBE390:
 2915              	.LBE387:
 2916              	.LBE386:
1180:Src/usb_pd_protocol.c **** 				pd[port].task_state == PD_STATE_SNK_READY,
 2917              		.loc 1 1180 0 discriminator 2
 2918 0164 C201     		lsls	r2, r0, #7
 2919 0166 194B     		ldr	r3, .L227+4
 2920 0168 9B18     		adds	r3, r3, r2
 2921 016a 1B79     		ldrb	r3, [r3, #4]
 2922 016c 173B     		subs	r3, r3, #23
 2923 016e 5A42     		rsbs	r2, r3, #0
 2924 0170 5341     		adcs	r3, r3, r2
 2925 0172 DBB2     		uxtb	r3, r3
 2926 0174 BCE7     		b	.L215
 2927              	.LVL290:
 2928              	.L223:
1189:Src/usb_pd_protocol.c **** 						PD_STATE_SNK_DISCONNECTED,
 2929              		.loc 1 1189 0
 2930 0176 0222     		movs	r2, #2
ARM GAS  /tmp/ccWvVg6G.s 			page 95


 2931 0178 CCE7     		b	.L216
 2932              	.LVL291:
 2933              	.L224:
 2934              	.LBB393:
 2935              	.LBB392:
 365:Src/usb_pd_protocol.c **** 	     next_state == PD_STATE_SRC_DISCONNECTED) ||
 2936              		.loc 1 365 0
 2937 017a 0E2A     		cmp	r2, #14
 2938 017c D9D1     		bne	.L217
 2939 017e 22E0     		b	.L204
 2940              	.L225:
 367:Src/usb_pd_protocol.c **** 	     next_state == PD_STATE_SNK_DISCONNECTED))
 2941              		.loc 1 367 0
 2942 0180 022A     		cmp	r2, #2
 2943 0182 D8D1     		bne	.L218
 2944 0184 1FE0     		b	.L204
 2945              	.LVL292:
 2946              	.L226:
 396:Src/usb_pd_protocol.c **** #if !defined(CONFIG_USB_PD_MAX_SINGLE_SOURCE_CURRENT) && \
 2947              		.loc 1 396 0
 2948 0186 2000     		movs	r0, r4
 2949 0188 FFF7FEFF 		bl	pd_power_supply_reset
 2950              	.LVL293:
 2951 018c E1E7     		b	.L220
 2952              	.LVL294:
 2953              	.L210:
 2954              	.LBE392:
 2955              	.LBE393:
1196:Src/usb_pd_protocol.c **** 		/* snk cap 0 should be fixed PDO */
 2956              		.loc 1 1196 0
 2957 018e C301     		lsls	r3, r0, #7
 2958 0190 0E4D     		ldr	r5, .L227+4
 2959              	.LVL295:
 2960 0192 ED18     		adds	r5, r5, r3
 2961 0194 1023     		movs	r3, #16
 2962 0196 AA68     		ldr	r2, [r5, #8]
 2963              	.LVL296:
 2964 0198 1343     		orrs	r3, r2
 2965 019a AB60     		str	r3, [r5, #8]
1198:Src/usb_pd_protocol.c **** 		if (pd[port].task_state == PD_STATE_SRC_GET_SINK_CAP)
 2966              		.loc 1 1198 0
 2967 019c 3168     		ldr	r1, [r6]
 2968 019e FFF7FEFF 		bl	pd_update_pdo_flags
 2969              	.LVL297:
1199:Src/usb_pd_protocol.c **** 			set_state(port, PD_STATE_SRC_READY);
 2970              		.loc 1 1199 0
 2971 01a2 2B79     		ldrb	r3, [r5, #4]
 2972 01a4 182B     		cmp	r3, #24
 2973 01a6 0ED1     		bne	.L204
 2974              	.LVL298:
 2975              	.LBB394:
 2976              	.LBB395:
 2977              	.LBB396:
 2978              	.LBB397:
 283:Src/usb_pd_protocol.c **** 	pd[port].timeout_state = timeout_state;
 2979              		.loc 1 283 0
 2980 01a8 E401     		lsls	r4, r4, #7
ARM GAS  /tmp/ccWvVg6G.s 			page 96


 2981              	.LVL299:
 2982 01aa 084B     		ldr	r3, .L227+4
 2983 01ac 1C19     		adds	r4, r3, r4
 2984 01ae 0022     		movs	r2, #0
 2985 01b0 0023     		movs	r3, #0
 2986 01b2 2261     		str	r2, [r4, #16]
 2987 01b4 6361     		str	r3, [r4, #20]
 284:Src/usb_pd_protocol.c **** }
 2988              		.loc 1 284 0
